TMS320C2000 Assembler PC v6.4.11 Sat Nov 26 19:25:36 2016

Tools Copyright (c) 1996-2015 Texas Instruments Incorporated
C:\Users\bee25\AppData\Local\Temp\3412010                            PAGE    1

       1              ;***************************************************************
       2              ;* TMS320C2000 C/C++ Codegen                        PC v6.4.11 *
       3              ;* Date/Time created: Sat Nov 26 19:25:36 2016                 *
       4              ;***************************************************************
       5                      .compiler_opts --float_support=softlib --hll_source=on --mem_model:code=flat --mem_model:data=large -
       6        0002  FP      .set    XAR2
       7              
       8              $C$DW$CU        .dwtag  DW_TAG_compile_unit
       9                      .dwattr $C$DW$CU, DW_AT_name("C:/ti/motorware/motorware_1_01_00_16/sw/solutions/instaspin_foc/src/pro
      10                      .dwattr $C$DW$CU, DW_AT_producer("TI TMS320C2000 C/C++ Codegen PC v6.4.11 Copyright (c) 1996-2015 Tex
      11                      .dwattr $C$DW$CU, DW_AT_TI_version(0x01)
      12                      .dwattr $C$DW$CU, DW_AT_comp_dir("C:\ti\motorware\motorware_1_01_00_16\sw\solutions\instaspin_foc\boa
      13              ;**************************************************************
      14              ;* CINIT RECORDS                                              *
      15              ;**************************************************************
      16 00000000               .sect   ".cinit"
      17                      .align  1
      18 00000000 FFFF          .field          -1,16
      19 00000001 0000-         .field          _gLEDcnt+0,32
         00000002 0000 
      20 00000003 0000          .bits   0,16                    ; _gLEDcnt @ 0
      21              
      22 00000004               .sect   ".cinit"
      23                      .align  1
      24 00000004 FFFF          .field          -1,16
      25 00000005 0001-         .field          _gCounter_updateGlobals+0,32
         00000006 0000 
      26 00000007 0000          .bits   0,16                    ; _gCounter_updateGlobals @ 0
      27              
      28 00000008               .sect   ".cinit"
      29                      .align  1
      30 00000008 FFFF          .field          -1,16
      31 00000009 0002-         .field          _Flag_Latch_softwareUpdate+0,32
         0000000a 0000 
      32 0000000b 0001          .bits   1,16                    ; _Flag_Latch_softwareUpdate @ 0
      33              
      34 0000000c               .sect   ".cinit"
      35                      .align  1
      36 0000000c FFFE          .field          -2,16
      37 0000000d 0004-         .field          _current$1+0,32
         0000000e 0000 
      38 0000000f 0000          .bits   0,32                    ; _current$1 @ 0
         00000010 0000 
      39              
      40 00000011               .sect   ".cinit"
      41                      .align  1
      42 00000011 FFFE          .field          -2,16
      43 00000012 0008-         .field          _gMaxCurrentSlope+0,32
         00000013 0000 
      44 00000014 0000          .bits   0,32                    ; _gMaxCurrentSlope @ 0
         00000015 0000 
      45              
      46 00000016               .sect   ".cinit"
      47                      .align  1
      48 00000016 FFFA          .field          -$C$IR_1,16
TMS320C2000 Assembler PC v6.4.11 Sat Nov 26 19:25:36 2016

Tools Copyright (c) 1996-2015 Texas Instruments Incorporated
C:\Users\bee25\AppData\Local\Temp\3412010                            PAGE    2

      49 00000017 0012-         .field          _gPwmData+0,32
         00000018 0000 
      50 00000019 0000          .bits   0,32                    ; _gPwmData._Tabc._value[0] @ 0
         0000001a 0000 
      51 0000001b 0000          .bits   0,32                    ; _gPwmData._Tabc._value[1] @ 32
         0000001c 0000 
      52 0000001d 0000          .bits   0,32                    ; _gPwmData._Tabc._value[2] @ 64
         0000001e 0000 
      53        0006  $C$IR_1:        .set    6
      54              
      55 0000001f               .sect   ".cinit"
      56                      .align  1
      57 0000001f FF98          .field          -$C$IR_2,16
      58 00000020 0040-         .field          _gMotorVars+0,32
         00000021 0000 
      59 00000022 0000          .bits   0,16                    ; _gMotorVars._Flag_enableSys @ 0
      60 00000023 0000          .bits   0,16                    ; _gMotorVars._Flag_Run_Identify @ 16
      61 00000024 0000          .bits   0,16                    ; _gMotorVars._Flag_MotorIdentified @ 32
      62 00000025 0001          .bits   1,16                    ; _gMotorVars._Flag_enableForceAngle @ 48
      63 00000026 0000          .bits   0,16                    ; _gMotorVars._Flag_enableFieldWeakening @ 64
      64 00000027 0000          .bits   0,16                    ; _gMotorVars._Flag_enableRsRecalc @ 80
      65 00000028 0001          .bits   1,16                    ; _gMotorVars._Flag_enableUserParams @ 96
      66 00000029 0001          .bits   1,16                    ; _gMotorVars._Flag_enableOffsetcalc @ 112
      67 0000002a 0000          .bits   0,16                    ; _gMotorVars._Flag_enablePowerWarp @ 128
      68 0000002b 0000          .bits   0,16                    ; _gMotorVars._Flag_enableSpeedCtrl @ 144
      69 0000002c 0001          .bits   1,16                    ; _gMotorVars._startup @ 160
      70 0000002d 0001          .bits   1,16                    ; _gMotorVars._CtrlState @ 176
      71 0000002e 0001          .bits   1,16                    ; _gMotorVars._EstState @ 192
      72 0000002f 0000          .bits   0,16                    ; _gMotorVars._UserErrorCode @ 208
      73 00000030 0000          .bits   0,16                    ; _gMotorVars._CtrlVersion._rsvd @ 224
      74 00000031 0004          .bits   4,16                    ; _gMotorVars._CtrlVersion._targetProc @ 240
      75 00000032 0000          .bits   0,16                    ; _gMotorVars._CtrlVersion._major @ 256
      76 00000033 0000          .bits   0,16                    ; _gMotorVars._CtrlVersion._minor @ 272
      77 00000034 0000          .bits   0,32                    ; _gMotorVars._IdRef_A @ 288
         00000035 0000 
      78 00000036 0000          .bits   0,32                    ; _gMotorVars._IqRef_A @ 320
         00000037 0000 
      79 00000038 0000          .bits   0,32                    ; _gMotorVars._SpeedRef_pu @ 352
         00000039 0000 
      80 0000003a 9999          .bits   1677721,32                      ; _gMotorVars._SpeedRef_krpm @ 384
         0000003b 0019 
      81 0000003c 0000          .bits   0,32                    ; _gMotorVars._SpeedTraj_krpm @ 416
         0000003d 0000 
      82 0000003e 3333          .bits   3355443,32                      ; _gMotorVars._MaxAccel_krpmps @ 448
         0000003f 0033 
      83 00000040 0000          .bits   0,32                    ; _gMotorVars._Speed_krpm @ 480
         00000041 0000 
      84 00000042 0000          .bits   8388608,32                      ; _gMotorVars._OverModulation @ 512
         00000043 0080 
      85 00000044 0000          .bits   117440512,32                    ; _gMotorVars._RsOnLineCurrent_A @ 544
         00000045 0700 
      86 00000046 0190          .bits   400,32                  ; _gMotorVars._SvgenMaxModulation_ticks @ 576
         00000047 0000 
      87 00000048 0000          .bits   0,32                    ; _gMotorVars._Flux_Wb @ 608
         00000049 0000 
TMS320C2000 Assembler PC v6.4.11 Sat Nov 26 19:25:36 2016

Tools Copyright (c) 1996-2015 Texas Instruments Incorporated
C:\Users\bee25\AppData\Local\Temp\3412010                            PAGE    3

      88 0000004a 0000          .bits   0,32                    ; _gMotorVars._Torque_Nm @ 640
         0000004b 0000 
      89 0000004c 0000          .xfloat $strtod("0x0p+0")               ; _gMotorVars._MagnCurr_A @ 672
         0000004d 0000 
      90 0000004e 0000          .xfloat $strtod("0x0p+0")               ; _gMotorVars._Rr_Ohm @ 704
         0000004f 0000 
      91 00000050 0000          .xfloat $strtod("0x0p+0")               ; _gMotorVars._Rs_Ohm @ 736
         00000051 0000 
      92 00000052 0000          .xfloat $strtod("0x0p+0")               ; _gMotorVars._RsOnLine_Ohm @ 768
         00000053 0000 
      93 00000054 0000          .xfloat $strtod("0x0p+0")               ; _gMotorVars._Lsd_H @ 800
         00000055 0000 
      94 00000056 0000          .xfloat $strtod("0x0p+0")               ; _gMotorVars._Lsq_H @ 832
         00000057 0000 
      95 00000058 0000          .xfloat $strtod("0x0p+0")               ; _gMotorVars._Flux_VpHz @ 864
         00000059 0000 
      96 0000005a 0000          .xfloat $strtod("0x0p+0")               ; _gMotorVars._ipd_excFreq_Hz @ 896
         0000005b 0000 
      97 0000005c 0000          .bits   0,32                    ; _gMotorVars._ipd_Kspd @ 928
         0000005d 0000 
      98 0000005e 0000          .bits   0,32                    ; _gMotorVars._ipd_excMag_coarse_pu @ 960
         0000005f 0000 
      99 00000060 0000          .bits   0,32                    ; _gMotorVars._ipd_excMag_fine_pu @ 992
         00000061 0000 
     100 00000062 0000          .xfloat $strtod("0x0p+0")               ; _gMotorVars._ipd_waitTime_coarse_sec @ 1024
         00000063 0000 
     101 00000064 0000          .xfloat $strtod("0x0p+0")               ; _gMotorVars._ipd_waitTime_fine_sec @ 1056
         00000065 0000 
     102 00000066 0000          .bits   0,32                    ; _gMotorVars._Kp_spd @ 1088
         00000067 0000 
     103 00000068 0000          .bits   0,32                    ; _gMotorVars._Ki_spd @ 1120
         00000069 0000 
     104 0000006a 0000          .bits   0,32                    ; _gMotorVars._Kp_Idq @ 1152
         0000006b 0000 
     105 0000006c 0000          .bits   0,32                    ; _gMotorVars._Ki_Idq @ 1184
         0000006d 0000 
     106 0000006e 0000          .bits   0,32                    ; _gMotorVars._Vd @ 1216
         0000006f 0000 
     107 00000070 0000          .bits   0,32                    ; _gMotorVars._Vq @ 1248
         00000071 0000 
     108 00000072 0000          .bits   0,32                    ; _gMotorVars._Vs @ 1280
         00000073 0000 
     109 00000074 6666          .bits   6710886,32                      ; _gMotorVars._VsRef @ 1312
         00000075 0066 
     110 00000076 0000          .bits   0,32                    ; _gMotorVars._VdcBus_kV @ 1344
         00000077 0000 
     111 00000078 0000          .bits   0,32                    ; _gMotorVars._Id_A @ 1376
         00000079 0000 
     112 0000007a 0000          .bits   0,32                    ; _gMotorVars._Iq_A @ 1408
         0000007b 0000 
     113 0000007c 0000          .bits   0,32                    ; _gMotorVars._Is_A @ 1440
         0000007d 0000 
     114 0000007e 0000          .bits   0,32                    ; _gMotorVars._I_bias._value[0] @ 1472
         0000007f 0000 
     115 00000080 0000          .bits   0,32                    ; _gMotorVars._I_bias._value[1] @ 1504
TMS320C2000 Assembler PC v6.4.11 Sat Nov 26 19:25:36 2016

Tools Copyright (c) 1996-2015 Texas Instruments Incorporated
C:\Users\bee25\AppData\Local\Temp\3412010                            PAGE    4

         00000081 0000 
     116 00000082 0000          .bits   0,32                    ; _gMotorVars._I_bias._value[2] @ 1536
         00000083 0000 
     117 00000084 0000          .bits   0,32                    ; _gMotorVars._V_bias._value[0] @ 1568
         00000085 0000 
     118 00000086 0000          .bits   0,32                    ; _gMotorVars._V_bias._value[1] @ 1600
         00000087 0000 
     119 00000088 0000          .bits   0,32                    ; _gMotorVars._V_bias._value[2] @ 1632
         00000089 0000 
     120        0068  $C$IR_2:        .set    104
     121              
     122              
     123              $C$DW$1 .dwtag  DW_TAG_subprogram, DW_AT_name("CTRL_setSpd_ref_krpm")
     124                      .dwattr $C$DW$1, DW_AT_TI_symbol_name("_CTRL_setSpd_ref_krpm")
     125                      .dwattr $C$DW$1, DW_AT_declaration
     126                      .dwattr $C$DW$1, DW_AT_external
     127              $C$DW$2 .dwtag  DW_TAG_formal_parameter
     128                      .dwattr $C$DW$2, DW_AT_type(*$C$DW$T$200)
     129              $C$DW$3 .dwtag  DW_TAG_formal_parameter
     130                      .dwattr $C$DW$3, DW_AT_type(*$C$DW$T$280)
     131                      .dwendtag $C$DW$1
     132              
     133              
     134              $C$DW$4 .dwtag  DW_TAG_subprogram, DW_AT_name("CTRL_setup")
     135                      .dwattr $C$DW$4, DW_AT_TI_symbol_name("_CTRL_setup")
     136                      .dwattr $C$DW$4, DW_AT_declaration
     137                      .dwattr $C$DW$4, DW_AT_external
     138              $C$DW$5 .dwtag  DW_TAG_formal_parameter
     139                      .dwattr $C$DW$5, DW_AT_type(*$C$DW$T$200)
     140                      .dwendtag $C$DW$4
     141              
     142              
     143              $C$DW$6 .dwtag  DW_TAG_subprogram, DW_AT_name("CTRL_setParams")
     144                      .dwattr $C$DW$6, DW_AT_TI_symbol_name("_CTRL_setParams")
     145                      .dwattr $C$DW$6, DW_AT_declaration
     146                      .dwattr $C$DW$6, DW_AT_external
     147              $C$DW$7 .dwtag  DW_TAG_formal_parameter
     148                      .dwattr $C$DW$7, DW_AT_type(*$C$DW$T$200)
     149              $C$DW$8 .dwtag  DW_TAG_formal_parameter
     150                      .dwattr $C$DW$8, DW_AT_type(*$C$DW$T$207)
     151                      .dwendtag $C$DW$6
     152              
     153              
     154              $C$DW$9 .dwtag  DW_TAG_subprogram, DW_AT_name("HAL_enableAdcInts")
     155                      .dwattr $C$DW$9, DW_AT_TI_symbol_name("_HAL_enableAdcInts")
     156                      .dwattr $C$DW$9, DW_AT_declaration
     157                      .dwattr $C$DW$9, DW_AT_external
     158              $C$DW$10        .dwtag  DW_TAG_formal_parameter
     159                      .dwattr $C$DW$10, DW_AT_type(*$C$DW$T$252)
     160                      .dwendtag $C$DW$9
     161              
     162              
     163              $C$DW$11        .dwtag  DW_TAG_subprogram, DW_AT_name("HAL_enableDebugInt")
     164                      .dwattr $C$DW$11, DW_AT_TI_symbol_name("_HAL_enableDebugInt")
     165                      .dwattr $C$DW$11, DW_AT_declaration
TMS320C2000 Assembler PC v6.4.11 Sat Nov 26 19:25:36 2016

Tools Copyright (c) 1996-2015 Texas Instruments Incorporated
C:\Users\bee25\AppData\Local\Temp\3412010                            PAGE    5

     166                      .dwattr $C$DW$11, DW_AT_external
     167              $C$DW$12        .dwtag  DW_TAG_formal_parameter
     168                      .dwattr $C$DW$12, DW_AT_type(*$C$DW$T$252)
     169                      .dwendtag $C$DW$11
     170              
     171              
     172              $C$DW$13        .dwtag  DW_TAG_subprogram, DW_AT_name("CTRL_run")
     173                      .dwattr $C$DW$13, DW_AT_TI_symbol_name("_CTRL_run")
     174                      .dwattr $C$DW$13, DW_AT_declaration
     175                      .dwattr $C$DW$13, DW_AT_external
     176              $C$DW$14        .dwtag  DW_TAG_formal_parameter
     177                      .dwattr $C$DW$14, DW_AT_type(*$C$DW$T$200)
     178              $C$DW$15        .dwtag  DW_TAG_formal_parameter
     179                      .dwattr $C$DW$15, DW_AT_type(*$C$DW$T$252)
     180              $C$DW$16        .dwtag  DW_TAG_formal_parameter
     181                      .dwattr $C$DW$16, DW_AT_type(*$C$DW$T$244)
     182              $C$DW$17        .dwtag  DW_TAG_formal_parameter
     183                      .dwattr $C$DW$17, DW_AT_type(*$C$DW$T$259)
     184                      .dwendtag $C$DW$13
     185              
     186              
     187              $C$DW$18        .dwtag  DW_TAG_subprogram, DW_AT_name("CTRL_getVersion")
     188                      .dwattr $C$DW$18, DW_AT_TI_symbol_name("_CTRL_getVersion")
     189                      .dwattr $C$DW$18, DW_AT_declaration
     190                      .dwattr $C$DW$18, DW_AT_external
     191              $C$DW$19        .dwtag  DW_TAG_formal_parameter
     192                      .dwattr $C$DW$19, DW_AT_type(*$C$DW$T$200)
     193              $C$DW$20        .dwtag  DW_TAG_formal_parameter
     194                      .dwattr $C$DW$20, DW_AT_type(*$C$DW$T$237)
     195                      .dwendtag $C$DW$18
     196              
     197              
     198              $C$DW$21        .dwtag  DW_TAG_subprogram, DW_AT_name("HAL_readDrvData")
     199                      .dwattr $C$DW$21, DW_AT_TI_symbol_name("_HAL_readDrvData")
     200                      .dwattr $C$DW$21, DW_AT_declaration
     201                      .dwattr $C$DW$21, DW_AT_external
     202              $C$DW$22        .dwtag  DW_TAG_formal_parameter
     203                      .dwattr $C$DW$22, DW_AT_type(*$C$DW$T$252)
     204              $C$DW$23        .dwtag  DW_TAG_formal_parameter
     205                      .dwattr $C$DW$23, DW_AT_type(*$C$DW$T$241)
     206                      .dwendtag $C$DW$21
     207              
     208              
     209              $C$DW$24        .dwtag  DW_TAG_subprogram, DW_AT_name("HAL_setupDrvSpi")
     210                      .dwattr $C$DW$24, DW_AT_TI_symbol_name("_HAL_setupDrvSpi")
     211                      .dwattr $C$DW$24, DW_AT_declaration
     212                      .dwattr $C$DW$24, DW_AT_external
     213              $C$DW$25        .dwtag  DW_TAG_formal_parameter
     214                      .dwattr $C$DW$25, DW_AT_type(*$C$DW$T$252)
     215              $C$DW$26        .dwtag  DW_TAG_formal_parameter
     216                      .dwattr $C$DW$26, DW_AT_type(*$C$DW$T$241)
     217                      .dwendtag $C$DW$24
     218              
     219              
     220              $C$DW$27        .dwtag  DW_TAG_subprogram, DW_AT_name("HAL_writeDrvData")
TMS320C2000 Assembler PC v6.4.11 Sat Nov 26 19:25:36 2016

Tools Copyright (c) 1996-2015 Texas Instruments Incorporated
C:\Users\bee25\AppData\Local\Temp\3412010                            PAGE    6

     221                      .dwattr $C$DW$27, DW_AT_TI_symbol_name("_HAL_writeDrvData")
     222                      .dwattr $C$DW$27, DW_AT_declaration
     223                      .dwattr $C$DW$27, DW_AT_external
     224              $C$DW$28        .dwtag  DW_TAG_formal_parameter
     225                      .dwattr $C$DW$28, DW_AT_type(*$C$DW$T$252)
     226              $C$DW$29        .dwtag  DW_TAG_formal_parameter
     227                      .dwattr $C$DW$29, DW_AT_type(*$C$DW$T$241)
     228                      .dwendtag $C$DW$27
     229              
     230              
     231              $C$DW$30        .dwtag  DW_TAG_subprogram, DW_AT_name("HAL_setupFaults")
     232                      .dwattr $C$DW$30, DW_AT_TI_symbol_name("_HAL_setupFaults")
     233                      .dwattr $C$DW$30, DW_AT_declaration
     234                      .dwattr $C$DW$30, DW_AT_external
     235              $C$DW$31        .dwtag  DW_TAG_formal_parameter
     236                      .dwattr $C$DW$31, DW_AT_type(*$C$DW$T$252)
     237                      .dwendtag $C$DW$30
     238              
     239              
     240              $C$DW$32        .dwtag  DW_TAG_subprogram, DW_AT_name("HAL_enableDrv")
     241                      .dwattr $C$DW$32, DW_AT_TI_symbol_name("_HAL_enableDrv")
     242                      .dwattr $C$DW$32, DW_AT_declaration
     243                      .dwattr $C$DW$32, DW_AT_external
     244              $C$DW$33        .dwtag  DW_TAG_formal_parameter
     245                      .dwattr $C$DW$33, DW_AT_type(*$C$DW$T$252)
     246                      .dwendtag $C$DW$32
     247              
     248              
     249              $C$DW$34        .dwtag  DW_TAG_subprogram, DW_AT_name("HAL_setParams")
     250                      .dwattr $C$DW$34, DW_AT_TI_symbol_name("_HAL_setParams")
     251                      .dwattr $C$DW$34, DW_AT_declaration
     252                      .dwattr $C$DW$34, DW_AT_external
     253              $C$DW$35        .dwtag  DW_TAG_formal_parameter
     254                      .dwattr $C$DW$35, DW_AT_type(*$C$DW$T$252)
     255              $C$DW$36        .dwtag  DW_TAG_formal_parameter
     256                      .dwattr $C$DW$36, DW_AT_type(*$C$DW$T$271)
     257                      .dwendtag $C$DW$34
     258              
     259              
     260              $C$DW$37        .dwtag  DW_TAG_subprogram, DW_AT_name("HAL_enableGlobalInts")
     261                      .dwattr $C$DW$37, DW_AT_TI_symbol_name("_HAL_enableGlobalInts")
     262                      .dwattr $C$DW$37, DW_AT_declaration
     263                      .dwattr $C$DW$37, DW_AT_external
     264              $C$DW$38        .dwtag  DW_TAG_formal_parameter
     265                      .dwattr $C$DW$38, DW_AT_type(*$C$DW$T$252)
     266                      .dwendtag $C$DW$37
     267              
     268              
     269              $C$DW$39        .dwtag  DW_TAG_subprogram, DW_AT_name("USER_setParams")
     270                      .dwattr $C$DW$39, DW_AT_TI_symbol_name("_USER_setParams")
     271                      .dwattr $C$DW$39, DW_AT_declaration
     272                      .dwattr $C$DW$39, DW_AT_external
     273              $C$DW$40        .dwtag  DW_TAG_formal_parameter
     274                      .dwattr $C$DW$40, DW_AT_type(*$C$DW$T$207)
     275                      .dwendtag $C$DW$39
TMS320C2000 Assembler PC v6.4.11 Sat Nov 26 19:25:36 2016

Tools Copyright (c) 1996-2015 Texas Instruments Incorporated
C:\Users\bee25\AppData\Local\Temp\3412010                            PAGE    7

     276              
     277              
     278              $C$DW$41        .dwtag  DW_TAG_subprogram, DW_AT_name("USER_softwareUpdate1p6")
     279                      .dwattr $C$DW$41, DW_AT_TI_symbol_name("_USER_softwareUpdate1p6")
     280                      .dwattr $C$DW$41, DW_AT_declaration
     281                      .dwattr $C$DW$41, DW_AT_external
     282              $C$DW$42        .dwtag  DW_TAG_formal_parameter
     283                      .dwattr $C$DW$42, DW_AT_type(*$C$DW$T$200)
     284                      .dwendtag $C$DW$41
     285              
     286              
     287              $C$DW$43        .dwtag  DW_TAG_subprogram, DW_AT_name("USER_calcPIgains")
     288                      .dwattr $C$DW$43, DW_AT_TI_symbol_name("_USER_calcPIgains")
     289                      .dwattr $C$DW$43, DW_AT_declaration
     290                      .dwattr $C$DW$43, DW_AT_external
     291              $C$DW$44        .dwtag  DW_TAG_formal_parameter
     292                      .dwattr $C$DW$44, DW_AT_type(*$C$DW$T$200)
     293                      .dwendtag $C$DW$43
     294              
     295              
     296              $C$DW$45        .dwtag  DW_TAG_subprogram, DW_AT_name("GPIO_toggle")
     297                      .dwattr $C$DW$45, DW_AT_TI_symbol_name("_GPIO_toggle")
     298                      .dwattr $C$DW$45, DW_AT_declaration
     299                      .dwattr $C$DW$45, DW_AT_external
     300              $C$DW$46        .dwtag  DW_TAG_formal_parameter
     301                      .dwattr $C$DW$46, DW_AT_type(*$C$DW$T$78)
     302              $C$DW$47        .dwtag  DW_TAG_formal_parameter
     303                      .dwattr $C$DW$47, DW_AT_type(*$C$DW$T$202)
     304                      .dwendtag $C$DW$45
     305              
     306              
     307              $C$DW$48        .dwtag  DW_TAG_subprogram, DW_AT_name("USER_checkForErrors")
     308                      .dwattr $C$DW$48, DW_AT_TI_symbol_name("_USER_checkForErrors")
     309                      .dwattr $C$DW$48, DW_AT_declaration
     310                      .dwattr $C$DW$48, DW_AT_external
     311              $C$DW$49        .dwtag  DW_TAG_formal_parameter
     312                      .dwattr $C$DW$49, DW_AT_type(*$C$DW$T$207)
     313                      .dwendtag $C$DW$48
     314              
     315              
     316              $C$DW$50        .dwtag  DW_TAG_subprogram, DW_AT_name("EST_setFlag_enableRsRecalc")
     317                      .dwattr $C$DW$50, DW_AT_TI_symbol_name("_EST_setFlag_enableRsRecalc")
     318                      .dwattr $C$DW$50, DW_AT_declaration
     319                      .dwattr $C$DW$50, DW_AT_external
     320              $C$DW$51        .dwtag  DW_TAG_formal_parameter
     321                      .dwattr $C$DW$51, DW_AT_type(*$C$DW$T$47)
     322              $C$DW$52        .dwtag  DW_TAG_formal_parameter
     323                      .dwattr $C$DW$52, DW_AT_type(*$C$DW$T$277)
     324                      .dwendtag $C$DW$50
     325              
     326              
     327              $C$DW$53        .dwtag  DW_TAG_subprogram, DW_AT_name("EST_setMaxCurrentSlope_pu")
     328                      .dwattr $C$DW$53, DW_AT_TI_symbol_name("_EST_setMaxCurrentSlope_pu")
     329                      .dwattr $C$DW$53, DW_AT_declaration
     330                      .dwattr $C$DW$53, DW_AT_external
TMS320C2000 Assembler PC v6.4.11 Sat Nov 26 19:25:36 2016

Tools Copyright (c) 1996-2015 Texas Instruments Incorporated
C:\Users\bee25\AppData\Local\Temp\3412010                            PAGE    8

     331              $C$DW$54        .dwtag  DW_TAG_formal_parameter
     332                      .dwattr $C$DW$54, DW_AT_type(*$C$DW$T$47)
     333              $C$DW$55        .dwtag  DW_TAG_formal_parameter
     334                      .dwattr $C$DW$55, DW_AT_type(*$C$DW$T$280)
     335                      .dwendtag $C$DW$53
     336              
     337              
     338              $C$DW$56        .dwtag  DW_TAG_subprogram, DW_AT_name("memCopy")
     339                      .dwattr $C$DW$56, DW_AT_TI_symbol_name("_memCopy")
     340                      .dwattr $C$DW$56, DW_AT_declaration
     341                      .dwattr $C$DW$56, DW_AT_external
     342              $C$DW$57        .dwtag  DW_TAG_formal_parameter
     343                      .dwattr $C$DW$57, DW_AT_type(*$C$DW$T$274)
     344              $C$DW$58        .dwtag  DW_TAG_formal_parameter
     345                      .dwattr $C$DW$58, DW_AT_type(*$C$DW$T$274)
     346              $C$DW$59        .dwtag  DW_TAG_formal_parameter
     347                      .dwattr $C$DW$59, DW_AT_type(*$C$DW$T$274)
     348                      .dwendtag $C$DW$56
     349              
     350              
     351              $C$DW$60        .dwtag  DW_TAG_subprogram, DW_AT_name("EST_setFlag_enableForceAngle")
     352                      .dwattr $C$DW$60, DW_AT_TI_symbol_name("_EST_setFlag_enableForceAngle")
     353                      .dwattr $C$DW$60, DW_AT_declaration
     354                      .dwattr $C$DW$60, DW_AT_external
     355              $C$DW$61        .dwtag  DW_TAG_formal_parameter
     356                      .dwattr $C$DW$61, DW_AT_type(*$C$DW$T$47)
     357              $C$DW$62        .dwtag  DW_TAG_formal_parameter
     358                      .dwattr $C$DW$62, DW_AT_type(*$C$DW$T$277)
     359                      .dwendtag $C$DW$60
     360              
     361              
     362              $C$DW$63        .dwtag  DW_TAG_subprogram, DW_AT_name("EST_getState")
     363                      .dwattr $C$DW$63, DW_AT_TI_symbol_name("_EST_getState")
     364                      .dwattr $C$DW$63, DW_AT_type(*$C$DW$T$164)
     365                      .dwattr $C$DW$63, DW_AT_declaration
     366                      .dwattr $C$DW$63, DW_AT_external
     367              $C$DW$64        .dwtag  DW_TAG_formal_parameter
     368                      .dwattr $C$DW$64, DW_AT_type(*$C$DW$T$47)
     369                      .dwendtag $C$DW$63
     370              
     371              
     372              $C$DW$65        .dwtag  DW_TAG_subprogram, DW_AT_name("EST_isMotorIdentified")
     373                      .dwattr $C$DW$65, DW_AT_TI_symbol_name("_EST_isMotorIdentified")
     374                      .dwattr $C$DW$65, DW_AT_type(*$C$DW$T$70)
     375                      .dwattr $C$DW$65, DW_AT_declaration
     376                      .dwattr $C$DW$65, DW_AT_external
     377              $C$DW$66        .dwtag  DW_TAG_formal_parameter
     378                      .dwattr $C$DW$66, DW_AT_type(*$C$DW$T$47)
     379                      .dwendtag $C$DW$65
     380              
     381                      .global _gLEDcnt
     382 00000000       _gLEDcnt:       .usect  ".ebss",1,1,0
     383              $C$DW$67        .dwtag  DW_TAG_variable, DW_AT_name("gLEDcnt")
     384                      .dwattr $C$DW$67, DW_AT_TI_symbol_name("_gLEDcnt")
     385                      .dwattr $C$DW$67, DW_AT_location[DW_OP_addr _gLEDcnt]
TMS320C2000 Assembler PC v6.4.11 Sat Nov 26 19:25:36 2016

Tools Copyright (c) 1996-2015 Texas Instruments Incorporated
C:\Users\bee25\AppData\Local\Temp\3412010                            PAGE    9

     386                      .dwattr $C$DW$67, DW_AT_type(*$C$DW$T$23)
     387                      .dwattr $C$DW$67, DW_AT_external
     388              
     389              $C$DW$68        .dwtag  DW_TAG_subprogram, DW_AT_name("USER_getErrorCode")
     390                      .dwattr $C$DW$68, DW_AT_TI_symbol_name("_USER_getErrorCode")
     391                      .dwattr $C$DW$68, DW_AT_type(*$C$DW$T$166)
     392                      .dwattr $C$DW$68, DW_AT_declaration
     393                      .dwattr $C$DW$68, DW_AT_external
     394              $C$DW$69        .dwtag  DW_TAG_formal_parameter
     395                      .dwattr $C$DW$69, DW_AT_type(*$C$DW$T$207)
     396                      .dwendtag $C$DW$68
     397              
     398                      .global _gCounter_updateGlobals
     399 00000001       _gCounter_updateGlobals:        .usect  ".ebss",1,1,0
     400              $C$DW$70        .dwtag  DW_TAG_variable, DW_AT_name("gCounter_updateGlobals")
     401                      .dwattr $C$DW$70, DW_AT_TI_symbol_name("_gCounter_updateGlobals")
     402                      .dwattr $C$DW$70, DW_AT_location[DW_OP_addr _gCounter_updateGlobals]
     403                      .dwattr $C$DW$70, DW_AT_type(*$C$DW$T$67)
     404                      .dwattr $C$DW$70, DW_AT_external
     405                      .global _Flag_Latch_softwareUpdate
     406 00000002       _Flag_Latch_softwareUpdate:     .usect  ".ebss",1,1,0
     407              $C$DW$71        .dwtag  DW_TAG_variable, DW_AT_name("Flag_Latch_softwareUpdate")
     408                      .dwattr $C$DW$71, DW_AT_TI_symbol_name("_Flag_Latch_softwareUpdate")
     409                      .dwattr $C$DW$71, DW_AT_location[DW_OP_addr _Flag_Latch_softwareUpdate]
     410                      .dwattr $C$DW$71, DW_AT_type(*$C$DW$T$70)
     411                      .dwattr $C$DW$71, DW_AT_external
     412              
     413              $C$DW$72        .dwtag  DW_TAG_subprogram, DW_AT_name("CTRL_updateState")
     414                      .dwattr $C$DW$72, DW_AT_TI_symbol_name("_CTRL_updateState")
     415                      .dwattr $C$DW$72, DW_AT_type(*$C$DW$T$70)
     416                      .dwattr $C$DW$72, DW_AT_declaration
     417                      .dwattr $C$DW$72, DW_AT_external
     418              $C$DW$73        .dwtag  DW_TAG_formal_parameter
     419                      .dwattr $C$DW$73, DW_AT_type(*$C$DW$T$200)
     420                      .dwendtag $C$DW$72
     421              
     422 00000004       _current$1:     .usect  ".ebss",2,1,1
     423              
     424              $C$DW$74        .dwtag  DW_TAG_subprogram, DW_AT_name("EST_get_pu_to_krpm_sf")
     425                      .dwattr $C$DW$74, DW_AT_TI_symbol_name("_EST_get_pu_to_krpm_sf")
     426                      .dwattr $C$DW$74, DW_AT_type(*$C$DW$T$32)
     427                      .dwattr $C$DW$74, DW_AT_declaration
     428                      .dwattr $C$DW$74, DW_AT_external
     429              $C$DW$75        .dwtag  DW_TAG_formal_parameter
     430                      .dwattr $C$DW$75, DW_AT_type(*$C$DW$T$47)
     431                      .dwendtag $C$DW$74
     432              
     433              
     434              $C$DW$76        .dwtag  DW_TAG_subprogram, DW_AT_name("__IQsat")
     435                      .dwattr $C$DW$76, DW_AT_TI_symbol_name("___IQsat")
     436                      .dwattr $C$DW$76, DW_AT_type(*$C$DW$T$12)
     437                      .dwattr $C$DW$76, DW_AT_declaration
     438                      .dwattr $C$DW$76, DW_AT_external
     439              $C$DW$77        .dwtag  DW_TAG_formal_parameter
     440                      .dwattr $C$DW$77, DW_AT_type(*$C$DW$T$12)
TMS320C2000 Assembler PC v6.4.11 Sat Nov 26 19:25:36 2016

Tools Copyright (c) 1996-2015 Texas Instruments Incorporated
C:\Users\bee25\AppData\Local\Temp\3412010                            PAGE   10

     441              $C$DW$78        .dwtag  DW_TAG_formal_parameter
     442                      .dwattr $C$DW$78, DW_AT_type(*$C$DW$T$12)
     443              $C$DW$79        .dwtag  DW_TAG_formal_parameter
     444                      .dwattr $C$DW$79, DW_AT_type(*$C$DW$T$12)
     445                      .dwendtag $C$DW$76
     446              
     447                      .global _halHandle
     448 00000000       _halHandle:     .usect  "rom_accessed_data",2,1,1
     449              $C$DW$80        .dwtag  DW_TAG_variable, DW_AT_name("halHandle")
     450                      .dwattr $C$DW$80, DW_AT_TI_symbol_name("_halHandle")
     451                      .dwattr $C$DW$80, DW_AT_location[DW_OP_addr _halHandle]
     452                      .dwattr $C$DW$80, DW_AT_type(*$C$DW$T$252)
     453                      .dwattr $C$DW$80, DW_AT_external
     454                      .global _ctrlHandle
     455 00000006       _ctrlHandle:    .usect  ".ebss",2,1,1
     456              $C$DW$81        .dwtag  DW_TAG_variable, DW_AT_name("ctrlHandle")
     457                      .dwattr $C$DW$81, DW_AT_TI_symbol_name("_ctrlHandle")
     458                      .dwattr $C$DW$81, DW_AT_location[DW_OP_addr _ctrlHandle]
     459                      .dwattr $C$DW$81, DW_AT_type(*$C$DW$T$200)
     460                      .dwattr $C$DW$81, DW_AT_external
     461                      .global _gMaxCurrentSlope
     462 00000008       _gMaxCurrentSlope:      .usect  ".ebss",2,1,1
     463              $C$DW$82        .dwtag  DW_TAG_variable, DW_AT_name("gMaxCurrentSlope")
     464                      .dwattr $C$DW$82, DW_AT_TI_symbol_name("_gMaxCurrentSlope")
     465                      .dwattr $C$DW$82, DW_AT_location[DW_OP_addr _gMaxCurrentSlope]
     466                      .dwattr $C$DW$82, DW_AT_type(*$C$DW$T$32)
     467                      .dwattr $C$DW$82, DW_AT_external
     468              
     469              $C$DW$83        .dwtag  DW_TAG_subprogram, DW_AT_name("__IQmpy")
     470                      .dwattr $C$DW$83, DW_AT_TI_symbol_name("___IQmpy")
     471                      .dwattr $C$DW$83, DW_AT_type(*$C$DW$T$12)
     472                      .dwattr $C$DW$83, DW_AT_declaration
     473                      .dwattr $C$DW$83, DW_AT_external
     474              $C$DW$84        .dwtag  DW_TAG_formal_parameter
     475                      .dwattr $C$DW$84, DW_AT_type(*$C$DW$T$12)
     476              $C$DW$85        .dwtag  DW_TAG_formal_parameter
     477                      .dwattr $C$DW$85, DW_AT_type(*$C$DW$T$12)
     478              $C$DW$86        .dwtag  DW_TAG_formal_parameter
     479                      .dwattr $C$DW$86, DW_AT_type(*$C$DW$T$10)
     480                      .dwendtag $C$DW$83
     481              
     482              $C$DW$87        .dwtag  DW_TAG_variable, DW_AT_name("switch_ram_load")
     483                      .dwattr $C$DW$87, DW_AT_TI_symbol_name("_switch_ram_load")
     484                      .dwattr $C$DW$87, DW_AT_type(*$C$DW$T$274)
     485                      .dwattr $C$DW$87, DW_AT_declaration
     486                      .dwattr $C$DW$87, DW_AT_external
     487              $C$DW$88        .dwtag  DW_TAG_variable, DW_AT_name("switch_end")
     488                      .dwattr $C$DW$88, DW_AT_TI_symbol_name("_switch_end")
     489                      .dwattr $C$DW$88, DW_AT_type(*$C$DW$T$274)
     490                      .dwattr $C$DW$88, DW_AT_declaration
     491                      .dwattr $C$DW$88, DW_AT_external
     492                      .global _gFlux_pu_to_VpHz_sf
     493 0000000a       _gFlux_pu_to_VpHz_sf:   .usect  ".ebss",2,1,1
     494              $C$DW$89        .dwtag  DW_TAG_variable, DW_AT_name("gFlux_pu_to_VpHz_sf")
     495                      .dwattr $C$DW$89, DW_AT_TI_symbol_name("_gFlux_pu_to_VpHz_sf")
TMS320C2000 Assembler PC v6.4.11 Sat Nov 26 19:25:36 2016

Tools Copyright (c) 1996-2015 Texas Instruments Incorporated
C:\Users\bee25\AppData\Local\Temp\3412010                            PAGE   11

     496                      .dwattr $C$DW$89, DW_AT_location[DW_OP_addr _gFlux_pu_to_VpHz_sf]
     497                      .dwattr $C$DW$89, DW_AT_type(*$C$DW$T$32)
     498                      .dwattr $C$DW$89, DW_AT_external
     499              $C$DW$90        .dwtag  DW_TAG_variable, DW_AT_name("econst_ram_load")
     500                      .dwattr $C$DW$90, DW_AT_TI_symbol_name("_econst_ram_load")
     501                      .dwattr $C$DW$90, DW_AT_type(*$C$DW$T$274)
     502                      .dwattr $C$DW$90, DW_AT_declaration
     503                      .dwattr $C$DW$90, DW_AT_external
     504              $C$DW$91        .dwtag  DW_TAG_variable, DW_AT_name("econst_end")
     505                      .dwattr $C$DW$91, DW_AT_TI_symbol_name("_econst_end")
     506                      .dwattr $C$DW$91, DW_AT_type(*$C$DW$T$274)
     507                      .dwattr $C$DW$91, DW_AT_declaration
     508                      .dwattr $C$DW$91, DW_AT_external
     509                      .global _gFlux_pu_to_Wb_sf
     510 0000000c       _gFlux_pu_to_Wb_sf:     .usect  ".ebss",2,1,1
     511              $C$DW$92        .dwtag  DW_TAG_variable, DW_AT_name("gFlux_pu_to_Wb_sf")
     512                      .dwattr $C$DW$92, DW_AT_TI_symbol_name("_gFlux_pu_to_Wb_sf")
     513                      .dwattr $C$DW$92, DW_AT_location[DW_OP_addr _gFlux_pu_to_Wb_sf]
     514                      .dwattr $C$DW$92, DW_AT_type(*$C$DW$T$32)
     515                      .dwattr $C$DW$92, DW_AT_external
     516                      .global _gTorque_Flux_Iq_pu_to_Nm_sf
     517 0000000e       _gTorque_Flux_Iq_pu_to_Nm_sf:   .usect  ".ebss",2,1,1
     518              $C$DW$93        .dwtag  DW_TAG_variable, DW_AT_name("gTorque_Flux_Iq_pu_to_Nm_sf")
     519                      .dwattr $C$DW$93, DW_AT_TI_symbol_name("_gTorque_Flux_Iq_pu_to_Nm_sf")
     520                      .dwattr $C$DW$93, DW_AT_location[DW_OP_addr _gTorque_Flux_Iq_pu_to_Nm_sf]
     521                      .dwattr $C$DW$93, DW_AT_type(*$C$DW$T$32)
     522                      .dwattr $C$DW$93, DW_AT_external
     523                      .global _gTorque_Ls_Id_Iq_pu_to_Nm_sf
     524 00000010       _gTorque_Ls_Id_Iq_pu_to_Nm_sf:  .usect  ".ebss",2,1,1
     525              $C$DW$94        .dwtag  DW_TAG_variable, DW_AT_name("gTorque_Ls_Id_Iq_pu_to_Nm_sf")
     526                      .dwattr $C$DW$94, DW_AT_TI_symbol_name("_gTorque_Ls_Id_Iq_pu_to_Nm_sf")
     527                      .dwattr $C$DW$94, DW_AT_location[DW_OP_addr _gTorque_Ls_Id_Iq_pu_to_Nm_sf]
     528                      .dwattr $C$DW$94, DW_AT_type(*$C$DW$T$32)
     529                      .dwattr $C$DW$94, DW_AT_external
     530              $C$DW$95        .dwtag  DW_TAG_variable, DW_AT_name("RamfuncsLoadStart")
     531                      .dwattr $C$DW$95, DW_AT_TI_symbol_name("_RamfuncsLoadStart")
     532                      .dwattr $C$DW$95, DW_AT_type(*$C$DW$T$274)
     533                      .dwattr $C$DW$95, DW_AT_declaration
     534                      .dwattr $C$DW$95, DW_AT_external
     535              $C$DW$96        .dwtag  DW_TAG_variable, DW_AT_name("econst_start")
     536                      .dwattr $C$DW$96, DW_AT_TI_symbol_name("_econst_start")
     537                      .dwattr $C$DW$96, DW_AT_type(*$C$DW$T$274)
     538                      .dwattr $C$DW$96, DW_AT_declaration
     539                      .dwattr $C$DW$96, DW_AT_external
     540              $C$DW$97        .dwtag  DW_TAG_variable, DW_AT_name("switch_start")
     541                      .dwattr $C$DW$97, DW_AT_TI_symbol_name("_switch_start")
     542                      .dwattr $C$DW$97, DW_AT_type(*$C$DW$T$274)
     543                      .dwattr $C$DW$97, DW_AT_declaration
     544                      .dwattr $C$DW$97, DW_AT_external
     545              $C$DW$98        .dwtag  DW_TAG_variable, DW_AT_name("RamfuncsLoadEnd")
     546                      .dwattr $C$DW$98, DW_AT_TI_symbol_name("_RamfuncsLoadEnd")
     547                      .dwattr $C$DW$98, DW_AT_type(*$C$DW$T$274)
     548                      .dwattr $C$DW$98, DW_AT_declaration
     549                      .dwattr $C$DW$98, DW_AT_external
     550              $C$DW$99        .dwtag  DW_TAG_variable, DW_AT_name("RamfuncsRunStart")
TMS320C2000 Assembler PC v6.4.11 Sat Nov 26 19:25:36 2016

Tools Copyright (c) 1996-2015 Texas Instruments Incorporated
C:\Users\bee25\AppData\Local\Temp\3412010                            PAGE   12

     551                      .dwattr $C$DW$99, DW_AT_TI_symbol_name("_RamfuncsRunStart")
     552                      .dwattr $C$DW$99, DW_AT_type(*$C$DW$T$274)
     553                      .dwattr $C$DW$99, DW_AT_declaration
     554                      .dwattr $C$DW$99, DW_AT_external
     555              
     556              $C$DW$100       .dwtag  DW_TAG_subprogram, DW_AT_name("USER_computeFlux_pu_to_VpHz_sf")
     557                      .dwattr $C$DW$100, DW_AT_TI_symbol_name("_USER_computeFlux_pu_to_VpHz_sf")
     558                      .dwattr $C$DW$100, DW_AT_type(*$C$DW$T$32)
     559                      .dwattr $C$DW$100, DW_AT_declaration
     560                      .dwattr $C$DW$100, DW_AT_external
     561              
     562              $C$DW$101       .dwtag  DW_TAG_subprogram, DW_AT_name("USER_computeFlux_pu_to_Wb_sf")
     563                      .dwattr $C$DW$101, DW_AT_TI_symbol_name("_USER_computeFlux_pu_to_Wb_sf")
     564                      .dwattr $C$DW$101, DW_AT_type(*$C$DW$T$32)
     565                      .dwattr $C$DW$101, DW_AT_declaration
     566                      .dwattr $C$DW$101, DW_AT_external
     567              
     568              $C$DW$102       .dwtag  DW_TAG_subprogram, DW_AT_name("USER_computeFlux")
     569                      .dwattr $C$DW$102, DW_AT_TI_symbol_name("_USER_computeFlux")
     570                      .dwattr $C$DW$102, DW_AT_type(*$C$DW$T$32)
     571                      .dwattr $C$DW$102, DW_AT_declaration
     572                      .dwattr $C$DW$102, DW_AT_external
     573              $C$DW$103       .dwtag  DW_TAG_formal_parameter
     574                      .dwattr $C$DW$103, DW_AT_type(*$C$DW$T$200)
     575              $C$DW$104       .dwtag  DW_TAG_formal_parameter
     576                      .dwattr $C$DW$104, DW_AT_type(*$C$DW$T$280)
     577                      .dwendtag $C$DW$102
     578              
     579              
     580              $C$DW$105       .dwtag  DW_TAG_subprogram, DW_AT_name("USER_computeTorque_Ls_Id_Iq_pu_to_Nm_sf")
     581                      .dwattr $C$DW$105, DW_AT_TI_symbol_name("_USER_computeTorque_Ls_Id_Iq_pu_to_Nm_sf")
     582                      .dwattr $C$DW$105, DW_AT_type(*$C$DW$T$32)
     583                      .dwattr $C$DW$105, DW_AT_declaration
     584                      .dwattr $C$DW$105, DW_AT_external
     585              
     586              $C$DW$106       .dwtag  DW_TAG_subprogram, DW_AT_name("CTRL_initCtrl")
     587                      .dwattr $C$DW$106, DW_AT_TI_symbol_name("_CTRL_initCtrl")
     588                      .dwattr $C$DW$106, DW_AT_type(*$C$DW$T$200)
     589                      .dwattr $C$DW$106, DW_AT_declaration
     590                      .dwattr $C$DW$106, DW_AT_external
     591              $C$DW$107       .dwtag  DW_TAG_formal_parameter
     592                      .dwattr $C$DW$107, DW_AT_type(*$C$DW$T$230)
     593              $C$DW$108       .dwtag  DW_TAG_formal_parameter
     594                      .dwattr $C$DW$108, DW_AT_type(*$C$DW$T$3)
     595              $C$DW$109       .dwtag  DW_TAG_formal_parameter
     596                      .dwattr $C$DW$109, DW_AT_type(*$C$DW$T$232)
     597                      .dwendtag $C$DW$106
     598              
     599              
     600              $C$DW$110       .dwtag  DW_TAG_subprogram, DW_AT_name("USER_computeTorque_Flux_Iq_pu_to_Nm_sf")
     601                      .dwattr $C$DW$110, DW_AT_TI_symbol_name("_USER_computeTorque_Flux_Iq_pu_to_Nm_sf")
     602                      .dwattr $C$DW$110, DW_AT_type(*$C$DW$T$32)
     603                      .dwattr $C$DW$110, DW_AT_declaration
     604                      .dwattr $C$DW$110, DW_AT_external
     605              
TMS320C2000 Assembler PC v6.4.11 Sat Nov 26 19:25:36 2016

Tools Copyright (c) 1996-2015 Texas Instruments Incorporated
C:\Users\bee25\AppData\Local\Temp\3412010                            PAGE   13

     606              $C$DW$111       .dwtag  DW_TAG_subprogram, DW_AT_name("USER_computeTorque_Nm")
     607                      .dwattr $C$DW$111, DW_AT_TI_symbol_name("_USER_computeTorque_Nm")
     608                      .dwattr $C$DW$111, DW_AT_type(*$C$DW$T$32)
     609                      .dwattr $C$DW$111, DW_AT_declaration
     610                      .dwattr $C$DW$111, DW_AT_external
     611              $C$DW$112       .dwtag  DW_TAG_formal_parameter
     612                      .dwattr $C$DW$112, DW_AT_type(*$C$DW$T$200)
     613              $C$DW$113       .dwtag  DW_TAG_formal_parameter
     614                      .dwattr $C$DW$113, DW_AT_type(*$C$DW$T$280)
     615              $C$DW$114       .dwtag  DW_TAG_formal_parameter
     616                      .dwattr $C$DW$114, DW_AT_type(*$C$DW$T$280)
     617                      .dwendtag $C$DW$111
     618              
     619              
     620              $C$DW$115       .dwtag  DW_TAG_subprogram, DW_AT_name("EST_getLs_q_H")
     621                      .dwattr $C$DW$115, DW_AT_TI_symbol_name("_EST_getLs_q_H")
     622                      .dwattr $C$DW$115, DW_AT_type(*$C$DW$T$68)
     623                      .dwattr $C$DW$115, DW_AT_declaration
     624                      .dwattr $C$DW$115, DW_AT_external
     625              $C$DW$116       .dwtag  DW_TAG_formal_parameter
     626                      .dwattr $C$DW$116, DW_AT_type(*$C$DW$T$47)
     627                      .dwendtag $C$DW$115
     628              
     629              
     630              $C$DW$117       .dwtag  DW_TAG_subprogram, DW_AT_name("EST_getRr_Ohm")
     631                      .dwattr $C$DW$117, DW_AT_TI_symbol_name("_EST_getRr_Ohm")
     632                      .dwattr $C$DW$117, DW_AT_type(*$C$DW$T$68)
     633                      .dwattr $C$DW$117, DW_AT_declaration
     634                      .dwattr $C$DW$117, DW_AT_external
     635              $C$DW$118       .dwtag  DW_TAG_formal_parameter
     636                      .dwattr $C$DW$118, DW_AT_type(*$C$DW$T$47)
     637                      .dwendtag $C$DW$117
     638              
     639              
     640              $C$DW$119       .dwtag  DW_TAG_subprogram, DW_AT_name("EST_getIdRated")
     641                      .dwattr $C$DW$119, DW_AT_TI_symbol_name("_EST_getIdRated")
     642                      .dwattr $C$DW$119, DW_AT_type(*$C$DW$T$68)
     643                      .dwattr $C$DW$119, DW_AT_declaration
     644                      .dwattr $C$DW$119, DW_AT_external
     645              $C$DW$120       .dwtag  DW_TAG_formal_parameter
     646                      .dwattr $C$DW$120, DW_AT_type(*$C$DW$T$47)
     647                      .dwendtag $C$DW$119
     648              
     649              
     650              $C$DW$121       .dwtag  DW_TAG_subprogram, DW_AT_name("EST_getFlux_VpHz")
     651                      .dwattr $C$DW$121, DW_AT_TI_symbol_name("_EST_getFlux_VpHz")
     652                      .dwattr $C$DW$121, DW_AT_type(*$C$DW$T$68)
     653                      .dwattr $C$DW$121, DW_AT_declaration
     654                      .dwattr $C$DW$121, DW_AT_external
     655              $C$DW$122       .dwtag  DW_TAG_formal_parameter
     656                      .dwattr $C$DW$122, DW_AT_type(*$C$DW$T$47)
     657                      .dwendtag $C$DW$121
     658              
     659              
     660              $C$DW$123       .dwtag  DW_TAG_subprogram, DW_AT_name("EST_getMaxCurrentSlope_pu")
TMS320C2000 Assembler PC v6.4.11 Sat Nov 26 19:25:36 2016

Tools Copyright (c) 1996-2015 Texas Instruments Incorporated
C:\Users\bee25\AppData\Local\Temp\3412010                            PAGE   14

     661                      .dwattr $C$DW$123, DW_AT_TI_symbol_name("_EST_getMaxCurrentSlope_pu")
     662                      .dwattr $C$DW$123, DW_AT_type(*$C$DW$T$32)
     663                      .dwattr $C$DW$123, DW_AT_declaration
     664                      .dwattr $C$DW$123, DW_AT_external
     665              $C$DW$124       .dwtag  DW_TAG_formal_parameter
     666                      .dwattr $C$DW$124, DW_AT_type(*$C$DW$T$47)
     667                      .dwendtag $C$DW$123
     668              
     669              
     670              $C$DW$125       .dwtag  DW_TAG_subprogram, DW_AT_name("HAL_init")
     671                      .dwattr $C$DW$125, DW_AT_TI_symbol_name("_HAL_init")
     672                      .dwattr $C$DW$125, DW_AT_type(*$C$DW$T$252)
     673                      .dwattr $C$DW$125, DW_AT_declaration
     674                      .dwattr $C$DW$125, DW_AT_external
     675              $C$DW$126       .dwtag  DW_TAG_formal_parameter
     676                      .dwattr $C$DW$126, DW_AT_type(*$C$DW$T$3)
     677              $C$DW$127       .dwtag  DW_TAG_formal_parameter
     678                      .dwattr $C$DW$127, DW_AT_type(*$C$DW$T$232)
     679                      .dwendtag $C$DW$125
     680              
     681              
     682              $C$DW$128       .dwtag  DW_TAG_subprogram, DW_AT_name("EST_getRs_Ohm")
     683                      .dwattr $C$DW$128, DW_AT_TI_symbol_name("_EST_getRs_Ohm")
     684                      .dwattr $C$DW$128, DW_AT_type(*$C$DW$T$68)
     685                      .dwattr $C$DW$128, DW_AT_declaration
     686                      .dwattr $C$DW$128, DW_AT_external
     687              $C$DW$129       .dwtag  DW_TAG_formal_parameter
     688                      .dwattr $C$DW$129, DW_AT_type(*$C$DW$T$47)
     689                      .dwendtag $C$DW$128
     690              
     691              
     692              $C$DW$130       .dwtag  DW_TAG_subprogram, DW_AT_name("EST_getSpeed_krpm")
     693                      .dwattr $C$DW$130, DW_AT_TI_symbol_name("_EST_getSpeed_krpm")
     694                      .dwattr $C$DW$130, DW_AT_type(*$C$DW$T$32)
     695                      .dwattr $C$DW$130, DW_AT_declaration
     696                      .dwattr $C$DW$130, DW_AT_external
     697              $C$DW$131       .dwtag  DW_TAG_formal_parameter
     698                      .dwattr $C$DW$131, DW_AT_type(*$C$DW$T$47)
     699                      .dwendtag $C$DW$130
     700              
     701              
     702              $C$DW$132       .dwtag  DW_TAG_subprogram, DW_AT_name("EST_getLs_d_H")
     703                      .dwattr $C$DW$132, DW_AT_TI_symbol_name("_EST_getLs_d_H")
     704                      .dwattr $C$DW$132, DW_AT_type(*$C$DW$T$68)
     705                      .dwattr $C$DW$132, DW_AT_declaration
     706                      .dwattr $C$DW$132, DW_AT_external
     707              $C$DW$133       .dwtag  DW_TAG_formal_parameter
     708                      .dwattr $C$DW$133, DW_AT_type(*$C$DW$T$47)
     709                      .dwendtag $C$DW$132
     710              
     711                      .global _gPwmData
     712 00000012       _gPwmData:      .usect  ".ebss",6,1,1
     713              $C$DW$134       .dwtag  DW_TAG_variable, DW_AT_name("gPwmData")
     714                      .dwattr $C$DW$134, DW_AT_TI_symbol_name("_gPwmData")
     715                      .dwattr $C$DW$134, DW_AT_location[DW_OP_addr _gPwmData]
TMS320C2000 Assembler PC v6.4.11 Sat Nov 26 19:25:36 2016

Tools Copyright (c) 1996-2015 Texas Instruments Incorporated
C:\Users\bee25\AppData\Local\Temp\3412010                            PAGE   15

     716                      .dwattr $C$DW$134, DW_AT_type(*$C$DW$T$258)
     717                      .dwattr $C$DW$134, DW_AT_external
     718                      .global _gAdcData
     719 00000018       _gAdcData:      .usect  ".ebss",16,1,1
     720              $C$DW$135       .dwtag  DW_TAG_variable, DW_AT_name("gAdcData")
     721                      .dwattr $C$DW$135, DW_AT_TI_symbol_name("_gAdcData")
     722                      .dwattr $C$DW$135, DW_AT_location[DW_OP_addr _gAdcData]
     723                      .dwattr $C$DW$135, DW_AT_type(*$C$DW$T$146)
     724                      .dwattr $C$DW$135, DW_AT_external
     725                      .global _gDrvSpi8301Vars
     726 00000028       _gDrvSpi8301Vars:       .usect  ".ebss",24,1,0
     727              $C$DW$136       .dwtag  DW_TAG_variable, DW_AT_name("gDrvSpi8301Vars")
     728                      .dwattr $C$DW$136, DW_AT_TI_symbol_name("_gDrvSpi8301Vars")
     729                      .dwattr $C$DW$136, DW_AT_location[DW_OP_addr _gDrvSpi8301Vars]
     730                      .dwattr $C$DW$136, DW_AT_type(*$C$DW$T$240)
     731                      .dwattr $C$DW$136, DW_AT_external
     732                      .global _gMotorVars
     733 00000040       _gMotorVars:    .usect  ".ebss",104,1,1
     734              $C$DW$137       .dwtag  DW_TAG_variable, DW_AT_name("gMotorVars")
     735                      .dwattr $C$DW$137, DW_AT_TI_symbol_name("_gMotorVars")
     736                      .dwattr $C$DW$137, DW_AT_location[DW_OP_addr _gMotorVars]
     737                      .dwattr $C$DW$137, DW_AT_type(*$C$DW$T$262)
     738                      .dwattr $C$DW$137, DW_AT_external
     739                      .global _gUserParams
     740 00000040       _gUserParams:   .usect  "rom_accessed_data",172,1,1
     741              $C$DW$138       .dwtag  DW_TAG_variable, DW_AT_name("gUserParams")
     742                      .dwattr $C$DW$138, DW_AT_TI_symbol_name("_gUserParams")
     743                      .dwattr $C$DW$138, DW_AT_location[DW_OP_addr _gUserParams]
     744                      .dwattr $C$DW$138, DW_AT_type(*$C$DW$T$206)
     745                      .dwattr $C$DW$138, DW_AT_external
     746              $C$DW$139       .dwtag  DW_TAG_variable, DW_AT_name("hal")
     747                      .dwattr $C$DW$139, DW_AT_TI_symbol_name("_hal")
     748                      .dwattr $C$DW$139, DW_AT_type(*$C$DW$T$249)
     749                      .dwattr $C$DW$139, DW_AT_declaration
     750                      .dwattr $C$DW$139, DW_AT_external
     751                      .global _ctrl
     752 00000100       _ctrl:  .usect  "rom_accessed_data",264,1,1
     753              $C$DW$140       .dwtag  DW_TAG_variable, DW_AT_name("ctrl")
     754                      .dwattr $C$DW$140, DW_AT_TI_symbol_name("_ctrl")
     755                      .dwattr $C$DW$140, DW_AT_location[DW_OP_addr _ctrl]
     756                      .dwattr $C$DW$140, DW_AT_type(*$C$DW$T$227)
     757                      .dwattr $C$DW$140, DW_AT_external
     758              ;       C:\ti\ccsv6\tools\compiler\c2000_6.4.11\bin\opt2000.exe C:\\Users\\bee25\\AppData\\Local\\Temp\\34120
     759              ;       C:\ti\ccsv6\tools\compiler\c2000_6.4.11\bin\ac2000.exe -@C:\\Users\\bee25\\AppData\\Local\\Temp\\3412
     760 00000000               .sect   ".text"
     761                      .clink
     762                      .global _updateKpKiGains
     763              
     764              $C$DW$141       .dwtag  DW_TAG_subprogram, DW_AT_name("updateKpKiGains")
     765                      .dwattr $C$DW$141, DW_AT_low_pc(_updateKpKiGains)
     766                      .dwattr $C$DW$141, DW_AT_high_pc(0x00)
     767                      .dwattr $C$DW$141, DW_AT_TI_symbol_name("_updateKpKiGains")
     768                      .dwattr $C$DW$141, DW_AT_external
     769                      .dwattr $C$DW$141, DW_AT_TI_begin_file("C:/ti/motorware/motorware_1_01_00_16/sw/solutions/instaspin_f
     770                      .dwattr $C$DW$141, DW_AT_TI_begin_line(0x21a)
TMS320C2000 Assembler PC v6.4.11 Sat Nov 26 19:25:36 2016

Tools Copyright (c) 1996-2015 Texas Instruments Incorporated
C:\Users\bee25\AppData\Local\Temp\3412010                            PAGE   16

     771                      .dwattr $C$DW$141, DW_AT_TI_begin_column(0x06)
     772                      .dwattr $C$DW$141, DW_AT_TI_max_frame_size(-2)
     773                      .dwpsn  file "C:/ti/motorware/motorware_1_01_00_16/sw/solutions/instaspin_foc/src/proj_lab05b.c",line
     774              
     775                      .dwfde $C$DW$CIE, _updateKpKiGains
     776              $C$DW$142       .dwtag  DW_TAG_formal_parameter, DW_AT_name("handle")
     777                      .dwattr $C$DW$142, DW_AT_TI_symbol_name("_handle")
     778                      .dwattr $C$DW$142, DW_AT_type(*$C$DW$T$200)
     779                      .dwattr $C$DW$142, DW_AT_location[DW_OP_reg12]
     780              
     781              ;***************************************************************
     782              ;* FNAME: _updateKpKiGains              FR SIZE:   0           *
     783              ;*                                                             *
     784              ;* FUNCTION ENVIRONMENT                                        *
     785              ;*                                                             *
     786              ;* FUNCTION PROPERTIES                                         *
     787              ;*                            0 Parameter,  0 Auto,  0 SOE     *
     788              ;***************************************************************
     789              
     790              _updateKpKiGains:
     791              ;* AR4   assigned to _handle
     792              $C$DW$143       .dwtag  DW_TAG_variable, DW_AT_name("handle")
     793                      .dwattr $C$DW$143, DW_AT_TI_symbol_name("_handle")
     794                      .dwattr $C$DW$143, DW_AT_type(*$C$DW$T$229)
     795                      .dwattr $C$DW$143, DW_AT_location[DW_OP_reg12]
     796              ;* AL    assigned to _Ki
     797              $C$DW$144       .dwtag  DW_TAG_variable, DW_AT_name("Ki")
     798                      .dwattr $C$DW$144, DW_AT_TI_symbol_name("_Ki")
     799                      .dwattr $C$DW$144, DW_AT_type(*$C$DW$T$32)
     800                      .dwattr $C$DW$144, DW_AT_location[DW_OP_reg0]
     801              ;* AL    assigned to _Kp
     802              $C$DW$145       .dwtag  DW_TAG_variable, DW_AT_name("Kp")
     803                      .dwattr $C$DW$145, DW_AT_TI_symbol_name("_Kp")
     804                      .dwattr $C$DW$145, DW_AT_type(*$C$DW$T$32)
     805                      .dwattr $C$DW$145, DW_AT_location[DW_OP_reg0]
     806              ;* AL    assigned to _Ki
     807              $C$DW$146       .dwtag  DW_TAG_variable, DW_AT_name("Ki")
     808                      .dwattr $C$DW$146, DW_AT_TI_symbol_name("_Ki")
     809                      .dwattr $C$DW$146, DW_AT_type(*$C$DW$T$32)
     810                      .dwattr $C$DW$146, DW_AT_location[DW_OP_reg0]
     811              ;* AL    assigned to _Kp
     812              $C$DW$147       .dwtag  DW_TAG_variable, DW_AT_name("Kp")
     813                      .dwattr $C$DW$147, DW_AT_TI_symbol_name("_Kp")
     814                      .dwattr $C$DW$147, DW_AT_type(*$C$DW$T$32)
     815                      .dwattr $C$DW$147, DW_AT_location[DW_OP_reg0]
     816              ;* AL    assigned to _Ki
     817              $C$DW$148       .dwtag  DW_TAG_variable, DW_AT_name("Ki")
     818                      .dwattr $C$DW$148, DW_AT_TI_symbol_name("_Ki")
     819                      .dwattr $C$DW$148, DW_AT_type(*$C$DW$T$32)
     820                      .dwattr $C$DW$148, DW_AT_location[DW_OP_reg0]
     821              ;* AL    assigned to _Kp
     822              $C$DW$149       .dwtag  DW_TAG_variable, DW_AT_name("Kp")
     823                      .dwattr $C$DW$149, DW_AT_TI_symbol_name("_Kp")
     824                      .dwattr $C$DW$149, DW_AT_type(*$C$DW$T$32)
     825                      .dwattr $C$DW$149, DW_AT_location[DW_OP_reg0]
TMS320C2000 Assembler PC v6.4.11 Sat Nov 26 19:25:36 2016

Tools Copyright (c) 1996-2015 Texas Instruments Incorporated
C:\Users\bee25\AppData\Local\Temp\3412010                            PAGE   17

     826                      .dwcfi  cfa_offset, -2
     827                      .dwcfi  save_reg_to_mem, 26, 0
     828 00000000 761F-         MOVW      DP,#_gMotorVars+11    ; [CPU_U] 
         00000001 0001 
     829                      .dwpsn  file "C:/ti/motorware/motorware_1_01_00_16/sw/solutions/instaspin_foc/src/proj_lab05b.c",line
     830 00000002 920B-         MOV       AL,@_gMotorVars+11    ; [CPU_] |540| 
     831 00000003 5203          CMPB      AL,#3                 ; [CPU_] |540| 
     832 00000004 ED1D          BF        $C$L1,NEQ             ; [CPU_] |540| 
     833                      ; branchcc occurs ; [] |540| 
     834 00000005 9202-         MOV       AL,@_gMotorVars+2     ; [CPU_] |540| 
     835 00000006 5201          CMPB      AL,#1                 ; [CPU_] |540| 
     836 00000007 ED1A          BF        $C$L1,NEQ             ; [CPU_] |540| 
     837                      ; branchcc occurs ; [] |540| 
     838 00000008 761F-         MOVW      DP,#_Flag_Latch_softwareUpdate ; [CPU_U] 
         00000009 0000 
     839 0000000a 9202-         MOV       AL,@_Flag_Latch_softwareUpdate ; [CPU_] |540| 
     840 0000000b 5201          CMPB      AL,#1                 ; [CPU_] |540| 
     841 0000000c EC15          BF        $C$L1,EQ              ; [CPU_] |540| 
     842                      ; branchcc occurs ; [] |540| 
     843 0000000d 761F-         MOVW      DP,#_gMotorVars+68    ; [CPU_U] 
         0000000e 0002 
     844                      .dwpsn  file "C:/ti/motorware/motorware_1_01_00_16/sw/modules/ctrl/src/32b/ctrl.h",line 1505,column 7
     845 0000000f D0CE          MOVB      XAR0,#206             ; [CPU_] |1505| 
     846                      .dwpsn  file "C:/ti/motorware/motorware_1_01_00_16/sw/solutions/instaspin_foc/src/proj_lab05b.c",line
     847 00000010 0604-         MOVL      ACC,@_gMotorVars+68   ; [CPU_] |543| 
     848                      .dwpsn  file "C:/ti/motorware/motorware_1_01_00_16/sw/modules/ctrl/src/32b/ctrl.h",line 1505,column 7
     849 00000011 1E94          MOVL      *+XAR4[AR0],ACC       ; [CPU_] |1505| 
     850                      .dwpsn  file "C:/ti/motorware/motorware_1_01_00_16/sw/modules/ctrl/src/32b/ctrl.h",line 1480,column 7
     851 00000012 D0D4          MOVB      XAR0,#212             ; [CPU_] |1480| 
     852                      .dwpsn  file "C:/ti/motorware/motorware_1_01_00_16/sw/solutions/instaspin_foc/src/proj_lab05b.c",line
     853 00000013 0606-         MOVL      ACC,@_gMotorVars+70   ; [CPU_] |544| 
     854                      .dwpsn  file "C:/ti/motorware/motorware_1_01_00_16/sw/modules/ctrl/src/32b/ctrl.h",line 1480,column 7
     855 00000014 1E94          MOVL      *+XAR4[AR0],ACC       ; [CPU_] |1480| 
     856                      .dwpsn  file "C:/ti/motorware/motorware_1_01_00_16/sw/modules/ctrl/src/32b/ctrl.h",line 1509,column 7
     857 00000015 D0CA          MOVB      XAR0,#202             ; [CPU_] |1509| 
     858                      .dwpsn  file "C:/ti/motorware/motorware_1_01_00_16/sw/solutions/instaspin_foc/src/proj_lab05b.c",line
     859 00000016 0608-         MOVL      ACC,@_gMotorVars+72   ; [CPU_] |547| 
     860                      .dwpsn  file "C:/ti/motorware/motorware_1_01_00_16/sw/modules/ctrl/src/32b/ctrl.h",line 1509,column 7
     861 00000017 1E94          MOVL      *+XAR4[AR0],ACC       ; [CPU_] |1509| 
     862                      .dwpsn  file "C:/ti/motorware/motorware_1_01_00_16/sw/modules/ctrl/src/32b/ctrl.h",line 1484,column 7
     863 00000018 D0D0          MOVB      XAR0,#208             ; [CPU_] |1484| 
     864                      .dwpsn  file "C:/ti/motorware/motorware_1_01_00_16/sw/solutions/instaspin_foc/src/proj_lab05b.c",line
     865 00000019 060A-         MOVL      ACC,@_gMotorVars+74   ; [CPU_] |548| 
     866                      .dwpsn  file "C:/ti/motorware/motorware_1_01_00_16/sw/modules/ctrl/src/32b/ctrl.h",line 1484,column 7
     867 0000001a 1E94          MOVL      *+XAR4[AR0],ACC       ; [CPU_] |1484| 
     868                      .dwpsn  file "C:/ti/motorware/motorware_1_01_00_16/sw/modules/ctrl/src/32b/ctrl.h",line 1513,column 7
     869 0000001b D0CC          MOVB      XAR0,#204             ; [CPU_] |1513| 
     870                      .dwpsn  file "C:/ti/motorware/motorware_1_01_00_16/sw/solutions/instaspin_foc/src/proj_lab05b.c",line
     871 0000001c 0608-         MOVL      ACC,@_gMotorVars+72   ; [CPU_] |549| 
     872                      .dwpsn  file "C:/ti/motorware/motorware_1_01_00_16/sw/modules/ctrl/src/32b/ctrl.h",line 1513,column 7
     873 0000001d 1E94          MOVL      *+XAR4[AR0],ACC       ; [CPU_] |1513| 
     874                      .dwpsn  file "C:/ti/motorware/motorware_1_01_00_16/sw/solutions/instaspin_foc/src/proj_lab05b.c",line
     875 0000001e 060A-         MOVL      ACC,@_gMotorVars+74   ; [CPU_] |550| 
     876                      .dwpsn  file "C:/ti/motorware/motorware_1_01_00_16/sw/modules/ctrl/src/32b/ctrl.h",line 1488,column 7
     877 0000001f D0D2          MOVB      XAR0,#210             ; [CPU_] |1488| 
TMS320C2000 Assembler PC v6.4.11 Sat Nov 26 19:25:36 2016

Tools Copyright (c) 1996-2015 Texas Instruments Incorporated
C:\Users\bee25\AppData\Local\Temp\3412010                            PAGE   18

     878 00000020 1E94          MOVL      *+XAR4[AR0],ACC       ; [CPU_] |1488| 
     879              $C$L1:    
     880              $C$DW$150       .dwtag  DW_TAG_TI_branch
     881                      .dwattr $C$DW$150, DW_AT_low_pc(0x00)
     882                      .dwattr $C$DW$150, DW_AT_TI_return
     883 00000021 0006          LRETR     ; [CPU_] 
     884                      ; return occurs ; [] 
     885                      .dwattr $C$DW$141, DW_AT_TI_end_file("C:/ti/motorware/motorware_1_01_00_16/sw/solutions/instaspin_foc
     886                      .dwattr $C$DW$141, DW_AT_TI_end_line(0x22a)
     887                      .dwattr $C$DW$141, DW_AT_TI_end_column(0x01)
     888                      .dwendentry
     889                      .dwendtag $C$DW$141
     890              
     891 00000022               .sect   ".text"
     892                      .clink
     893                      .global _updateGlobalVariables_motor
     894              
     895              $C$DW$151       .dwtag  DW_TAG_subprogram, DW_AT_name("updateGlobalVariables_motor")
     896                      .dwattr $C$DW$151, DW_AT_low_pc(_updateGlobalVariables_motor)
     897                      .dwattr $C$DW$151, DW_AT_high_pc(0x00)
     898                      .dwattr $C$DW$151, DW_AT_TI_symbol_name("_updateGlobalVariables_motor")
     899                      .dwattr $C$DW$151, DW_AT_external
     900                      .dwattr $C$DW$151, DW_AT_TI_begin_file("C:/ti/motorware/motorware_1_01_00_16/sw/solutions/instaspin_f
     901                      .dwattr $C$DW$151, DW_AT_TI_begin_line(0x1eb)
     902                      .dwattr $C$DW$151, DW_AT_TI_begin_column(0x06)
     903                      .dwattr $C$DW$151, DW_AT_TI_max_frame_size(-8)
     904                      .dwpsn  file "C:/ti/motorware/motorware_1_01_00_16/sw/solutions/instaspin_foc/src/proj_lab05b.c",line
     905              
     906                      .dwfde $C$DW$CIE, _updateGlobalVariables_motor
     907              $C$DW$152       .dwtag  DW_TAG_formal_parameter, DW_AT_name("handle")
     908                      .dwattr $C$DW$152, DW_AT_TI_symbol_name("_handle")
     909                      .dwattr $C$DW$152, DW_AT_type(*$C$DW$T$200)
     910                      .dwattr $C$DW$152, DW_AT_location[DW_OP_reg12]
     911              
     912              ;***************************************************************
     913              ;* FNAME: _updateGlobalVariables_motor  FR SIZE:   6           *
     914              ;*                                                             *
     915              ;* FUNCTION ENVIRONMENT                                        *
     916              ;*                                                             *
     917              ;* FUNCTION PROPERTIES                                         *
     918              ;*                            2 Parameter,  0 Auto,  4 SOE     *
     919              ;***************************************************************
     920              
     921              _updateGlobalVariables_motor:
     922              ;* XT    assigned to $O$R2
     923              ;* AR2   assigned to _handle
     924              $C$DW$153       .dwtag  DW_TAG_variable, DW_AT_name("handle")
     925                      .dwattr $C$DW$153, DW_AT_TI_symbol_name("_handle")
     926                      .dwattr $C$DW$153, DW_AT_type(*$C$DW$T$229)
     927                      .dwattr $C$DW$153, DW_AT_location[DW_OP_reg8]
     928                      .dwcfi  cfa_offset, -2
     929                      .dwcfi  save_reg_to_mem, 26, 0
     930 00000022 B2BD          MOVL      *SP++,XAR1            ; [CPU_] 
     931                      .dwcfi  save_reg_to_mem, 7, 2
     932                      .dwcfi  cfa_offset, -4
TMS320C2000 Assembler PC v6.4.11 Sat Nov 26 19:25:36 2016

Tools Copyright (c) 1996-2015 Texas Instruments Incorporated
C:\Users\bee25\AppData\Local\Temp\3412010                            PAGE   19

     933 00000023 AABD          MOVL      *SP++,XAR2            ; [CPU_] 
     934                      .dwcfi  save_reg_to_mem, 9, 4
     935                      .dwcfi  cfa_offset, -6
     936 00000024 FE02          ADDB      SP,#2                 ; [CPU_U] 
     937                      .dwcfi  cfa_offset, -8
     938 00000025 86A4          MOVL      XAR2,XAR4             ; [CPU_] |492| 
     939                      .dwpsn  file "C:/ti/motorware/motorware_1_01_00_16/sw/solutions/instaspin_foc/src/proj_lab05b.c",line
     940 00000026 D018          MOVB      XAR0,#24              ; [CPU_] |496| 
     941 00000027 8A92          MOVL      XAR4,*+XAR2[AR0]      ; [CPU_] |496| 
     942              $C$DW$154       .dwtag  DW_TAG_TI_branch
     943                      .dwattr $C$DW$154, DW_AT_low_pc(0x00)
     944                      .dwattr $C$DW$154, DW_AT_name("_EST_getSpeed_krpm")
     945                      .dwattr $C$DW$154, DW_AT_TI_call
     946 00000028 7640!         LCR       #_EST_getSpeed_krpm   ; [CPU_] |496| 
         00000029 0000 
     947                      ; call occurs [#_EST_getSpeed_krpm] ; [] |496| 
     948 0000002a 761F-         MOVW      DP,#_gMotorVars+30    ; [CPU_U] 
         0000002b 0001 
     949                      .dwpsn  file "C:/ti/motorware/motorware_1_01_00_16/sw/modules/traj/src/32b/traj.h",line 96,column 3,i
     950 0000002c D06C          MOVB      XAR0,#108             ; [CPU_] |96| 
     951                      .dwpsn  file "C:/ti/motorware/motorware_1_01_00_16/sw/solutions/instaspin_foc/src/proj_lab05b.c",line
     952 0000002d 1E1E-         MOVL      @_gMotorVars+30,ACC   ; [CPU_] |496| 
     953                      .dwpsn  file "C:/ti/motorware/motorware_1_01_00_16/sw/modules/traj/src/32b/traj.h",line 96,column 3,i
     954 0000002e 8A92          MOVL      XAR4,*+XAR2[AR0]      ; [CPU_] |96| 
     955                      .dwpsn  file "C:/ti/motorware/motorware_1_01_00_16/sw/solutions/instaspin_foc/src/proj_lab05b.c",line
     956 0000002f D018          MOVB      XAR0,#24              ; [CPU_] |499| 
     957                      .dwpsn  file "C:/ti/motorware/motorware_1_01_00_16/sw/modules/traj/src/32b/traj.h",line 96,column 3,i
     958 00000030 8BD4          MOVL      XAR1,*+XAR4[2]        ; [CPU_] |96| 
     959                      .dwpsn  file "C:/ti/motorware/motorware_1_01_00_16/sw/solutions/instaspin_foc/src/proj_lab05b.c",line
     960 00000031 8A92          MOVL      XAR4,*+XAR2[AR0]      ; [CPU_] |499| 
     961              $C$DW$155       .dwtag  DW_TAG_TI_branch
     962                      .dwattr $C$DW$155, DW_AT_low_pc(0x00)
     963                      .dwattr $C$DW$155, DW_AT_name("_EST_get_pu_to_krpm_sf")
     964                      .dwattr $C$DW$155, DW_AT_TI_call
     965 00000032 7640!         LCR       #_EST_get_pu_to_krpm_sf ; [CPU_] |499| 
         00000033 0000 
     966                      ; call occurs [#_EST_get_pu_to_krpm_sf] ; [] |499| 
     967 00000034 761F-         MOVW      DP,#_gMotorVars+26    ; [CPU_U] 
         00000035 0001 
     968 00000036 B2AC          MOVL      XT,XAR1               ; [CPU_] |499| 
     969                      .dwpsn  file "C:/ti/motorware/motorware_1_01_00_16/sw/solutions/instaspin_foc/src/proj_lab05b.c",line
     970 00000037 8AA2          MOVL      XAR4,XAR2             ; [CPU_] |502| 
     971                      .dwpsn  file "C:/ti/motorware/motorware_1_01_00_16/sw/solutions/instaspin_foc/src/proj_lab05b.c",line
     972 00000038 5605          IMPYL     P,XT,ACC              ; [CPU_] |499| 
         00000039 00A9 
     973 0000003a 5663          QMPYL     ACC,XT,ACC            ; [CPU_] |499| 
         0000003b 00A9 
     974 0000003c 56A7          LSL64     ACC:P,#8              ; [CPU_] |499| 
     975 0000003d 1E1A-         MOVL      @_gMotorVars+26,ACC   ; [CPU_] |499| 
     976 0000003e 761F-         MOVW      DP,#_gTorque_Ls_Id_Iq_pu_to_Nm_sf ; [CPU_U] 
         0000003f 0000 
     977                      .dwpsn  file "C:/ti/motorware/motorware_1_01_00_16/sw/solutions/instaspin_foc/src/proj_lab05b.c",line
     978 00000040 0610-         MOVL      ACC,@_gTorque_Ls_Id_Iq_pu_to_Nm_sf ; [CPU_] |502| 
     979 00000041 1E42          MOVL      *-SP[2],ACC           ; [CPU_] |502| 
     980 00000042 060E-         MOVL      ACC,@_gTorque_Flux_Iq_pu_to_Nm_sf ; [CPU_] |502| 
TMS320C2000 Assembler PC v6.4.11 Sat Nov 26 19:25:36 2016

Tools Copyright (c) 1996-2015 Texas Instruments Incorporated
C:\Users\bee25\AppData\Local\Temp\3412010                            PAGE   20

     981              $C$DW$156       .dwtag  DW_TAG_TI_branch
     982                      .dwattr $C$DW$156, DW_AT_low_pc(0x00)
     983                      .dwattr $C$DW$156, DW_AT_name("_USER_computeTorque_Nm")
     984                      .dwattr $C$DW$156, DW_AT_TI_call
     985 00000043 7640!         LCR       #_USER_computeTorque_Nm ; [CPU_] |502| 
         00000044 0000 
     986                      ; call occurs [#_USER_computeTorque_Nm] ; [] |502| 
     987 00000045 761F-         MOVW      DP,#_gMotorVars+40    ; [CPU_U] 
         00000046 0001 
     988                      .dwpsn  file "C:/ti/motorware/motorware_1_01_00_16/sw/solutions/instaspin_foc/src/proj_lab05b.c",line
     989 00000047 D018          MOVB      XAR0,#24              ; [CPU_] |505| 
     990                      .dwpsn  file "C:/ti/motorware/motorware_1_01_00_16/sw/solutions/instaspin_foc/src/proj_lab05b.c",line
     991 00000048 1E28-         MOVL      @_gMotorVars+40,ACC   ; [CPU_] |502| 
     992                      .dwpsn  file "C:/ti/motorware/motorware_1_01_00_16/sw/solutions/instaspin_foc/src/proj_lab05b.c",line
     993 00000049 8A92          MOVL      XAR4,*+XAR2[AR0]      ; [CPU_] |505| 
     994              $C$DW$157       .dwtag  DW_TAG_TI_branch
     995                      .dwattr $C$DW$157, DW_AT_low_pc(0x00)
     996                      .dwattr $C$DW$157, DW_AT_name("_EST_getIdRated")
     997                      .dwattr $C$DW$157, DW_AT_TI_call
     998 0000004a 7640!         LCR       #_EST_getIdRated      ; [CPU_] |505| 
         0000004b 0000 
     999                      ; call occurs [#_EST_getIdRated] ; [] |505| 
    1000 0000004c 761F-         MOVW      DP,#_gMotorVars+42    ; [CPU_U] 
         0000004d 0001 
    1001                      .dwpsn  file "C:/ti/motorware/motorware_1_01_00_16/sw/solutions/instaspin_foc/src/proj_lab05b.c",line
    1002 0000004e D018          MOVB      XAR0,#24              ; [CPU_] |508| 
    1003                      .dwpsn  file "C:/ti/motorware/motorware_1_01_00_16/sw/solutions/instaspin_foc/src/proj_lab05b.c",line
    1004 0000004f 1E2A-         MOVL      @_gMotorVars+42,ACC   ; [CPU_] |505| 
    1005                      .dwpsn  file "C:/ti/motorware/motorware_1_01_00_16/sw/solutions/instaspin_foc/src/proj_lab05b.c",line
    1006 00000050 8A92          MOVL      XAR4,*+XAR2[AR0]      ; [CPU_] |508| 
    1007              $C$DW$158       .dwtag  DW_TAG_TI_branch
    1008                      .dwattr $C$DW$158, DW_AT_low_pc(0x00)
    1009                      .dwattr $C$DW$158, DW_AT_name("_EST_getRr_Ohm")
    1010                      .dwattr $C$DW$158, DW_AT_TI_call
    1011 00000051 7640!         LCR       #_EST_getRr_Ohm       ; [CPU_] |508| 
         00000052 0000 
    1012                      ; call occurs [#_EST_getRr_Ohm] ; [] |508| 
    1013 00000053 761F-         MOVW      DP,#_gMotorVars+44    ; [CPU_U] 
         00000054 0001 
    1014                      .dwpsn  file "C:/ti/motorware/motorware_1_01_00_16/sw/solutions/instaspin_foc/src/proj_lab05b.c",line
    1015 00000055 D018          MOVB      XAR0,#24              ; [CPU_] |511| 
    1016                      .dwpsn  file "C:/ti/motorware/motorware_1_01_00_16/sw/solutions/instaspin_foc/src/proj_lab05b.c",line
    1017 00000056 1E2C-         MOVL      @_gMotorVars+44,ACC   ; [CPU_] |508| 
    1018                      .dwpsn  file "C:/ti/motorware/motorware_1_01_00_16/sw/solutions/instaspin_foc/src/proj_lab05b.c",line
    1019 00000057 8A92          MOVL      XAR4,*+XAR2[AR0]      ; [CPU_] |511| 
    1020              $C$DW$159       .dwtag  DW_TAG_TI_branch
    1021                      .dwattr $C$DW$159, DW_AT_low_pc(0x00)
    1022                      .dwattr $C$DW$159, DW_AT_name("_EST_getRs_Ohm")
    1023                      .dwattr $C$DW$159, DW_AT_TI_call
    1024 00000058 7640!         LCR       #_EST_getRs_Ohm       ; [CPU_] |511| 
         00000059 0000 
    1025                      ; call occurs [#_EST_getRs_Ohm] ; [] |511| 
    1026 0000005a 761F-         MOVW      DP,#_gMotorVars+46    ; [CPU_U] 
         0000005b 0001 
    1027                      .dwpsn  file "C:/ti/motorware/motorware_1_01_00_16/sw/solutions/instaspin_foc/src/proj_lab05b.c",line
TMS320C2000 Assembler PC v6.4.11 Sat Nov 26 19:25:36 2016

Tools Copyright (c) 1996-2015 Texas Instruments Incorporated
C:\Users\bee25\AppData\Local\Temp\3412010                            PAGE   21

    1028 0000005c D018          MOVB      XAR0,#24              ; [CPU_] |514| 
    1029                      .dwpsn  file "C:/ti/motorware/motorware_1_01_00_16/sw/solutions/instaspin_foc/src/proj_lab05b.c",line
    1030 0000005d 1E2E-         MOVL      @_gMotorVars+46,ACC   ; [CPU_] |511| 
    1031                      .dwpsn  file "C:/ti/motorware/motorware_1_01_00_16/sw/solutions/instaspin_foc/src/proj_lab05b.c",line
    1032 0000005e 8A92          MOVL      XAR4,*+XAR2[AR0]      ; [CPU_] |514| 
    1033              $C$DW$160       .dwtag  DW_TAG_TI_branch
    1034                      .dwattr $C$DW$160, DW_AT_low_pc(0x00)
    1035                      .dwattr $C$DW$160, DW_AT_name("_EST_getLs_d_H")
    1036                      .dwattr $C$DW$160, DW_AT_TI_call
    1037 0000005f 7640!         LCR       #_EST_getLs_d_H       ; [CPU_] |514| 
         00000060 0000 
    1038                      ; call occurs [#_EST_getLs_d_H] ; [] |514| 
    1039 00000061 761F-         MOVW      DP,#_gMotorVars+50    ; [CPU_U] 
         00000062 0001 
    1040                      .dwpsn  file "C:/ti/motorware/motorware_1_01_00_16/sw/solutions/instaspin_foc/src/proj_lab05b.c",line
    1041 00000063 D018          MOVB      XAR0,#24              ; [CPU_] |517| 
    1042                      .dwpsn  file "C:/ti/motorware/motorware_1_01_00_16/sw/solutions/instaspin_foc/src/proj_lab05b.c",line
    1043 00000064 1E32-         MOVL      @_gMotorVars+50,ACC   ; [CPU_] |514| 
    1044                      .dwpsn  file "C:/ti/motorware/motorware_1_01_00_16/sw/solutions/instaspin_foc/src/proj_lab05b.c",line
    1045 00000065 8A92          MOVL      XAR4,*+XAR2[AR0]      ; [CPU_] |517| 
    1046              $C$DW$161       .dwtag  DW_TAG_TI_branch
    1047                      .dwattr $C$DW$161, DW_AT_low_pc(0x00)
    1048                      .dwattr $C$DW$161, DW_AT_name("_EST_getLs_q_H")
    1049                      .dwattr $C$DW$161, DW_AT_TI_call
    1050 00000066 7640!         LCR       #_EST_getLs_q_H       ; [CPU_] |517| 
         00000067 0000 
    1051                      ; call occurs [#_EST_getLs_q_H] ; [] |517| 
    1052 00000068 761F-         MOVW      DP,#_gMotorVars+52    ; [CPU_U] 
         00000069 0001 
    1053                      .dwpsn  file "C:/ti/motorware/motorware_1_01_00_16/sw/solutions/instaspin_foc/src/proj_lab05b.c",line
    1054 0000006a D018          MOVB      XAR0,#24              ; [CPU_] |520| 
    1055                      .dwpsn  file "C:/ti/motorware/motorware_1_01_00_16/sw/solutions/instaspin_foc/src/proj_lab05b.c",line
    1056 0000006b 1E34-         MOVL      @_gMotorVars+52,ACC   ; [CPU_] |517| 
    1057                      .dwpsn  file "C:/ti/motorware/motorware_1_01_00_16/sw/solutions/instaspin_foc/src/proj_lab05b.c",line
    1058 0000006c 8A92          MOVL      XAR4,*+XAR2[AR0]      ; [CPU_] |520| 
    1059              $C$DW$162       .dwtag  DW_TAG_TI_branch
    1060                      .dwattr $C$DW$162, DW_AT_low_pc(0x00)
    1061                      .dwattr $C$DW$162, DW_AT_name("_EST_getFlux_VpHz")
    1062                      .dwattr $C$DW$162, DW_AT_TI_call
    1063 0000006d 7640!         LCR       #_EST_getFlux_VpHz    ; [CPU_] |520| 
         0000006e 0000 
    1064                      ; call occurs [#_EST_getFlux_VpHz] ; [] |520| 
    1065 0000006f 761F-         MOVW      DP,#_gMotorVars+54    ; [CPU_U] 
         00000070 0001 
    1066 00000071 1E36-         MOVL      @_gMotorVars+54,ACC   ; [CPU_] |520| 
    1067                      .dwpsn  file "C:/ti/motorware/motorware_1_01_00_16/sw/solutions/instaspin_foc/src/proj_lab05b.c",line
    1068 00000072 8AA2          MOVL      XAR4,XAR2             ; [CPU_] |523| 
    1069 00000073 761F-         MOVW      DP,#_gFlux_pu_to_Wb_sf ; [CPU_U] 
         00000074 0000 
    1070 00000075 060C-         MOVL      ACC,@_gFlux_pu_to_Wb_sf ; [CPU_] |523| 
    1071              $C$DW$163       .dwtag  DW_TAG_TI_branch
    1072                      .dwattr $C$DW$163, DW_AT_low_pc(0x00)
    1073                      .dwattr $C$DW$163, DW_AT_name("_USER_computeFlux")
    1074                      .dwattr $C$DW$163, DW_AT_TI_call
    1075 00000076 7640!         LCR       #_USER_computeFlux    ; [CPU_] |523| 
TMS320C2000 Assembler PC v6.4.11 Sat Nov 26 19:25:36 2016

Tools Copyright (c) 1996-2015 Texas Instruments Incorporated
C:\Users\bee25\AppData\Local\Temp\3412010                            PAGE   22

         00000077 0000 
    1076                      ; call occurs [#_USER_computeFlux] ; [] |523| 
    1077 00000078 761F-         MOVW      DP,#_gMotorVars+38    ; [CPU_U] 
         00000079 0001 
    1078                      .dwpsn  file "C:/ti/motorware/motorware_1_01_00_16/sw/solutions/instaspin_foc/src/proj_lab05b.c",line
    1079 0000007a D018          MOVB      XAR0,#24              ; [CPU_] |529| 
    1080                      .dwpsn  file "C:/ti/motorware/motorware_1_01_00_16/sw/solutions/instaspin_foc/src/proj_lab05b.c",line
    1081 0000007b 1E26-         MOVL      @_gMotorVars+38,ACC   ; [CPU_] |523| 
    1082                      .dwpsn  file "C:/ti/motorware/motorware_1_01_00_16/sw/solutions/instaspin_foc/src/proj_lab05b.c",line
    1083 0000007c 92E2          MOV       AL,*+XAR2[4]          ; [CPU_] |526| 
    1084 0000007d 960B-         MOV       @_gMotorVars+11,AL    ; [CPU_] |526| 
    1085                      .dwpsn  file "C:/ti/motorware/motorware_1_01_00_16/sw/solutions/instaspin_foc/src/proj_lab05b.c",line
    1086 0000007e 8A92          MOVL      XAR4,*+XAR2[AR0]      ; [CPU_] |529| 
    1087              $C$DW$164       .dwtag  DW_TAG_TI_branch
    1088                      .dwattr $C$DW$164, DW_AT_low_pc(0x00)
    1089                      .dwattr $C$DW$164, DW_AT_name("_EST_getState")
    1090                      .dwattr $C$DW$164, DW_AT_TI_call
    1091 0000007f 7640!         LCR       #_EST_getState        ; [CPU_] |529| 
         00000080 0000 
    1092                      ; call occurs [#_EST_getState] ; [] |529| 
    1093 00000081 761F-         MOVW      DP,#_gMotorVars+12    ; [CPU_U] 
         00000082 0001 
    1094 00000083 960C-         MOV       @_gMotorVars+12,AL    ; [CPU_] |529| 
    1095                      .dwpsn  file "C:/ti/motorware/motorware_1_01_00_16/sw/solutions/instaspin_foc/src/proj_lab05b.c",line
    1096 00000084 8F0C          MOVL      XAR4,#838860          ; [CPU_U] |532| 
         00000085 CCCC 
    1097 00000086 761F-         MOVW      DP,#_gAdcData+12      ; [CPU_U] 
         00000087 0000 
    1098 00000088 8724-         MOVL      XT,@_gAdcData+12      ; [CPU_] |532| 
    1099 00000089 FE82          SUBB      SP,#2                 ; [CPU_U] 
    1100                      .dwcfi  cfa_offset, -6
    1101 0000008a 86BE          MOVL      XAR2,*--SP            ; [CPU_] 
    1102                      .dwcfi  cfa_offset, -4
    1103                      .dwcfi  restore_reg, 9
    1104 0000008b 5605          IMPYL     P,XT,XAR4             ; [CPU_] |532| 
         0000008c 00A4 
    1105 0000008d 5663          QMPYL     ACC,XT,XAR4           ; [CPU_] |532| 
         0000008e 00A4 
    1106 0000008f 8BBE          MOVL      XAR1,*--SP            ; [CPU_] 
    1107                      .dwcfi  cfa_offset, -2
    1108                      .dwcfi  restore_reg, 7
    1109 00000090 56A7          LSL64     ACC:P,#8              ; [CPU_] |532| 
    1110 00000091 761F-         MOVW      DP,#_gMotorVars+84    ; [CPU_U] 
         00000092 0002 
    1111 00000093 1E14-         MOVL      @_gMotorVars+84,ACC   ; [CPU_] |532| 
    1112              $C$DW$165       .dwtag  DW_TAG_TI_branch
    1113                      .dwattr $C$DW$165, DW_AT_low_pc(0x00)
    1114                      .dwattr $C$DW$165, DW_AT_TI_return
    1115 00000094 0006          LRETR     ; [CPU_] 
    1116                      ; return occurs ; [] 
    1117                      .dwattr $C$DW$151, DW_AT_TI_end_file("C:/ti/motorware/motorware_1_01_00_16/sw/solutions/instaspin_foc
    1118                      .dwattr $C$DW$151, DW_AT_TI_end_line(0x217)
    1119                      .dwattr $C$DW$151, DW_AT_TI_end_column(0x01)
    1120                      .dwendentry
    1121                      .dwendtag $C$DW$151
TMS320C2000 Assembler PC v6.4.11 Sat Nov 26 19:25:36 2016

Tools Copyright (c) 1996-2015 Texas Instruments Incorporated
C:\Users\bee25\AppData\Local\Temp\3412010                            PAGE   23

    1122              
    1123 00000095               .sect   ".text"
    1124                      .clink
    1125              
    1126              $C$DW$166       .dwtag  DW_TAG_subprogram, DW_AT_name("HAL_readAdcData")
    1127                      .dwattr $C$DW$166, DW_AT_low_pc(_HAL_readAdcData)
    1128                      .dwattr $C$DW$166, DW_AT_high_pc(0x00)
    1129                      .dwattr $C$DW$166, DW_AT_TI_symbol_name("_HAL_readAdcData")
    1130                      .dwattr $C$DW$166, DW_AT_TI_begin_file("C:/ti/motorware/motorware_1_01_00_16/sw/modules/hal/boards/bo
    1131                      .dwattr $C$DW$166, DW_AT_TI_begin_line(0x1fb)
    1132                      .dwattr $C$DW$166, DW_AT_TI_begin_column(0x14)
    1133                      .dwattr $C$DW$166, DW_AT_TI_max_frame_size(-6)
    1134                      .dwpsn  file "C:/ti/motorware/motorware_1_01_00_16/sw/modules/hal/boards/boostxldrv8301_revB/f28x/f28
    1135              
    1136                      .dwfde $C$DW$CIE, _HAL_readAdcData
    1137              $C$DW$167       .dwtag  DW_TAG_variable, DW_AT_name("current")
    1138                      .dwattr $C$DW$167, DW_AT_TI_symbol_name("_current$1")
    1139                      .dwattr $C$DW$167, DW_AT_type(*$C$DW$T$12)
    1140                      .dwattr $C$DW$167, DW_AT_location[DW_OP_addr _current$1]
    1141              $C$DW$168       .dwtag  DW_TAG_formal_parameter, DW_AT_name("handle")
    1142                      .dwattr $C$DW$168, DW_AT_TI_symbol_name("_handle")
    1143                      .dwattr $C$DW$168, DW_AT_type(*$C$DW$T$252)
    1144                      .dwattr $C$DW$168, DW_AT_location[DW_OP_reg12]
    1145              $C$DW$169       .dwtag  DW_TAG_formal_parameter, DW_AT_name("pAdcData")
    1146                      .dwattr $C$DW$169, DW_AT_TI_symbol_name("_pAdcData")
    1147                      .dwattr $C$DW$169, DW_AT_type(*$C$DW$T$245)
    1148                      .dwattr $C$DW$169, DW_AT_location[DW_OP_reg14]
    1149              
    1150              ;***************************************************************
    1151              ;* FNAME: _HAL_readAdcData              FR SIZE:   4           *
    1152              ;*                                                             *
    1153              ;* FUNCTION ENVIRONMENT                                        *
    1154              ;*                                                             *
    1155              ;* FUNCTION PROPERTIES                                         *
    1156              ;*                            2 Parameter,  0 Auto,  2 SOE     *
    1157              ;***************************************************************
    1158              
    1159              _HAL_readAdcData:
    1160              ;* AL    assigned to $O$C1
    1161              ;* AR4   assigned to _handle
    1162              $C$DW$170       .dwtag  DW_TAG_variable, DW_AT_name("handle")
    1163                      .dwattr $C$DW$170, DW_AT_TI_symbol_name("_handle")
    1164                      .dwattr $C$DW$170, DW_AT_type(*$C$DW$T$253)
    1165                      .dwattr $C$DW$170, DW_AT_location[DW_OP_reg12]
    1166              ;* AR1   assigned to _pAdcData
    1167              $C$DW$171       .dwtag  DW_TAG_variable, DW_AT_name("pAdcData")
    1168                      .dwattr $C$DW$171, DW_AT_TI_symbol_name("_pAdcData")
    1169                      .dwattr $C$DW$171, DW_AT_type(*$C$DW$T$246)
    1170                      .dwattr $C$DW$171, DW_AT_location[DW_OP_reg6]
    1171              ;* AR6   assigned to _current_sf
    1172              $C$DW$172       .dwtag  DW_TAG_variable, DW_AT_name("current_sf")
    1173                      .dwattr $C$DW$172, DW_AT_TI_symbol_name("_current_sf")
    1174                      .dwattr $C$DW$172, DW_AT_type(*$C$DW$T$32)
    1175                      .dwattr $C$DW$172, DW_AT_location[DW_OP_reg16]
    1176              ;* AR7   assigned to _voltage_sf
TMS320C2000 Assembler PC v6.4.11 Sat Nov 26 19:25:36 2016

Tools Copyright (c) 1996-2015 Texas Instruments Incorporated
C:\Users\bee25\AppData\Local\Temp\3412010                            PAGE   24

    1177              $C$DW$173       .dwtag  DW_TAG_variable, DW_AT_name("voltage_sf")
    1178                      .dwattr $C$DW$173, DW_AT_TI_symbol_name("_voltage_sf")
    1179                      .dwattr $C$DW$173, DW_AT_type(*$C$DW$T$32)
    1180                      .dwattr $C$DW$173, DW_AT_location[DW_OP_reg18]
    1181              ;* AL    assigned to _throttle
    1182              $C$DW$174       .dwtag  DW_TAG_variable, DW_AT_name("throttle")
    1183                      .dwattr $C$DW$174, DW_AT_TI_symbol_name("_throttle")
    1184                      .dwattr $C$DW$174, DW_AT_type(*$C$DW$T$12)
    1185                      .dwattr $C$DW$174, DW_AT_location[DW_OP_reg0]
    1186              ;* XT    assigned to _value
    1187              $C$DW$175       .dwtag  DW_TAG_variable, DW_AT_name("value")
    1188                      .dwattr $C$DW$175, DW_AT_TI_symbol_name("_value")
    1189                      .dwattr $C$DW$175, DW_AT_type(*$C$DW$T$32)
    1190                      .dwattr $C$DW$175, DW_AT_location[DW_OP_reg21]
    1191              ;* XT    assigned to _value
    1192              $C$DW$176       .dwtag  DW_TAG_variable, DW_AT_name("value")
    1193                      .dwattr $C$DW$176, DW_AT_TI_symbol_name("_value")
    1194                      .dwattr $C$DW$176, DW_AT_type(*$C$DW$T$32)
    1195                      .dwattr $C$DW$176, DW_AT_location[DW_OP_reg21]
    1196              ;* XT    assigned to _value
    1197              $C$DW$177       .dwtag  DW_TAG_variable, DW_AT_name("value")
    1198                      .dwattr $C$DW$177, DW_AT_TI_symbol_name("_value")
    1199                      .dwattr $C$DW$177, DW_AT_type(*$C$DW$T$32)
    1200                      .dwattr $C$DW$177, DW_AT_location[DW_OP_reg21]
    1201              ;* XT    assigned to _value
    1202              $C$DW$178       .dwtag  DW_TAG_variable, DW_AT_name("value")
    1203                      .dwattr $C$DW$178, DW_AT_TI_symbol_name("_value")
    1204                      .dwattr $C$DW$178, DW_AT_type(*$C$DW$T$32)
    1205                      .dwattr $C$DW$178, DW_AT_location[DW_OP_reg21]
    1206              ;* XT    assigned to _value
    1207              $C$DW$179       .dwtag  DW_TAG_variable, DW_AT_name("value")
    1208                      .dwattr $C$DW$179, DW_AT_TI_symbol_name("_value")
    1209                      .dwattr $C$DW$179, DW_AT_type(*$C$DW$T$32)
    1210                      .dwattr $C$DW$179, DW_AT_location[DW_OP_reg21]
    1211              ;* XT    assigned to _value
    1212              $C$DW$180       .dwtag  DW_TAG_variable, DW_AT_name("value")
    1213                      .dwattr $C$DW$180, DW_AT_TI_symbol_name("_value")
    1214                      .dwattr $C$DW$180, DW_AT_type(*$C$DW$T$32)
    1215                      .dwattr $C$DW$180, DW_AT_location[DW_OP_reg21]
    1216              ;* XT    assigned to _value
    1217              $C$DW$181       .dwtag  DW_TAG_variable, DW_AT_name("value")
    1218                      .dwattr $C$DW$181, DW_AT_TI_symbol_name("_value")
    1219                      .dwattr $C$DW$181, DW_AT_type(*$C$DW$T$32)
    1220                      .dwattr $C$DW$181, DW_AT_location[DW_OP_reg21]
    1221                      .dwcfi  cfa_offset, -2
    1222                      .dwcfi  save_reg_to_mem, 26, 0
    1223 00000095 B2BD          MOVL      *SP++,XAR1            ; [CPU_] 
    1224                      .dwcfi  save_reg_to_mem, 7, 2
    1225                      .dwcfi  cfa_offset, -4
    1226 00000096 FE02          ADDB      SP,#2                 ; [CPU_U] 
    1227                      .dwcfi  cfa_offset, -6
    1228                      .dwpsn  file "C:/ti/motorware/motorware_1_01_00_16/sw/modules/hal/boards/boostxldrv8301_revB/f28x/f28
    1229 00000097 D0A2          MOVB      XAR0,#162             ; [CPU_] |364| 
    1230                      .dwpsn  file "C:/ti/motorware/motorware_1_01_00_16/sw/modules/hal/boards/boostxldrv8301_revB/f28x/f28
    1231 00000098 8BA5          MOVL      XAR1,XAR5             ; [CPU_] |508| 
TMS320C2000 Assembler PC v6.4.11 Sat Nov 26 19:25:36 2016

Tools Copyright (c) 1996-2015 Texas Instruments Incorporated
C:\Users\bee25\AppData\Local\Temp\3412010                            PAGE   25

    1232                      .dwpsn  file "C:/ti/motorware/motorware_1_01_00_16/sw/drivers/adc/src/32b/f28x/f2802x/adc.h",line 684
    1233 00000099 83C4          MOVL      XAR5,*+XAR4[0]        ; [CPU_] |684| 
    1234                      .dwpsn  file "C:/ti/motorware/motorware_1_01_00_16/sw/modules/hal/boards/boostxldrv8301_revB/f28x/f28
    1235 0000009a C494          MOVL      XAR6,*+XAR4[AR0]      ; [CPU_] |364| 
    1236                      .dwpsn  file "C:/ti/motorware/motorware_1_01_00_16/sw/modules/hal/boards/boostxldrv8301_revB/f28x/f28
    1237 0000009b D0A4          MOVB      XAR0,#164             ; [CPU_] |459| 
    1238 0000009c C594          MOVL      XAR7,*+XAR4[AR0]      ; [CPU_] |459| 
    1239                      .dwpsn  file "C:/ti/motorware/motorware_1_01_00_16/sw/drivers/adc/src/32b/f28x/f2802x/adc.h",line 684
    1240 0000009d 0ECD          MOVU      ACC,*+XAR5[1]         ; [CPU_] |684| 
    1241                      .dwpsn  file "C:/ti/motorware/motorware_1_01_00_16/sw/modules/hal/boards/boostxldrv8301_revB/f28x/f28
    1242 0000009e D092          MOVB      XAR0,#146             ; [CPU_] |523| 
    1243                      .dwpsn  file "C:/ti/motorware/motorware_1_01_00_16/sw/drivers/adc/src/32b/f28x/f2802x/adc.h",line 684
    1244 0000009f 1EAC          MOVL      XT,ACC                ; [CPU_] |684| 
    1245                      .dwpsn  file "C:/ti/motorware/motorware_1_01_00_16/sw/modules/hal/boards/boostxldrv8301_revB/f28x/f28
    1246 000000a0 5605          IMPYL     P,XT,XAR6             ; [CPU_] |523| 
         000000a1 00A6 
    1247 000000a2 5663          QMPYL     ACC,XT,XAR6           ; [CPU_] |523| 
         000000a3 00A6 
    1248 000000a4 568B          ASR64     ACC:P,#12             ; [CPU_] |523| 
    1249 000000a5 A9A9          MOVL      ACC,P                 ; [CPU_] |523| 
    1250 000000a6 0394          SUBL      ACC,*+XAR4[AR0]       ; [CPU_] |523| 
    1251                      .dwpsn  file "C:/ti/motorware/motorware_1_01_00_16/sw/modules/hal/boards/boostxldrv8301_revB/f28x/f28
    1252 000000a7 1EC1          MOVL      *+XAR1[0],ACC         ; [CPU_] |524| 
    1253                      .dwpsn  file "C:/ti/motorware/motorware_1_01_00_16/sw/drivers/adc/src/32b/f28x/f2802x/adc.h",line 684
    1254 000000a8 83C4          MOVL      XAR5,*+XAR4[0]        ; [CPU_] |684| 
    1255                      .dwpsn  file "C:/ti/motorware/motorware_1_01_00_16/sw/modules/hal/boards/boostxldrv8301_revB/f28x/f28
    1256 000000a9 D094          MOVB      XAR0,#148             ; [CPU_] |528| 
    1257                      .dwpsn  file "C:/ti/motorware/motorware_1_01_00_16/sw/drivers/adc/src/32b/f28x/f2802x/adc.h",line 684
    1258 000000aa 0ED5          MOVU      ACC,*+XAR5[2]         ; [CPU_] |684| 
    1259 000000ab 1EAC          MOVL      XT,ACC                ; [CPU_] |684| 
    1260                      .dwpsn  file "C:/ti/motorware/motorware_1_01_00_16/sw/modules/hal/boards/boostxldrv8301_revB/f28x/f28
    1261 000000ac 5605          IMPYL     P,XT,XAR6             ; [CPU_] |528| 
         000000ad 00A6 
    1262 000000ae 5663          QMPYL     ACC,XT,XAR6           ; [CPU_] |528| 
         000000af 00A6 
    1263 000000b0 568B          ASR64     ACC:P,#12             ; [CPU_] |528| 
    1264 000000b1 A9A9          MOVL      ACC,P                 ; [CPU_] |528| 
    1265 000000b2 0394          SUBL      ACC,*+XAR4[AR0]       ; [CPU_] |528| 
    1266                      .dwpsn  file "C:/ti/motorware/motorware_1_01_00_16/sw/modules/hal/boards/boostxldrv8301_revB/f28x/f28
    1267 000000b3 1ED1          MOVL      *+XAR1[2],ACC         ; [CPU_] |529| 
    1268                      .dwpsn  file "C:/ti/motorware/motorware_1_01_00_16/sw/drivers/adc/src/32b/f28x/f2802x/adc.h",line 684
    1269 000000b4 83C4          MOVL      XAR5,*+XAR4[0]        ; [CPU_] |684| 
    1270                      .dwpsn  file "C:/ti/motorware/motorware_1_01_00_16/sw/modules/hal/boards/boostxldrv8301_revB/f28x/f28
    1271 000000b5 D096          MOVB      XAR0,#150             ; [CPU_] |533| 
    1272                      .dwpsn  file "C:/ti/motorware/motorware_1_01_00_16/sw/drivers/adc/src/32b/f28x/f2802x/adc.h",line 684
    1273 000000b6 0EDD          MOVU      ACC,*+XAR5[3]         ; [CPU_] |684| 
    1274 000000b7 1EAC          MOVL      XT,ACC                ; [CPU_] |684| 
    1275                      .dwpsn  file "C:/ti/motorware/motorware_1_01_00_16/sw/modules/hal/boards/boostxldrv8301_revB/f28x/f28
    1276 000000b8 5605          IMPYL     P,XT,XAR6             ; [CPU_] |533| 
         000000b9 00A6 
    1277 000000ba 5663          QMPYL     ACC,XT,XAR6           ; [CPU_] |533| 
         000000bb 00A6 
    1278 000000bc 568B          ASR64     ACC:P,#12             ; [CPU_] |533| 
    1279 000000bd A9A9          MOVL      ACC,P                 ; [CPU_] |533| 
    1280 000000be 0394          SUBL      ACC,*+XAR4[AR0]       ; [CPU_] |533| 
TMS320C2000 Assembler PC v6.4.11 Sat Nov 26 19:25:36 2016

Tools Copyright (c) 1996-2015 Texas Instruments Incorporated
C:\Users\bee25\AppData\Local\Temp\3412010                            PAGE   26

    1281                      .dwpsn  file "C:/ti/motorware/motorware_1_01_00_16/sw/modules/hal/boards/boostxldrv8301_revB/f28x/f28
    1282 000000bf 1EE1          MOVL      *+XAR1[4],ACC         ; [CPU_] |534| 
    1283                      .dwpsn  file "C:/ti/motorware/motorware_1_01_00_16/sw/drivers/adc/src/32b/f28x/f2802x/adc.h",line 684
    1284 000000c0 83C4          MOVL      XAR5,*+XAR4[0]        ; [CPU_] |684| 
    1285                      .dwpsn  file "C:/ti/motorware/motorware_1_01_00_16/sw/modules/hal/boards/boostxldrv8301_revB/f28x/f28
    1286 000000c1 D098          MOVB      XAR0,#152             ; [CPU_] |538| 
    1287                      .dwpsn  file "C:/ti/motorware/motorware_1_01_00_16/sw/drivers/adc/src/32b/f28x/f2802x/adc.h",line 684
    1288 000000c2 0EE5          MOVU      ACC,*+XAR5[4]         ; [CPU_] |684| 
    1289 000000c3 1EAC          MOVL      XT,ACC                ; [CPU_] |684| 
    1290                      .dwpsn  file "C:/ti/motorware/motorware_1_01_00_16/sw/modules/hal/boards/boostxldrv8301_revB/f28x/f28
    1291 000000c4 5605          IMPYL     P,XT,XAR7             ; [CPU_] |538| 
         000000c5 00A7 
    1292 000000c6 5663          QMPYL     ACC,XT,XAR7           ; [CPU_] |538| 
         000000c7 00A7 
    1293 000000c8 568B          ASR64     ACC:P,#12             ; [CPU_] |538| 
    1294 000000c9 A9A9          MOVL      ACC,P                 ; [CPU_] |538| 
    1295 000000ca 0394          SUBL      ACC,*+XAR4[AR0]       ; [CPU_] |538| 
    1296                      .dwpsn  file "C:/ti/motorware/motorware_1_01_00_16/sw/modules/hal/boards/boostxldrv8301_revB/f28x/f28
    1297 000000cb 1EF1          MOVL      *+XAR1[6],ACC         ; [CPU_] |539| 
    1298                      .dwpsn  file "C:/ti/motorware/motorware_1_01_00_16/sw/drivers/adc/src/32b/f28x/f2802x/adc.h",line 684
    1299 000000cc 83C4          MOVL      XAR5,*+XAR4[0]        ; [CPU_] |684| 
    1300                      .dwpsn  file "C:/ti/motorware/motorware_1_01_00_16/sw/modules/hal/boards/boostxldrv8301_revB/f28x/f28
    1301 000000cd D09A          MOVB      XAR0,#154             ; [CPU_] |543| 
    1302                      .dwpsn  file "C:/ti/motorware/motorware_1_01_00_16/sw/drivers/adc/src/32b/f28x/f2802x/adc.h",line 684
    1303 000000ce 0EED          MOVU      ACC,*+XAR5[5]         ; [CPU_] |684| 
    1304 000000cf 1EAC          MOVL      XT,ACC                ; [CPU_] |684| 
    1305                      .dwpsn  file "C:/ti/motorware/motorware_1_01_00_16/sw/modules/hal/boards/boostxldrv8301_revB/f28x/f28
    1306 000000d0 5605          IMPYL     P,XT,XAR7             ; [CPU_] |543| 
         000000d1 00A7 
    1307 000000d2 5663          QMPYL     ACC,XT,XAR7           ; [CPU_] |543| 
         000000d3 00A7 
    1308 000000d4 568B          ASR64     ACC:P,#12             ; [CPU_] |543| 
    1309 000000d5 A9A9          MOVL      ACC,P                 ; [CPU_] |543| 
    1310 000000d6 0394          SUBL      ACC,*+XAR4[AR0]       ; [CPU_] |543| 
    1311                      .dwpsn  file "C:/ti/motorware/motorware_1_01_00_16/sw/modules/hal/boards/boostxldrv8301_revB/f28x/f28
    1312 000000d7 D008          MOVB      XAR0,#8               ; [CPU_] |544| 
    1313 000000d8 1E91          MOVL      *+XAR1[AR0],ACC       ; [CPU_] |544| 
    1314                      .dwpsn  file "C:/ti/motorware/motorware_1_01_00_16/sw/drivers/adc/src/32b/f28x/f2802x/adc.h",line 684
    1315 000000d9 83C4          MOVL      XAR5,*+XAR4[0]        ; [CPU_] |684| 
    1316                      .dwpsn  file "C:/ti/motorware/motorware_1_01_00_16/sw/modules/hal/boards/boostxldrv8301_revB/f28x/f28
    1317 000000da D09C          MOVB      XAR0,#156             ; [CPU_] |548| 
    1318                      .dwpsn  file "C:/ti/motorware/motorware_1_01_00_16/sw/drivers/adc/src/32b/f28x/f2802x/adc.h",line 684
    1319 000000db 0EF5          MOVU      ACC,*+XAR5[6]         ; [CPU_] |684| 
    1320 000000dc 1EAC          MOVL      XT,ACC                ; [CPU_] |684| 
    1321                      .dwpsn  file "C:/ti/motorware/motorware_1_01_00_16/sw/modules/hal/boards/boostxldrv8301_revB/f28x/f28
    1322 000000dd 5605          IMPYL     P,XT,XAR7             ; [CPU_] |548| 
         000000de 00A7 
    1323 000000df 5663          QMPYL     ACC,XT,XAR7           ; [CPU_] |548| 
         000000e0 00A7 
    1324 000000e1 568B          ASR64     ACC:P,#12             ; [CPU_] |548| 
    1325 000000e2 A9A9          MOVL      ACC,P                 ; [CPU_] |548| 
    1326 000000e3 0394          SUBL      ACC,*+XAR4[AR0]       ; [CPU_] |548| 
    1327                      .dwpsn  file "C:/ti/motorware/motorware_1_01_00_16/sw/modules/hal/boards/boostxldrv8301_revB/f28x/f28
    1328 000000e4 D00A          MOVB      XAR0,#10              ; [CPU_] |549| 
    1329 000000e5 1E91          MOVL      *+XAR1[AR0],ACC       ; [CPU_] |549| 
TMS320C2000 Assembler PC v6.4.11 Sat Nov 26 19:25:36 2016

Tools Copyright (c) 1996-2015 Texas Instruments Incorporated
C:\Users\bee25\AppData\Local\Temp\3412010                            PAGE   27

    1330                      .dwpsn  file "C:/ti/motorware/motorware_1_01_00_16/sw/drivers/adc/src/32b/f28x/f2802x/adc.h",line 684
    1331 000000e6 83C4          MOVL      XAR5,*+XAR4[0]        ; [CPU_] |684| 
    1332                      .dwpsn  file "C:/ti/motorware/motorware_1_01_00_16/sw/modules/hal/boards/boostxldrv8301_revB/f28x/f28
    1333 000000e7 D00C          MOVB      XAR0,#12              ; [CPU_] |554| 
    1334                      .dwpsn  file "C:/ti/motorware/motorware_1_01_00_16/sw/drivers/adc/src/32b/f28x/f2802x/adc.h",line 684
    1335 000000e8 0EFD          MOVU      ACC,*+XAR5[7]         ; [CPU_] |684| 
    1336 000000e9 1EAC          MOVL      XT,ACC                ; [CPU_] |684| 
    1337                      .dwpsn  file "C:/ti/motorware/motorware_1_01_00_16/sw/modules/hal/boards/boostxldrv8301_revB/f28x/f28
    1338 000000ea 5605          IMPYL     P,XT,XAR7             ; [CPU_] |553| 
         000000eb 00A7 
    1339 000000ec 5663          QMPYL     ACC,XT,XAR7           ; [CPU_] |553| 
         000000ed 00A7 
    1340 000000ee 568B          ASR64     ACC:P,#12             ; [CPU_] |553| 
    1341                      .dwpsn  file "C:/ti/motorware/motorware_1_01_00_16/sw/drivers/adc/src/32b/f28x/f2802x/adc.h",line 684
    1342 000000ef 0208          MOVB      ACC,#8                ; [CPU_] |684| 
    1343                      .dwpsn  file "C:/ti/motorware/motorware_1_01_00_16/sw/modules/hal/boards/boostxldrv8301_revB/f28x/f28
    1344 000000f0 A991          MOVL      *+XAR1[AR0],P         ; [CPU_] |554| 
    1345                      .dwpsn  file "C:/ti/motorware/motorware_1_01_00_16/sw/drivers/adc/src/32b/f28x/f2802x/adc.h",line 684
    1346 000000f1 07C4          ADDL      ACC,*+XAR4[0]         ; [CPU_] |684| 
    1347 000000f2 8AA9          MOVL      XAR4,ACC              ; [CPU_] |684| 
    1348                      .dwpsn  file "C:/ti/motorware/motorware_1_01_00_16/sw/modules/hal/boards/boostxldrv8301_revB/f28x/f28
    1349 000000f3 BE14          MOVB      XAR6,#20              ; [CPU_] |561| 
    1350                      .dwpsn  file "C:/ti/motorware/motorware_1_01_00_16/sw/drivers/adc/src/32b/f28x/f2802x/adc.h",line 684
    1351 000000f4 0EC4          MOVU      ACC,*+XAR4[0]         ; [CPU_] |684| 
    1352                      .dwpsn  file "C:/ti/motorware/motorware_1_01_00_16/sw/modules/hal/boards/boostxldrv8301_revB/f28x/f28
    1353 000000f5 C242          MOVL      *-SP[2],XAR6          ; [CPU_] |561| 
    1354 000000f6 BE13          MOVB      XAR6,#19              ; [CPU_] |561| 
    1355 000000f7 D00E          MOVB      XAR0,#14              ; [CPU_] |561| 
    1356 000000f8 FF00          SUB       ACC,#345 << 0         ; [CPU_] |561| 
         000000f9 0159 
    1357 000000fa 87A6          MOVL      XT,XAR6               ; [CPU_] |561| 
    1358 000000fb 5605          IMPYL     P,XT,*+XAR1[AR0]      ; [CPU_] |561| 
         000000fc 0091 
    1359 000000fd 07AB          ADDL      ACC,P                 ; [CPU_] |561| 
    1360              $C$DW$182       .dwtag  DW_TAG_TI_branch
    1361                      .dwattr $C$DW$182, DW_AT_low_pc(0x00)
    1362                      .dwattr $C$DW$182, DW_AT_name("L$$DIV")
    1363                      .dwattr $C$DW$182, DW_AT_TI_call
    1364 000000fe 00C0!         FFC       XAR7,#L$$DIV          ; [CPU_] |561| 
         000000ff 0000 
    1365                      ; call occurs [#L$$DIV] ; [] |561| 
    1366                      .dwpsn  file "C:/ti/motorware/motorware_1_01_00_16/sw/modules/hal/boards/boostxldrv8301_revB/f28x/f28
    1367 00000100 D00E          MOVB      XAR0,#14              ; [CPU_] |562| 
    1368 00000101 761F-         MOVW      DP,#_current$1        ; [CPU_U] 
         00000102 0000 
    1369                      .dwpsn  file "C:/ti/motorware/motorware_1_01_00_16/sw/modules/hal/boards/boostxldrv8301_revB/f28x/f28
    1370 00000103 1E04-         MOVL      @_current$1,ACC       ; [CPU_] |561| 
    1371                      .dwpsn  file "C:/ti/motorware/motorware_1_01_00_16/sw/modules/hal/boards/boostxldrv8301_revB/f28x/f28
    1372 00000104 1E91          MOVL      *+XAR1[AR0],ACC       ; [CPU_] |562| 
    1373                      .dwpsn  file "C:/ti/motorware/motorware_1_01_00_16/sw/modules/hal/boards/boostxldrv8301_revB/f28x/f28
    1374 00000105 D00E          MOVB      XAR0,#14              ; [CPU_] |563| 
    1375 00000106 0691          MOVL      ACC,*+XAR1[AR0]       ; [CPU_] |563| 
    1376              $C$DW$183       .dwtag  DW_TAG_TI_branch
    1377                      .dwattr $C$DW$183, DW_AT_low_pc(0x00)
    1378                      .dwattr $C$DW$183, DW_AT_name("L$$TOFS")
TMS320C2000 Assembler PC v6.4.11 Sat Nov 26 19:25:36 2016

Tools Copyright (c) 1996-2015 Texas Instruments Incorporated
C:\Users\bee25\AppData\Local\Temp\3412010                            PAGE   28

    1379                      .dwattr $C$DW$183, DW_AT_TI_call
    1380 00000107 7640!         LCR       #L$$TOFS              ; [CPU_] |563| 
         00000108 0000 
    1381                      ; call occurs [#L$$TOFS] ; [] |563| 
    1382 00000109 1EA6          MOVL      XAR6,ACC              ; [CPU_] |563| 
    1383 0000010a 9A00          MOV       AL,#0                 ; [CPU_] |563| 
    1384 0000010b 9B00          MOV       AH,#0                 ; [CPU_] |563| 
    1385 0000010c 1E42          MOVL      *-SP[2],ACC           ; [CPU_] |563| 
    1386 0000010d 06A6          MOVL      ACC,XAR6              ; [CPU_] |563| 
    1387              $C$DW$184       .dwtag  DW_TAG_TI_branch
    1388                      .dwattr $C$DW$184, DW_AT_low_pc(0x00)
    1389                      .dwattr $C$DW$184, DW_AT_name("FS$$CMP")
    1390                      .dwattr $C$DW$184, DW_AT_TI_call
    1391 0000010e 7640!         LCR       #FS$$CMP              ; [CPU_] |563| 
         0000010f 0000 
    1392                      ; call occurs [#FS$$CMP] ; [] |563| 
    1393 00000110 5200          CMPB      AL,#0                 ; [CPU_] |563| 
    1394 00000111 56C2          BF        $C$L2,GT              ; [CPU_] |563| 
         00000112 0005 
    1395                      ; branchcc occurs ; [] |563| 
    1396                      .dwpsn  file "C:/ti/motorware/motorware_1_01_00_16/sw/modules/hal/boards/boostxldrv8301_revB/f28x/f28
    1397 00000113 D00E          MOVB      XAR0,#14              ; [CPU_] |564| 
    1398 00000114 0200          MOVB      ACC,#0                ; [CPU_] |564| 
    1399 00000115 1E91          MOVL      *+XAR1[AR0],ACC       ; [CPU_] |564| 
    1400 00000116       $C$L2:    
    1401 00000116 FE82          SUBB      SP,#2                 ; [CPU_U] 
    1402                      .dwcfi  cfa_offset, -4
    1403 00000117 8BBE          MOVL      XAR1,*--SP            ; [CPU_] 
    1404                      .dwcfi  cfa_offset, -2
    1405                      .dwcfi  restore_reg, 7
    1406              $C$DW$185       .dwtag  DW_TAG_TI_branch
    1407                      .dwattr $C$DW$185, DW_AT_low_pc(0x00)
    1408                      .dwattr $C$DW$185, DW_AT_TI_return
    1409 00000118 0006          LRETR     ; [CPU_] 
    1410                      ; return occurs ; [] 
    1411                      .dwattr $C$DW$166, DW_AT_TI_end_file("C:/ti/motorware/motorware_1_01_00_16/sw/modules/hal/boards/boos
    1412                      .dwattr $C$DW$166, DW_AT_TI_end_line(0x237)
    1413                      .dwattr $C$DW$166, DW_AT_TI_end_column(0x01)
    1414                      .dwendentry
    1415                      .dwendtag $C$DW$166
    1416              
    1417 00000000               .sect   "ramfuncs:retain"
    1418                      .retain
    1419                      .retainrefs
    1420                      .global _mainISR
    1421              
    1422              $C$DW$186       .dwtag  DW_TAG_subprogram, DW_AT_name("mainISR")
    1423                      .dwattr $C$DW$186, DW_AT_low_pc(_mainISR)
    1424                      .dwattr $C$DW$186, DW_AT_high_pc(0x00)
    1425                      .dwattr $C$DW$186, DW_AT_TI_symbol_name("_mainISR")
    1426                      .dwattr $C$DW$186, DW_AT_external
    1427                      .dwattr $C$DW$186, DW_AT_TI_begin_file("C:/ti/motorware/motorware_1_01_00_16/sw/solutions/instaspin_f
    1428                      .dwattr $C$DW$186, DW_AT_TI_begin_line(0x1c9)
    1429                      .dwattr $C$DW$186, DW_AT_TI_begin_column(0x10)
    1430                      .dwattr $C$DW$186, DW_AT_TI_interrupt
TMS320C2000 Assembler PC v6.4.11 Sat Nov 26 19:25:36 2016

Tools Copyright (c) 1996-2015 Texas Instruments Incorporated
C:\Users\bee25\AppData\Local\Temp\3412010                            PAGE   29

    1431                      .dwattr $C$DW$186, DW_AT_TI_max_frame_size(-18)
    1432                      .dwpsn  file "C:/ti/motorware/motorware_1_01_00_16/sw/solutions/instaspin_foc/src/proj_lab05b.c",line
    1433              
    1434                      .dwfde $C$DW$CIE, _mainISR
    1435              
    1436              ;***************************************************************
    1437              ;* FNAME: _mainISR                      FR SIZE:  16           *
    1438              ;*                                                             *
    1439              ;* FUNCTION ENVIRONMENT                                        *
    1440              ;*                                                             *
    1441              ;* FUNCTION PROPERTIES                                         *
    1442              ;*                            4 Parameter,  0 Auto, 12 SOE     *
    1443              ;***************************************************************
    1444              
    1445              _mainISR:
    1446              ;* AR5   assigned to $O$C1
    1447              ;* AR1   assigned to $O$C2
    1448              ;* AR1   assigned to $O$C3
    1449              ;* AR4   assigned to $O$v1
    1450              ;* AR7   assigned to _period
    1451              $C$DW$187       .dwtag  DW_TAG_variable, DW_AT_name("period")
    1452                      .dwattr $C$DW$187, DW_AT_TI_symbol_name("_period")
    1453                      .dwattr $C$DW$187, DW_AT_type(*$C$DW$T$32)
    1454                      .dwattr $C$DW$187, DW_AT_location[DW_OP_reg18]
    1455              ;* AR4   assigned to _obj
    1456              $C$DW$188       .dwtag  DW_TAG_variable, DW_AT_name("obj")
    1457                      .dwattr $C$DW$188, DW_AT_TI_symbol_name("_obj")
    1458                      .dwattr $C$DW$188, DW_AT_type(*$C$DW$T$250)
    1459                      .dwattr $C$DW$188, DW_AT_location[DW_OP_reg12]
    1460              ;* AR1   assigned to $O$U39
    1461              ;* AR4   assigned to $O$U31
    1462                      .dwcfi  cfa_offset, -2
    1463                      .dwcfi  save_reg_to_mem, 26, 0
    1464 00000000 761B          ASP       ; [CPU_] 
    1465 00000001 0005          PUSH      AR1H:AR0H             ; [CPU_] 
    1466                      .dwcfi  save_reg_to_mem, 5, 2
    1467                      .dwcfi  save_reg_to_mem, 7, 3
    1468                      .dwcfi  cfa_offset, -4
    1469 00000002 ABBD          MOVL      *SP++,XT              ; [CPU_] 
    1470                      .dwcfi  save_reg_to_mem, 21, 4
    1471                      .dwcfi  save_reg_to_mem, 22, 5
    1472                      .dwcfi  cfa_offset, -6
    1473 00000003 A8BD          MOVL      *SP++,XAR4            ; [CPU_] 
    1474                      .dwcfi  save_reg_to_mem, 12, 6
    1475                      .dwcfi  save_reg_to_mem, 13, 7
    1476                      .dwcfi  cfa_offset, -8
    1477 00000004 A0BD          MOVL      *SP++,XAR5            ; [CPU_] 
    1478                      .dwcfi  save_reg_to_mem, 14, 8
    1479                      .dwcfi  save_reg_to_mem, 15, 9
    1480                      .dwcfi  cfa_offset, -10
    1481 00000005 C2BD          MOVL      *SP++,XAR6            ; [CPU_] 
    1482                      .dwcfi  save_reg_to_mem, 16, 10
    1483                      .dwcfi  save_reg_to_mem, 17, 11
    1484                      .dwcfi  cfa_offset, -12
    1485 00000006 C3BD          MOVL      *SP++,XAR7            ; [CPU_] 
TMS320C2000 Assembler PC v6.4.11 Sat Nov 26 19:25:36 2016

Tools Copyright (c) 1996-2015 Texas Instruments Incorporated
C:\Users\bee25\AppData\Local\Temp\3412010                            PAGE   30

    1486                      .dwcfi  save_reg_to_mem, 18, 12
    1487                      .dwcfi  save_reg_to_mem, 19, 13
    1488                      .dwcfi  cfa_offset, -14
    1489 00000007 FE04          ADDB      SP,#4                 ; [CPU_U] 
    1490                      .dwcfi  cfa_offset, -18
    1491 00000008 FF69          SPM       0                     ; [CPU_] 
    1492 00000009 2942          CLRC      PAGE0,OVM             ; [CPU_] 
    1493 0000000a 5616          CLRC      AMODE                 ; [CPU_] 
    1494 0000000b 761F-         MOVW      DP,#_gLEDcnt          ; [CPU_U] 
         0000000c 0000 
    1495                      .dwpsn  file "C:/ti/motorware/motorware_1_01_00_16/sw/solutions/instaspin_foc/src/proj_lab05b.c",line
    1496 0000000d 0A00-         INC       @_gLEDcnt             ; [CPU_] |460| 
    1497 0000000e 9200-         MOV       AL,@_gLEDcnt          ; [CPU_] |460| 
    1498 0000000f 9CFF          ADDB      AL,#-1                ; [CPU_] |460| 
    1499 00000010 1BA9          CMP       AL,#1333              ; [CPU_] |460| 
         00000011 0535 
    1500 00000012 56C9          BF        $C$L3,LOS             ; [CPU_] |460| 
         00000013 000E 
    1501                      ; branchcc occurs ; [] |460| 
    1502                      .dwpsn  file "C:/ti/motorware/motorware_1_01_00_16/sw/modules/hal/boards/boostxldrv8301_revB/f28x/f28
    1503 00000014 0208          MOVB      ACC,#8                ; [CPU_] |785| 
    1504 00000015 761F-         MOVW      DP,#_halHandle        ; [CPU_U] 
         00000016 0000 
    1505 00000017 0700-         ADDL      ACC,@_halHandle       ; [CPU_] |785| 
    1506 00000018 8AA9          MOVL      XAR4,ACC              ; [CPU_] |785| 
    1507 00000019 9A00          MOVB      AL,#0                 ; [CPU_] |785| 
    1508 0000001a 8AC4          MOVL      XAR4,*+XAR4[0]        ; [CPU_] |785| 
    1509              $C$DW$189       .dwtag  DW_TAG_TI_branch
    1510                      .dwattr $C$DW$189, DW_AT_low_pc(0x00)
    1511                      .dwattr $C$DW$189, DW_AT_name("_GPIO_toggle")
    1512                      .dwattr $C$DW$189, DW_AT_TI_call
    1513 0000001b 7640!         LCR       #_GPIO_toggle         ; [CPU_] |785| 
         0000001c 0000 
    1514                      ; call occurs [#_GPIO_toggle] ; [] |785| 
    1515 0000001d 761F-         MOVW      DP,#_gLEDcnt          ; [CPU_U] 
         0000001e 0000 
    1516                      .dwpsn  file "C:/ti/motorware/motorware_1_01_00_16/sw/solutions/instaspin_foc/src/proj_lab05b.c",line
    1517 0000001f 2B00-         MOV       @_gLEDcnt,#0          ; [CPU_] |463| 
    1518 00000020       $C$L3:    
    1519 00000020 761F-         MOVW      DP,#_halHandle        ; [CPU_U] 
         00000021 0000 
    1520                      .dwpsn  file "C:/ti/motorware/motorware_1_01_00_16/sw/solutions/instaspin_foc/src/proj_lab05b.c",line
    1521 00000022 8A00-         MOVL      XAR4,@_halHandle      ; [CPU_] |468| 
    1522                      .dwpsn  file "C:/ti/motorware/motorware_1_01_00_16/sw/drivers/adc/src/32b/f28x/f2802x/adc.h",line 571
    1523 00000023 8F40          MOVL      XAR5,#26117           ; [CPU_U] |571| 
         00000024 6605 
    1524 00000025 A0A9          MOVL      ACC,XAR5              ; [CPU_] |571| 
    1525 00000026 07C4          ADDL      ACC,*+XAR4[0]         ; [CPU_] |571| 
    1526 00000027 83A9          MOVL      XAR5,ACC              ; [CPU_] |571| 
    1527                      .dwpsn  file "C:/ti/motorware/motorware_1_01_00_16/sw/drivers/pie/src/32b/f28x/f2802x/pie.h",line 757
    1528 00000028 D078          MOVB      XAR0,#120             ; [CPU_] |757| 
    1529                      .dwpsn  file "C:/ti/motorware/motorware_1_01_00_16/sw/drivers/adc/src/32b/f28x/f2802x/adc.h",line 571
    1530 00000029 56BF          MOVB      *+XAR5[0],#1,UNC      ; [CPU_] |571| 
         0000002a 01C5 
    1531                      .dwpsn  file "C:/ti/motorware/motorware_1_01_00_16/sw/drivers/pie/src/32b/f28x/f2802x/pie.h",line 757
TMS320C2000 Assembler PC v6.4.11 Sat Nov 26 19:25:36 2016

Tools Copyright (c) 1996-2015 Texas Instruments Incorporated
C:\Users\bee25\AppData\Local\Temp\3412010                            PAGE   31

    1532 0000002b 8394          MOVL      XAR5,*+XAR4[AR0]      ; [CPU_] |757| 
    1533                      .dwpsn  file "C:/ti/motorware/motorware_1_01_00_16/sw/solutions/instaspin_foc/src/proj_lab05b.c",line
    1534 0000002c 8D40-         MOVL      XAR1,#_gAdcData       ; [CPU_U] |472| 
         0000002d 0018 
    1535                      .dwpsn  file "C:/ti/motorware/motorware_1_01_00_16/sw/drivers/pie/src/32b/f28x/f2802x/pie.h",line 757
    1536 0000002e 28CD          MOV       *+XAR5[1],#512        ; [CPU_] |757| 
         0000002f 0200 
    1537                      .dwpsn  file "C:/ti/motorware/motorware_1_01_00_16/sw/solutions/instaspin_foc/src/proj_lab05b.c",line
    1538 00000030 83A1          MOVL      XAR5,XAR1             ; [CPU_] |472| 
    1539              $C$DW$190       .dwtag  DW_TAG_TI_branch
    1540                      .dwattr $C$DW$190, DW_AT_low_pc(0x00)
    1541                      .dwattr $C$DW$190, DW_AT_name("_HAL_readAdcData")
    1542                      .dwattr $C$DW$190, DW_AT_TI_call
    1543 00000031 7640'         LCR       #_HAL_readAdcData     ; [CPU_] |472| 
         00000032 0095 
    1544                      ; call occurs [#_HAL_readAdcData] ; [] |472| 
    1545 00000033 761F-         MOVW      DP,#_ctrlHandle       ; [CPU_U] 
         00000034 0000 
    1546                      .dwpsn  file "C:/ti/motorware/motorware_1_01_00_16/sw/solutions/instaspin_foc/src/proj_lab05b.c",line
    1547 00000035 B242          MOVL      *-SP[2],XAR1          ; [CPU_] |476| 
    1548 00000036 8A06-         MOVL      XAR4,@_ctrlHandle     ; [CPU_] |476| 
    1549 00000037 761F-         MOVW      DP,#_halHandle        ; [CPU_U] 
         00000038 0000 
    1550 00000039 8D40-         MOVL      XAR1,#_gPwmData       ; [CPU_U] |476| 
         0000003a 0012 
    1551 0000003b 8300-         MOVL      XAR5,@_halHandle      ; [CPU_] |476| 
    1552 0000003c B244          MOVL      *-SP[4],XAR1          ; [CPU_] |476| 
    1553              $C$DW$191       .dwtag  DW_TAG_TI_branch
    1554                      .dwattr $C$DW$191, DW_AT_low_pc(0x00)
    1555                      .dwattr $C$DW$191, DW_AT_name("_CTRL_run")
    1556                      .dwattr $C$DW$191, DW_AT_TI_call
    1557 0000003d 7640!         LCR       #_CTRL_run            ; [CPU_] |476| 
         0000003e 0000 
    1558                      ; call occurs [#_CTRL_run] ; [] |476| 
    1559 0000003f 761F-         MOVW      DP,#_halHandle        ; [CPU_U] 
         00000040 0000 
    1560 00000041 027C          MOVB      ACC,#124              ; [CPU_] 
    1561 00000042 BE02          MOVB      XAR6,#2               ; [CPU_] 
    1562 00000043 0700-         ADDL      ACC,@_halHandle       ; [CPU_] 
    1563 00000044 8AA9          MOVL      XAR4,ACC              ; [CPU_] 
    1564 00000045 3B01          SETC      SXM                   ; [CPU_] 
    1565 00000046       $C$L4:    
    1566                      .dwpsn  file "C:/ti/motorware/motorware_1_01_00_16/sw/drivers/pwm/src/32b/f28x/f2802x/pwm.h",line 171
    1567 00000046 FF2F          MOV       ACC,#-512 << 15       ; [CPU_] |1717| 
         00000047 FE00 
    1568 00000048 8781          MOVL      XT,*XAR1++            ; [CPU_] |1717| 
    1569                      .dwpsn  file "C:/ti/motorware/motorware_1_01_00_16/sw/modules/hal/boards/boostxldrv8301_revB/f28x/f28
    1570 00000049 8384          MOVL      XAR5,*XAR4++          ; [CPU_] |1092| 
    1571                      .dwpsn  file "C:/ti/motorware/motorware_1_01_00_16/sw/drivers/pwm/src/32b/f28x/f2802x/pwm.h",line 171
    1572 0000004a 5605          IMPYL     P,XT,ACC              ; [CPU_] |1717| 
         0000004b 00A9 
    1573 0000004c 5663          QMPYL     ACC,XT,ACC            ; [CPU_] |1717| 
         0000004d 00A9 
    1574 0000004e 56A7          LSL64     ACC:P,#8              ; [CPU_] |1717| 
    1575 0000004f 2BAB          MOV       PL,#0                 ; [CPU_] |1717| 
TMS320C2000 Assembler PC v6.4.11 Sat Nov 26 19:25:36 2016

Tools Copyright (c) 1996-2015 Texas Instruments Incorporated
C:\Users\bee25\AppData\Local\Temp\3412010                            PAGE   32

    1576 00000050 28AA          MOV       PH,#128               ; [CPU_] |1717| 
         00000051 0080 
    1577 00000052 A9A0          MOVL      XAR0,P                ; [CPU_] |1717| 
    1578                      .dwpsn  file "C:/ti/motorware/motorware_1_01_00_16/sw/modules/hal/boards/boostxldrv8301_revB/f28x/f28
    1579 00000053 80ED          MOVZ      AR7,*+XAR5[5]         ; [CPU_] |1092| 
    1580                      .dwpsn  file "C:/ti/motorware/motorware_1_01_00_16/sw/drivers/pwm/src/32b/f28x/f2802x/pwm.h",line 171
    1581 00000054 2BAB          MOV       PL,#0                 ; [CPU_] |1717| 
    1582 00000055 28AA          MOV       PH,#65408             ; [CPU_] |1717| 
         00000056 FF80 
    1583 00000057 5650          MINL      ACC,XAR0              ; [CPU_] |1717| 
         00000058 00A0 
    1584 00000059 5661          MAXL      ACC,P                 ; [CPU_] |1717| 
         0000005a 00AB 
    1585 0000005b D009          MOVB      XAR0,#9               ; [CPU_] |1717| 
    1586 0000005c FF1F          ADD       ACC,#256 << 15        ; [CPU_] |1717| 
         0000005d 0100 
    1587 0000005e 1EAC          MOVL      XT,ACC                ; [CPU_] |1717| 
    1588 0000005f 5605          IMPYL     P,XT,XAR7             ; [CPU_] |1717| 
         00000060 00A7 
    1589 00000061 5663          QMPYL     ACC,XT,XAR7           ; [CPU_] |1717| 
         00000062 00A7 
    1590 00000063 56A7          LSL64     ACC:P,#8              ; [CPU_] |1717| 
    1591 00000064 3100          MOV       P,#0                  ; [CPU_] |1717| 
    1592 00000065 5650          MINL      ACC,XAR7              ; [CPU_] |1717| 
         00000066 00A7 
    1593 00000067 5661          MAXL      ACC,P                 ; [CPU_] |1717| 
         00000068 00AB 
    1594 00000069 9695          MOV       *+XAR5[AR0],AL        ; [CPU_] |1717| 
    1595                      .dwpsn  file "C:/ti/motorware/motorware_1_01_00_16/sw/modules/hal/boards/boostxldrv8301_revB/f28x/f28
    1596 0000006a 000E          BANZ      $C$L4,AR6--           ; [CPU_] |1089| 
         0000006b FFDC 
    1597                      ; branchcc occurs ; [] |1089| 
    1598 0000006c 761F-         MOVW      DP,#_ctrlHandle       ; [CPU_U] 
         0000006d 0000 
    1599                      .dwpsn  file "C:/ti/motorware/motorware_1_01_00_16/sw/solutions/instaspin_foc/src/proj_lab05b.c",line
    1600 0000006e 8A06-         MOVL      XAR4,@_ctrlHandle     ; [CPU_] |484| 
    1601              $C$DW$192       .dwtag  DW_TAG_TI_branch
    1602                      .dwattr $C$DW$192, DW_AT_low_pc(0x00)
    1603                      .dwattr $C$DW$192, DW_AT_name("_CTRL_setup")
    1604                      .dwattr $C$DW$192, DW_AT_TI_call
    1605 0000006f 7640!         LCR       #_CTRL_setup          ; [CPU_] |484| 
         00000070 0000 
    1606                      ; call occurs [#_CTRL_setup] ; [] |484| 
    1607 00000071 FE84          SUBB      SP,#4                 ; [CPU_U] 
    1608                      .dwcfi  cfa_offset, -14
    1609 00000072 C5BE          MOVL      XAR7,*--SP            ; [CPU_] 
    1610                      .dwcfi  cfa_offset, -12
    1611                      .dwcfi  restore_reg, 18
    1612 00000073 C4BE          MOVL      XAR6,*--SP            ; [CPU_] 
    1613                      .dwcfi  cfa_offset, -10
    1614                      .dwcfi  restore_reg, 16
    1615 00000074 83BE          MOVL      XAR5,*--SP            ; [CPU_] 
    1616                      .dwcfi  cfa_offset, -8
    1617                      .dwcfi  restore_reg, 14
    1618 00000075 8ABE          MOVL      XAR4,*--SP            ; [CPU_] 
TMS320C2000 Assembler PC v6.4.11 Sat Nov 26 19:25:36 2016

Tools Copyright (c) 1996-2015 Texas Instruments Incorporated
C:\Users\bee25\AppData\Local\Temp\3412010                            PAGE   33

    1619                      .dwcfi  cfa_offset, -6
    1620                      .dwcfi  restore_reg, 12
    1621 00000076 87BE          MOVL      XT,*--SP              ; [CPU_] 
    1622                      .dwcfi  cfa_offset, -4
    1623                      .dwcfi  restore_reg, 22
    1624                      .dwcfi  restore_reg, 21
    1625 00000077 0003          POP       AR1H:AR0H             ; [CPU_] 
    1626                      .dwcfi  cfa_offset, -2
    1627                      .dwcfi  restore_reg, 5
    1628                      .dwcfi  restore_reg, 7
    1629 00000078 7617          NASP      ; [CPU_] 
    1630              $C$DW$193       .dwtag  DW_TAG_TI_branch
    1631                      .dwattr $C$DW$193, DW_AT_low_pc(0x00)
    1632                      .dwattr $C$DW$193, DW_AT_TI_return
    1633 00000079 7602          IRET      ; [CPU_] 
    1634                      ; return occurs ; [] 
    1635                      .dwattr $C$DW$186, DW_AT_TI_end_file("C:/ti/motorware/motorware_1_01_00_16/sw/solutions/instaspin_foc
    1636                      .dwattr $C$DW$186, DW_AT_TI_end_line(0x1e8)
    1637                      .dwattr $C$DW$186, DW_AT_TI_end_column(0x01)
    1638                      .dwendentry
    1639                      .dwendtag $C$DW$186
    1640              
    1641 00000119               .sect   ".text"
    1642                      .clink
    1643                      .global _main
    1644              
    1645              $C$DW$194       .dwtag  DW_TAG_subprogram, DW_AT_name("main")
    1646                      .dwattr $C$DW$194, DW_AT_low_pc(_main)
    1647                      .dwattr $C$DW$194, DW_AT_high_pc(0x00)
    1648                      .dwattr $C$DW$194, DW_AT_TI_symbol_name("_main")
    1649                      .dwattr $C$DW$194, DW_AT_external
    1650                      .dwattr $C$DW$194, DW_AT_TI_begin_file("C:/ti/motorware/motorware_1_01_00_16/sw/solutions/instaspin_f
    1651                      .dwattr $C$DW$194, DW_AT_TI_begin_line(0x88)
    1652                      .dwattr $C$DW$194, DW_AT_TI_begin_column(0x06)
    1653                      .dwattr $C$DW$194, DW_AT_TI_max_frame_size(-20)
    1654                      .dwpsn  file "C:/ti/motorware/motorware_1_01_00_16/sw/solutions/instaspin_foc/src/proj_lab05b.c",line
    1655              
    1656                      .dwfde $C$DW$CIE, _main
    1657              
    1658              ;***************************************************************
    1659              ;* FNAME: _main                         FR SIZE:  18           *
    1660              ;*                                                             *
    1661              ;* FUNCTION ENVIRONMENT                                        *
    1662              ;*                                                             *
    1663              ;* FUNCTION PROPERTIES                                         *
    1664              ;*                            2 Parameter, 10 Auto,  6 SOE     *
    1665              ;***************************************************************
    1666              
    1667              _main:
    1668              ;* AR5   assigned to $O$C17
    1669              ;* AR5   assigned to $O$C18
    1670              ;* AR7   assigned to $O$C19
    1671              ;* AR7   assigned to $O$C20
    1672              ;* AR7   assigned to $O$C22
    1673              ;* XT    assigned to $O$C23
TMS320C2000 Assembler PC v6.4.11 Sat Nov 26 19:25:36 2016

Tools Copyright (c) 1996-2015 Texas Instruments Incorporated
C:\Users\bee25\AppData\Local\Temp\3412010                            PAGE   34

    1674              ;* AR6   assigned to $O$C24
    1675              ;* AR6   assigned to $O$C25
    1676              ;* AR6   assigned to $O$C26
    1677              ;* AR2   assigned to $O$K63
    1678              ;* AR5   assigned to _obj
    1679              $C$DW$195       .dwtag  DW_TAG_variable, DW_AT_name("obj")
    1680                      .dwattr $C$DW$195, DW_AT_TI_symbol_name("_obj")
    1681                      .dwattr $C$DW$195, DW_AT_type(*$C$DW$T$250)
    1682                      .dwattr $C$DW$195, DW_AT_location[DW_OP_reg14]
    1683              ;* AL    assigned to _state
    1684              $C$DW$196       .dwtag  DW_TAG_variable, DW_AT_name("state")
    1685                      .dwattr $C$DW$196, DW_AT_TI_symbol_name("_state")
    1686                      .dwattr $C$DW$196, DW_AT_type(*$C$DW$T$70)
    1687                      .dwattr $C$DW$196, DW_AT_location[DW_OP_reg0]
    1688              ;* AL    assigned to _state
    1689              $C$DW$197       .dwtag  DW_TAG_variable, DW_AT_name("state")
    1690                      .dwattr $C$DW$197, DW_AT_TI_symbol_name("_state")
    1691                      .dwattr $C$DW$197, DW_AT_type(*$C$DW$T$70)
    1692                      .dwattr $C$DW$197, DW_AT_location[DW_OP_reg0]
    1693              ;* AR4   assigned to _obj
    1694              $C$DW$198       .dwtag  DW_TAG_variable, DW_AT_name("obj")
    1695                      .dwattr $C$DW$198, DW_AT_TI_symbol_name("_obj")
    1696                      .dwattr $C$DW$198, DW_AT_type(*$C$DW$T$250)
    1697                      .dwattr $C$DW$198, DW_AT_location[DW_OP_reg12]
    1698              ;* AH    assigned to _state
    1699              $C$DW$199       .dwtag  DW_TAG_variable, DW_AT_name("state")
    1700                      .dwattr $C$DW$199, DW_AT_TI_symbol_name("_state")
    1701                      .dwattr $C$DW$199, DW_AT_type(*$C$DW$T$70)
    1702                      .dwattr $C$DW$199, DW_AT_location[DW_OP_reg1]
    1703              ;* AR5   assigned to _obj
    1704              $C$DW$200       .dwtag  DW_TAG_variable, DW_AT_name("obj")
    1705                      .dwattr $C$DW$200, DW_AT_TI_symbol_name("_obj")
    1706                      .dwattr $C$DW$200, DW_AT_type(*$C$DW$T$250)
    1707                      .dwattr $C$DW$200, DW_AT_location[DW_OP_reg14]
    1708              ;* AR6   assigned to _handle
    1709              $C$DW$201       .dwtag  DW_TAG_variable, DW_AT_name("handle")
    1710                      .dwattr $C$DW$201, DW_AT_TI_symbol_name("_handle")
    1711                      .dwattr $C$DW$201, DW_AT_type(*$C$DW$T$252)
    1712                      .dwattr $C$DW$201, DW_AT_location[DW_OP_reg16]
    1713              ;* AR6   assigned to _obj
    1714              $C$DW$202       .dwtag  DW_TAG_variable, DW_AT_name("obj")
    1715                      .dwattr $C$DW$202, DW_AT_TI_symbol_name("_obj")
    1716                      .dwattr $C$DW$202, DW_AT_type(*$C$DW$T$250)
    1717                      .dwattr $C$DW$202, DW_AT_location[DW_OP_reg16]
    1718              ;* AR5   assigned to _obj
    1719              $C$DW$203       .dwtag  DW_TAG_variable, DW_AT_name("obj")
    1720                      .dwattr $C$DW$203, DW_AT_TI_symbol_name("_obj")
    1721                      .dwattr $C$DW$203, DW_AT_type(*$C$DW$T$250)
    1722                      .dwattr $C$DW$203, DW_AT_location[DW_OP_reg14]
    1723              ;* AL    assigned to _maxAccel_pu
    1724              $C$DW$204       .dwtag  DW_TAG_variable, DW_AT_name("maxAccel_pu")
    1725                      .dwattr $C$DW$204, DW_AT_TI_symbol_name("_maxAccel_pu")
    1726                      .dwattr $C$DW$204, DW_AT_type(*$C$DW$T$32)
    1727                      .dwattr $C$DW$204, DW_AT_location[DW_OP_reg0]
    1728              ;* AR6   assigned to _state
TMS320C2000 Assembler PC v6.4.11 Sat Nov 26 19:25:36 2016

Tools Copyright (c) 1996-2015 Texas Instruments Incorporated
C:\Users\bee25\AppData\Local\Temp\3412010                            PAGE   35

    1729              $C$DW$205       .dwtag  DW_TAG_variable, DW_AT_name("state")
    1730                      .dwattr $C$DW$205, DW_AT_TI_symbol_name("_state")
    1731                      .dwattr $C$DW$205, DW_AT_type(*$C$DW$T$70)
    1732                      .dwattr $C$DW$205, DW_AT_location[DW_OP_reg16]
    1733              ;* AR4   assigned to _obj
    1734              $C$DW$206       .dwtag  DW_TAG_variable, DW_AT_name("obj")
    1735                      .dwattr $C$DW$206, DW_AT_TI_symbol_name("_obj")
    1736                      .dwattr $C$DW$206, DW_AT_type(*$C$DW$T$250)
    1737                      .dwattr $C$DW$206, DW_AT_location[DW_OP_reg12]
    1738              $C$DW$207       .dwtag  DW_TAG_variable, DW_AT_name("ctrlState")
    1739                      .dwattr $C$DW$207, DW_AT_TI_symbol_name("_ctrlState")
    1740                      .dwattr $C$DW$207, DW_AT_type(*$C$DW$T$40)
    1741                      .dwattr $C$DW$207, DW_AT_location[DW_OP_breg20 -7]
    1742              ;* AL    assigned to _flag_ctrlStateChanged
    1743              $C$DW$208       .dwtag  DW_TAG_variable, DW_AT_name("flag_ctrlStateChanged")
    1744                      .dwattr $C$DW$208, DW_AT_TI_symbol_name("_flag_ctrlStateChanged")
    1745                      .dwattr $C$DW$208, DW_AT_type(*$C$DW$T$70)
    1746                      .dwattr $C$DW$208, DW_AT_location[DW_OP_reg0]
    1747              ;* AR1   assigned to _obj
    1748              $C$DW$209       .dwtag  DW_TAG_variable, DW_AT_name("obj")
    1749                      .dwattr $C$DW$209, DW_AT_TI_symbol_name("_obj")
    1750                      .dwattr $C$DW$209, DW_AT_type(*$C$DW$T$228)
    1751                      .dwattr $C$DW$209, DW_AT_location[DW_OP_reg6]
    1752              $C$DW$210       .dwtag  DW_TAG_variable, DW_AT_name("cnt")
    1753                      .dwattr $C$DW$210, DW_AT_TI_symbol_name("_cnt")
    1754                      .dwattr $C$DW$210, DW_AT_type(*$C$DW$T$33)
    1755                      .dwattr $C$DW$210, DW_AT_location[DW_OP_breg20 -8]
    1756              ;* T     assigned to _cnt
    1757              $C$DW$211       .dwtag  DW_TAG_variable, DW_AT_name("cnt")
    1758                      .dwattr $C$DW$211, DW_AT_TI_symbol_name("_cnt")
    1759                      .dwattr $C$DW$211, DW_AT_type(*$C$DW$T$33)
    1760                      .dwattr $C$DW$211, DW_AT_location[DW_OP_reg22]
    1761              ;* AL    assigned to _bias
    1762              $C$DW$212       .dwtag  DW_TAG_variable, DW_AT_name("bias")
    1763                      .dwattr $C$DW$212, DW_AT_TI_symbol_name("_bias")
    1764                      .dwattr $C$DW$212, DW_AT_type(*$C$DW$T$32)
    1765                      .dwattr $C$DW$212, DW_AT_location[DW_OP_reg0]
    1766              ;* AL    assigned to _bias
    1767              $C$DW$213       .dwtag  DW_TAG_variable, DW_AT_name("bias")
    1768                      .dwattr $C$DW$213, DW_AT_TI_symbol_name("_bias")
    1769                      .dwattr $C$DW$213, DW_AT_type(*$C$DW$T$32)
    1770                      .dwattr $C$DW$213, DW_AT_location[DW_OP_reg0]
    1771              ;* AR1   assigned to $O$K33
    1772              ;* AR3   assigned to $O$K33
    1773              ;* AR6   assigned to $O$K33
    1774              ;* AR3   assigned to $O$K33
    1775              ;* AR1   assigned to $O$K33
    1776              ;* AR4   assigned to $O$v1
    1777              ;* AR4   assigned to $O$v1
    1778              ;* AR4   assigned to $O$v1
    1779              ;* AR4   assigned to $O$v1
    1780              ;* AR1   assigned to $O$v1
    1781              ;* AR4   assigned to $O$v2
    1782              ;* AR4   assigned to $O$v2
    1783              ;* AR4   assigned to $O$v2
TMS320C2000 Assembler PC v6.4.11 Sat Nov 26 19:25:36 2016

Tools Copyright (c) 1996-2015 Texas Instruments Incorporated
C:\Users\bee25\AppData\Local\Temp\3412010                            PAGE   36

    1784              ;* AR5   assigned to $O$v2
    1785              $C$DW$214       .dwtag  DW_TAG_variable, DW_AT_name("version")
    1786                      .dwattr $C$DW$214, DW_AT_TI_symbol_name("_version")
    1787                      .dwattr $C$DW$214, DW_AT_type(*$C$DW$T$38)
    1788                      .dwattr $C$DW$214, DW_AT_location[DW_OP_breg20 -6]
    1789                      .dwcfi  cfa_offset, -2
    1790                      .dwcfi  save_reg_to_mem, 26, 0
    1791 00000119 B2BD          MOVL      *SP++,XAR1            ; [CPU_] 
    1792                      .dwcfi  save_reg_to_mem, 7, 2
    1793                      .dwcfi  cfa_offset, -4
    1794 0000011a AABD          MOVL      *SP++,XAR2            ; [CPU_] 
    1795                      .dwcfi  save_reg_to_mem, 9, 4
    1796                      .dwcfi  cfa_offset, -6
    1797 0000011b A2BD          MOVL      *SP++,XAR3            ; [CPU_] 
    1798                      .dwcfi  save_reg_to_mem, 11, 6
    1799                      .dwcfi  cfa_offset, -8
    1800 0000011c FE0C          ADDB      SP,#12                ; [CPU_U] 
    1801                      .dwcfi  cfa_offset, -20
    1802                      .dwpsn  file "C:/ti/motorware/motorware_1_01_00_16/sw/solutions/instaspin_foc/src/proj_lab05b.c",line
    1803 0000011d 8F00!         MOVL      XAR4,#_RamfuncsRunStart ; [CPU_U] |150| 
         0000011e 0000 
    1804 0000011f 8F40!         MOVL      XAR5,#_RamfuncsLoadEnd ; [CPU_U] |150| 
         00000120 0000 
    1805 00000121 A842          MOVL      *-SP[2],XAR4          ; [CPU_] |150| 
    1806 00000122 8F00!         MOVL      XAR4,#_RamfuncsLoadStart ; [CPU_U] |150| 
         00000123 0000 
    1807              $C$DW$215       .dwtag  DW_TAG_TI_branch
    1808                      .dwattr $C$DW$215, DW_AT_low_pc(0x00)
    1809                      .dwattr $C$DW$215, DW_AT_name("_memCopy")
    1810                      .dwattr $C$DW$215, DW_AT_TI_call
    1811 00000124 7640!         LCR       #_memCopy             ; [CPU_] |150| 
         00000125 0000 
    1812                      ; call occurs [#_memCopy] ; [] |150| 
    1813 00000126 761F!         MOVW      DP,#_econst_start     ; [CPU_U] 
         00000127 0000 
    1814                      .dwpsn  file "C:/ti/motorware/motorware_1_01_00_16/sw/solutions/instaspin_foc/src/proj_lab05b.c",line
    1815 00000128 8A00!         MOVL      XAR4,@_econst_start   ; [CPU_] |154| 
    1816 00000129 761F!         MOVW      DP,#_econst_end       ; [CPU_U] 
         0000012a 0000 
    1817 0000012b 0EC4          MOVU      ACC,*+XAR4[0]         ; [CPU_] |154| 
    1818 0000012c 8A00!         MOVL      XAR4,@_econst_end     ; [CPU_] |154| 
    1819 0000012d 88C4          MOVZ      AR6,*+XAR4[0]         ; [CPU_] |154| 
    1820 0000012e 0FA6          CMPL      ACC,XAR6              ; [CPU_] |154| 
    1821 0000012f EC0A          BF        $C$L5,EQ              ; [CPU_] |154| 
    1822                      ; branchcc occurs ; [] |154| 
    1823                      .dwpsn  file "C:/ti/motorware/motorware_1_01_00_16/sw/solutions/instaspin_foc/src/proj_lab05b.c",line
    1824 00000130 8F00!         MOVL      XAR4,#_econst_ram_load ; [CPU_U] |156| 
         00000131 0000 
    1825 00000132 8F40!         MOVL      XAR5,#_econst_end     ; [CPU_U] |156| 
         00000133 0000 
    1826 00000134 A842          MOVL      *-SP[2],XAR4          ; [CPU_] |156| 
    1827 00000135 8F00!         MOVL      XAR4,#_econst_start   ; [CPU_U] |156| 
         00000136 0000 
    1828              $C$DW$216       .dwtag  DW_TAG_TI_branch
    1829                      .dwattr $C$DW$216, DW_AT_low_pc(0x00)
TMS320C2000 Assembler PC v6.4.11 Sat Nov 26 19:25:36 2016

Tools Copyright (c) 1996-2015 Texas Instruments Incorporated
C:\Users\bee25\AppData\Local\Temp\3412010                            PAGE   37

    1830                      .dwattr $C$DW$216, DW_AT_name("_memCopy")
    1831                      .dwattr $C$DW$216, DW_AT_TI_call
    1832 00000137 7640!         LCR       #_memCopy             ; [CPU_] |156| 
         00000138 0000 
    1833                      ; call occurs [#_memCopy] ; [] |156| 
    1834 00000139       $C$L5:    
    1835 00000139 761F!         MOVW      DP,#_switch_start     ; [CPU_U] 
         0000013a 0000 
    1836                      .dwpsn  file "C:/ti/motorware/motorware_1_01_00_16/sw/solutions/instaspin_foc/src/proj_lab05b.c",line
    1837 0000013b 8A00!         MOVL      XAR4,@_switch_start   ; [CPU_] |160| 
    1838 0000013c 761F!         MOVW      DP,#_switch_end       ; [CPU_U] 
         0000013d 0000 
    1839 0000013e 0EC4          MOVU      ACC,*+XAR4[0]         ; [CPU_] |160| 
    1840 0000013f 8A00!         MOVL      XAR4,@_switch_end     ; [CPU_] |160| 
    1841 00000140 88C4          MOVZ      AR6,*+XAR4[0]         ; [CPU_] |160| 
    1842 00000141 0FA6          CMPL      ACC,XAR6              ; [CPU_] |160| 
    1843 00000142 EC0A          BF        $C$L6,EQ              ; [CPU_] |160| 
    1844                      ; branchcc occurs ; [] |160| 
    1845                      .dwpsn  file "C:/ti/motorware/motorware_1_01_00_16/sw/solutions/instaspin_foc/src/proj_lab05b.c",line
    1846 00000143 8F00!         MOVL      XAR4,#_switch_ram_load ; [CPU_U] |162| 
         00000144 0000 
    1847 00000145 8F40!         MOVL      XAR5,#_switch_end     ; [CPU_U] |162| 
         00000146 0000 
    1848 00000147 A842          MOVL      *-SP[2],XAR4          ; [CPU_] |162| 
    1849 00000148 8F00!         MOVL      XAR4,#_switch_start   ; [CPU_U] |162| 
         00000149 0000 
    1850              $C$DW$217       .dwtag  DW_TAG_TI_branch
    1851                      .dwattr $C$DW$217, DW_AT_low_pc(0x00)
    1852                      .dwattr $C$DW$217, DW_AT_name("_memCopy")
    1853                      .dwattr $C$DW$217, DW_AT_TI_call
    1854 0000014a 7640!         LCR       #_memCopy             ; [CPU_] |162| 
         0000014b 0000 
    1855                      ; call occurs [#_memCopy] ; [] |162| 
    1856 0000014c       $C$L6:    
    1857                      .dwpsn  file "C:/ti/motorware/motorware_1_01_00_16/sw/solutions/instaspin_foc/src/proj_lab05b.c",line
    1858 0000014c 8F00!         MOVL      XAR4,#_hal            ; [CPU_U] |169| 
         0000014d 0000 
    1859 0000014e 02C6          MOVB      ACC,#198              ; [CPU_] |169| 
    1860              $C$DW$218       .dwtag  DW_TAG_TI_branch
    1861                      .dwattr $C$DW$218, DW_AT_low_pc(0x00)
    1862                      .dwattr $C$DW$218, DW_AT_name("_HAL_init")
    1863                      .dwattr $C$DW$218, DW_AT_TI_call
    1864 0000014f 7640!         LCR       #_HAL_init            ; [CPU_] |169| 
         00000150 0000 
    1865                      ; call occurs [#_HAL_init] ; [] |169| 
    1866                      .dwpsn  file "C:/ti/motorware/motorware_1_01_00_16/sw/solutions/instaspin_foc/src/proj_lab05b.c",line
    1867 00000151 8D40-         MOVL      XAR1,#_gUserParams    ; [CPU_U] |173| 
         00000152 0040 
    1868 00000153 761F-         MOVW      DP,#_halHandle        ; [CPU_U] 
         00000154 0000 
    1869 00000155 B24C          MOVL      *-SP[12],XAR1         ; [CPU_] |173| 
    1870                      .dwpsn  file "C:/ti/motorware/motorware_1_01_00_16/sw/solutions/instaspin_foc/src/proj_lab05b.c",line
    1871 00000156 A800-         MOVL      @_halHandle,XAR4      ; [CPU_] |169| 
    1872                      .dwpsn  file "C:/ti/motorware/motorware_1_01_00_16/sw/solutions/instaspin_foc/src/proj_lab05b.c",line
    1873 00000157 8AA1          MOVL      XAR4,XAR1             ; [CPU_] |173| 
TMS320C2000 Assembler PC v6.4.11 Sat Nov 26 19:25:36 2016

Tools Copyright (c) 1996-2015 Texas Instruments Incorporated
C:\Users\bee25\AppData\Local\Temp\3412010                            PAGE   38

    1874              $C$DW$219       .dwtag  DW_TAG_TI_branch
    1875                      .dwattr $C$DW$219, DW_AT_low_pc(0x00)
    1876                      .dwattr $C$DW$219, DW_AT_name("_USER_checkForErrors")
    1877                      .dwattr $C$DW$219, DW_AT_TI_call
    1878 00000158 7640!         LCR       #_USER_checkForErrors ; [CPU_] |173| 
         00000159 0000 
    1879                      ; call occurs [#_USER_checkForErrors] ; [] |173| 
    1880                      .dwpsn  file "C:/ti/motorware/motorware_1_01_00_16/sw/solutions/instaspin_foc/src/proj_lab05b.c",line
    1881 0000015a 8AA1          MOVL      XAR4,XAR1             ; [CPU_] |177| 
    1882              $C$DW$220       .dwtag  DW_TAG_TI_branch
    1883                      .dwattr $C$DW$220, DW_AT_low_pc(0x00)
    1884                      .dwattr $C$DW$220, DW_AT_name("_USER_getErrorCode")
    1885                      .dwattr $C$DW$220, DW_AT_TI_call
    1886 0000015b 7640!         LCR       #_USER_getErrorCode   ; [CPU_] |177| 
         0000015c 0000 
    1887                      ; call occurs [#_USER_getErrorCode] ; [] |177| 
    1888 0000015d 8D40-         MOVL      XAR1,#_gMotorVars     ; [CPU_U] |177| 
         0000015e 0040 
    1889 0000015f D00D          MOVB      XAR0,#13              ; [CPU_] |177| 
    1890 00000160 9691          MOV       *+XAR1[AR0],AL        ; [CPU_] |177| 
    1891                      .dwpsn  file "C:/ti/motorware/motorware_1_01_00_16/sw/solutions/instaspin_foc/src/proj_lab05b.c",line
    1892 00000161 D00D          MOVB      XAR0,#13              ; [CPU_] |181| 
    1893 00000162 9291          MOV       AL,*+XAR1[AR0]        ; [CPU_] |181| 
    1894 00000163 56C0          BF        $C$L25,NEQ            ; [CPU_] |181| 
         00000164 024D 
    1895                      ; branchcc occurs ; [] |181| 
    1896 00000165 864C          MOVL      XAR2,*-SP[12]         ; [CPU_] 
    1897                      .dwpsn  file "C:/ti/motorware/motorware_1_01_00_16/sw/solutions/instaspin_foc/src/proj_lab05b.c",line
    1898 00000166 8AA2          MOVL      XAR4,XAR2             ; [CPU_] |191| 
    1899              $C$DW$221       .dwtag  DW_TAG_TI_branch
    1900                      .dwattr $C$DW$221, DW_AT_low_pc(0x00)
    1901                      .dwattr $C$DW$221, DW_AT_name("_USER_setParams")
    1902                      .dwattr $C$DW$221, DW_AT_TI_call
    1903 00000167 7640!         LCR       #_USER_setParams      ; [CPU_] |191| 
         00000168 0000 
    1904                      ; call occurs [#_USER_setParams] ; [] |191| 
    1905 00000169 761F-         MOVW      DP,#_halHandle        ; [CPU_U] 
         0000016a 0000 
    1906                      .dwpsn  file "C:/ti/motorware/motorware_1_01_00_16/sw/solutions/instaspin_foc/src/proj_lab05b.c",line
    1907 0000016b 8A00-         MOVL      XAR4,@_halHandle      ; [CPU_] |195| 
    1908 0000016c 83A2          MOVL      XAR5,XAR2             ; [CPU_] |195| 
    1909              $C$DW$222       .dwtag  DW_TAG_TI_branch
    1910                      .dwattr $C$DW$222, DW_AT_low_pc(0x00)
    1911                      .dwattr $C$DW$222, DW_AT_name("_HAL_setParams")
    1912                      .dwattr $C$DW$222, DW_AT_TI_call
    1913 0000016d 7640!         LCR       #_HAL_setParams       ; [CPU_] |195| 
         0000016e 0000 
    1914                      ; call occurs [#_HAL_setParams] ; [] |195| 
    1915                      .dwpsn  file "C:/ti/motorware/motorware_1_01_00_16/sw/solutions/instaspin_foc/src/proj_lab05b.c",line
    1916 0000016f D500          MOVB      XAR5,#0               ; [CPU_] |203| 
    1917 00000170 7680          MOVL      XAR6,#264             ; [CPU_U] |203| 
         00000171 0108 
    1918 00000172 8F00-         MOVL      XAR4,#_ctrl           ; [CPU_U] |203| 
         00000173 0100 
    1919 00000174 06A6          MOVL      ACC,XAR6              ; [CPU_] |203| 
TMS320C2000 Assembler PC v6.4.11 Sat Nov 26 19:25:36 2016

Tools Copyright (c) 1996-2015 Texas Instruments Incorporated
C:\Users\bee25\AppData\Local\Temp\3412010                            PAGE   39

    1920              $C$DW$223       .dwtag  DW_TAG_TI_branch
    1921                      .dwattr $C$DW$223, DW_AT_low_pc(0x00)
    1922                      .dwattr $C$DW$223, DW_AT_name("_CTRL_initCtrl")
    1923                      .dwattr $C$DW$223, DW_AT_TI_call
    1924 00000175 7640!         LCR       #_CTRL_initCtrl       ; [CPU_] |203| 
         00000176 0000 
    1925                      ; call occurs [#_CTRL_initCtrl] ; [] |203| 
    1926                      .dwpsn  file "C:/ti/motorware/motorware_1_01_00_16/sw/solutions/instaspin_foc/src/proj_lab05b.c",line
    1927 00000177 5DAD          MOVZ      AR5,SP                ; [CPU_] |211| 
    1928 00000178 761F-         MOVW      DP,#_ctrlHandle       ; [CPU_U] 
         00000179 0000 
    1929                      .dwpsn  file "C:/ti/motorware/motorware_1_01_00_16/sw/solutions/instaspin_foc/src/proj_lab05b.c",line
    1930 0000017a A806-         MOVL      @_ctrlHandle,XAR4     ; [CPU_] |203| 
    1931                      .dwpsn  file "C:/ti/motorware/motorware_1_01_00_16/sw/solutions/instaspin_foc/src/proj_lab05b.c",line
    1932 0000017b DD86          SUBB      XAR5,#6               ; [CPU_U] |211| 
    1933 0000017c 5DA5          MOVZ      AR5,AR5               ; [CPU_] |211| 
    1934              $C$DW$224       .dwtag  DW_TAG_TI_branch
    1935                      .dwattr $C$DW$224, DW_AT_low_pc(0x00)
    1936                      .dwattr $C$DW$224, DW_AT_name("_CTRL_getVersion")
    1937                      .dwattr $C$DW$224, DW_AT_TI_call
    1938 0000017d 7640!         LCR       #_CTRL_getVersion     ; [CPU_] |211| 
         0000017e 0000 
    1939                      ; call occurs [#_CTRL_getVersion] ; [] |211| 
    1940                      .dwpsn  file "C:/ti/motorware/motorware_1_01_00_16/sw/solutions/instaspin_foc/src/proj_lab05b.c",line
    1941 0000017f 5CAD          MOVZ      AR4,SP                ; [CPU_] |213| 
    1942 00000180 DC86          SUBB      XAR4,#6               ; [CPU_U] |213| 
    1943 00000181 80A4          MOVZ      AR7,AR4               ; [CPU_] |213| 
    1944 00000182 D90E          ADDB      XAR1,#14              ; [CPU_] |213| 
    1945 00000183 761F-         MOVW      DP,#_ctrlHandle       ; [CPU_U] 
         00000184 0000 
    1946                      .dwpsn  file "C:/ti/motorware/motorware_1_01_00_16/sw/solutions/instaspin_foc/src/proj_lab05b.c",line
    1947 00000185 83A2          MOVL      XAR5,XAR2             ; [CPU_] |218| 
    1948                      .dwpsn  file "C:/ti/motorware/motorware_1_01_00_16/sw/solutions/instaspin_foc/src/proj_lab05b.c",line
    1949 00000186 F603          RPT       #3
    1950 00000187 2481  ||     PREAD     *XAR1++,*XAR7         ; [CPU_] |213| 
    1951                      .dwpsn  file "C:/ti/motorware/motorware_1_01_00_16/sw/solutions/instaspin_foc/src/proj_lab05b.c",line
    1952 00000188 8A06-         MOVL      XAR4,@_ctrlHandle     ; [CPU_] |218| 
    1953              $C$DW$225       .dwtag  DW_TAG_TI_branch
    1954                      .dwattr $C$DW$225, DW_AT_low_pc(0x00)
    1955                      .dwattr $C$DW$225, DW_AT_name("_CTRL_setParams")
    1956                      .dwattr $C$DW$225, DW_AT_TI_call
    1957 00000189 7640!         LCR       #_CTRL_setParams      ; [CPU_] |218| 
         0000018a 0000 
    1958                      ; call occurs [#_CTRL_setParams] ; [] |218| 
    1959 0000018b 761F-         MOVW      DP,#_halHandle        ; [CPU_U] 
         0000018c 0000 
    1960                      .dwpsn  file "C:/ti/motorware/motorware_1_01_00_16/sw/solutions/instaspin_foc/src/proj_lab05b.c",line
    1961 0000018d 8A00-         MOVL      XAR4,@_halHandle      ; [CPU_] |222| 
    1962              $C$DW$226       .dwtag  DW_TAG_TI_branch
    1963                      .dwattr $C$DW$226, DW_AT_low_pc(0x00)
    1964                      .dwattr $C$DW$226, DW_AT_name("_HAL_setupFaults")
    1965                      .dwattr $C$DW$226, DW_AT_TI_call
    1966 0000018e 7640!         LCR       #_HAL_setupFaults     ; [CPU_] |222| 
         0000018f 0000 
    1967                      ; call occurs [#_HAL_setupFaults] ; [] |222| 
TMS320C2000 Assembler PC v6.4.11 Sat Nov 26 19:25:36 2016

Tools Copyright (c) 1996-2015 Texas Instruments Incorporated
C:\Users\bee25\AppData\Local\Temp\3412010                            PAGE   40

    1968 00000190 761F-         MOVW      DP,#_halHandle        ; [CPU_U] 
         00000191 0000 
    1969                      .dwpsn  file "C:/ti/motorware/motorware_1_01_00_16/sw/solutions/instaspin_foc/src/proj_lab05b.c",line
    1970 00000192 8A00-         MOVL      XAR4,@_halHandle      ; [CPU_] |226| 
    1971 00000193 7622   EALLOW
    1972                      .dwpsn  file "C:/ti/motorware/motorware_1_01_00_16/sw/modules/hal/boards/boostxldrv8301_revB/f28x/f28
    1973 00000194 D078          MOVB      XAR0,#120             ; [CPU_] |492| 
    1974 00000195 02F0          MOVB      ACC,#240              ; [CPU_] |492| 
    1975 00000196 0794          ADDL      ACC,*+XAR4[AR0]       ; [CPU_] |492| 
    1976 00000197 83A9          MOVL      XAR5,ACC              ; [CPU_] |492| 
    1977 00000198 7680+         MOVL      XAR6,#_mainISR        ; [CPU_U] |492| 
         00000199 0000 
    1978 0000019a C2C5          MOVL      *+XAR5[0],XAR6        ; [CPU_] |492| 
    1979 0000019b 761A   EDIS
    1980 0000019c FF69          SPM       #0                    ; [CPU_] 
    1981                      .dwpsn  file "C:/ti/motorware/motorware_1_01_00_16/sw/solutions/instaspin_foc/src/proj_lab05b.c",line
    1982              $C$DW$227       .dwtag  DW_TAG_TI_branch
    1983                      .dwattr $C$DW$227, DW_AT_low_pc(0x00)
    1984                      .dwattr $C$DW$227, DW_AT_name("_HAL_enableAdcInts")
    1985                      .dwattr $C$DW$227, DW_AT_TI_call
    1986 0000019d 7640!         LCR       #_HAL_enableAdcInts   ; [CPU_] |230| 
         0000019e 0000 
    1987                      ; call occurs [#_HAL_enableAdcInts] ; [] |230| 
    1988 0000019f 761F-         MOVW      DP,#_halHandle        ; [CPU_U] 
         000001a0 0000 
    1989                      .dwpsn  file "C:/ti/motorware/motorware_1_01_00_16/sw/solutions/instaspin_foc/src/proj_lab05b.c",line
    1990 000001a1 8A00-         MOVL      XAR4,@_halHandle      ; [CPU_] |234| 
    1991              $C$DW$228       .dwtag  DW_TAG_TI_branch
    1992                      .dwattr $C$DW$228, DW_AT_low_pc(0x00)
    1993                      .dwattr $C$DW$228, DW_AT_name("_HAL_enableGlobalInts")
    1994                      .dwattr $C$DW$228, DW_AT_TI_call
    1995 000001a2 7640!         LCR       #_HAL_enableGlobalInts ; [CPU_] |234| 
         000001a3 0000 
    1996                      ; call occurs [#_HAL_enableGlobalInts] ; [] |234| 
    1997 000001a4 761F-         MOVW      DP,#_halHandle        ; [CPU_U] 
         000001a5 0000 
    1998                      .dwpsn  file "C:/ti/motorware/motorware_1_01_00_16/sw/solutions/instaspin_foc/src/proj_lab05b.c",line
    1999 000001a6 8A00-         MOVL      XAR4,@_halHandle      ; [CPU_] |238| 
    2000              $C$DW$229       .dwtag  DW_TAG_TI_branch
    2001                      .dwattr $C$DW$229, DW_AT_low_pc(0x00)
    2002                      .dwattr $C$DW$229, DW_AT_name("_HAL_enableDebugInt")
    2003                      .dwattr $C$DW$229, DW_AT_TI_call
    2004 000001a7 7640!         LCR       #_HAL_enableDebugInt  ; [CPU_] |238| 
         000001a8 0000 
    2005                      ; call occurs [#_HAL_enableDebugInt] ; [] |238| 
    2006 000001a9 761F-         MOVW      DP,#_halHandle        ; [CPU_U] 
         000001aa 0000 
    2007                      .dwpsn  file "C:/ti/motorware/motorware_1_01_00_16/sw/solutions/instaspin_foc/src/proj_lab05b.c",line
    2008 000001ab 8A00-         MOVL      XAR4,@_halHandle      ; [CPU_] |242| 
    2009                      .dwpsn  file "C:/ti/motorware/motorware_1_01_00_16/sw/modules/hal/boards/boostxldrv8301_revB/f28x/f28
    2010 000001ac 83A4          MOVL      XAR5,XAR4             ; [CPU_] |255| 
    2011 000001ad DD7E          ADDB      XAR5,#126             ; [CPU_] |255| 
    2012 000001ae 7622   EALLOW
    2013                      .dwpsn  file "C:/ti/motorware/motorware_1_01_00_16/sw/drivers/pwm/src/32b/f28x/f2802x/pwm.h",line 156
    2014 000001af D07C          MOVB      XAR0,#124             ; [CPU_] |1567| 
TMS320C2000 Assembler PC v6.4.11 Sat Nov 26 19:25:36 2016

Tools Copyright (c) 1996-2015 Texas Instruments Incorporated
C:\Users\bee25\AppData\Local\Temp\3412010                            PAGE   41

    2015 000001b0 0218          MOVB      ACC,#24               ; [CPU_] |1567| 
    2016 000001b1 0794          ADDL      ACC,*+XAR4[AR0]       ; [CPU_] |1567| 
    2017 000001b2 1EA6          MOVL      XAR6,ACC              ; [CPU_] |1567| 
    2018 000001b3 1AC6          OR        *+XAR6[0],#0x0004     ; [CPU_] |1567| 
         000001b4 0004 
    2019 000001b5 761A   EDIS
    2020 000001b6 7622   EALLOW
    2021 000001b7 0218          MOVB      ACC,#24               ; [CPU_] |1567| 
    2022 000001b8 07C5          ADDL      ACC,*+XAR5[0]         ; [CPU_] |1567| 
    2023 000001b9 1EA6          MOVL      XAR6,ACC              ; [CPU_] |1567| 
    2024 000001ba 1AC6          OR        *+XAR6[0],#0x0004     ; [CPU_] |1567| 
         000001bb 0004 
    2025 000001bc 761A   EDIS
    2026 000001bd 7622   EALLOW
    2027 000001be 0218          MOVB      ACC,#24               ; [CPU_] |1567| 
    2028 000001bf 07D5          ADDL      ACC,*+XAR5[2]         ; [CPU_] |1567| 
    2029 000001c0 83A9          MOVL      XAR5,ACC              ; [CPU_] |1567| 
    2030 000001c1 1AC5          OR        *+XAR5[0],#0x0004     ; [CPU_] |1567| 
         000001c2 0004 
    2031 000001c3 761A   EDIS
    2032 000001c4 FF69          SPM       #0                    ; [CPU_] 
    2033                      .dwpsn  file "C:/ti/motorware/motorware_1_01_00_16/sw/solutions/instaspin_foc/src/proj_lab05b.c",line
    2034              $C$DW$230       .dwtag  DW_TAG_TI_branch
    2035                      .dwattr $C$DW$230, DW_AT_low_pc(0x00)
    2036                      .dwattr $C$DW$230, DW_AT_name("_HAL_enableDrv")
    2037                      .dwattr $C$DW$230, DW_AT_TI_call
    2038 000001c5 7640!         LCR       #_HAL_enableDrv       ; [CPU_] |247| 
         000001c6 0000 
    2039                      ; call occurs [#_HAL_enableDrv] ; [] |247| 
    2040                      .dwpsn  file "C:/ti/motorware/motorware_1_01_00_16/sw/solutions/instaspin_foc/src/proj_lab05b.c",line
    2041 000001c7 8D80-         MOVL      XAR2,#_gDrvSpi8301Vars ; [CPU_U] |249| 
         000001c8 0028 
    2042 000001c9 761F-         MOVW      DP,#_halHandle        ; [CPU_U] 
         000001ca 0000 
    2043 000001cb 83A2          MOVL      XAR5,XAR2             ; [CPU_] |249| 
    2044 000001cc 8A00-         MOVL      XAR4,@_halHandle      ; [CPU_] |249| 
    2045              $C$DW$231       .dwtag  DW_TAG_TI_branch
    2046                      .dwattr $C$DW$231, DW_AT_low_pc(0x00)
    2047                      .dwattr $C$DW$231, DW_AT_name("_HAL_setupDrvSpi")
    2048                      .dwattr $C$DW$231, DW_AT_TI_call
    2049 000001cd 7640!         LCR       #_HAL_setupDrvSpi     ; [CPU_] |249| 
         000001ce 0000 
    2050                      ; call occurs [#_HAL_setupDrvSpi] ; [] |249| 
    2051                      .dwpsn  file "C:/ti/motorware/motorware_1_01_00_16/sw/modules/ctrl/src/32b/ctrl.h",line 1246,column 3
    2052 000001cf 02F1          MOVB      ACC,#241              ; [CPU_] |1246| 
    2053 000001d0 761F-         MOVW      DP,#_ctrlHandle       ; [CPU_U] 
         000001d1 0000 
    2054 000001d2 0706-         ADDL      ACC,@_ctrlHandle      ; [CPU_] |1246| 
    2055 000001d3 8AA9          MOVL      XAR4,ACC              ; [CPU_] |1246| 
    2056 000001d4 56BF          MOVB      *+XAR4[0],#1,UNC      ; [CPU_] |1246| 
         000001d5 01C4 
    2057                      .dwpsn  file "C:/ti/motorware/motorware_1_01_00_16/sw/solutions/instaspin_foc/src/proj_lab05b.c",line
    2058              $C$DW$232       .dwtag  DW_TAG_TI_branch
    2059                      .dwattr $C$DW$232, DW_AT_low_pc(0x00)
    2060                      .dwattr $C$DW$232, DW_AT_name("_USER_computeFlux_pu_to_Wb_sf")
TMS320C2000 Assembler PC v6.4.11 Sat Nov 26 19:25:36 2016

Tools Copyright (c) 1996-2015 Texas Instruments Incorporated
C:\Users\bee25\AppData\Local\Temp\3412010                            PAGE   42

    2061                      .dwattr $C$DW$232, DW_AT_TI_call
    2062 000001d6 7640!         LCR       #_USER_computeFlux_pu_to_Wb_sf ; [CPU_] |265| 
         000001d7 0000 
    2063                      ; call occurs [#_USER_computeFlux_pu_to_Wb_sf] ; [] |265| 
    2064 000001d8 761F-         MOVW      DP,#_gFlux_pu_to_Wb_sf ; [CPU_U] 
         000001d9 0000 
    2065 000001da 1E0C-         MOVL      @_gFlux_pu_to_Wb_sf,ACC ; [CPU_] |265| 
    2066                      .dwpsn  file "C:/ti/motorware/motorware_1_01_00_16/sw/solutions/instaspin_foc/src/proj_lab05b.c",line
    2067              $C$DW$233       .dwtag  DW_TAG_TI_branch
    2068                      .dwattr $C$DW$233, DW_AT_low_pc(0x00)
    2069                      .dwattr $C$DW$233, DW_AT_name("_USER_computeFlux_pu_to_VpHz_sf")
    2070                      .dwattr $C$DW$233, DW_AT_TI_call
    2071 000001db 7640!         LCR       #_USER_computeFlux_pu_to_VpHz_sf ; [CPU_] |266| 
         000001dc 0000 
    2072                      ; call occurs [#_USER_computeFlux_pu_to_VpHz_sf] ; [] |266| 
    2073 000001dd 761F-         MOVW      DP,#_gFlux_pu_to_VpHz_sf ; [CPU_U] 
         000001de 0000 
    2074 000001df 1E0A-         MOVL      @_gFlux_pu_to_VpHz_sf,ACC ; [CPU_] |266| 
    2075                      .dwpsn  file "C:/ti/motorware/motorware_1_01_00_16/sw/solutions/instaspin_foc/src/proj_lab05b.c",line
    2076              $C$DW$234       .dwtag  DW_TAG_TI_branch
    2077                      .dwattr $C$DW$234, DW_AT_low_pc(0x00)
    2078                      .dwattr $C$DW$234, DW_AT_name("_USER_computeTorque_Ls_Id_Iq_pu_to_Nm_sf")
    2079                      .dwattr $C$DW$234, DW_AT_TI_call
    2080 000001e0 7640!         LCR       #_USER_computeTorque_Ls_Id_Iq_pu_to_Nm_sf ; [CPU_] |267| 
         000001e1 0000 
    2081                      ; call occurs [#_USER_computeTorque_Ls_Id_Iq_pu_to_Nm_sf] ; [] |267| 
    2082 000001e2 761F-         MOVW      DP,#_gTorque_Ls_Id_Iq_pu_to_Nm_sf ; [CPU_U] 
         000001e3 0000 
    2083 000001e4 1E10-         MOVL      @_gTorque_Ls_Id_Iq_pu_to_Nm_sf,ACC ; [CPU_] |267| 
    2084                      .dwpsn  file "C:/ti/motorware/motorware_1_01_00_16/sw/solutions/instaspin_foc/src/proj_lab05b.c",line
    2085              $C$DW$235       .dwtag  DW_TAG_TI_branch
    2086                      .dwattr $C$DW$235, DW_AT_low_pc(0x00)
    2087                      .dwattr $C$DW$235, DW_AT_name("_USER_computeTorque_Flux_Iq_pu_to_Nm_sf")
    2088                      .dwattr $C$DW$235, DW_AT_TI_call
    2089 000001e5 7640!         LCR       #_USER_computeTorque_Flux_Iq_pu_to_Nm_sf ; [CPU_] |268| 
         000001e6 0000 
    2090                      ; call occurs [#_USER_computeTorque_Flux_Iq_pu_to_Nm_sf] ; [] |268| 
    2091 000001e7 761F-         MOVW      DP,#_gTorque_Flux_Iq_pu_to_Nm_sf ; [CPU_U] 
         000001e8 0000 
    2092 000001e9 1E0E-         MOVL      @_gTorque_Flux_Iq_pu_to_Nm_sf,ACC ; [CPU_] |268| 
    2093 000001ea       $C$L7:    
    2094 000001ea 761F-         MOVW      DP,#_gMotorVars       ; [CPU_U] 
         000001eb 0001 
    2095                      .dwpsn  file "C:/ti/motorware/motorware_1_01_00_16/sw/solutions/instaspin_foc/src/proj_lab05b.c",line
    2096 000001ec 9200-         MOV       AL,@_gMotorVars       ; [CPU_] |274| 
    2097 000001ed ECFD          BF        $C$L7,EQ              ; [CPU_] |274| 
    2098                      ; branchcc occurs ; [] |274| 
    2099 000001ee 761F-         MOVW      DP,#_ctrlHandle       ; [CPU_U] 
         000001ef 0000 
    2100                      .dwpsn  file "C:/ti/motorware/motorware_1_01_00_16/sw/solutions/instaspin_foc/src/proj_lab05b.c",line
    2101 000001f0 8B06-         MOVL      XAR1,@_ctrlHandle     ; [CPU_] |277| 
    2102                      .dwpsn  file "C:/ti/motorware/motorware_1_01_00_16/sw/modules/ctrl/src/32b/ctrl.h",line 1288,column 3
    2103 000001f1 D0F4          MOVB      XAR0,#244             ; [CPU_] |1288| 
    2104 000001f2 56BF          MOVB      *+XAR1[AR0],#1,UNC    ; [CPU_] |1288| 
         000001f3 0191 
TMS320C2000 Assembler PC v6.4.11 Sat Nov 26 19:25:36 2016

Tools Copyright (c) 1996-2015 Texas Instruments Incorporated
C:\Users\bee25\AppData\Local\Temp\3412010                            PAGE   43

    2105                      .dwpsn  file "C:/ti/motorware/motorware_1_01_00_16/sw/solutions/instaspin_foc/src/proj_lab05b.c",line
    2106 000001f4 FFEF          B         $C$L24,UNC            ; [CPU_] |280| 
         000001f5 0192 
    2107                      ; branch occurs ; [] |280| 
    2108 000001f6       $C$L8:    
    2109                      .dwpsn  file "C:/ti/motorware/motorware_1_01_00_16/sw/solutions/instaspin_foc/src/proj_lab05b.c",line
    2110 000001f6 0A01-         INC       @_gCounter_updateGlobals ; [CPU_] |285| 
    2111                      .dwpsn  file "C:/ti/motorware/motorware_1_01_00_16/sw/modules/ctrl/src/32b/ctrl.h",line 1304,column 3
    2112 000001f7 D0F5          MOVB      XAR0,#245             ; [CPU_] |1304| 
    2113                      .dwpsn  file "C:/ti/motorware/motorware_1_01_00_16/sw/solutions/instaspin_foc/src/proj_lab05b.c",line
    2114 000001f8 92F3          MOV       AL,*+XAR3[6]          ; [CPU_] |288| 
    2115                      .dwpsn  file "C:/ti/motorware/motorware_1_01_00_16/sw/modules/ctrl/src/32b/ctrl.h",line 1304,column 3
    2116 000001f9 9691          MOV       *+XAR1[AR0],AL        ; [CPU_] |1304| 
    2117                      .dwpsn  file "C:/ti/motorware/motorware_1_01_00_16/sw/solutions/instaspin_foc/src/proj_lab05b.c",line
    2118 000001fa D018          MOVB      XAR0,#24              ; [CPU_] |291| 
    2119 000001fb 8A91          MOVL      XAR4,*+XAR1[AR0]      ; [CPU_] |291| 
    2120 000001fc 92EB          MOV       AL,*+XAR3[5]          ; [CPU_] |291| 
    2121              $C$DW$236       .dwtag  DW_TAG_TI_branch
    2122                      .dwattr $C$DW$236, DW_AT_low_pc(0x00)
    2123                      .dwattr $C$DW$236, DW_AT_name("_EST_setFlag_enableRsRecalc")
    2124                      .dwattr $C$DW$236, DW_AT_TI_call
    2125 000001fd 7640!         LCR       #_EST_setFlag_enableRsRecalc ; [CPU_] |291| 
         000001fe 0000 
    2126                      ; call occurs [#_EST_setFlag_enableRsRecalc] ; [] |291| 
    2127 000001ff 761F-         MOVW      DP,#_ctrlHandle       ; [CPU_U] 
         00000200 0000 
    2128                      .dwpsn  file "C:/ti/motorware/motorware_1_01_00_16/sw/solutions/instaspin_foc/src/proj_lab05b.c",line
    2129 00000201 8A06-         MOVL      XAR4,@_ctrlHandle     ; [CPU_] |294| 
    2130                      .dwpsn  file "C:/ti/motorware/motorware_1_01_00_16/sw/modules/ctrl/src/32b/ctrl.h",line 1275,column 3
    2131 00000202 D0F3          MOVB      XAR0,#243             ; [CPU_] |1275| 
    2132                      .dwpsn  file "C:/ti/motorware/motorware_1_01_00_16/sw/solutions/instaspin_foc/src/proj_lab05b.c",line
    2133 00000203 92FB          MOV       AL,*+XAR3[7]          ; [CPU_] |294| 
    2134                      .dwpsn  file "C:/ti/motorware/motorware_1_01_00_16/sw/modules/ctrl/src/32b/ctrl.h",line 1275,column 3
    2135 00000204 9694          MOV       *+XAR4[AR0],AL        ; [CPU_] |1275| 
    2136                      .dwpsn  file "C:/ti/motorware/motorware_1_01_00_16/sw/modules/ctrl/src/32b/ctrl.h",line 1060,column 3
    2137 00000205 92E4          MOV       AL,*+XAR4[4]          ; [CPU_] |1060| 
    2138 00000206 56C1          BF        $C$L19,EQ             ; [CPU_] |1060| 
         00000207 00EC 
    2139                      ; branchcc occurs ; [] |1060| 
    2140                      .dwpsn  file "C:/ti/motorware/motorware_1_01_00_16/sw/solutions/instaspin_foc/src/proj_lab05b.c",line
    2141              $C$DW$237       .dwtag  DW_TAG_TI_branch
    2142                      .dwattr $C$DW$237, DW_AT_low_pc(0x00)
    2143                      .dwattr $C$DW$237, DW_AT_name("_CTRL_updateState")
    2144                      .dwattr $C$DW$237, DW_AT_TI_call
    2145 00000208 7640!         LCR       #_CTRL_updateState    ; [CPU_] |311| 
         00000209 0000 
    2146                      ; call occurs [#_CTRL_updateState] ; [] |311| 
    2147 0000020a 761F-         MOVW      DP,#_ctrlHandle       ; [CPU_U] 
         0000020b 0000 
    2148                      .dwpsn  file "C:/ti/motorware/motorware_1_01_00_16/sw/solutions/instaspin_foc/src/proj_lab05b.c",line
    2149 0000020c 8A06-         MOVL      XAR4,@_ctrlHandle     ; [CPU_] |314| 
    2150 0000020d 93CB          MOV       AH,*+XAR3[1]          ; [CPU_] |314| 
    2151                      .dwpsn  file "C:/ti/motorware/motorware_1_01_00_16/sw/modules/ctrl/src/32b/ctrl.h",line 1218,column 3
    2152 0000020e D0F0          MOVB      XAR0,#240             ; [CPU_] |1218| 
    2153                      .dwpsn  file "C:/ti/motorware/motorware_1_01_00_16/sw/solutions/instaspin_foc/src/proj_lab05b.c",line
TMS320C2000 Assembler PC v6.4.11 Sat Nov 26 19:25:36 2016

Tools Copyright (c) 1996-2015 Texas Instruments Incorporated
C:\Users\bee25\AppData\Local\Temp\3412010                            PAGE   44

    2154 0000020f 5200          CMPB      AL,#0                 ; [CPU_] |316| 
    2155                      .dwpsn  file "C:/ti/motorware/motorware_1_01_00_16/sw/modules/ctrl/src/32b/ctrl.h",line 1218,column 3
    2156 00000210 9794          MOV       *+XAR4[AR0],AH        ; [CPU_] |1218| 
    2157                      .dwpsn  file "C:/ti/motorware/motorware_1_01_00_16/sw/solutions/instaspin_foc/src/proj_lab05b.c",line
    2158 00000211 56C1          BF        $C$L20,EQ             ; [CPU_] |316| 
         00000212 0101 
    2159                      ; branchcc occurs ; [] |316| 
    2160                      .dwpsn  file "C:/ti/motorware/motorware_1_01_00_16/sw/modules/ctrl/src/32b/ctrl.h",line 771,column 3,
    2161 00000213 92E4          MOV       AL,*+XAR4[4]          ; [CPU_] |771| 
    2162 00000214 9647          MOV       *-SP[7],AL            ; [CPU_] |771| 
    2163 00000215 5202          CMPB      AL,#2                 ; [CPU_] |771| 
    2164 00000216 56C1          BF        $C$L16,EQ             ; [CPU_] |771| 
         00000217 00B0 
    2165                      ; branchcc occurs ; [] |771| 
    2166                      .dwpsn  file "C:/ti/motorware/motorware_1_01_00_16/sw/solutions/instaspin_foc/src/proj_lab05b.c",line
    2167 00000218 5203          CMPB      AL,#3                 ; [CPU_] |325| 
    2168 00000219 EC22          BF        $C$L9,EQ              ; [CPU_] |325| 
    2169                      ; branchcc occurs ; [] |325| 
    2170                      .dwpsn  file "C:/ti/motorware/motorware_1_01_00_16/sw/solutions/instaspin_foc/src/proj_lab05b.c",line
    2171 0000021a 5201          CMPB      AL,#1                 ; [CPU_] |358| 
    2172 0000021b 56C0          BF        $C$L18,NEQ            ; [CPU_] |358| 
         0000021c 00C6 
    2173                      ; branchcc occurs ; [] |358| 
    2174 0000021d 761F-         MOVW      DP,#_halHandle        ; [CPU_U] 
         0000021e 0000 
    2175                      .dwpsn  file "C:/ti/motorware/motorware_1_01_00_16/sw/modules/hal/boards/boostxldrv8301_revB/f28x/f28
    2176 0000021f C400-         MOVL      XAR6,@_halHandle      ; [CPU_] |255| 
    2177 00000220 83A6          MOVL      XAR5,XAR6             ; [CPU_] |255| 
    2178 00000221 DD7E          ADDB      XAR5,#126             ; [CPU_] |255| 
    2179 00000222 7622   EALLOW
    2180                      .dwpsn  file "C:/ti/motorware/motorware_1_01_00_16/sw/drivers/pwm/src/32b/f28x/f2802x/pwm.h",line 156
    2181 00000223 D07C          MOVB      XAR0,#124             ; [CPU_] |1567| 
    2182 00000224 0218          MOVB      ACC,#24               ; [CPU_] |1567| 
    2183 00000225 0796          ADDL      ACC,*+XAR6[AR0]       ; [CPU_] |1567| 
    2184 00000226 1EA6          MOVL      XAR6,ACC              ; [CPU_] |1567| 
    2185 00000227 1AC6          OR        *+XAR6[0],#0x0004     ; [CPU_] |1567| 
         00000228 0004 
    2186 00000229 761A   EDIS
    2187 0000022a 7622   EALLOW
    2188 0000022b 0218          MOVB      ACC,#24               ; [CPU_] |1567| 
    2189 0000022c 07C5          ADDL      ACC,*+XAR5[0]         ; [CPU_] |1567| 
    2190 0000022d 1EA6          MOVL      XAR6,ACC              ; [CPU_] |1567| 
    2191 0000022e 1AC6          OR        *+XAR6[0],#0x0004     ; [CPU_] |1567| 
         0000022f 0004 
    2192 00000230 761A   EDIS
    2193 00000231 7622   EALLOW
    2194 00000232 0218          MOVB      ACC,#24               ; [CPU_] |1567| 
    2195 00000233 07D5          ADDL      ACC,*+XAR5[2]         ; [CPU_] |1567| 
    2196 00000234 83A9          MOVL      XAR5,ACC              ; [CPU_] |1567| 
    2197 00000235 1AC5          OR        *+XAR5[0],#0x0004     ; [CPU_] |1567| 
         00000236 0004 
    2198 00000237 761A   EDIS
    2199                      .dwpsn  file "C:/ti/motorware/motorware_1_01_00_16/sw/solutions/instaspin_foc/src/proj_lab05b.c",line
    2200 00000238 2BCB          MOV       *+XAR3[1],#0          ; [CPU_] |362| 
    2201 00000239 FFEF          B         $C$L18,UNC            ; [CPU_] |362| 
TMS320C2000 Assembler PC v6.4.11 Sat Nov 26 19:25:36 2016

Tools Copyright (c) 1996-2015 Texas Instruments Incorporated
C:\Users\bee25\AppData\Local\Temp\3412010                            PAGE   45

         0000023a 00A8 
    2202                      ; branch occurs ; [] |362| 
    2203 0000023b       $C$L9:    
    2204 0000023b 761F-         MOVW      DP,#_gMotorVars+7     ; [CPU_U] 
         0000023c 0001 
    2205                      .dwpsn  file "C:/ti/motorware/motorware_1_01_00_16/sw/solutions/instaspin_foc/src/proj_lab05b.c",line
    2206 0000023d 9207-         MOV       AL,@_gMotorVars+7     ; [CPU_] |327| 
    2207 0000023e 5201          CMPB      AL,#1                 ; [CPU_] |327| 
    2208 0000023f EC22          BF        $C$L10,EQ             ; [CPU_] |327| 
    2209                      ; branchcc occurs ; [] |327| 
    2210 00000240 761F-         MOVW      DP,#_halHandle        ; [CPU_U] 
         00000241 0000 
    2211                      .dwpsn  file "C:/ti/motorware/motorware_1_01_00_16/sw/solutions/instaspin_foc/src/proj_lab05b.c",line
    2212 00000242 C400-         MOVL      XAR6,@_halHandle      ; [CPU_] |335| 
    2213                      .dwpsn  file "C:/ti/motorware/motorware_1_01_00_16/sw/modules/hal/boards/boostxldrv8301_revB/f28x/f28
    2214 00000243 D092          MOVB      XAR0,#146             ; [CPU_] |746| 
    2215 00000244 28A9          MOV       AL,#17436             ; [CPU_] |746| 
         00000245 441C 
    2216 00000246 9B92          MOV       AH,#146               ; [CPU_] |746| 
    2217                      .dwpsn  file "C:/ti/motorware/motorware_1_01_00_16/sw/solutions/instaspin_foc/src/proj_lab05b.c",line
    2218 00000247 83A6          MOVL      XAR5,XAR6             ; [CPU_] |335| 
    2219                      .dwpsn  file "C:/ti/motorware/motorware_1_01_00_16/sw/modules/hal/boards/boostxldrv8301_revB/f28x/f28
    2220 00000248 1E96          MOVL      *+XAR6[AR0],ACC       ; [CPU_] |746| 
    2221 00000249 D018          MOVB      XAR0,#24              ; [CPU_] |746| 
    2222 0000024a 28A9          MOV       AL,#44718             ; [CPU_] |746| 
         0000024b AEAE 
    2223 0000024c 9B91          MOV       AH,#145               ; [CPU_] |746| 
    2224                      .dwpsn  file "C:/ti/motorware/motorware_1_01_00_16/sw/solutions/instaspin_foc/src/proj_lab05b.c",line
    2225 0000024d DD7C          ADDB      XAR5,#124             ; [CPU_] |335| 
    2226                      .dwpsn  file "C:/ti/motorware/motorware_1_01_00_16/sw/modules/hal/boards/boostxldrv8301_revB/f28x/f28
    2227 0000024e 769D          MOVL      XAR6,#1917563         ; [CPU_U] |750| 
         0000024f 427B 
    2228                      .dwpsn  file "C:/ti/motorware/motorware_1_01_00_16/sw/modules/hal/boards/boostxldrv8301_revB/f28x/f28
    2229 00000250 1E95          MOVL      *+XAR5[AR0],ACC       ; [CPU_] |746| 
    2230 00000251 D01A          MOVB      XAR0,#26              ; [CPU_] |746| 
    2231 00000252 28A9          MOV       AL,#42940             ; [CPU_] |746| 
         00000253 A7BC 
    2232 00000254 9B92          MOV       AH,#146               ; [CPU_] |746| 
    2233 00000255 1E95          MOVL      *+XAR5[AR0],ACC       ; [CPU_] |746| 
    2234                      .dwpsn  file "C:/ti/motorware/motorware_1_01_00_16/sw/modules/hal/boards/boostxldrv8301_revB/f28x/f28
    2235 00000256 D01C          MOVB      XAR0,#28              ; [CPU_] |750| 
    2236 00000257 C295          MOVL      *+XAR5[AR0],XAR6      ; [CPU_] |750| 
    2237 00000258 D01E          MOVB      XAR0,#30              ; [CPU_] |750| 
    2238 00000259 769D          MOVL      XAR6,#1909644         ; [CPU_U] |750| 
         0000025a 238C 
    2239 0000025b C295          MOVL      *+XAR5[AR0],XAR6      ; [CPU_] |750| 
    2240 0000025c D020          MOVB      XAR0,#32              ; [CPU_] |750| 
    2241 0000025d 769D          MOVL      XAR6,#1912297         ; [CPU_U] |750| 
         0000025e 2DE9 
    2242 0000025f C295          MOVL      *+XAR5[AR0],XAR6      ; [CPU_] |750| 
    2243 00000260 6F3E          B         $C$L15,UNC            ; [CPU_] |750| 
    2244                      ; branch occurs ; [] |750| 
    2245 00000261       $C$L10:    
    2246 00000261 761F-         MOVW      DP,#_halHandle        ; [CPU_U] 
         00000262 0000 
TMS320C2000 Assembler PC v6.4.11 Sat Nov 26 19:25:36 2016

Tools Copyright (c) 1996-2015 Texas Instruments Incorporated
C:\Users\bee25\AppData\Local\Temp\3412010                            PAGE   46

    2247                      .dwpsn  file "C:/ti/motorware/motorware_1_01_00_16/sw/solutions/instaspin_foc/src/proj_lab05b.c",line
    2248 00000263 C400-         MOVL      XAR6,@_halHandle      ; [CPU_] |330| 
    2249 00000264 83A6          MOVL      XAR5,XAR6             ; [CPU_] |330| 
    2250                      .dwpsn  file "C:/ti/motorware/motorware_1_01_00_16/sw/modules/hal/boards/boostxldrv8301_revB/f28x/f28
    2251 00000265 9A00          MOVB      AL,#0                 ; [CPU_] |1027| 
    2252 00000266 9648          MOV       *-SP[8],AL            ; [CPU_] |1027| 
    2253                      .dwpsn  file "C:/ti/motorware/motorware_1_01_00_16/sw/solutions/instaspin_foc/src/proj_lab05b.c",line
    2254 00000267 DD7C          ADDB      XAR5,#124             ; [CPU_] |330| 
    2255 00000268 2901          CLRC      SXM                   ; [CPU_] 
    2256                      .dwpsn  file "C:/ti/motorware/motorware_1_01_00_16/sw/modules/hal/boards/boostxldrv8301_revB/f28x/f28
    2257 00000269 6F14          B         $C$L12,UNC            ; [CPU_] |1027| 
    2258                      ; branch occurs ; [] |1027| 
    2259 0000026a       $C$L11:    
    2260                      .dwpsn  file "C:/ti/motorware/motorware_1_01_00_16/sw/modules/hal/boards/boostxldrv8301_revB/f28x/f28
    2261 0000026a 5603          MOV       ACC,AL << 1           ; [CPU_] |349| 
         0000026b 01A9 
    2262 0000026c 1EAC          MOVL      XT,ACC                ; [CPU_] |349| 
    2263                      .dwpsn  file "C:/ti/motorware/motorware_1_01_00_16/sw/modules/hal/boards/boostxldrv8301_revB/f28x/f28
    2264 0000026d 82A6          MOVL      XAR3,XAR6             ; [CPU_] |1031| 
    2265                      .dwpsn  file "C:/ti/motorware/motorware_1_01_00_16/sw/modules/hal/boards/boostxldrv8301_revB/f28x/f28
    2266 0000026e 06A6          MOVL      ACC,XAR6              ; [CPU_] |349| 
    2267 0000026f 07AC          ADDL      ACC,XT                ; [CPU_] |349| 
    2268 00000270 1EA7          MOVL      XAR7,ACC              ; [CPU_] |349| 
    2269                      .dwpsn  file "C:/ti/motorware/motorware_1_01_00_16/sw/modules/hal/boards/boostxldrv8301_revB/f28x/f28
    2270 00000271 ABA9          MOVL      ACC,XT                ; [CPU_] |1031| 
    2271 00000272 5601          ADDL      XAR3,ACC              ; [CPU_] |1031| 
         00000273 00A3 
    2272                      .dwpsn  file "C:/ti/motorware/motorware_1_01_00_16/sw/modules/hal/boards/boostxldrv8301_revB/f28x/f28
    2273 00000274 D092          MOVB      XAR0,#146             ; [CPU_] |349| 
    2274 00000275 0697          MOVL      ACC,*+XAR7[AR0]       ; [CPU_] |349| 
    2275                      .dwpsn  file "C:/ti/motorware/motorware_1_01_00_16/sw/modules/hal/boards/boostxldrv8301_revB/f28x/f28
    2276 00000276 D00A          MOVB      XAR0,#10              ; [CPU_] |1031| 
    2277 00000277 8E93          MOVL      XAR0,*+XAR3[AR0]      ; [CPU_] |1031| 
    2278 00000278 07C0          ADDL      ACC,*+XAR0[0]         ; [CPU_] |1031| 
    2279                      .dwpsn  file "C:/ti/motorware/motorware_1_01_00_16/sw/modules/hal/boards/boostxldrv8301_revB/f28x/f28
    2280 00000279 D092          MOVB      XAR0,#146             ; [CPU_] |746| 
    2281 0000027a 1E97          MOVL      *+XAR7[AR0],ACC       ; [CPU_] |746| 
    2282                      .dwpsn  file "C:/ti/motorware/motorware_1_01_00_16/sw/modules/hal/boards/boostxldrv8301_revB/f28x/f28
    2283 0000027b 0A48          INC       *-SP[8]               ; [CPU_] |1027| 
    2284                      .dwpsn  file "C:/ti/motorware/motorware_1_01_00_16/sw/modules/hal/boards/boostxldrv8301_revB/f28x/f28
    2285 0000027c 9248          MOV       AL,*-SP[8]            ; [CPU_] |746| 
    2286 0000027d       $C$L12:    
    2287                      .dwpsn  file "C:/ti/motorware/motorware_1_01_00_16/sw/modules/hal/boards/boostxldrv8301_revB/f28x/f28
    2288 0000027d D0A6          MOVB      XAR0,#166             ; [CPU_] |1027| 
    2289 0000027e 5496          CMP       AL,*+XAR6[AR0]        ; [CPU_] |1027| 
    2290 0000027f 56C8          BF        $C$L11,LO             ; [CPU_] |1027| 
         00000280 FFEB 
    2291                      ; branchcc occurs ; [] |1027| 
    2292                      .dwpsn  file "C:/ti/motorware/motorware_1_01_00_16/sw/modules/hal/boards/boostxldrv8301_revB/f28x/f28
    2293 00000281 2BAC          MOV       T,#0                  ; [CPU_] |1038| 
    2294 00000282 2901          CLRC      SXM                   ; [CPU_] 
    2295 00000283 6F16          B         $C$L14,UNC            ; [CPU_] |1038| 
    2296                      ; branch occurs ; [] |1038| 
    2297 00000284       $C$L13:    
    2298                      .dwpsn  file "C:/ti/motorware/motorware_1_01_00_16/sw/modules/hal/boards/boostxldrv8301_revB/f28x/f28
TMS320C2000 Assembler PC v6.4.11 Sat Nov 26 19:25:36 2016

Tools Copyright (c) 1996-2015 Texas Instruments Incorporated
C:\Users\bee25\AppData\Local\Temp\3412010                            PAGE   47

    2299 00000284 5603          MOV       ACC,AL << 1           ; [CPU_] |349| 
         00000285 01A9 
    2300 00000286 1E4A          MOVL      *-SP[10],ACC          ; [CPU_] |349| 
    2301 00000287 C54A          MOVL      XAR7,*-SP[10]         ; [CPU_] |349| 
    2302                      .dwpsn  file "C:/ti/motorware/motorware_1_01_00_16/sw/modules/hal/boards/boostxldrv8301_revB/f28x/f28
    2303 00000288 82A6          MOVL      XAR3,XAR6             ; [CPU_] |1042| 
    2304                      .dwpsn  file "C:/ti/motorware/motorware_1_01_00_16/sw/modules/hal/boards/boostxldrv8301_revB/f28x/f28
    2305 00000289 06A6          MOVL      ACC,XAR6              ; [CPU_] |349| 
    2306 0000028a 5601          ADDL      XAR7,ACC              ; [CPU_] |349| 
         0000028b 00A7 
    2307                      .dwpsn  file "C:/ti/motorware/motorware_1_01_00_16/sw/modules/hal/boards/boostxldrv8301_revB/f28x/f28
    2308 0000028c 064A          MOVL      ACC,*-SP[10]          ; [CPU_] |1042| 
    2309 0000028d 5601          ADDL      XAR3,ACC              ; [CPU_] |1042| 
         0000028e 00A3 
    2310                      .dwpsn  file "C:/ti/motorware/motorware_1_01_00_16/sw/modules/hal/boards/boostxldrv8301_revB/f28x/f28
    2311 0000028f D098          MOVB      XAR0,#152             ; [CPU_] |349| 
    2312 00000290 0697          MOVL      ACC,*+XAR7[AR0]       ; [CPU_] |349| 
    2313                      .dwpsn  file "C:/ti/motorware/motorware_1_01_00_16/sw/modules/hal/boards/boostxldrv8301_revB/f28x/f28
    2314 00000291 D040          MOVB      XAR0,#64              ; [CPU_] |1042| 
    2315 00000292 8E93          MOVL      XAR0,*+XAR3[AR0]      ; [CPU_] |1042| 
    2316 00000293 07C0          ADDL      ACC,*+XAR0[0]         ; [CPU_] |1042| 
    2317                      .dwpsn  file "C:/ti/motorware/motorware_1_01_00_16/sw/modules/hal/boards/boostxldrv8301_revB/f28x/f28
    2318 00000294 D098          MOVB      XAR0,#152             ; [CPU_] |750| 
    2319 00000295 1E97          MOVL      *+XAR7[AR0],ACC       ; [CPU_] |750| 
    2320 00000296 92AC          MOV       AL,T                  ; [CPU_] |750| 
    2321                      .dwpsn  file "C:/ti/motorware/motorware_1_01_00_16/sw/modules/hal/boards/boostxldrv8301_revB/f28x/f28
    2322 00000297 9C01          ADDB      AL,#1                 ; [CPU_] |1038| 
    2323 00000298 2DA9          MOV       T,AL                  ; [CPU_] |1038| 
    2324 00000299       $C$L14:    
    2325                      .dwpsn  file "C:/ti/motorware/motorware_1_01_00_16/sw/modules/hal/boards/boostxldrv8301_revB/f28x/f28
    2326 00000299 D0A7          MOVB      XAR0,#167             ; [CPU_] |1038| 
    2327 0000029a 92AC          MOV       AL,T                  ; [CPU_] |1038| 
    2328 0000029b 5496          CMP       AL,*+XAR6[AR0]        ; [CPU_] |1038| 
    2329 0000029c 56C8          BF        $C$L13,LO             ; [CPU_] |1038| 
         0000029d FFE8 
    2330                      ; branchcc occurs ; [] |1038| 
    2331 0000029e       $C$L15:    
    2332                      .dwpsn  file "C:/ti/motorware/motorware_1_01_00_16/sw/solutions/instaspin_foc/src/proj_lab05b.c",line
    2333 0000029e D016          MOVB      XAR0,#22              ; [CPU_] |346| 
    2334 0000029f 7680-         MOVL      XAR6,#_gMotorVars+92  ; [CPU_U] |346| 
         000002a0 009C 
    2335 000002a1 0695          MOVL      ACC,*+XAR5[AR0]       ; [CPU_] |346| 
    2336                      .dwpsn  file "C:/ti/motorware/motorware_1_01_00_16/sw/solutions/instaspin_foc/src/proj_lab05b.c",line
    2337 000002a2 D018          MOVB      XAR0,#24              ; [CPU_] |347| 
    2338                      .dwpsn  file "C:/ti/motorware/motorware_1_01_00_16/sw/solutions/instaspin_foc/src/proj_lab05b.c",line
    2339 000002a3 1EC6          MOVL      *+XAR6[0],ACC         ; [CPU_] |346| 
    2340                      .dwpsn  file "C:/ti/motorware/motorware_1_01_00_16/sw/solutions/instaspin_foc/src/proj_lab05b.c",line
    2341 000002a4 0695          MOVL      ACC,*+XAR5[AR0]       ; [CPU_] |347| 
    2342                      .dwpsn  file "C:/ti/motorware/motorware_1_01_00_16/sw/solutions/instaspin_foc/src/proj_lab05b.c",line
    2343 000002a5 D01A          MOVB      XAR0,#26              ; [CPU_] |348| 
    2344                      .dwpsn  file "C:/ti/motorware/motorware_1_01_00_16/sw/solutions/instaspin_foc/src/proj_lab05b.c",line
    2345 000002a6 1ED6          MOVL      *+XAR6[2],ACC         ; [CPU_] |347| 
    2346                      .dwpsn  file "C:/ti/motorware/motorware_1_01_00_16/sw/solutions/instaspin_foc/src/proj_lab05b.c",line
    2347 000002a7 0695          MOVL      ACC,*+XAR5[AR0]       ; [CPU_] |348| 
    2348                      .dwpsn  file "C:/ti/motorware/motorware_1_01_00_16/sw/solutions/instaspin_foc/src/proj_lab05b.c",line
TMS320C2000 Assembler PC v6.4.11 Sat Nov 26 19:25:36 2016

Tools Copyright (c) 1996-2015 Texas Instruments Incorporated
C:\Users\bee25\AppData\Local\Temp\3412010                            PAGE   48

    2349 000002a8 D01C          MOVB      XAR0,#28              ; [CPU_] |351| 
    2350                      .dwpsn  file "C:/ti/motorware/motorware_1_01_00_16/sw/solutions/instaspin_foc/src/proj_lab05b.c",line
    2351 000002a9 1EE6          MOVL      *+XAR6[4],ACC         ; [CPU_] |348| 
    2352                      .dwpsn  file "C:/ti/motorware/motorware_1_01_00_16/sw/solutions/instaspin_foc/src/proj_lab05b.c",line
    2353 000002aa 0695          MOVL      ACC,*+XAR5[AR0]       ; [CPU_] |351| 
    2354                      .dwpsn  file "C:/ti/motorware/motorware_1_01_00_16/sw/solutions/instaspin_foc/src/proj_lab05b.c",line
    2355 000002ab D01E          MOVB      XAR0,#30              ; [CPU_] |352| 
    2356                      .dwpsn  file "C:/ti/motorware/motorware_1_01_00_16/sw/solutions/instaspin_foc/src/proj_lab05b.c",line
    2357 000002ac 1EF6          MOVL      *+XAR6[6],ACC         ; [CPU_] |351| 
    2358                      .dwpsn  file "C:/ti/motorware/motorware_1_01_00_16/sw/solutions/instaspin_foc/src/proj_lab05b.c",line
    2359 000002ad 0695          MOVL      ACC,*+XAR5[AR0]       ; [CPU_] |352| 
    2360 000002ae D008          MOVB      XAR0,#8               ; [CPU_] |352| 
    2361 000002af 1E96          MOVL      *+XAR6[AR0],ACC       ; [CPU_] |352| 
    2362                      .dwpsn  file "C:/ti/motorware/motorware_1_01_00_16/sw/solutions/instaspin_foc/src/proj_lab05b.c",line
    2363 000002b0 D020          MOVB      XAR0,#32              ; [CPU_] |353| 
    2364 000002b1 0695          MOVL      ACC,*+XAR5[AR0]       ; [CPU_] |353| 
    2365 000002b2 D00A          MOVB      XAR0,#10              ; [CPU_] |353| 
    2366 000002b3 1E96          MOVL      *+XAR6[AR0],ACC       ; [CPU_] |353| 
    2367 000002b4 7622   EALLOW
    2368                      .dwpsn  file "C:/ti/motorware/motorware_1_01_00_16/sw/drivers/pwm/src/32b/f28x/f2802x/pwm.h",line 951
    2369 000002b5 0217          MOVB      ACC,#23               ; [CPU_] |951| 
    2370 000002b6 07C5          ADDL      ACC,*+XAR5[0]         ; [CPU_] |951| 
    2371 000002b7 1EA6          MOVL      XAR6,ACC              ; [CPU_] |951| 
    2372 000002b8 56BF          MOVB      *+XAR6[0],#4,UNC      ; [CPU_] |951| 
         000002b9 04C6 
    2373 000002ba 761A   EDIS
    2374 000002bb 7622   EALLOW
    2375 000002bc 0217          MOVB      ACC,#23               ; [CPU_] |951| 
    2376 000002bd 07D5          ADDL      ACC,*+XAR5[2]         ; [CPU_] |951| 
    2377 000002be 1EA6          MOVL      XAR6,ACC              ; [CPU_] |951| 
    2378 000002bf 56BF          MOVB      *+XAR6[0],#4,UNC      ; [CPU_] |951| 
         000002c0 04C6 
    2379 000002c1 761A   EDIS
    2380 000002c2 7622   EALLOW
    2381 000002c3 0217          MOVB      ACC,#23               ; [CPU_] |951| 
    2382 000002c4 07E5          ADDL      ACC,*+XAR5[4]         ; [CPU_] |951| 
    2383                      .dwpsn  file "C:/ti/motorware/motorware_1_01_00_16/sw/drivers/pwm/src/32b/f28x/f2802x/pwm.h",line 955
    2384 000002c5 6F18          B         $C$L17,UNC            ; [CPU_] |955| 
    2385                      ; branch occurs ; [] |955| 
    2386 000002c6       $C$L16:    
    2387 000002c6 761F-         MOVW      DP,#_halHandle        ; [CPU_U] 
         000002c7 0000 
    2388                      .dwpsn  file "C:/ti/motorware/motorware_1_01_00_16/sw/modules/hal/boards/boostxldrv8301_revB/f28x/f28
    2389 000002c8 C500-         MOVL      XAR7,@_halHandle      ; [CPU_] |297| 
    2390 000002c9 83A7          MOVL      XAR5,XAR7             ; [CPU_] |297| 
    2391 000002ca DD7E          ADDB      XAR5,#126             ; [CPU_] |297| 
    2392 000002cb 7622   EALLOW
    2393                      .dwpsn  file "C:/ti/motorware/motorware_1_01_00_16/sw/drivers/pwm/src/32b/f28x/f2802x/pwm.h",line 951
    2394 000002cc D07C          MOVB      XAR0,#124             ; [CPU_] |951| 
    2395 000002cd 0217          MOVB      ACC,#23               ; [CPU_] |951| 
    2396 000002ce 0797          ADDL      ACC,*+XAR7[AR0]       ; [CPU_] |951| 
    2397 000002cf 1EA6          MOVL      XAR6,ACC              ; [CPU_] |951| 
    2398 000002d0 56BF          MOVB      *+XAR6[0],#4,UNC      ; [CPU_] |951| 
         000002d1 04C6 
    2399 000002d2 761A   EDIS
TMS320C2000 Assembler PC v6.4.11 Sat Nov 26 19:25:36 2016

Tools Copyright (c) 1996-2015 Texas Instruments Incorporated
C:\Users\bee25\AppData\Local\Temp\3412010                            PAGE   49

    2400 000002d3 7622   EALLOW
    2401 000002d4 0217          MOVB      ACC,#23               ; [CPU_] |951| 
    2402 000002d5 07C5          ADDL      ACC,*+XAR5[0]         ; [CPU_] |951| 
    2403 000002d6 1EA6          MOVL      XAR6,ACC              ; [CPU_] |951| 
    2404 000002d7 56BF          MOVB      *+XAR6[0],#4,UNC      ; [CPU_] |951| 
         000002d8 04C6 
    2405 000002d9 761A   EDIS
    2406 000002da 7622   EALLOW
    2407 000002db 0217          MOVB      ACC,#23               ; [CPU_] |951| 
    2408 000002dc 07D5          ADDL      ACC,*+XAR5[2]         ; [CPU_] |951| 
    2409 000002dd       $C$L17:    
    2410 000002dd 83A9          MOVL      XAR5,ACC              ; [CPU_] |951| 
    2411 000002de 56BF          MOVB      *+XAR5[0],#4,UNC      ; [CPU_] |951| 
         000002df 04C5 
    2412 000002e0 761A   EDIS
    2413 000002e1       $C$L18:    
    2414                      .dwpsn  file "C:/ti/motorware/motorware_1_01_00_16/sw/solutions/instaspin_foc/src/proj_lab05b.c",line
    2415 000002e1 D0F5          MOVB      XAR0,#245             ; [CPU_] |365| 
    2416 000002e2 9294          MOV       AL,*+XAR4[AR0]        ; [CPU_] |365| 
    2417 000002e3 5201          CMPB      AL,#1                 ; [CPU_] |365| 
    2418 000002e4 ED2E          BF        $C$L20,NEQ            ; [CPU_] |365| 
    2419                      ; branchcc occurs ; [] |365| 
    2420 000002e5 9247          MOV       AL,*-SP[7]            ; [CPU_] 
    2421 000002e6 5201          CMPB      AL,#1                 ; [CPU_] |365| 
    2422 000002e7 56C9          BF        $C$L20,LOS            ; [CPU_] |365| 
         000002e8 002B 
    2423                      ; branchcc occurs ; [] |365| 
    2424 000002e9 761F-         MOVW      DP,#_gMotorVars+17    ; [CPU_U] 
         000002ea 0001 
    2425 000002eb 9211-         MOV       AL,@_gMotorVars+17    ; [CPU_] |365| 
    2426 000002ec 5206          CMPB      AL,#6                 ; [CPU_] |365| 
    2427 000002ed ED25          BF        $C$L20,NEQ            ; [CPU_] |365| 
    2428                      ; branchcc occurs ; [] |365| 
    2429 000002ee FF69          SPM       #0                    ; [CPU_] 
    2430                      .dwpsn  file "C:/ti/motorware/motorware_1_01_00_16/sw/solutions/instaspin_foc/src/proj_lab05b.c",line
    2431              $C$DW$238       .dwtag  DW_TAG_TI_branch
    2432                      .dwattr $C$DW$238, DW_AT_low_pc(0x00)
    2433                      .dwattr $C$DW$238, DW_AT_name("_USER_softwareUpdate1p6")
    2434                      .dwattr $C$DW$238, DW_AT_TI_call
    2435 000002ef 7640!         LCR       #_USER_softwareUpdate1p6 ; [CPU_] |370| 
         000002f0 0000 
    2436                      ; call occurs [#_USER_softwareUpdate1p6] ; [] |370| 
    2437 000002f1 6F21          B         $C$L20,UNC            ; [CPU_] |370| 
    2438                      ; branch occurs ; [] |370| 
    2439 000002f2       $C$L19:    
    2440                      .dwpsn  file "C:/ti/motorware/motorware_1_01_00_16/sw/modules/ctrl/src/32b/ctrl.h",line 1218,column 3
    2441 000002f2 D0F0          MOVB      XAR0,#240             ; [CPU_] |1218| 
    2442 000002f3 761F-         MOVW      DP,#_gMotorVars       ; [CPU_U] 
         000002f4 0001 
    2443 000002f5 2B94          MOV       *+XAR4[AR0],#0        ; [CPU_] |1218| 
    2444                      .dwpsn  file "C:/ti/motorware/motorware_1_01_00_16/sw/solutions/instaspin_foc/src/proj_lab05b.c",line
    2445 000002f6 2B00-         MOV       @_gMotorVars,#0       ; [CPU_] |303| 
    2446 000002f7 761F-         MOVW      DP,#_halHandle        ; [CPU_U] 
         000002f8 0000 
    2447                      .dwpsn  file "C:/ti/motorware/motorware_1_01_00_16/sw/modules/hal/boards/boostxldrv8301_revB/f28x/f28
TMS320C2000 Assembler PC v6.4.11 Sat Nov 26 19:25:36 2016

Tools Copyright (c) 1996-2015 Texas Instruments Incorporated
C:\Users\bee25\AppData\Local\Temp\3412010                            PAGE   50

    2448 000002f9 8300-         MOVL      XAR5,@_halHandle      ; [CPU_] |255| 
    2449 000002fa 8AA5          MOVL      XAR4,XAR5             ; [CPU_] |255| 
    2450 000002fb DC7E          ADDB      XAR4,#126             ; [CPU_] |255| 
    2451 000002fc 7622   EALLOW
    2452                      .dwpsn  file "C:/ti/motorware/motorware_1_01_00_16/sw/drivers/pwm/src/32b/f28x/f2802x/pwm.h",line 156
    2453 000002fd 0218          MOVB      ACC,#24               ; [CPU_] |1567| 
    2454 000002fe D07C          MOVB      XAR0,#124             ; [CPU_] |1567| 
    2455 000002ff 0795          ADDL      ACC,*+XAR5[AR0]       ; [CPU_] |1567| 
    2456 00000300 83A9          MOVL      XAR5,ACC              ; [CPU_] |1567| 
    2457 00000301 1AC5          OR        *+XAR5[0],#0x0004     ; [CPU_] |1567| 
         00000302 0004 
    2458 00000303 761A   EDIS
    2459 00000304 7622   EALLOW
    2460 00000305 0218          MOVB      ACC,#24               ; [CPU_] |1567| 
    2461 00000306 07C4          ADDL      ACC,*+XAR4[0]         ; [CPU_] |1567| 
    2462 00000307 83A9          MOVL      XAR5,ACC              ; [CPU_] |1567| 
    2463 00000308 1AC5          OR        *+XAR5[0],#0x0004     ; [CPU_] |1567| 
         00000309 0004 
    2464 0000030a 761A   EDIS
    2465 0000030b 7622   EALLOW
    2466 0000030c 0218          MOVB      ACC,#24               ; [CPU_] |1567| 
    2467 0000030d 07D4          ADDL      ACC,*+XAR4[2]         ; [CPU_] |1567| 
    2468 0000030e 8AA9          MOVL      XAR4,ACC              ; [CPU_] |1567| 
    2469 0000030f 1AC4          OR        *+XAR4[0],#0x0004     ; [CPU_] |1567| 
         00000310 0004 
    2470 00000311 761A   EDIS
    2471 00000312       $C$L20:    
    2472                      .dwpsn  file "C:/ti/motorware/motorware_1_01_00_16/sw/solutions/instaspin_foc/src/proj_lab05b.c",line
    2473 00000312 D018          MOVB      XAR0,#24              ; [CPU_] |377| 
    2474 00000313 FF69          SPM       #0                    ; [CPU_] 
    2475 00000314 8A91          MOVL      XAR4,*+XAR1[AR0]      ; [CPU_] |377| 
    2476              $C$DW$239       .dwtag  DW_TAG_TI_branch
    2477                      .dwattr $C$DW$239, DW_AT_low_pc(0x00)
    2478                      .dwattr $C$DW$239, DW_AT_name("_EST_isMotorIdentified")
    2479                      .dwattr $C$DW$239, DW_AT_TI_call
    2480 00000315 7640!         LCR       #_EST_isMotorIdentified ; [CPU_] |377| 
         00000316 0000 
    2481                      ; call occurs [#_EST_isMotorIdentified] ; [] |377| 
    2482 00000317 5200          CMPB      AL,#0                 ; [CPU_] |377| 
    2483 00000318 EC3A          BF        $C$L21,EQ             ; [CPU_] |377| 
    2484                      ; branchcc occurs ; [] |377| 
    2485                      .dwpsn  file "C:/ti/motorware/motorware_1_01_00_16/sw/solutions/instaspin_foc/src/proj_lab05b.c",line
    2486 00000319 D018          MOVB      XAR0,#24              ; [CPU_] |380| 
    2487 0000031a 761F-         MOVW      DP,#_gMaxCurrentSlope ; [CPU_U] 
         0000031b 0000 
    2488 0000031c 8A91          MOVL      XAR4,*+XAR1[AR0]      ; [CPU_] |380| 
    2489 0000031d 0608-         MOVL      ACC,@_gMaxCurrentSlope ; [CPU_] |380| 
    2490              $C$DW$240       .dwtag  DW_TAG_TI_branch
    2491                      .dwattr $C$DW$240, DW_AT_low_pc(0x00)
    2492                      .dwattr $C$DW$240, DW_AT_name("_EST_setMaxCurrentSlope_pu")
    2493                      .dwattr $C$DW$240, DW_AT_TI_call
    2494 0000031e 7640!         LCR       #_EST_setMaxCurrentSlope_pu ; [CPU_] |380| 
         0000031f 0000 
    2495                      ; call occurs [#_EST_setMaxCurrentSlope_pu] ; [] |380| 
    2496                      .dwpsn  file "C:/ti/motorware/motorware_1_01_00_16/sw/solutions/instaspin_foc/src/proj_lab05b.c",line
TMS320C2000 Assembler PC v6.4.11 Sat Nov 26 19:25:36 2016

Tools Copyright (c) 1996-2015 Texas Instruments Incorporated
C:\Users\bee25\AppData\Local\Temp\3412010                            PAGE   51

    2497 00000320 8DC0-         MOVL      XAR3,#_gMotorVars     ; [CPU_U] |381| 
         00000321 0040 
    2498 00000322 761F-         MOVW      DP,#_ctrlHandle       ; [CPU_U] 
         00000323 0000 
    2499                      .dwpsn  file "C:/ti/motorware/motorware_1_01_00_16/sw/solutions/instaspin_foc/src/proj_lab05b.c",line
    2500 00000324 D018          MOVB      XAR0,#24              ; [CPU_] |384| 
    2501                      .dwpsn  file "C:/ti/motorware/motorware_1_01_00_16/sw/solutions/instaspin_foc/src/proj_lab05b.c",line
    2502 00000325 56BF          MOVB      *+XAR3[2],#1,UNC      ; [CPU_] |381| 
         00000326 01D3 
    2503                      .dwpsn  file "C:/ti/motorware/motorware_1_01_00_16/sw/solutions/instaspin_foc/src/proj_lab05b.c",line
    2504 00000327 8A06-         MOVL      XAR4,@_ctrlHandle     ; [CPU_] |384| 
    2505 00000328 0693          MOVL      ACC,*+XAR3[AR0]       ; [CPU_] |384| 
    2506              $C$DW$241       .dwtag  DW_TAG_TI_branch
    2507                      .dwattr $C$DW$241, DW_AT_low_pc(0x00)
    2508                      .dwattr $C$DW$241, DW_AT_name("_CTRL_setSpd_ref_krpm")
    2509                      .dwattr $C$DW$241, DW_AT_TI_call
    2510 00000329 7640!         LCR       #_CTRL_setSpd_ref_krpm ; [CPU_] |384| 
         0000032a 0000 
    2511                      ; call occurs [#_CTRL_setSpd_ref_krpm] ; [] |384| 
    2512 0000032b 761F-         MOVW      DP,#_ctrlHandle       ; [CPU_U] 
         0000032c 0000 
    2513                      .dwpsn  file "C:/ti/motorware/motorware_1_01_00_16/sw/solutions/instaspin_foc/src/proj_lab05b.c",line
    2514 0000032d D01C          MOVB      XAR0,#28              ; [CPU_] |387| 
    2515 0000032e 8F40          MOVL      XAR5,#5725            ; [CPU_U] |387| 
         0000032f 165D 
    2516 00000330 A0AC          MOVL      XT,XAR5               ; [CPU_] |387| 
    2517 00000331 8A06-         MOVL      XAR4,@_ctrlHandle     ; [CPU_] |387| 
    2518 00000332 5605          IMPYL     P,XT,*+XAR3[AR0]      ; [CPU_] |387| 
         00000333 0093 
    2519 00000334 5663          QMPYL     ACC,XT,*+XAR3[AR0]    ; [CPU_] |387| 
         00000335 0093 
    2520                      .dwpsn  file "C:/ti/motorware/motorware_1_01_00_16/sw/modules/ctrl/src/32b/ctrl.h",line 1560,column 3
    2521 00000336 D076          MOVB      XAR0,#118             ; [CPU_] |1560| 
    2522                      .dwpsn  file "C:/ti/motorware/motorware_1_01_00_16/sw/solutions/instaspin_foc/src/proj_lab05b.c",line
    2523 00000337 56A7          LSL64     ACC:P,#8              ; [CPU_] |387| 
    2524                      .dwpsn  file "C:/ti/motorware/motorware_1_01_00_16/sw/modules/ctrl/src/32b/ctrl.h",line 1560,column 3
    2525 00000338 1E94          MOVL      *+XAR4[AR0],ACC       ; [CPU_] |1560| 
    2526                      .dwpsn  file "C:/ti/motorware/motorware_1_01_00_16/sw/solutions/instaspin_foc/src/proj_lab05b.c",line
    2527 00000339 9202-         MOV       AL,@_Flag_Latch_softwareUpdate ; [CPU_] |388| 
    2528 0000033a EC24          BF        $C$L22,EQ             ; [CPU_] |388| 
    2529                      ; branchcc occurs ; [] |388| 
    2530                      .dwpsn  file "C:/ti/motorware/motorware_1_01_00_16/sw/solutions/instaspin_foc/src/proj_lab05b.c",line
    2531 0000033b 2B02-         MOV       @_Flag_Latch_softwareUpdate,#0 ; [CPU_] |390| 
    2532                      .dwpsn  file "C:/ti/motorware/motorware_1_01_00_16/sw/solutions/instaspin_foc/src/proj_lab05b.c",line
    2533              $C$DW$242       .dwtag  DW_TAG_TI_branch
    2534                      .dwattr $C$DW$242, DW_AT_low_pc(0x00)
    2535                      .dwattr $C$DW$242, DW_AT_name("_USER_calcPIgains")
    2536                      .dwattr $C$DW$242, DW_AT_TI_call
    2537 0000033c 7640!         LCR       #_USER_calcPIgains    ; [CPU_] |392| 
         0000033d 0000 
    2538                      ; call occurs [#_USER_calcPIgains] ; [] |392| 
    2539 0000033e 761F-         MOVW      DP,#_ctrlHandle       ; [CPU_U] 
         0000033f 0000 
    2540                      .dwpsn  file "C:/ti/motorware/motorware_1_01_00_16/sw/solutions/instaspin_foc/src/proj_lab05b.c",line
    2541 00000340 8A06-         MOVL      XAR4,@_ctrlHandle     ; [CPU_] |395| 
TMS320C2000 Assembler PC v6.4.11 Sat Nov 26 19:25:36 2016

Tools Copyright (c) 1996-2015 Texas Instruments Incorporated
C:\Users\bee25\AppData\Local\Temp\3412010                            PAGE   52

    2542 00000341 D0CA          MOVB      XAR0,#202             ; [CPU_] |395| 
    2543 00000342 0694          MOVL      ACC,*+XAR4[AR0]       ; [CPU_] |395| 
    2544 00000343 D048          MOVB      XAR0,#72              ; [CPU_] |395| 
    2545 00000344 1E93          MOVL      *+XAR3[AR0],ACC       ; [CPU_] |395| 
    2546                      .dwpsn  file "C:/ti/motorware/motorware_1_01_00_16/sw/solutions/instaspin_foc/src/proj_lab05b.c",line
    2547 00000345 D0D0          MOVB      XAR0,#208             ; [CPU_] |396| 
    2548 00000346 0694          MOVL      ACC,*+XAR4[AR0]       ; [CPU_] |396| 
    2549 00000347 D04A          MOVB      XAR0,#74              ; [CPU_] |396| 
    2550 00000348 1E93          MOVL      *+XAR3[AR0],ACC       ; [CPU_] |396| 
    2551                      .dwpsn  file "C:/ti/motorware/motorware_1_01_00_16/sw/solutions/instaspin_foc/src/proj_lab05b.c",line
    2552 00000349 D0CE          MOVB      XAR0,#206             ; [CPU_] |399| 
    2553 0000034a 0694          MOVL      ACC,*+XAR4[AR0]       ; [CPU_] |399| 
    2554 0000034b D044          MOVB      XAR0,#68              ; [CPU_] |399| 
    2555 0000034c 1E93          MOVL      *+XAR3[AR0],ACC       ; [CPU_] |399| 
    2556                      .dwpsn  file "C:/ti/motorware/motorware_1_01_00_16/sw/solutions/instaspin_foc/src/proj_lab05b.c",line
    2557 0000034d D0D4          MOVB      XAR0,#212             ; [CPU_] |400| 
    2558 0000034e 0694          MOVL      ACC,*+XAR4[AR0]       ; [CPU_] |400| 
    2559 0000034f D046          MOVB      XAR0,#70              ; [CPU_] |400| 
    2560 00000350 1E93          MOVL      *+XAR3[AR0],ACC       ; [CPU_] |400| 
    2561 00000351 6F0D          B         $C$L22,UNC            ; [CPU_] |400| 
    2562                      ; branch occurs ; [] |400| 
    2563 00000352       $C$L21:    
    2564 00000352 761F-         MOVW      DP,#_Flag_Latch_softwareUpdate ; [CPU_U] 
         00000353 0000 
    2565                      .dwpsn  file "C:/ti/motorware/motorware_1_01_00_16/sw/solutions/instaspin_foc/src/proj_lab05b.c",line
    2566 00000354 D018          MOVB      XAR0,#24              ; [CPU_] |409| 
    2567                      .dwpsn  file "C:/ti/motorware/motorware_1_01_00_16/sw/solutions/instaspin_foc/src/proj_lab05b.c",line
    2568 00000355 56BF-         MOVB      @_Flag_Latch_softwareUpdate,#1,UNC ; [CPU_] |406| 
         00000356 0102 
    2569                      .dwpsn  file "C:/ti/motorware/motorware_1_01_00_16/sw/solutions/instaspin_foc/src/proj_lab05b.c",line
    2570 00000357 8A91          MOVL      XAR4,*+XAR1[AR0]      ; [CPU_] |409| 
    2571              $C$DW$243       .dwtag  DW_TAG_TI_branch
    2572                      .dwattr $C$DW$243, DW_AT_low_pc(0x00)
    2573                      .dwattr $C$DW$243, DW_AT_name("_EST_getMaxCurrentSlope_pu")
    2574                      .dwattr $C$DW$243, DW_AT_TI_call
    2575 00000358 7640!         LCR       #_EST_getMaxCurrentSlope_pu ; [CPU_] |409| 
         00000359 0000 
    2576                      ; call occurs [#_EST_getMaxCurrentSlope_pu] ; [] |409| 
    2577 0000035a 761F-         MOVW      DP,#_gMaxCurrentSlope ; [CPU_U] 
         0000035b 0000 
    2578 0000035c 1E08-         MOVL      @_gMaxCurrentSlope,ACC ; [CPU_] |409| 
    2579 0000035d 8A06-         MOVL      XAR4,@_ctrlHandle     ; [CPU_] |409| 
    2580 0000035e       $C$L22:    
    2581                      .dwpsn  file "C:/ti/motorware/motorware_1_01_00_16/sw/solutions/instaspin_foc/src/proj_lab05b.c",line
    2582 0000035e 9201-         MOV       AL,@_gCounter_updateGlobals ; [CPU_] |414| 
    2583 0000035f EC07          BF        $C$L23,EQ             ; [CPU_] |414| 
    2584                      ; branchcc occurs ; [] |414| 
    2585                      .dwpsn  file "C:/ti/motorware/motorware_1_01_00_16/sw/solutions/instaspin_foc/src/proj_lab05b.c",line
    2586 00000360 2B01-         MOV       @_gCounter_updateGlobals,#0 ; [CPU_] |417| 
    2587                      .dwpsn  file "C:/ti/motorware/motorware_1_01_00_16/sw/solutions/instaspin_foc/src/proj_lab05b.c",line
    2588              $C$DW$244       .dwtag  DW_TAG_TI_branch
    2589                      .dwattr $C$DW$244, DW_AT_low_pc(0x00)
    2590                      .dwattr $C$DW$244, DW_AT_name("_updateGlobalVariables_motor")
    2591                      .dwattr $C$DW$244, DW_AT_TI_call
    2592 00000361 7640'         LCR       #_updateGlobalVariables_motor ; [CPU_] |419| 
TMS320C2000 Assembler PC v6.4.11 Sat Nov 26 19:25:36 2016

Tools Copyright (c) 1996-2015 Texas Instruments Incorporated
C:\Users\bee25\AppData\Local\Temp\3412010                            PAGE   53

         00000362 0022 
    2593                      ; call occurs [#_updateGlobalVariables_motor] ; [] |419| 
    2594 00000363 761F-         MOVW      DP,#_ctrlHandle       ; [CPU_U] 
         00000364 0000 
    2595 00000365 8A06-         MOVL      XAR4,@_ctrlHandle     ; [CPU_] |419| 
    2596 00000366       $C$L23:    
    2597                      .dwpsn  file "C:/ti/motorware/motorware_1_01_00_16/sw/solutions/instaspin_foc/src/proj_lab05b.c",line
    2598              $C$DW$245       .dwtag  DW_TAG_TI_branch
    2599                      .dwattr $C$DW$245, DW_AT_low_pc(0x00)
    2600                      .dwattr $C$DW$245, DW_AT_name("_updateKpKiGains")
    2601                      .dwattr $C$DW$245, DW_AT_TI_call
    2602 00000366 7640'         LCR       #_updateKpKiGains     ; [CPU_] |424| 
         00000367 0000 
    2603                      ; call occurs [#_updateKpKiGains] ; [] |424| 
    2604                      .dwpsn  file "C:/ti/motorware/motorware_1_01_00_16/sw/solutions/instaspin_foc/src/proj_lab05b.c",line
    2605 00000368 D018          MOVB      XAR0,#24              ; [CPU_] |427| 
    2606 00000369 8A91          MOVL      XAR4,*+XAR1[AR0]      ; [CPU_] |427| 
    2607 0000036a 8D40-         MOVL      XAR1,#_gMotorVars     ; [CPU_U] |427| 
         0000036b 0040 
    2608 0000036c 92D9          MOV       AL,*+XAR1[3]          ; [CPU_] |427| 
    2609              $C$DW$246       .dwtag  DW_TAG_TI_branch
    2610                      .dwattr $C$DW$246, DW_AT_low_pc(0x00)
    2611                      .dwattr $C$DW$246, DW_AT_name("_EST_setFlag_enableForceAngle")
    2612                      .dwattr $C$DW$246, DW_AT_TI_call
    2613 0000036d 7640!         LCR       #_EST_setFlag_enableForceAngle ; [CPU_] |427| 
         0000036e 0000 
    2614                      ; call occurs [#_EST_setFlag_enableForceAngle] ; [] |427| 
    2615                      .dwpsn  file "C:/ti/motorware/motorware_1_01_00_16/sw/solutions/instaspin_foc/src/proj_lab05b.c",line
    2616 0000036f D008          MOVB      XAR0,#8               ; [CPU_] |430| 
    2617 00000370 761F-         MOVW      DP,#_ctrlHandle       ; [CPU_U] 
         00000371 0000 
    2618                      .dwpsn  file "C:/ti/motorware/motorware_1_01_00_16/sw/modules/ctrl/src/32b/ctrl.h",line 1262,column 3
    2619 00000372 02F2          MOVB      ACC,#242              ; [CPU_] |1262| 
    2620                      .dwpsn  file "C:/ti/motorware/motorware_1_01_00_16/sw/solutions/instaspin_foc/src/proj_lab05b.c",line
    2621 00000373 8891          MOVZ      AR6,*+XAR1[AR0]       ; [CPU_] |430| 
    2622                      .dwpsn  file "C:/ti/motorware/motorware_1_01_00_16/sw/modules/ctrl/src/32b/ctrl.h",line 1262,column 3
    2623 00000374 0706-         ADDL      ACC,@_ctrlHandle      ; [CPU_] |1262| 
    2624 00000375 8AA9          MOVL      XAR4,ACC              ; [CPU_] |1262| 
    2625 00000376 761F-         MOVW      DP,#_halHandle        ; [CPU_U] 
         00000377 0000 
    2626                      .dwpsn  file "C:/ti/motorware/motorware_1_01_00_16/sw/solutions/instaspin_foc/src/proj_lab05b.c",line
    2627 00000378 83A2          MOVL      XAR5,XAR2             ; [CPU_] |433| 
    2628                      .dwpsn  file "C:/ti/motorware/motorware_1_01_00_16/sw/modules/ctrl/src/32b/ctrl.h",line 1262,column 3
    2629 00000379 7EC4          MOV       *+XAR4[0],AR6         ; [CPU_] |1262| 
    2630                      .dwpsn  file "C:/ti/motorware/motorware_1_01_00_16/sw/solutions/instaspin_foc/src/proj_lab05b.c",line
    2631 0000037a 8A00-         MOVL      XAR4,@_halHandle      ; [CPU_] |433| 
    2632              $C$DW$247       .dwtag  DW_TAG_TI_branch
    2633                      .dwattr $C$DW$247, DW_AT_low_pc(0x00)
    2634                      .dwattr $C$DW$247, DW_AT_name("_HAL_writeDrvData")
    2635                      .dwattr $C$DW$247, DW_AT_TI_call
    2636 0000037b 7640!         LCR       #_HAL_writeDrvData    ; [CPU_] |433| 
         0000037c 0000 
    2637                      ; call occurs [#_HAL_writeDrvData] ; [] |433| 
    2638 0000037d 761F-         MOVW      DP,#_halHandle        ; [CPU_U] 
         0000037e 0000 
TMS320C2000 Assembler PC v6.4.11 Sat Nov 26 19:25:36 2016

Tools Copyright (c) 1996-2015 Texas Instruments Incorporated
C:\Users\bee25\AppData\Local\Temp\3412010                            PAGE   54

    2639                      .dwpsn  file "C:/ti/motorware/motorware_1_01_00_16/sw/solutions/instaspin_foc/src/proj_lab05b.c",line
    2640 0000037f 83A2          MOVL      XAR5,XAR2             ; [CPU_] |435| 
    2641 00000380 8A00-         MOVL      XAR4,@_halHandle      ; [CPU_] |435| 
    2642              $C$DW$248       .dwtag  DW_TAG_TI_branch
    2643                      .dwattr $C$DW$248, DW_AT_low_pc(0x00)
    2644                      .dwattr $C$DW$248, DW_AT_name("_HAL_readDrvData")
    2645                      .dwattr $C$DW$248, DW_AT_TI_call
    2646 00000381 7640!         LCR       #_HAL_readDrvData     ; [CPU_] |435| 
         00000382 0000 
    2647                      ; call occurs [#_HAL_readDrvData] ; [] |435| 
    2648 00000383 761F-         MOVW      DP,#_ctrlHandle       ; [CPU_U] 
         00000384 0000 
    2649 00000385 8B06-         MOVL      XAR1,@_ctrlHandle     ; [CPU_] |435| 
    2650 00000386       $C$L24:    
    2651                      .dwpsn  file "C:/ti/motorware/motorware_1_01_00_16/sw/solutions/instaspin_foc/src/proj_lab05b.c",line
    2652 00000386 8DC0-         MOVL      XAR3,#_gMotorVars     ; [CPU_U] |280| 
         00000387 0040 
    2653 00000388 92C3          MOV       AL,*+XAR3[0]          ; [CPU_] |280| 
    2654 00000389 56C0          BF        $C$L8,NEQ             ; [CPU_] |280| 
         0000038a FE6D 
    2655                      ; branchcc occurs ; [] |280| 
    2656 0000038b 761F-         MOVW      DP,#_halHandle        ; [CPU_U] 
         0000038c 0000 
    2657                      .dwpsn  file "C:/ti/motorware/motorware_1_01_00_16/sw/modules/hal/boards/boostxldrv8301_revB/f28x/f28
    2658 0000038d 8300-         MOVL      XAR5,@_halHandle      ; [CPU_] |255| 
    2659 0000038e 8AA5          MOVL      XAR4,XAR5             ; [CPU_] |255| 
    2660 0000038f DC7E          ADDB      XAR4,#126             ; [CPU_] |255| 
    2661 00000390 7622   EALLOW
    2662                      .dwpsn  file "C:/ti/motorware/motorware_1_01_00_16/sw/drivers/pwm/src/32b/f28x/f2802x/pwm.h",line 156
    2663 00000391 D07C          MOVB      XAR0,#124             ; [CPU_] |1567| 
    2664 00000392 0218          MOVB      ACC,#24               ; [CPU_] |1567| 
    2665 00000393 0795          ADDL      ACC,*+XAR5[AR0]       ; [CPU_] |1567| 
    2666 00000394 83A9          MOVL      XAR5,ACC              ; [CPU_] |1567| 
    2667 00000395 1AC5          OR        *+XAR5[0],#0x0004     ; [CPU_] |1567| 
         00000396 0004 
    2668 00000397 761A   EDIS
    2669 00000398 7622   EALLOW
    2670 00000399 0218          MOVB      ACC,#24               ; [CPU_] |1567| 
    2671 0000039a 07C4          ADDL      ACC,*+XAR4[0]         ; [CPU_] |1567| 
    2672 0000039b 83A9          MOVL      XAR5,ACC              ; [CPU_] |1567| 
    2673 0000039c 1AC5          OR        *+XAR5[0],#0x0004     ; [CPU_] |1567| 
         0000039d 0004 
    2674 0000039e 761A   EDIS
    2675 0000039f 7622   EALLOW
    2676 000003a0 0218          MOVB      ACC,#24               ; [CPU_] |1567| 
    2677 000003a1 07D4          ADDL      ACC,*+XAR4[2]         ; [CPU_] |1567| 
    2678 000003a2 8AA9          MOVL      XAR4,ACC              ; [CPU_] |1567| 
    2679 000003a3 1AC4          OR        *+XAR4[0],#0x0004     ; [CPU_] |1567| 
         000003a4 0004 
    2680 000003a5 761A   EDIS
    2681 000003a6 FF69          SPM       #0                    ; [CPU_] 
    2682                      .dwpsn  file "C:/ti/motorware/motorware_1_01_00_16/sw/solutions/instaspin_foc/src/proj_lab05b.c",line
    2683 000003a7 8AA1          MOVL      XAR4,XAR1             ; [CPU_] |449| 
    2684 000003a8 834C          MOVL      XAR5,*-SP[12]         ; [CPU_] |449| 
    2685              $C$DW$249       .dwtag  DW_TAG_TI_branch
TMS320C2000 Assembler PC v6.4.11 Sat Nov 26 19:25:36 2016

Tools Copyright (c) 1996-2015 Texas Instruments Incorporated
C:\Users\bee25\AppData\Local\Temp\3412010                            PAGE   55

    2686                      .dwattr $C$DW$249, DW_AT_low_pc(0x00)
    2687                      .dwattr $C$DW$249, DW_AT_name("_CTRL_setParams")
    2688                      .dwattr $C$DW$249, DW_AT_TI_call
    2689 000003a9 7640!         LCR       #_CTRL_setParams      ; [CPU_] |449| 
         000003aa 0000 
    2690                      ; call occurs [#_CTRL_setParams] ; [] |449| 
    2691 000003ab 761F-         MOVW      DP,#_gMotorVars+1     ; [CPU_U] 
         000003ac 0001 
    2692                      .dwpsn  file "C:/ti/motorware/motorware_1_01_00_16/sw/solutions/instaspin_foc/src/proj_lab05b.c",line
    2693 000003ad 2B01-         MOV       @_gMotorVars+1,#0     ; [CPU_] |450| 
    2694                      .dwpsn  file "C:/ti/motorware/motorware_1_01_00_16/sw/solutions/instaspin_foc/src/proj_lab05b.c",line
    2695 000003ae FFEF          B         $C$L7,UNC             ; [CPU_] |452| 
         000003af FE3C 
    2696                      ; branch occurs ; [] |452| 
    2697 000003b0       $C$L25:    
    2698 000003b0 761F-         MOVW      DP,#_gMotorVars       ; [CPU_U] 
         000003b1 0001 
    2699                      .dwpsn  file "C:/ti/motorware/motorware_1_01_00_16/sw/solutions/instaspin_foc/src/proj_lab05b.c",line
    2700 000003b2 2B00-         MOV       @_gMotorVars,#0       ; [CPU_] |185| 
    2701                      .dwpsn  file "C:/ti/motorware/motorware_1_01_00_16/sw/solutions/instaspin_foc/src/proj_lab05b.c",line
    2702 000003b3 6FFD          B         $C$L25,UNC            ; [CPU_] |186| 
    2703                      ; branch occurs ; [] |186| 
    2704                      .dwattr $C$DW$194, DW_AT_TI_end_file("C:/ti/motorware/motorware_1_01_00_16/sw/solutions/instaspin_foc
    2705                      .dwattr $C$DW$194, DW_AT_TI_end_line(0x1c6)
    2706                      .dwattr $C$DW$194, DW_AT_TI_end_column(0x01)
    2707                      .dwendentry
    2708                      .dwendtag $C$DW$194
    2709              
    2710              ;**************************************************************
    2711              ;* UNDEFINED EXTERNAL REFERENCES                              *
    2712              ;**************************************************************
    2713                      .global _CTRL_setSpd_ref_krpm
    2714                      .global _CTRL_setup
    2715                      .global _CTRL_setParams
    2716                      .global _HAL_enableAdcInts
    2717                      .global _HAL_enableDebugInt
    2718                      .global _CTRL_run
    2719                      .global _CTRL_getVersion
    2720                      .global _HAL_readDrvData
    2721                      .global _HAL_setupDrvSpi
    2722                      .global _HAL_writeDrvData
    2723                      .global _HAL_setupFaults
    2724                      .global _HAL_enableDrv
    2725                      .global _HAL_setParams
    2726                      .global _HAL_enableGlobalInts
    2727                      .global _USER_setParams
    2728                      .global _USER_softwareUpdate1p6
    2729                      .global _USER_calcPIgains
    2730                      .global _GPIO_toggle
    2731                      .global _USER_checkForErrors
    2732                      .global _EST_setFlag_enableRsRecalc
    2733                      .global _EST_setMaxCurrentSlope_pu
    2734                      .global _memCopy
    2735                      .global _EST_setFlag_enableForceAngle
    2736                      .global _EST_getState
TMS320C2000 Assembler PC v6.4.11 Sat Nov 26 19:25:36 2016

Tools Copyright (c) 1996-2015 Texas Instruments Incorporated
C:\Users\bee25\AppData\Local\Temp\3412010                            PAGE   56

    2737                      .global _EST_isMotorIdentified
    2738                      .global _USER_getErrorCode
    2739                      .global _CTRL_updateState
    2740                      .global _EST_get_pu_to_krpm_sf
    2741                      .global _switch_ram_load
    2742                      .global _switch_end
    2743                      .global _econst_ram_load
    2744                      .global _econst_end
    2745                      .global _RamfuncsLoadStart
    2746                      .global _econst_start
    2747                      .global _switch_start
    2748                      .global _RamfuncsLoadEnd
    2749                      .global _RamfuncsRunStart
    2750                      .global _USER_computeFlux_pu_to_VpHz_sf
    2751                      .global _USER_computeFlux_pu_to_Wb_sf
    2752                      .global _USER_computeFlux
    2753                      .global _USER_computeTorque_Ls_Id_Iq_pu_to_Nm_sf
    2754                      .global _CTRL_initCtrl
    2755                      .global _USER_computeTorque_Flux_Iq_pu_to_Nm_sf
    2756                      .global _USER_computeTorque_Nm
    2757                      .global _EST_getLs_q_H
    2758                      .global _EST_getRr_Ohm
    2759                      .global _EST_getIdRated
    2760                      .global _EST_getFlux_VpHz
    2761                      .global _EST_getMaxCurrentSlope_pu
    2762                      .global _HAL_init
    2763                      .global _EST_getRs_Ohm
    2764                      .global _EST_getSpeed_krpm
    2765                      .global _EST_getLs_d_H
    2766                      .global _hal
    2767                      .global L$$DIV
    2768                      .global L$$TOFS
    2769                      .global FS$$CMP
    2770              
    2771              ;***************************************************************
    2772              ;* TYPE INFORMATION                                            *
    2773              ;***************************************************************
    2774              
    2775              $C$DW$T$39      .dwtag  DW_TAG_enumeration_type
    2776                      .dwattr $C$DW$T$39, DW_AT_byte_size(0x01)
    2777              $C$DW$250       .dwtag  DW_TAG_enumerator, DW_AT_name("CTRL_State_Error"), DW_AT_const_value(0x00)
    2778              $C$DW$251       .dwtag  DW_TAG_enumerator, DW_AT_name("CTRL_State_Idle"), DW_AT_const_value(0x01)
    2779              $C$DW$252       .dwtag  DW_TAG_enumerator, DW_AT_name("CTRL_State_OffLine"), DW_AT_const_value(0x02)
    2780              $C$DW$253       .dwtag  DW_TAG_enumerator, DW_AT_name("CTRL_State_OnLine"), DW_AT_const_value(0x03)
    2781              $C$DW$254       .dwtag  DW_TAG_enumerator, DW_AT_name("CTRL_numStates"), DW_AT_const_value(0x04)
    2782                      .dwendtag $C$DW$T$39
    2783              
    2784              $C$DW$T$40      .dwtag  DW_TAG_typedef, DW_AT_name("CTRL_State_e")
    2785                      .dwattr $C$DW$T$40, DW_AT_type(*$C$DW$T$39)
    2786                      .dwattr $C$DW$T$40, DW_AT_language(DW_LANG_C)
    2787              
    2788              $C$DW$T$41      .dwtag  DW_TAG_enumeration_type
    2789                      .dwattr $C$DW$T$41, DW_AT_byte_size(0x01)
    2790              $C$DW$255       .dwtag  DW_TAG_enumerator, DW_AT_name("CTRL_ErrorCode_NoError"), DW_AT_const_value(0x00)
    2791              $C$DW$256       .dwtag  DW_TAG_enumerator, DW_AT_name("CTRL_ErrorCode_IdClip"), DW_AT_const_value(0x01)
TMS320C2000 Assembler PC v6.4.11 Sat Nov 26 19:25:36 2016

Tools Copyright (c) 1996-2015 Texas Instruments Incorporated
C:\Users\bee25\AppData\Local\Temp\3412010                            PAGE   57

    2792              $C$DW$257       .dwtag  DW_TAG_enumerator, DW_AT_name("CTRL_ErrorCode_EstError"), DW_AT_const_value(0x02)
    2793              $C$DW$258       .dwtag  DW_TAG_enumerator, DW_AT_name("CTRL_numErrorCodes"), DW_AT_const_value(0x03)
    2794                      .dwendtag $C$DW$T$41
    2795              
    2796              $C$DW$T$42      .dwtag  DW_TAG_typedef, DW_AT_name("CTRL_ErrorCode_e")
    2797                      .dwattr $C$DW$T$42, DW_AT_type(*$C$DW$T$41)
    2798                      .dwattr $C$DW$T$42, DW_AT_language(DW_LANG_C)
    2799              
    2800              $C$DW$T$72      .dwtag  DW_TAG_enumeration_type
    2801                      .dwattr $C$DW$T$72, DW_AT_byte_size(0x01)
    2802              $C$DW$259       .dwtag  DW_TAG_enumerator, DW_AT_name("CTRL_TargetProc_2806x"), DW_AT_const_value(0x00)
    2803              $C$DW$260       .dwtag  DW_TAG_enumerator, DW_AT_name("CTRL_TargetProc_2805x"), DW_AT_const_value(0x01)
    2804              $C$DW$261       .dwtag  DW_TAG_enumerator, DW_AT_name("CTRL_TargetProc_2803x"), DW_AT_const_value(0x02)
    2805              $C$DW$262       .dwtag  DW_TAG_enumerator, DW_AT_name("CTRL_TargetProc_2802x"), DW_AT_const_value(0x03)
    2806              $C$DW$263       .dwtag  DW_TAG_enumerator, DW_AT_name("CTRL_TargetProc_Unknown"), DW_AT_const_value(0x04)
    2807                      .dwendtag $C$DW$T$72
    2808              
    2809              $C$DW$T$73      .dwtag  DW_TAG_typedef, DW_AT_name("CTRL_TargetProc_e")
    2810                      .dwattr $C$DW$T$73, DW_AT_type(*$C$DW$T$72)
    2811                      .dwattr $C$DW$T$73, DW_AT_language(DW_LANG_C)
    2812              
    2813              $C$DW$T$79      .dwtag  DW_TAG_enumeration_type
    2814                      .dwattr $C$DW$T$79, DW_AT_byte_size(0x01)
    2815              $C$DW$264       .dwtag  DW_TAG_enumerator, DW_AT_name("GPIO_Number_0"), DW_AT_const_value(0x00)
    2816              $C$DW$265       .dwtag  DW_TAG_enumerator, DW_AT_name("GPIO_Number_1"), DW_AT_const_value(0x01)
    2817              $C$DW$266       .dwtag  DW_TAG_enumerator, DW_AT_name("GPIO_Number_2"), DW_AT_const_value(0x02)
    2818              $C$DW$267       .dwtag  DW_TAG_enumerator, DW_AT_name("GPIO_Number_3"), DW_AT_const_value(0x03)
    2819              $C$DW$268       .dwtag  DW_TAG_enumerator, DW_AT_name("GPIO_Number_4"), DW_AT_const_value(0x04)
    2820              $C$DW$269       .dwtag  DW_TAG_enumerator, DW_AT_name("GPIO_Number_5"), DW_AT_const_value(0x05)
    2821              $C$DW$270       .dwtag  DW_TAG_enumerator, DW_AT_name("GPIO_Number_6"), DW_AT_const_value(0x06)
    2822              $C$DW$271       .dwtag  DW_TAG_enumerator, DW_AT_name("GPIO_Number_7"), DW_AT_const_value(0x07)
    2823              $C$DW$272       .dwtag  DW_TAG_enumerator, DW_AT_name("GPIO_Rsvd_8"), DW_AT_const_value(0x08)
    2824              $C$DW$273       .dwtag  DW_TAG_enumerator, DW_AT_name("GPIO_Rsvd_9"), DW_AT_const_value(0x09)
    2825              $C$DW$274       .dwtag  DW_TAG_enumerator, DW_AT_name("GPIO_Rsvd_10"), DW_AT_const_value(0x0a)
    2826              $C$DW$275       .dwtag  DW_TAG_enumerator, DW_AT_name("GPIO_Rsvd_11"), DW_AT_const_value(0x0b)
    2827              $C$DW$276       .dwtag  DW_TAG_enumerator, DW_AT_name("GPIO_Number_12"), DW_AT_const_value(0x0c)
    2828              $C$DW$277       .dwtag  DW_TAG_enumerator, DW_AT_name("GPIO_Rsvd_13"), DW_AT_const_value(0x0d)
    2829              $C$DW$278       .dwtag  DW_TAG_enumerator, DW_AT_name("GPIO_Rsvd_14"), DW_AT_const_value(0x0e)
    2830              $C$DW$279       .dwtag  DW_TAG_enumerator, DW_AT_name("GPIO_Rsvd_15"), DW_AT_const_value(0x0f)
    2831              $C$DW$280       .dwtag  DW_TAG_enumerator, DW_AT_name("GPIO_Number_16"), DW_AT_const_value(0x10)
    2832              $C$DW$281       .dwtag  DW_TAG_enumerator, DW_AT_name("GPIO_Number_17"), DW_AT_const_value(0x11)
    2833              $C$DW$282       .dwtag  DW_TAG_enumerator, DW_AT_name("GPIO_Number_18"), DW_AT_const_value(0x12)
    2834              $C$DW$283       .dwtag  DW_TAG_enumerator, DW_AT_name("GPIO_Number_19"), DW_AT_const_value(0x13)
    2835              $C$DW$284       .dwtag  DW_TAG_enumerator, DW_AT_name("GPIO_Rsvd_20"), DW_AT_const_value(0x14)
    2836              $C$DW$285       .dwtag  DW_TAG_enumerator, DW_AT_name("GPIO_Rsvd_21"), DW_AT_const_value(0x15)
    2837              $C$DW$286       .dwtag  DW_TAG_enumerator, DW_AT_name("GPIO_Rsvd_22"), DW_AT_const_value(0x16)
    2838              $C$DW$287       .dwtag  DW_TAG_enumerator, DW_AT_name("GPIO_Rsvd_23"), DW_AT_const_value(0x17)
    2839              $C$DW$288       .dwtag  DW_TAG_enumerator, DW_AT_name("GPIO_Rsvd_24"), DW_AT_const_value(0x18)
    2840              $C$DW$289       .dwtag  DW_TAG_enumerator, DW_AT_name("GPIO_Rsvd_25"), DW_AT_const_value(0x19)
    2841              $C$DW$290       .dwtag  DW_TAG_enumerator, DW_AT_name("GPIO_Rsvd_26"), DW_AT_const_value(0x1a)
    2842              $C$DW$291       .dwtag  DW_TAG_enumerator, DW_AT_name("GPIO_Rsvd_27"), DW_AT_const_value(0x1b)
    2843              $C$DW$292       .dwtag  DW_TAG_enumerator, DW_AT_name("GPIO_Number_28"), DW_AT_const_value(0x1c)
    2844              $C$DW$293       .dwtag  DW_TAG_enumerator, DW_AT_name("GPIO_Number_29"), DW_AT_const_value(0x1d)
    2845              $C$DW$294       .dwtag  DW_TAG_enumerator, DW_AT_name("GPIO_Rsvd_30"), DW_AT_const_value(0x1e)
    2846              $C$DW$295       .dwtag  DW_TAG_enumerator, DW_AT_name("GPIO_Rsvd_31"), DW_AT_const_value(0x1f)
TMS320C2000 Assembler PC v6.4.11 Sat Nov 26 19:25:36 2016

Tools Copyright (c) 1996-2015 Texas Instruments Incorporated
C:\Users\bee25\AppData\Local\Temp\3412010                            PAGE   58

    2847              $C$DW$296       .dwtag  DW_TAG_enumerator, DW_AT_name("GPIO_Number_32"), DW_AT_const_value(0x20)
    2848              $C$DW$297       .dwtag  DW_TAG_enumerator, DW_AT_name("GPIO_Number_33"), DW_AT_const_value(0x21)
    2849              $C$DW$298       .dwtag  DW_TAG_enumerator, DW_AT_name("GPIO_Number_34"), DW_AT_const_value(0x22)
    2850              $C$DW$299       .dwtag  DW_TAG_enumerator, DW_AT_name("GPIO_Number_35"), DW_AT_const_value(0x23)
    2851              $C$DW$300       .dwtag  DW_TAG_enumerator, DW_AT_name("GPIO_Number_36"), DW_AT_const_value(0x24)
    2852              $C$DW$301       .dwtag  DW_TAG_enumerator, DW_AT_name("GPIO_Number_37"), DW_AT_const_value(0x25)
    2853              $C$DW$302       .dwtag  DW_TAG_enumerator, DW_AT_name("GPIO_Number_38"), DW_AT_const_value(0x26)
    2854              $C$DW$303       .dwtag  DW_TAG_enumerator, DW_AT_name("GPIO_numGpios"), DW_AT_const_value(0x27)
    2855                      .dwendtag $C$DW$T$79
    2856              
    2857              $C$DW$T$80      .dwtag  DW_TAG_typedef, DW_AT_name("GPIO_Number_e")
    2858                      .dwattr $C$DW$T$80, DW_AT_type(*$C$DW$T$79)
    2859                      .dwattr $C$DW$T$80, DW_AT_language(DW_LANG_C)
    2860              $C$DW$304       .dwtag  DW_TAG_TI_far_type
    2861                      .dwattr $C$DW$304, DW_AT_type(*$C$DW$T$80)
    2862              $C$DW$T$202     .dwtag  DW_TAG_const_type
    2863                      .dwattr $C$DW$T$202, DW_AT_type(*$C$DW$304)
    2864              
    2865              $C$DW$T$82      .dwtag  DW_TAG_enumeration_type
    2866                      .dwattr $C$DW$T$82, DW_AT_byte_size(0x01)
    2867              $C$DW$305       .dwtag  DW_TAG_enumerator, DW_AT_name("DRV8301_PeakCurrent_1p70_A"), DW_AT_const_value(0x00)
    2868              $C$DW$306       .dwtag  DW_TAG_enumerator, DW_AT_name("DRV8301_PeakCurrent_0p70_A"), DW_AT_const_value(0x01)
    2869              $C$DW$307       .dwtag  DW_TAG_enumerator, DW_AT_name("DRV8301_PeakCurrent_0p25_A"), DW_AT_const_value(0x02)
    2870                      .dwendtag $C$DW$T$82
    2871              
    2872              $C$DW$T$83      .dwtag  DW_TAG_typedef, DW_AT_name("DRV8301_PeakCurrent_e")
    2873                      .dwattr $C$DW$T$83, DW_AT_type(*$C$DW$T$82)
    2874                      .dwattr $C$DW$T$83, DW_AT_language(DW_LANG_C)
    2875              
    2876              $C$DW$T$84      .dwtag  DW_TAG_enumeration_type
    2877                      .dwattr $C$DW$T$84, DW_AT_byte_size(0x01)
    2878              $C$DW$308       .dwtag  DW_TAG_enumerator, DW_AT_name("DRV8301_Reset_Normal"), DW_AT_const_value(0x00)
    2879              $C$DW$309       .dwtag  DW_TAG_enumerator, DW_AT_name("DRV8301_Reset_All"), DW_AT_const_value(0x04)
    2880                      .dwendtag $C$DW$T$84
    2881              
    2882              $C$DW$T$85      .dwtag  DW_TAG_typedef, DW_AT_name("DRV8301_Reset_e")
    2883                      .dwattr $C$DW$T$85, DW_AT_type(*$C$DW$T$84)
    2884                      .dwattr $C$DW$T$85, DW_AT_language(DW_LANG_C)
    2885              
    2886              $C$DW$T$86      .dwtag  DW_TAG_enumeration_type
    2887                      .dwattr $C$DW$T$86, DW_AT_byte_size(0x01)
    2888              $C$DW$310       .dwtag  DW_TAG_enumerator, DW_AT_name("DRV8301_PwmMode_Six_Inputs"), DW_AT_const_value(0x00)
    2889              $C$DW$311       .dwtag  DW_TAG_enumerator, DW_AT_name("DRV8301_PwmMode_Three_Inputs"), DW_AT_const_value(0x08
    2890                      .dwendtag $C$DW$T$86
    2891              
    2892              $C$DW$T$87      .dwtag  DW_TAG_typedef, DW_AT_name("DRV8301_PwmMode_e")
    2893                      .dwattr $C$DW$T$87, DW_AT_type(*$C$DW$T$86)
    2894                      .dwattr $C$DW$T$87, DW_AT_language(DW_LANG_C)
    2895              
    2896              $C$DW$T$88      .dwtag  DW_TAG_enumeration_type
    2897                      .dwattr $C$DW$T$88, DW_AT_byte_size(0x01)
    2898              $C$DW$312       .dwtag  DW_TAG_enumerator, DW_AT_name("DRV8301_OcMode_CurrentLimit"), DW_AT_const_value(0x00)
    2899              $C$DW$313       .dwtag  DW_TAG_enumerator, DW_AT_name("DRV8301_OcMode_LatchShutDown"), DW_AT_const_value(0x10
    2900              $C$DW$314       .dwtag  DW_TAG_enumerator, DW_AT_name("DRV8301_OcMode_ReportOnly"), DW_AT_const_value(0x20)
    2901              $C$DW$315       .dwtag  DW_TAG_enumerator, DW_AT_name("DRV8301_OcMode_Disabled"), DW_AT_const_value(0x30)
TMS320C2000 Assembler PC v6.4.11 Sat Nov 26 19:25:36 2016

Tools Copyright (c) 1996-2015 Texas Instruments Incorporated
C:\Users\bee25\AppData\Local\Temp\3412010                            PAGE   59

    2902                      .dwendtag $C$DW$T$88
    2903              
    2904              $C$DW$T$89      .dwtag  DW_TAG_typedef, DW_AT_name("DRV8301_OcMode_e")
    2905                      .dwattr $C$DW$T$89, DW_AT_type(*$C$DW$T$88)
    2906                      .dwattr $C$DW$T$89, DW_AT_language(DW_LANG_C)
    2907              
    2908              $C$DW$T$90      .dwtag  DW_TAG_enumeration_type
    2909                      .dwattr $C$DW$T$90, DW_AT_byte_size(0x01)
    2910              $C$DW$316       .dwtag  DW_TAG_enumerator, DW_AT_name("DRV8301_VdsLevel_0p060_V"), DW_AT_const_value(0x00)
    2911              $C$DW$317       .dwtag  DW_TAG_enumerator, DW_AT_name("DRV8301_VdsLevel_0p068_V"), DW_AT_const_value(0x40)
    2912              $C$DW$318       .dwtag  DW_TAG_enumerator, DW_AT_name("DRV8301_VdsLevel_0p076_V"), DW_AT_const_value(0x80)
    2913              $C$DW$319       .dwtag  DW_TAG_enumerator, DW_AT_name("DRV8301_VdsLevel_0p086_V"), DW_AT_const_value(0xc0)
    2914              $C$DW$320       .dwtag  DW_TAG_enumerator, DW_AT_name("DRV8301_VdsLevel_0p097_V"), DW_AT_const_value(0x100)
    2915              $C$DW$321       .dwtag  DW_TAG_enumerator, DW_AT_name("DRV8301_VdsLevel_0p109_V"), DW_AT_const_value(0x140)
    2916              $C$DW$322       .dwtag  DW_TAG_enumerator, DW_AT_name("DRV8301_VdsLevel_0p123_V"), DW_AT_const_value(0x180)
    2917              $C$DW$323       .dwtag  DW_TAG_enumerator, DW_AT_name("DRV8301_VdsLevel_0p138_V"), DW_AT_const_value(0x1c0)
    2918              $C$DW$324       .dwtag  DW_TAG_enumerator, DW_AT_name("DRV8301_VdsLevel_0p155_V"), DW_AT_const_value(0x200)
    2919              $C$DW$325       .dwtag  DW_TAG_enumerator, DW_AT_name("DRV8301_VdsLevel_0p175_V"), DW_AT_const_value(0x240)
    2920              $C$DW$326       .dwtag  DW_TAG_enumerator, DW_AT_name("DRV8301_VdsLevel_0p197_V"), DW_AT_const_value(0x280)
    2921              $C$DW$327       .dwtag  DW_TAG_enumerator, DW_AT_name("DRV8301_VdsLevel_0p222_V"), DW_AT_const_value(0x2c0)
    2922              $C$DW$328       .dwtag  DW_TAG_enumerator, DW_AT_name("DRV8301_VdsLevel_0p250_V"), DW_AT_const_value(0x300)
    2923              $C$DW$329       .dwtag  DW_TAG_enumerator, DW_AT_name("DRV8301_VdsLevel_0p282_V"), DW_AT_const_value(0x340)
    2924              $C$DW$330       .dwtag  DW_TAG_enumerator, DW_AT_name("DRV8301_VdsLevel_0p317_V"), DW_AT_const_value(0x380)
    2925              $C$DW$331       .dwtag  DW_TAG_enumerator, DW_AT_name("DRV8301_VdsLevel_0p358_V"), DW_AT_const_value(0x3c0)
    2926              $C$DW$332       .dwtag  DW_TAG_enumerator, DW_AT_name("DRV8301_VdsLevel_0p403_V"), DW_AT_const_value(0x400)
    2927              $C$DW$333       .dwtag  DW_TAG_enumerator, DW_AT_name("DRV8301_VdsLevel_0p454_V"), DW_AT_const_value(0x440)
    2928              $C$DW$334       .dwtag  DW_TAG_enumerator, DW_AT_name("DRV8301_VdsLevel_0p511_V"), DW_AT_const_value(0x480)
    2929              $C$DW$335       .dwtag  DW_TAG_enumerator, DW_AT_name("DRV8301_VdsLevel_0p576_V"), DW_AT_const_value(0x4c0)
    2930              $C$DW$336       .dwtag  DW_TAG_enumerator, DW_AT_name("DRV8301_VdsLevel_0p648_V"), DW_AT_const_value(0x500)
    2931              $C$DW$337       .dwtag  DW_TAG_enumerator, DW_AT_name("DRV8301_VdsLevel_0p730_V"), DW_AT_const_value(0x540)
    2932              $C$DW$338       .dwtag  DW_TAG_enumerator, DW_AT_name("DRV8301_VdsLevel_0p822_V"), DW_AT_const_value(0x580)
    2933              $C$DW$339       .dwtag  DW_TAG_enumerator, DW_AT_name("DRV8301_VdsLevel_0p926_V"), DW_AT_const_value(0x5c0)
    2934              $C$DW$340       .dwtag  DW_TAG_enumerator, DW_AT_name("DRV8301_VdsLevel_1p043_V"), DW_AT_const_value(0x600)
    2935              $C$DW$341       .dwtag  DW_TAG_enumerator, DW_AT_name("DRV8301_VdsLevel_1p175_V"), DW_AT_const_value(0x640)
    2936              $C$DW$342       .dwtag  DW_TAG_enumerator, DW_AT_name("DRV8301_VdsLevel_1p324_V"), DW_AT_const_value(0x680)
    2937              $C$DW$343       .dwtag  DW_TAG_enumerator, DW_AT_name("DRV8301_VdsLevel_1p491_V"), DW_AT_const_value(0x6c0)
    2938              $C$DW$344       .dwtag  DW_TAG_enumerator, DW_AT_name("DRV8301_VdsLevel_1p679_V"), DW_AT_const_value(0x700)
    2939              $C$DW$345       .dwtag  DW_TAG_enumerator, DW_AT_name("DRV8301_VdsLevel_1p892_V"), DW_AT_const_value(0x740)
    2940              $C$DW$346       .dwtag  DW_TAG_enumerator, DW_AT_name("DRV8301_VdsLevel_2p131_V"), DW_AT_const_value(0x780)
    2941              $C$DW$347       .dwtag  DW_TAG_enumerator, DW_AT_name("DRV8301_VdsLevel_2p400_V"), DW_AT_const_value(0x7c0)
    2942                      .dwendtag $C$DW$T$90
    2943              
