TMS320C2000 Assembler PC v6.4.10 Mon Jul 11 12:58:57 2016

Tools Copyright (c) 1996-2015 Texas Instruments Incorporated
C:\Users\bee25\AppData\Local\Temp\0350410                            PAGE    1

       1              ;***************************************************************
       2              ;* TMS320C2000 C/C++ Codegen                        PC v6.4.10 *
       3              ;* Date/Time created: Mon Jul 11 12:58:57 2016                 *
       4              ;***************************************************************
       5                      .compiler_opts --float_support=softlib --hll_source=on --mem_model:code=flat --mem_model:data=large -
       6        0002  FP      .set    XAR2
       7              
       8              $C$DW$CU        .dwtag  DW_TAG_compile_unit
       9                      .dwattr $C$DW$CU, DW_AT_name("C:/ti/motorware/motorware_1_01_00_16/sw/solutions/instaspin_foc/src/pro
      10                      .dwattr $C$DW$CU, DW_AT_producer("TI TMS320C2000 C/C++ Codegen PC v6.4.10 Copyright (c) 1996-2015 Tex
      11                      .dwattr $C$DW$CU, DW_AT_TI_version(0x01)
      12                      .dwattr $C$DW$CU, DW_AT_comp_dir("C:\ti\motorware\motorware_1_01_00_16\sw\solutions\instaspin_foc\boa
      13              ;**************************************************************
      14              ;* CINIT RECORDS                                              *
      15              ;**************************************************************
      16 00000000               .sect   ".cinit"
      17                      .align  1
      18 00000000 FFFE          .field          -2,16
      19 00000001 0012-         .field          _gSpeed_krpm_to_pu_sf+0,32
         00000002 0000 
      20 00000003 F0DA          .bits   2420954,32                      ; _gSpeed_krpm_to_pu_sf @ 0
         00000004 0024 
      21              
      22 00000005               .sect   ".cinit"
      23                      .align  1
      24 00000005 FFFE          .field          -2,16
      25 00000006 0014-         .field          _gSpeed_hz_to_krpm_sf+0,32
         00000007 0000 
      26 00000008 8F5C          .bits   167772,32                       ; _gSpeed_hz_to_krpm_sf @ 0
         00000009 0002 
      27              
      28 0000000a               .sect   ".cinit"
      29                      .align  1
      30 0000000a FFFC          .field          -$C$IR_1,16
      31 0000000b 001E-         .field          _gVdq_out_pu+0,32
         0000000c 0000 
      32 0000000d 0000          .bits   0,32                    ; _gVdq_out_pu._value[0] @ 0
         0000000e 0000 
      33 0000000f 0000          .bits   0,32                    ; _gVdq_out_pu._value[1] @ 32
         00000010 0000 
      34        0004  $C$IR_1:        .set    4
      35              
      36 00000011               .sect   ".cinit"
      37                      .align  1
      38 00000011 FFFC          .field          -$C$IR_2,16
      39 00000012 0022-         .field          _gIdq_pu+0,32
         00000013 0000 
      40 00000014 0000          .bits   0,32                    ; _gIdq_pu._value[0] @ 0
         00000015 0000 
      41 00000016 0000          .bits   0,32                    ; _gIdq_pu._value[1] @ 32
         00000017 0000 
      42        0004  $C$IR_2:        .set    4
      43              
      44 00000018               .sect   ".cinit"
      45                      .align  1
TMS320C2000 Assembler PC v6.4.10 Mon Jul 11 12:58:57 2016

Tools Copyright (c) 1996-2015 Texas Instruments Incorporated
C:\Users\bee25\AppData\Local\Temp\0350410                            PAGE    2

      46 00000018 FFFC          .field          -$C$IR_3,16
      47 00000019 0026-         .field          _gIdq_ref_pu+0,32
         0000001a 0000 
      48 0000001b 0000          .bits   0,32                    ; _gIdq_ref_pu._value[0] @ 0
         0000001c 0000 
      49 0000001d 0000          .bits   0,32                    ; _gIdq_ref_pu._value[1] @ 32
         0000001e 0000 
      50        0004  $C$IR_3:        .set    4
      51              
      52 0000001f               .sect   ".cinit"
      53                      .align  1
      54 0000001f FFFA          .field          -$C$IR_4,16
      55 00000020 0030-         .field          _gOffsets_V_pu+0,32
         00000021 0000 
      56 00000022 0000          .bits   0,32                    ; _gOffsets_V_pu._value[0] @ 0
         00000023 0000 
      57 00000024 0000          .bits   0,32                    ; _gOffsets_V_pu._value[1] @ 32
         00000025 0000 
      58 00000026 0000          .bits   0,32                    ; _gOffsets_V_pu._value[2] @ 64
         00000027 0000 
      59        0006  $C$IR_4:        .set    6
      60              
      61 00000028               .sect   ".cinit"
      62                      .align  1
      63 00000028 FFFA          .field          -$C$IR_5,16
      64 00000029 0046-         .field          _gOffsets_I_pu+0,32
         0000002a 0000 
      65 0000002b 0000          .bits   0,32                    ; _gOffsets_I_pu._value[0] @ 0
         0000002c 0000 
      66 0000002d 0000          .bits   0,32                    ; _gOffsets_I_pu._value[1] @ 32
         0000002e 0000 
      67 0000002f 0000          .bits   0,32                    ; _gOffsets_I_pu._value[2] @ 64
         00000030 0000 
      68        0006  $C$IR_5:        .set    6
      69              
      70 00000031               .sect   ".cinit"
      71                      .align  1
      72 00000031 FFFA          .field          -$C$IR_6,16
      73 00000032 004C-         .field          _gPwmData+0,32
         00000033 0000 
      74 00000034 0000          .bits   0,32                    ; _gPwmData._Tabc._value[0] @ 0
         00000035 0000 
      75 00000036 0000          .bits   0,32                    ; _gPwmData._Tabc._value[1] @ 32
         00000037 0000 
      76 00000038 0000          .bits   0,32                    ; _gPwmData._Tabc._value[2] @ 64
         00000039 0000 
      77        0006  $C$IR_6:        .set    6
      78              
      79 0000003a               .sect   ".cinit"
      80                      .align  1
      81 0000003a FF98          .field          -$C$IR_7,16
      82 0000003b 00C0-         .field          _gMotorVars+0,32
         0000003c 0000 
      83 0000003d 0000          .bits   0,16                    ; _gMotorVars._Flag_enableSys @ 0
      84 0000003e 0000          .bits   0,16                    ; _gMotorVars._Flag_Run_Identify @ 16
TMS320C2000 Assembler PC v6.4.10 Mon Jul 11 12:58:57 2016

Tools Copyright (c) 1996-2015 Texas Instruments Incorporated
C:\Users\bee25\AppData\Local\Temp\0350410                            PAGE    3

      85 0000003f 0000          .bits   0,16                    ; _gMotorVars._Flag_MotorIdentified @ 32
      86 00000040 0001          .bits   1,16                    ; _gMotorVars._Flag_enableForceAngle @ 48
      87 00000041 0000          .bits   0,16                    ; _gMotorVars._Flag_enableFieldWeakening @ 64
      88 00000042 0000          .bits   0,16                    ; _gMotorVars._Flag_enableRsRecalc @ 80
      89 00000043 0001          .bits   1,16                    ; _gMotorVars._Flag_enableUserParams @ 96
      90 00000044 0001          .bits   1,16                    ; _gMotorVars._Flag_enableOffsetcalc @ 112
      91 00000045 0000          .bits   0,16                    ; _gMotorVars._Flag_enablePowerWarp @ 128
      92 00000046 0000          .bits   0,16                    ; _gMotorVars._Flag_enableSpeedCtrl @ 144
      93 00000047 0001          .bits   1,16                    ; _gMotorVars._CtrlState @ 160
      94 00000048 0001          .bits   1,16                    ; _gMotorVars._EstState @ 176
      95 00000049 0000          .bits   0,16                    ; _gMotorVars._UserErrorCode @ 192
      96 0000004a 0000          .bits   0,16                    ; _gMotorVars._CtrlVersion._rsvd @ 208
      97 0000004b 0004          .bits   4,16                    ; _gMotorVars._CtrlVersion._targetProc @ 224
      98 0000004c 0000          .bits   0,16                    ; _gMotorVars._CtrlVersion._major @ 240
      99 0000004d 0000          .bits   0,16                    ; _gMotorVars._CtrlVersion._minor @ 256
     100 0000004e               .space  16
     101 0000004f 0000          .bits   0,32                    ; _gMotorVars._IdRef_A @ 288
         00000050 0000 
     102 00000051 0000          .bits   0,32                    ; _gMotorVars._IqRef_A @ 320
         00000052 0000 
     103 00000053 0000          .bits   0,32                    ; _gMotorVars._SpeedRef_pu @ 352
         00000054 0000 
     104 00000055 9999          .bits   1677721,32                      ; _gMotorVars._SpeedRef_krpm @ 384
         00000056 0019 
     105 00000057 0000          .bits   0,32                    ; _gMotorVars._SpeedTraj_krpm @ 416
         00000058 0000 
     106 00000059 3333          .bits   3355443,32                      ; _gMotorVars._MaxAccel_krpmps @ 448
         0000005a 0033 
     107 0000005b 0000          .bits   0,32                    ; _gMotorVars._Speed_krpm @ 480
         0000005c 0000 
     108 0000005d 0000          .bits   8388608,32                      ; _gMotorVars._OverModulation @ 512
         0000005e 0080 
     109 0000005f 0000          .bits   33554432,32                     ; _gMotorVars._RsOnLineCurrent_A @ 544
         00000060 0200 
     110 00000061 0190          .bits   400,32                  ; _gMotorVars._SvgenMaxModulation_ticks @ 576
         00000062 0000 
     111 00000063 0000          .bits   0,32                    ; _gMotorVars._Flux_Wb @ 608
         00000064 0000 
     112 00000065 0000          .bits   0,32                    ; _gMotorVars._Torque_Nm @ 640
         00000066 0000 
     113 00000067 0000          .xfloat $strtod("0x0p+0")               ; _gMotorVars._MagnCurr_A @ 672
         00000068 0000 
     114 00000069 0000          .xfloat $strtod("0x0p+0")               ; _gMotorVars._Rr_Ohm @ 704
         0000006a 0000 
     115 0000006b 0000          .xfloat $strtod("0x0p+0")               ; _gMotorVars._Rs_Ohm @ 736
         0000006c 0000 
     116 0000006d 0000          .xfloat $strtod("0x0p+0")               ; _gMotorVars._RsOnLine_Ohm @ 768
         0000006e 0000 
     117 0000006f 0000          .xfloat $strtod("0x0p+0")               ; _gMotorVars._Lsd_H @ 800
         00000070 0000 
     118 00000071 0000          .xfloat $strtod("0x0p+0")               ; _gMotorVars._Lsq_H @ 832
         00000072 0000 
     119 00000073 0000          .xfloat $strtod("0x0p+0")               ; _gMotorVars._Flux_VpHz @ 864
         00000074 0000 
     120 00000075 0000          .xfloat $strtod("0x0p+0")               ; _gMotorVars._ipd_excFreq_Hz @ 896
TMS320C2000 Assembler PC v6.4.10 Mon Jul 11 12:58:57 2016

Tools Copyright (c) 1996-2015 Texas Instruments Incorporated
C:\Users\bee25\AppData\Local\Temp\0350410                            PAGE    4

         00000076 0000 
     121 00000077 0000          .bits   0,32                    ; _gMotorVars._ipd_Kspd @ 928
         00000078 0000 
     122 00000079 0000          .bits   0,32                    ; _gMotorVars._ipd_excMag_coarse_pu @ 960
         0000007a 0000 
     123 0000007b 0000          .bits   0,32                    ; _gMotorVars._ipd_excMag_fine_pu @ 992
         0000007c 0000 
     124 0000007d 0000          .xfloat $strtod("0x0p+0")               ; _gMotorVars._ipd_waitTime_coarse_sec @ 1024
         0000007e 0000 
     125 0000007f 0000          .xfloat $strtod("0x0p+0")               ; _gMotorVars._ipd_waitTime_fine_sec @ 1056
         00000080 0000 
     126 00000081 0000          .bits   0,32                    ; _gMotorVars._Kp_spd @ 1088
         00000082 0000 
     127 00000083 0000          .bits   0,32                    ; _gMotorVars._Ki_spd @ 1120
         00000084 0000 
     128 00000085 0000          .bits   0,32                    ; _gMotorVars._Kp_Idq @ 1152
         00000086 0000 
     129 00000087 0000          .bits   0,32                    ; _gMotorVars._Ki_Idq @ 1184
         00000088 0000 
     130 00000089 0000          .bits   0,32                    ; _gMotorVars._Vd @ 1216
         0000008a 0000 
     131 0000008b 0000          .bits   0,32                    ; _gMotorVars._Vq @ 1248
         0000008c 0000 
     132 0000008d 0000          .bits   0,32                    ; _gMotorVars._Vs @ 1280
         0000008e 0000 
     133 0000008f 6666          .bits   6710886,32                      ; _gMotorVars._VsRef @ 1312
         00000090 0066 
     134 00000091 0000          .bits   0,32                    ; _gMotorVars._VdcBus_kV @ 1344
         00000092 0000 
     135 00000093 0000          .bits   0,32                    ; _gMotorVars._Id_A @ 1376
         00000094 0000 
     136 00000095 0000          .bits   0,32                    ; _gMotorVars._Iq_A @ 1408
         00000096 0000 
     137 00000097 0000          .bits   0,32                    ; _gMotorVars._Is_A @ 1440
         00000098 0000 
     138 00000099 0000          .bits   0,32                    ; _gMotorVars._I_bias._value[0] @ 1472
         0000009a 0000 
     139 0000009b 0000          .bits   0,32                    ; _gMotorVars._I_bias._value[1] @ 1504
         0000009c 0000 
     140 0000009d 0000          .bits   0,32                    ; _gMotorVars._I_bias._value[2] @ 1536
         0000009e 0000 
     141 0000009f 0000          .bits   0,32                    ; _gMotorVars._V_bias._value[0] @ 1568
         000000a0 0000 
     142 000000a1 0000          .bits   0,32                    ; _gMotorVars._V_bias._value[1] @ 1600
         000000a2 0000 
     143 000000a3 0000          .bits   0,32                    ; _gMotorVars._V_bias._value[2] @ 1632
         000000a4 0000 
     144        0068  $C$IR_7:        .set    104
     145              
     146              
     147              $C$DW$1 .dwtag  DW_TAG_subprogram, DW_AT_name("USER_setParams")
     148                      .dwattr $C$DW$1, DW_AT_TI_symbol_name("_USER_setParams")
     149                      .dwattr $C$DW$1, DW_AT_declaration
     150                      .dwattr $C$DW$1, DW_AT_external
     151              $C$DW$2 .dwtag  DW_TAG_formal_parameter
TMS320C2000 Assembler PC v6.4.10 Mon Jul 11 12:58:57 2016

Tools Copyright (c) 1996-2015 Texas Instruments Incorporated
C:\Users\bee25\AppData\Local\Temp\0350410                            PAGE    5

     152                      .dwattr $C$DW$2, DW_AT_type(*$C$DW$T$195)
     153                      .dwendtag $C$DW$1
     154              
     155              
     156              $C$DW$3 .dwtag  DW_TAG_subprogram, DW_AT_name("USER_checkForErrors")
     157                      .dwattr $C$DW$3, DW_AT_TI_symbol_name("_USER_checkForErrors")
     158                      .dwattr $C$DW$3, DW_AT_declaration
     159                      .dwattr $C$DW$3, DW_AT_external
     160              $C$DW$4 .dwtag  DW_TAG_formal_parameter
     161                      .dwattr $C$DW$4, DW_AT_type(*$C$DW$T$195)
     162                      .dwendtag $C$DW$3
     163              
     164              
     165              $C$DW$5 .dwtag  DW_TAG_subprogram, DW_AT_name("HAL_enableDebugInt")
     166                      .dwattr $C$DW$5, DW_AT_TI_symbol_name("_HAL_enableDebugInt")
     167                      .dwattr $C$DW$5, DW_AT_declaration
     168                      .dwattr $C$DW$5, DW_AT_external
     169              $C$DW$6 .dwtag  DW_TAG_formal_parameter
     170                      .dwattr $C$DW$6, DW_AT_type(*$C$DW$T$232)
     171                      .dwendtag $C$DW$5
     172              
     173              
     174              $C$DW$7 .dwtag  DW_TAG_subprogram, DW_AT_name("HAL_enableGlobalInts")
     175                      .dwattr $C$DW$7, DW_AT_TI_symbol_name("_HAL_enableGlobalInts")
     176                      .dwattr $C$DW$7, DW_AT_declaration
     177                      .dwattr $C$DW$7, DW_AT_external
     178              $C$DW$8 .dwtag  DW_TAG_formal_parameter
     179                      .dwattr $C$DW$8, DW_AT_type(*$C$DW$T$232)
     180                      .dwendtag $C$DW$7
     181              
     182              
     183              $C$DW$9 .dwtag  DW_TAG_subprogram, DW_AT_name("HAL_enableAdcInts")
     184                      .dwattr $C$DW$9, DW_AT_TI_symbol_name("_HAL_enableAdcInts")
     185                      .dwattr $C$DW$9, DW_AT_declaration
     186                      .dwattr $C$DW$9, DW_AT_external
     187              $C$DW$10        .dwtag  DW_TAG_formal_parameter
     188                      .dwattr $C$DW$10, DW_AT_type(*$C$DW$T$232)
     189                      .dwendtag $C$DW$9
     190              
     191              
     192              $C$DW$11        .dwtag  DW_TAG_subprogram, DW_AT_name("EST_setupEstIdleState")
     193                      .dwattr $C$DW$11, DW_AT_TI_symbol_name("_EST_setupEstIdleState")
     194                      .dwattr $C$DW$11, DW_AT_declaration
     195                      .dwattr $C$DW$11, DW_AT_external
     196              $C$DW$12        .dwtag  DW_TAG_formal_parameter
     197                      .dwattr $C$DW$12, DW_AT_type(*$C$DW$T$190)
     198                      .dwendtag $C$DW$11
     199              
     200              
     201              $C$DW$13        .dwtag  DW_TAG_subprogram, DW_AT_name("EST_getIdq_pu")
     202                      .dwattr $C$DW$13, DW_AT_TI_symbol_name("_EST_getIdq_pu")
     203                      .dwattr $C$DW$13, DW_AT_declaration
     204                      .dwattr $C$DW$13, DW_AT_external
     205              $C$DW$14        .dwtag  DW_TAG_formal_parameter
     206                      .dwattr $C$DW$14, DW_AT_type(*$C$DW$T$190)
TMS320C2000 Assembler PC v6.4.10 Mon Jul 11 12:58:57 2016

Tools Copyright (c) 1996-2015 Texas Instruments Incorporated
C:\Users\bee25\AppData\Local\Temp\0350410                            PAGE    6

     207              $C$DW$15        .dwtag  DW_TAG_formal_parameter
     208                      .dwattr $C$DW$15, DW_AT_type(*$C$DW$T$249)
     209                      .dwendtag $C$DW$13
     210              
     211              
     212              $C$DW$16        .dwtag  DW_TAG_subprogram, DW_AT_name("EST_setEstParams")
     213                      .dwattr $C$DW$16, DW_AT_TI_symbol_name("_EST_setEstParams")
     214                      .dwattr $C$DW$16, DW_AT_declaration
     215                      .dwattr $C$DW$16, DW_AT_external
     216              $C$DW$17        .dwtag  DW_TAG_formal_parameter
     217                      .dwattr $C$DW$17, DW_AT_type(*$C$DW$T$190)
     218              $C$DW$18        .dwtag  DW_TAG_formal_parameter
     219                      .dwattr $C$DW$18, DW_AT_type(*$C$DW$T$195)
     220                      .dwendtag $C$DW$16
     221              
     222              
     223              $C$DW$19        .dwtag  DW_TAG_subprogram, DW_AT_name("HAL_setupDrvSpi")
     224                      .dwattr $C$DW$19, DW_AT_TI_symbol_name("_HAL_setupDrvSpi")
     225                      .dwattr $C$DW$19, DW_AT_declaration
     226                      .dwattr $C$DW$19, DW_AT_external
     227              $C$DW$20        .dwtag  DW_TAG_formal_parameter
     228                      .dwattr $C$DW$20, DW_AT_type(*$C$DW$T$232)
     229              $C$DW$21        .dwtag  DW_TAG_formal_parameter
     230                      .dwattr $C$DW$21, DW_AT_type(*$C$DW$T$220)
     231                      .dwendtag $C$DW$19
     232              
     233              
     234              $C$DW$22        .dwtag  DW_TAG_subprogram, DW_AT_name("HAL_setupFaults")
     235                      .dwattr $C$DW$22, DW_AT_TI_symbol_name("_HAL_setupFaults")
     236                      .dwattr $C$DW$22, DW_AT_declaration
     237                      .dwattr $C$DW$22, DW_AT_external
     238              $C$DW$23        .dwtag  DW_TAG_formal_parameter
     239                      .dwattr $C$DW$23, DW_AT_type(*$C$DW$T$232)
     240                      .dwendtag $C$DW$22
     241              
     242              
     243              $C$DW$24        .dwtag  DW_TAG_subprogram, DW_AT_name("HAL_enableDrv")
     244                      .dwattr $C$DW$24, DW_AT_TI_symbol_name("_HAL_enableDrv")
     245                      .dwattr $C$DW$24, DW_AT_declaration
     246                      .dwattr $C$DW$24, DW_AT_external
     247              $C$DW$25        .dwtag  DW_TAG_formal_parameter
     248                      .dwattr $C$DW$25, DW_AT_type(*$C$DW$T$232)
     249                      .dwendtag $C$DW$24
     250              
     251              
     252              $C$DW$26        .dwtag  DW_TAG_subprogram, DW_AT_name("HAL_writeDrvData")
     253                      .dwattr $C$DW$26, DW_AT_TI_symbol_name("_HAL_writeDrvData")
     254                      .dwattr $C$DW$26, DW_AT_declaration
     255                      .dwattr $C$DW$26, DW_AT_external
     256              $C$DW$27        .dwtag  DW_TAG_formal_parameter
     257                      .dwattr $C$DW$27, DW_AT_type(*$C$DW$T$232)
     258              $C$DW$28        .dwtag  DW_TAG_formal_parameter
     259                      .dwattr $C$DW$28, DW_AT_type(*$C$DW$T$220)
     260                      .dwendtag $C$DW$26
     261              
TMS320C2000 Assembler PC v6.4.10 Mon Jul 11 12:58:57 2016

Tools Copyright (c) 1996-2015 Texas Instruments Incorporated
C:\Users\bee25\AppData\Local\Temp\0350410                            PAGE    7

     262              
     263              $C$DW$29        .dwtag  DW_TAG_subprogram, DW_AT_name("HAL_readDrvData")
     264                      .dwattr $C$DW$29, DW_AT_TI_symbol_name("_HAL_readDrvData")
     265                      .dwattr $C$DW$29, DW_AT_declaration
     266                      .dwattr $C$DW$29, DW_AT_external
     267              $C$DW$30        .dwtag  DW_TAG_formal_parameter
     268                      .dwattr $C$DW$30, DW_AT_type(*$C$DW$T$232)
     269              $C$DW$31        .dwtag  DW_TAG_formal_parameter
     270                      .dwattr $C$DW$31, DW_AT_type(*$C$DW$T$220)
     271                      .dwendtag $C$DW$29
     272              
     273              
     274              $C$DW$32        .dwtag  DW_TAG_subprogram, DW_AT_name("HAL_setParams")
     275                      .dwattr $C$DW$32, DW_AT_TI_symbol_name("_HAL_setParams")
     276                      .dwattr $C$DW$32, DW_AT_declaration
     277                      .dwattr $C$DW$32, DW_AT_external
     278              $C$DW$33        .dwtag  DW_TAG_formal_parameter
     279                      .dwattr $C$DW$33, DW_AT_type(*$C$DW$T$232)
     280              $C$DW$34        .dwtag  DW_TAG_formal_parameter
     281                      .dwattr $C$DW$34, DW_AT_type(*$C$DW$T$281)
     282                      .dwendtag $C$DW$32
     283              
     284              
     285              $C$DW$35        .dwtag  DW_TAG_subprogram, DW_AT_name("EST_setLs_d_pu")
     286                      .dwattr $C$DW$35, DW_AT_TI_symbol_name("_EST_setLs_d_pu")
     287                      .dwattr $C$DW$35, DW_AT_declaration
     288                      .dwattr $C$DW$35, DW_AT_external
     289              $C$DW$36        .dwtag  DW_TAG_formal_parameter
     290                      .dwattr $C$DW$36, DW_AT_type(*$C$DW$T$190)
     291              $C$DW$37        .dwtag  DW_TAG_formal_parameter
     292                      .dwattr $C$DW$37, DW_AT_type(*$C$DW$T$287)
     293                      .dwendtag $C$DW$35
     294              
     295              
     296              $C$DW$38        .dwtag  DW_TAG_subprogram, DW_AT_name("EST_setIdle")
     297                      .dwattr $C$DW$38, DW_AT_TI_symbol_name("_EST_setIdle")
     298                      .dwattr $C$DW$38, DW_AT_declaration
     299                      .dwattr $C$DW$38, DW_AT_external
     300              $C$DW$39        .dwtag  DW_TAG_formal_parameter
     301                      .dwattr $C$DW$39, DW_AT_type(*$C$DW$T$190)
     302                      .dwendtag $C$DW$38
     303              
     304              
     305              $C$DW$40        .dwtag  DW_TAG_subprogram, DW_AT_name("EST_setLs_qFmt")
     306                      .dwattr $C$DW$40, DW_AT_TI_symbol_name("_EST_setLs_qFmt")
     307                      .dwattr $C$DW$40, DW_AT_declaration
     308                      .dwattr $C$DW$40, DW_AT_external
     309              $C$DW$41        .dwtag  DW_TAG_formal_parameter
     310                      .dwattr $C$DW$41, DW_AT_type(*$C$DW$T$190)
     311              $C$DW$42        .dwtag  DW_TAG_formal_parameter
     312                      .dwattr $C$DW$42, DW_AT_type(*$C$DW$T$297)
     313                      .dwendtag $C$DW$40
     314              
     315              
     316              $C$DW$43        .dwtag  DW_TAG_subprogram, DW_AT_name("EST_setLs_q_pu")
TMS320C2000 Assembler PC v6.4.10 Mon Jul 11 12:58:57 2016

Tools Copyright (c) 1996-2015 Texas Instruments Incorporated
C:\Users\bee25\AppData\Local\Temp\0350410                            PAGE    8

     317                      .dwattr $C$DW$43, DW_AT_TI_symbol_name("_EST_setLs_q_pu")
     318                      .dwattr $C$DW$43, DW_AT_declaration
     319                      .dwattr $C$DW$43, DW_AT_external
     320              $C$DW$44        .dwtag  DW_TAG_formal_parameter
     321                      .dwattr $C$DW$44, DW_AT_type(*$C$DW$T$190)
     322              $C$DW$45        .dwtag  DW_TAG_formal_parameter
     323                      .dwattr $C$DW$45, DW_AT_type(*$C$DW$T$287)
     324                      .dwendtag $C$DW$43
     325              
     326              
     327              $C$DW$46        .dwtag  DW_TAG_subprogram, DW_AT_name("EST_run")
     328                      .dwattr $C$DW$46, DW_AT_TI_symbol_name("_EST_run")
     329                      .dwattr $C$DW$46, DW_AT_declaration
     330                      .dwattr $C$DW$46, DW_AT_external
     331              $C$DW$47        .dwtag  DW_TAG_formal_parameter
     332                      .dwattr $C$DW$47, DW_AT_type(*$C$DW$T$190)
     333              $C$DW$48        .dwtag  DW_TAG_formal_parameter
     334                      .dwattr $C$DW$48, DW_AT_type(*$C$DW$T$248)
     335              $C$DW$49        .dwtag  DW_TAG_formal_parameter
     336                      .dwattr $C$DW$49, DW_AT_type(*$C$DW$T$248)
     337              $C$DW$50        .dwtag  DW_TAG_formal_parameter
     338                      .dwattr $C$DW$50, DW_AT_type(*$C$DW$T$287)
     339              $C$DW$51        .dwtag  DW_TAG_formal_parameter
     340                      .dwattr $C$DW$51, DW_AT_type(*$C$DW$T$287)
     341                      .dwendtag $C$DW$46
     342              
     343              
     344              $C$DW$52        .dwtag  DW_TAG_subprogram, DW_AT_name("memCopy")
     345                      .dwattr $C$DW$52, DW_AT_TI_symbol_name("_memCopy")
     346                      .dwattr $C$DW$52, DW_AT_declaration
     347                      .dwattr $C$DW$52, DW_AT_external
     348              $C$DW$53        .dwtag  DW_TAG_formal_parameter
     349                      .dwattr $C$DW$53, DW_AT_type(*$C$DW$T$284)
     350              $C$DW$54        .dwtag  DW_TAG_formal_parameter
     351                      .dwattr $C$DW$54, DW_AT_type(*$C$DW$T$284)
     352              $C$DW$55        .dwtag  DW_TAG_formal_parameter
     353                      .dwattr $C$DW$55, DW_AT_type(*$C$DW$T$284)
     354                      .dwendtag $C$DW$52
     355              
     356              
     357              $C$DW$56        .dwtag  DW_TAG_subprogram, DW_AT_name("EST_setFlag_enableRsRecalc")
     358                      .dwattr $C$DW$56, DW_AT_TI_symbol_name("_EST_setFlag_enableRsRecalc")
     359                      .dwattr $C$DW$56, DW_AT_declaration
     360                      .dwattr $C$DW$56, DW_AT_external
     361              $C$DW$57        .dwtag  DW_TAG_formal_parameter
     362                      .dwattr $C$DW$57, DW_AT_type(*$C$DW$T$190)
     363              $C$DW$58        .dwtag  DW_TAG_formal_parameter
     364                      .dwattr $C$DW$58, DW_AT_type(*$C$DW$T$290)
     365                      .dwendtag $C$DW$56
     366              
     367              
     368              $C$DW$59        .dwtag  DW_TAG_subprogram, DW_AT_name("EST_setFlag_enableForceAngle")
     369                      .dwattr $C$DW$59, DW_AT_TI_symbol_name("_EST_setFlag_enableForceAngle")
     370                      .dwattr $C$DW$59, DW_AT_declaration
     371                      .dwattr $C$DW$59, DW_AT_external
TMS320C2000 Assembler PC v6.4.10 Mon Jul 11 12:58:57 2016

Tools Copyright (c) 1996-2015 Texas Instruments Incorporated
C:\Users\bee25\AppData\Local\Temp\0350410                            PAGE    9

     372              $C$DW$60        .dwtag  DW_TAG_formal_parameter
     373                      .dwattr $C$DW$60, DW_AT_type(*$C$DW$T$190)
     374              $C$DW$61        .dwtag  DW_TAG_formal_parameter
     375                      .dwattr $C$DW$61, DW_AT_type(*$C$DW$T$290)
     376                      .dwendtag $C$DW$59
     377              
     378              
     379              $C$DW$62        .dwtag  DW_TAG_subprogram, DW_AT_name("EST_getState")
     380                      .dwattr $C$DW$62, DW_AT_TI_symbol_name("_EST_getState")
     381                      .dwattr $C$DW$62, DW_AT_type(*$C$DW$T$149)
     382                      .dwattr $C$DW$62, DW_AT_declaration
     383                      .dwattr $C$DW$62, DW_AT_external
     384              $C$DW$63        .dwtag  DW_TAG_formal_parameter
     385                      .dwattr $C$DW$63, DW_AT_type(*$C$DW$T$190)
     386                      .dwendtag $C$DW$62
     387              
     388              
     389              $C$DW$64        .dwtag  DW_TAG_subprogram, DW_AT_name("USER_getErrorCode")
     390                      .dwattr $C$DW$64, DW_AT_TI_symbol_name("_USER_getErrorCode")
     391                      .dwattr $C$DW$64, DW_AT_type(*$C$DW$T$151)
     392                      .dwattr $C$DW$64, DW_AT_declaration
     393                      .dwattr $C$DW$64, DW_AT_external
     394              $C$DW$65        .dwtag  DW_TAG_formal_parameter
     395                      .dwattr $C$DW$65, DW_AT_type(*$C$DW$T$195)
     396                      .dwendtag $C$DW$64
     397              
     398              
     399              $C$DW$66        .dwtag  DW_TAG_subprogram, DW_AT_name("EST_updateState")
     400                      .dwattr $C$DW$66, DW_AT_TI_symbol_name("_EST_updateState")
     401                      .dwattr $C$DW$66, DW_AT_type(*$C$DW$T$62)
     402                      .dwattr $C$DW$66, DW_AT_declaration
     403                      .dwattr $C$DW$66, DW_AT_external
     404              $C$DW$67        .dwtag  DW_TAG_formal_parameter
     405                      .dwattr $C$DW$67, DW_AT_type(*$C$DW$T$190)
     406              $C$DW$68        .dwtag  DW_TAG_formal_parameter
     407                      .dwattr $C$DW$68, DW_AT_type(*$C$DW$T$287)
     408                      .dwendtag $C$DW$66
     409              
     410                      .global _pidCntSpeed
     411 00000000       _pidCntSpeed:   .usect  ".ebss",1,1,0
     412              $C$DW$69        .dwtag  DW_TAG_variable, DW_AT_name("pidCntSpeed")
     413                      .dwattr $C$DW$69, DW_AT_TI_symbol_name("_pidCntSpeed")
     414                      .dwattr $C$DW$69, DW_AT_location[DW_OP_addr _pidCntSpeed]
     415                      .dwattr $C$DW$69, DW_AT_type(*$C$DW$T$22)
     416                      .dwattr $C$DW$69, DW_AT_external
     417                      .global _svgenHandle
     418 00000002       _svgenHandle:   .usect  ".ebss",2,1,1
     419              $C$DW$70        .dwtag  DW_TAG_variable, DW_AT_name("svgenHandle")
     420                      .dwattr $C$DW$70, DW_AT_TI_symbol_name("_svgenHandle")
     421                      .dwattr $C$DW$70, DW_AT_location[DW_OP_addr _svgenHandle]
     422                      .dwattr $C$DW$70, DW_AT_type(*$C$DW$T$276)
     423                      .dwattr $C$DW$70, DW_AT_external
     424                      .global _clarkeHandle_V
     425 00000004       _clarkeHandle_V:        .usect  ".ebss",2,1,1
     426              $C$DW$71        .dwtag  DW_TAG_variable, DW_AT_name("clarkeHandle_V")
TMS320C2000 Assembler PC v6.4.10 Mon Jul 11 12:58:57 2016

Tools Copyright (c) 1996-2015 Texas Instruments Incorporated
C:\Users\bee25\AppData\Local\Temp\0350410                            PAGE   10

     427                      .dwattr $C$DW$71, DW_AT_TI_symbol_name("_clarkeHandle_V")
     428                      .dwattr $C$DW$71, DW_AT_location[DW_OP_addr _clarkeHandle_V]
     429                      .dwattr $C$DW$71, DW_AT_type(*$C$DW$T$211)
     430                      .dwattr $C$DW$71, DW_AT_external
     431              
     432              $C$DW$72        .dwtag  DW_TAG_subprogram, DW_AT_name("labs")
     433                      .dwattr $C$DW$72, DW_AT_TI_symbol_name("_labs")
     434                      .dwattr $C$DW$72, DW_AT_type(*$C$DW$T$12)
     435                      .dwattr $C$DW$72, DW_AT_declaration
     436                      .dwattr $C$DW$72, DW_AT_external
     437              $C$DW$73        .dwtag  DW_TAG_formal_parameter
     438                      .dwattr $C$DW$73, DW_AT_type(*$C$DW$T$12)
     439                      .dwendtag $C$DW$72
     440              
     441                      .global _iparkHandle
     442 00000006       _iparkHandle:   .usect  ".ebss",2,1,1
     443              $C$DW$74        .dwtag  DW_TAG_variable, DW_AT_name("iparkHandle")
     444                      .dwattr $C$DW$74, DW_AT_TI_symbol_name("_iparkHandle")
     445                      .dwattr $C$DW$74, DW_AT_location[DW_OP_addr _iparkHandle]
     446                      .dwattr $C$DW$74, DW_AT_type(*$C$DW$T$242)
     447                      .dwattr $C$DW$74, DW_AT_external
     448                      .global _svgen
     449 00000008       _svgen: .usect  ".ebss",2,1,1
     450              $C$DW$75        .dwtag  DW_TAG_variable, DW_AT_name("svgen")
     451                      .dwattr $C$DW$75, DW_AT_TI_symbol_name("_svgen")
     452                      .dwattr $C$DW$75, DW_AT_location[DW_OP_addr _svgen]
     453                      .dwattr $C$DW$75, DW_AT_type(*$C$DW$T$274)
     454                      .dwattr $C$DW$75, DW_AT_external
     455                      .global _clarkeHandle_I
     456 0000000a       _clarkeHandle_I:        .usect  ".ebss",2,1,1
     457              $C$DW$76        .dwtag  DW_TAG_variable, DW_AT_name("clarkeHandle_I")
     458                      .dwattr $C$DW$76, DW_AT_TI_symbol_name("_clarkeHandle_I")
     459                      .dwattr $C$DW$76, DW_AT_location[DW_OP_addr _clarkeHandle_I]
     460                      .dwattr $C$DW$76, DW_AT_type(*$C$DW$T$211)
     461                      .dwattr $C$DW$76, DW_AT_external
     462              
     463              $C$DW$77        .dwtag  DW_TAG_subprogram, DW_AT_name("log")
     464                      .dwattr $C$DW$77, DW_AT_TI_symbol_name("_log")
     465                      .dwattr $C$DW$77, DW_AT_type(*$C$DW$T$17)
     466                      .dwattr $C$DW$77, DW_AT_declaration
     467                      .dwattr $C$DW$77, DW_AT_external
     468              $C$DW$78        .dwtag  DW_TAG_formal_parameter
     469                      .dwattr $C$DW$78, DW_AT_type(*$C$DW$T$17)
     470                      .dwendtag $C$DW$77
     471              
     472              
     473              $C$DW$79        .dwtag  DW_TAG_subprogram, DW_AT_name("modf")
     474                      .dwattr $C$DW$79, DW_AT_TI_symbol_name("_modf")
     475                      .dwattr $C$DW$79, DW_AT_type(*$C$DW$T$17)
     476                      .dwattr $C$DW$79, DW_AT_declaration
     477                      .dwattr $C$DW$79, DW_AT_external
     478              $C$DW$80        .dwtag  DW_TAG_formal_parameter
     479                      .dwattr $C$DW$80, DW_AT_type(*$C$DW$T$17)
     480              $C$DW$81        .dwtag  DW_TAG_formal_parameter
     481                      .dwattr $C$DW$81, DW_AT_type(*$C$DW$T$363)
TMS320C2000 Assembler PC v6.4.10 Mon Jul 11 12:58:57 2016

Tools Copyright (c) 1996-2015 Texas Instruments Incorporated
C:\Users\bee25\AppData\Local\Temp\0350410                            PAGE   11

     482                      .dwendtag $C$DW$79
     483              
     484              
     485              $C$DW$82        .dwtag  DW_TAG_subprogram, DW_AT_name("__IQmpy")
     486                      .dwattr $C$DW$82, DW_AT_TI_symbol_name("___IQmpy")
     487                      .dwattr $C$DW$82, DW_AT_type(*$C$DW$T$12)
     488                      .dwattr $C$DW$82, DW_AT_declaration
     489                      .dwattr $C$DW$82, DW_AT_external
     490              $C$DW$83        .dwtag  DW_TAG_formal_parameter
     491                      .dwattr $C$DW$83, DW_AT_type(*$C$DW$T$12)
     492              $C$DW$84        .dwtag  DW_TAG_formal_parameter
     493                      .dwattr $C$DW$84, DW_AT_type(*$C$DW$T$12)
     494              $C$DW$85        .dwtag  DW_TAG_formal_parameter
     495                      .dwattr $C$DW$85, DW_AT_type(*$C$DW$T$10)
     496                      .dwendtag $C$DW$82
     497              
     498                      .global _estHandle
     499 0000000c       _estHandle:     .usect  ".ebss",2,1,1
     500              $C$DW$86        .dwtag  DW_TAG_variable, DW_AT_name("estHandle")
     501                      .dwattr $C$DW$86, DW_AT_TI_symbol_name("_estHandle")
     502                      .dwattr $C$DW$86, DW_AT_location[DW_OP_addr _estHandle]
     503                      .dwattr $C$DW$86, DW_AT_type(*$C$DW$T$190)
     504                      .dwattr $C$DW$86, DW_AT_external
     505              
     506              $C$DW$87        .dwtag  DW_TAG_subprogram, DW_AT_name("EST_init")
     507                      .dwattr $C$DW$87, DW_AT_TI_symbol_name("_EST_init")
     508                      .dwattr $C$DW$87, DW_AT_type(*$C$DW$T$190)
     509                      .dwattr $C$DW$87, DW_AT_declaration
     510                      .dwattr $C$DW$87, DW_AT_external
     511              $C$DW$88        .dwtag  DW_TAG_formal_parameter
     512                      .dwattr $C$DW$88, DW_AT_type(*$C$DW$T$3)
     513              $C$DW$89        .dwtag  DW_TAG_formal_parameter
     514                      .dwattr $C$DW$89, DW_AT_type(*$C$DW$T$214)
     515                      .dwendtag $C$DW$87
     516              
     517              
     518              $C$DW$90        .dwtag  DW_TAG_subprogram, DW_AT_name("__IQsat")
     519                      .dwattr $C$DW$90, DW_AT_TI_symbol_name("___IQsat")
     520                      .dwattr $C$DW$90, DW_AT_type(*$C$DW$T$12)
     521                      .dwattr $C$DW$90, DW_AT_declaration
     522                      .dwattr $C$DW$90, DW_AT_external
     523              $C$DW$91        .dwtag  DW_TAG_formal_parameter
     524                      .dwattr $C$DW$91, DW_AT_type(*$C$DW$T$12)
     525              $C$DW$92        .dwtag  DW_TAG_formal_parameter
     526                      .dwattr $C$DW$92, DW_AT_type(*$C$DW$T$12)
     527              $C$DW$93        .dwtag  DW_TAG_formal_parameter
     528                      .dwattr $C$DW$93, DW_AT_type(*$C$DW$T$12)
     529                      .dwendtag $C$DW$90
     530              
     531                      .global _gFlux_pu_to_Wb_sf
     532 0000000e       _gFlux_pu_to_Wb_sf:     .usect  ".ebss",2,1,1
     533              $C$DW$94        .dwtag  DW_TAG_variable, DW_AT_name("gFlux_pu_to_Wb_sf")
     534                      .dwattr $C$DW$94, DW_AT_TI_symbol_name("_gFlux_pu_to_Wb_sf")
     535                      .dwattr $C$DW$94, DW_AT_location[DW_OP_addr _gFlux_pu_to_Wb_sf]
     536                      .dwattr $C$DW$94, DW_AT_type(*$C$DW$T$47)
TMS320C2000 Assembler PC v6.4.10 Mon Jul 11 12:58:57 2016

Tools Copyright (c) 1996-2015 Texas Instruments Incorporated
C:\Users\bee25\AppData\Local\Temp\0350410                            PAGE   12

     537                      .dwattr $C$DW$94, DW_AT_external
     538                      .global _gFlux_pu_to_VpHz_sf
     539 00000010       _gFlux_pu_to_VpHz_sf:   .usect  ".ebss",2,1,1
     540              $C$DW$95        .dwtag  DW_TAG_variable, DW_AT_name("gFlux_pu_to_VpHz_sf")
     541                      .dwattr $C$DW$95, DW_AT_TI_symbol_name("_gFlux_pu_to_VpHz_sf")
     542                      .dwattr $C$DW$95, DW_AT_location[DW_OP_addr _gFlux_pu_to_VpHz_sf]
     543                      .dwattr $C$DW$95, DW_AT_type(*$C$DW$T$47)
     544                      .dwattr $C$DW$95, DW_AT_external
     545              $C$DW$96        .dwtag  DW_TAG_variable, DW_AT_name("switch_end")
     546                      .dwattr $C$DW$96, DW_AT_TI_symbol_name("_switch_end")
     547                      .dwattr $C$DW$96, DW_AT_type(*$C$DW$T$284)
     548                      .dwattr $C$DW$96, DW_AT_declaration
     549                      .dwattr $C$DW$96, DW_AT_external
     550              $C$DW$97        .dwtag  DW_TAG_variable, DW_AT_name("switch_ram_load")
     551                      .dwattr $C$DW$97, DW_AT_TI_symbol_name("_switch_ram_load")
     552                      .dwattr $C$DW$97, DW_AT_type(*$C$DW$T$284)
     553                      .dwattr $C$DW$97, DW_AT_declaration
     554                      .dwattr $C$DW$97, DW_AT_external
     555                      .global _gSpeed_krpm_to_pu_sf
     556 00000012       _gSpeed_krpm_to_pu_sf:  .usect  ".ebss",2,1,1
     557              $C$DW$98        .dwtag  DW_TAG_variable, DW_AT_name("gSpeed_krpm_to_pu_sf")
     558                      .dwattr $C$DW$98, DW_AT_TI_symbol_name("_gSpeed_krpm_to_pu_sf")
     559                      .dwattr $C$DW$98, DW_AT_location[DW_OP_addr _gSpeed_krpm_to_pu_sf]
     560                      .dwattr $C$DW$98, DW_AT_type(*$C$DW$T$47)
     561                      .dwattr $C$DW$98, DW_AT_external
     562                      .global _gSpeed_hz_to_krpm_sf
     563 00000014       _gSpeed_hz_to_krpm_sf:  .usect  ".ebss",2,1,1
     564              $C$DW$99        .dwtag  DW_TAG_variable, DW_AT_name("gSpeed_hz_to_krpm_sf")
     565                      .dwattr $C$DW$99, DW_AT_TI_symbol_name("_gSpeed_hz_to_krpm_sf")
     566                      .dwattr $C$DW$99, DW_AT_location[DW_OP_addr _gSpeed_hz_to_krpm_sf]
     567                      .dwattr $C$DW$99, DW_AT_type(*$C$DW$T$47)
     568                      .dwattr $C$DW$99, DW_AT_external
     569                      .global _gTorque_Ls_Id_Iq_pu_to_Nm_sf
     570 00000016       _gTorque_Ls_Id_Iq_pu_to_Nm_sf:  .usect  ".ebss",2,1,1
     571              $C$DW$100       .dwtag  DW_TAG_variable, DW_AT_name("gTorque_Ls_Id_Iq_pu_to_Nm_sf")
     572                      .dwattr $C$DW$100, DW_AT_TI_symbol_name("_gTorque_Ls_Id_Iq_pu_to_Nm_sf")
     573                      .dwattr $C$DW$100, DW_AT_location[DW_OP_addr _gTorque_Ls_Id_Iq_pu_to_Nm_sf]
     574                      .dwattr $C$DW$100, DW_AT_type(*$C$DW$T$47)
     575                      .dwattr $C$DW$100, DW_AT_external
     576                      .global _gTorque_Flux_Iq_pu_to_Nm_sf
     577 00000018       _gTorque_Flux_Iq_pu_to_Nm_sf:   .usect  ".ebss",2,1,1
     578              $C$DW$101       .dwtag  DW_TAG_variable, DW_AT_name("gTorque_Flux_Iq_pu_to_Nm_sf")
     579                      .dwattr $C$DW$101, DW_AT_TI_symbol_name("_gTorque_Flux_Iq_pu_to_Nm_sf")
     580                      .dwattr $C$DW$101, DW_AT_location[DW_OP_addr _gTorque_Flux_Iq_pu_to_Nm_sf]
     581                      .dwattr $C$DW$101, DW_AT_type(*$C$DW$T$47)
     582                      .dwattr $C$DW$101, DW_AT_external
     583              $C$DW$102       .dwtag  DW_TAG_variable, DW_AT_name("RamfuncsLoadEnd")
     584                      .dwattr $C$DW$102, DW_AT_TI_symbol_name("_RamfuncsLoadEnd")
     585                      .dwattr $C$DW$102, DW_AT_type(*$C$DW$T$284)
     586                      .dwattr $C$DW$102, DW_AT_declaration
     587                      .dwattr $C$DW$102, DW_AT_external
     588              $C$DW$103       .dwtag  DW_TAG_variable, DW_AT_name("RamfuncsRunStart")
     589                      .dwattr $C$DW$103, DW_AT_TI_symbol_name("_RamfuncsRunStart")
     590                      .dwattr $C$DW$103, DW_AT_type(*$C$DW$T$284)
     591                      .dwattr $C$DW$103, DW_AT_declaration
TMS320C2000 Assembler PC v6.4.10 Mon Jul 11 12:58:57 2016

Tools Copyright (c) 1996-2015 Texas Instruments Incorporated
C:\Users\bee25\AppData\Local\Temp\0350410                            PAGE   13

     592                      .dwattr $C$DW$103, DW_AT_external
     593                      .global _halHandle
     594 00000000       _halHandle:     .usect  "rom_accessed_data",2,1,1
     595              $C$DW$104       .dwtag  DW_TAG_variable, DW_AT_name("halHandle")
     596                      .dwattr $C$DW$104, DW_AT_TI_symbol_name("_halHandle")
     597                      .dwattr $C$DW$104, DW_AT_location[DW_OP_addr _halHandle]
     598                      .dwattr $C$DW$104, DW_AT_type(*$C$DW$T$232)
     599                      .dwattr $C$DW$104, DW_AT_external
     600              $C$DW$105       .dwtag  DW_TAG_variable, DW_AT_name("RamfuncsLoadStart")
     601                      .dwattr $C$DW$105, DW_AT_TI_symbol_name("_RamfuncsLoadStart")
     602                      .dwattr $C$DW$105, DW_AT_type(*$C$DW$T$284)
     603                      .dwattr $C$DW$105, DW_AT_declaration
     604                      .dwattr $C$DW$105, DW_AT_external
     605              $C$DW$106       .dwtag  DW_TAG_variable, DW_AT_name("econst_ram_load")
     606                      .dwattr $C$DW$106, DW_AT_TI_symbol_name("_econst_ram_load")
     607                      .dwattr $C$DW$106, DW_AT_type(*$C$DW$T$284)
     608                      .dwattr $C$DW$106, DW_AT_declaration
     609                      .dwattr $C$DW$106, DW_AT_external
     610              $C$DW$107       .dwtag  DW_TAG_variable, DW_AT_name("switch_start")
     611                      .dwattr $C$DW$107, DW_AT_TI_symbol_name("_switch_start")
     612                      .dwattr $C$DW$107, DW_AT_type(*$C$DW$T$284)
     613                      .dwattr $C$DW$107, DW_AT_declaration
     614                      .dwattr $C$DW$107, DW_AT_external
     615              $C$DW$108       .dwtag  DW_TAG_variable, DW_AT_name("econst_start")
     616                      .dwattr $C$DW$108, DW_AT_TI_symbol_name("_econst_start")
     617                      .dwattr $C$DW$108, DW_AT_type(*$C$DW$T$284)
     618                      .dwattr $C$DW$108, DW_AT_declaration
     619                      .dwattr $C$DW$108, DW_AT_external
     620              $C$DW$109       .dwtag  DW_TAG_variable, DW_AT_name("econst_end")
     621                      .dwattr $C$DW$109, DW_AT_TI_symbol_name("_econst_end")
     622                      .dwattr $C$DW$109, DW_AT_type(*$C$DW$T$284)
     623                      .dwattr $C$DW$109, DW_AT_declaration
     624                      .dwattr $C$DW$109, DW_AT_external
     625              
     626              $C$DW$110       .dwtag  DW_TAG_subprogram, DW_AT_name("CLARKE_init")
     627                      .dwattr $C$DW$110, DW_AT_TI_symbol_name("_CLARKE_init")
     628                      .dwattr $C$DW$110, DW_AT_type(*$C$DW$T$211)
     629                      .dwattr $C$DW$110, DW_AT_declaration
     630                      .dwattr $C$DW$110, DW_AT_external
     631              $C$DW$111       .dwtag  DW_TAG_formal_parameter
     632                      .dwattr $C$DW$111, DW_AT_type(*$C$DW$T$3)
     633              $C$DW$112       .dwtag  DW_TAG_formal_parameter
     634                      .dwattr $C$DW$112, DW_AT_type(*$C$DW$T$214)
     635                      .dwendtag $C$DW$110
     636              
     637              
     638              $C$DW$113       .dwtag  DW_TAG_subprogram, DW_AT_name("PID_init")
     639                      .dwattr $C$DW$113, DW_AT_TI_symbol_name("_PID_init")
     640                      .dwattr $C$DW$113, DW_AT_type(*$C$DW$T$263)
     641                      .dwattr $C$DW$113, DW_AT_declaration
     642                      .dwattr $C$DW$113, DW_AT_external
     643              $C$DW$114       .dwtag  DW_TAG_formal_parameter
     644                      .dwattr $C$DW$114, DW_AT_type(*$C$DW$T$3)
     645              $C$DW$115       .dwtag  DW_TAG_formal_parameter
     646                      .dwattr $C$DW$115, DW_AT_type(*$C$DW$T$214)
TMS320C2000 Assembler PC v6.4.10 Mon Jul 11 12:58:57 2016

Tools Copyright (c) 1996-2015 Texas Instruments Incorporated
C:\Users\bee25\AppData\Local\Temp\0350410                            PAGE   14

     647                      .dwendtag $C$DW$113
     648              
     649              
     650              $C$DW$116       .dwtag  DW_TAG_subprogram, DW_AT_name("EST_getLs_q_pu")
     651                      .dwattr $C$DW$116, DW_AT_TI_symbol_name("_EST_getLs_q_pu")
     652                      .dwattr $C$DW$116, DW_AT_type(*$C$DW$T$47)
     653                      .dwattr $C$DW$116, DW_AT_declaration
     654                      .dwattr $C$DW$116, DW_AT_external
     655              $C$DW$117       .dwtag  DW_TAG_formal_parameter
     656                      .dwattr $C$DW$117, DW_AT_type(*$C$DW$T$190)
     657                      .dwendtag $C$DW$116
     658              
     659              
     660              $C$DW$118       .dwtag  DW_TAG_subprogram, DW_AT_name("SVGEN_init")
     661                      .dwattr $C$DW$118, DW_AT_TI_symbol_name("_SVGEN_init")
     662                      .dwattr $C$DW$118, DW_AT_type(*$C$DW$T$276)
     663                      .dwattr $C$DW$118, DW_AT_declaration
     664                      .dwattr $C$DW$118, DW_AT_external
     665              $C$DW$119       .dwtag  DW_TAG_formal_parameter
     666                      .dwattr $C$DW$119, DW_AT_type(*$C$DW$T$3)
     667              $C$DW$120       .dwtag  DW_TAG_formal_parameter
     668                      .dwattr $C$DW$120, DW_AT_type(*$C$DW$T$214)
     669                      .dwendtag $C$DW$118
     670              
     671              
     672              $C$DW$121       .dwtag  DW_TAG_subprogram, DW_AT_name("EST_getLs_d_H")
     673                      .dwattr $C$DW$121, DW_AT_TI_symbol_name("_EST_getLs_d_H")
     674                      .dwattr $C$DW$121, DW_AT_type(*$C$DW$T$153)
     675                      .dwattr $C$DW$121, DW_AT_declaration
     676                      .dwattr $C$DW$121, DW_AT_external
     677              $C$DW$122       .dwtag  DW_TAG_formal_parameter
     678                      .dwattr $C$DW$122, DW_AT_type(*$C$DW$T$190)
     679                      .dwendtag $C$DW$121
     680              
     681              
     682              $C$DW$123       .dwtag  DW_TAG_subprogram, DW_AT_name("EST_getLs_q_H")
     683                      .dwattr $C$DW$123, DW_AT_TI_symbol_name("_EST_getLs_q_H")
     684                      .dwattr $C$DW$123, DW_AT_type(*$C$DW$T$153)
     685                      .dwattr $C$DW$123, DW_AT_declaration
     686                      .dwattr $C$DW$123, DW_AT_external
     687              $C$DW$124       .dwtag  DW_TAG_formal_parameter
     688                      .dwattr $C$DW$124, DW_AT_type(*$C$DW$T$190)
     689                      .dwendtag $C$DW$123
     690              
     691              
     692              $C$DW$125       .dwtag  DW_TAG_subprogram, DW_AT_name("EST_getLs_d_pu")
     693                      .dwattr $C$DW$125, DW_AT_TI_symbol_name("_EST_getLs_d_pu")
     694                      .dwattr $C$DW$125, DW_AT_type(*$C$DW$T$47)
     695                      .dwattr $C$DW$125, DW_AT_declaration
     696                      .dwattr $C$DW$125, DW_AT_external
     697              $C$DW$126       .dwtag  DW_TAG_formal_parameter
     698                      .dwattr $C$DW$126, DW_AT_type(*$C$DW$T$190)
     699                      .dwendtag $C$DW$125
     700              
     701              
TMS320C2000 Assembler PC v6.4.10 Mon Jul 11 12:58:57 2016

Tools Copyright (c) 1996-2015 Texas Instruments Incorporated
C:\Users\bee25\AppData\Local\Temp\0350410                            PAGE   15

     702              $C$DW$127       .dwtag  DW_TAG_subprogram, DW_AT_name("USER_computeTorque_Flux_Iq_pu_to_Nm_sf")
     703                      .dwattr $C$DW$127, DW_AT_TI_symbol_name("_USER_computeTorque_Flux_Iq_pu_to_Nm_sf")
     704                      .dwattr $C$DW$127, DW_AT_type(*$C$DW$T$47)
     705                      .dwattr $C$DW$127, DW_AT_declaration
     706                      .dwattr $C$DW$127, DW_AT_external
     707              
     708              $C$DW$128       .dwtag  DW_TAG_subprogram, DW_AT_name("USER_computeFlux_pu_to_Wb_sf")
     709                      .dwattr $C$DW$128, DW_AT_TI_symbol_name("_USER_computeFlux_pu_to_Wb_sf")
     710                      .dwattr $C$DW$128, DW_AT_type(*$C$DW$T$47)
     711                      .dwattr $C$DW$128, DW_AT_declaration
     712                      .dwattr $C$DW$128, DW_AT_external
     713              
     714              $C$DW$129       .dwtag  DW_TAG_subprogram, DW_AT_name("EST_getRs_Ohm")
     715                      .dwattr $C$DW$129, DW_AT_TI_symbol_name("_EST_getRs_Ohm")
     716                      .dwattr $C$DW$129, DW_AT_type(*$C$DW$T$153)
     717                      .dwattr $C$DW$129, DW_AT_declaration
     718                      .dwattr $C$DW$129, DW_AT_external
     719              $C$DW$130       .dwtag  DW_TAG_formal_parameter
     720                      .dwattr $C$DW$130, DW_AT_type(*$C$DW$T$190)
     721                      .dwendtag $C$DW$129
     722              
     723              
     724              $C$DW$131       .dwtag  DW_TAG_subprogram, DW_AT_name("USER_computeTorque_Ls_Id_Iq_pu_to_Nm_sf")
     725                      .dwattr $C$DW$131, DW_AT_TI_symbol_name("_USER_computeTorque_Ls_Id_Iq_pu_to_Nm_sf")
     726                      .dwattr $C$DW$131, DW_AT_type(*$C$DW$T$47)
     727                      .dwattr $C$DW$131, DW_AT_declaration
     728                      .dwattr $C$DW$131, DW_AT_external
     729              
     730              $C$DW$132       .dwtag  DW_TAG_subprogram, DW_AT_name("EST_getOneOverDcBus_pu")
     731                      .dwattr $C$DW$132, DW_AT_TI_symbol_name("_EST_getOneOverDcBus_pu")
     732                      .dwattr $C$DW$132, DW_AT_type(*$C$DW$T$47)
     733                      .dwattr $C$DW$132, DW_AT_declaration
     734                      .dwattr $C$DW$132, DW_AT_external
     735              $C$DW$133       .dwtag  DW_TAG_formal_parameter
     736                      .dwattr $C$DW$133, DW_AT_type(*$C$DW$T$190)
     737                      .dwendtag $C$DW$132
     738              
     739              
     740              $C$DW$134       .dwtag  DW_TAG_subprogram, DW_AT_name("EST_getLs_coarse_max_pu")
     741                      .dwattr $C$DW$134, DW_AT_TI_symbol_name("_EST_getLs_coarse_max_pu")
     742                      .dwattr $C$DW$134, DW_AT_type(*$C$DW$T$47)
     743                      .dwattr $C$DW$134, DW_AT_declaration
     744                      .dwattr $C$DW$134, DW_AT_external
     745              $C$DW$135       .dwtag  DW_TAG_formal_parameter
     746                      .dwattr $C$DW$135, DW_AT_type(*$C$DW$T$190)
     747                      .dwendtag $C$DW$134
     748              
     749              
     750              $C$DW$136       .dwtag  DW_TAG_subprogram, DW_AT_name("USER_computeFlux_pu_to_VpHz_sf")
     751                      .dwattr $C$DW$136, DW_AT_TI_symbol_name("_USER_computeFlux_pu_to_VpHz_sf")
     752                      .dwattr $C$DW$136, DW_AT_type(*$C$DW$T$47)
     753                      .dwattr $C$DW$136, DW_AT_declaration
     754                      .dwattr $C$DW$136, DW_AT_external
     755              
     756              $C$DW$137       .dwtag  DW_TAG_subprogram, DW_AT_name("EST_getRr_Ohm")
TMS320C2000 Assembler PC v6.4.10 Mon Jul 11 12:58:57 2016

Tools Copyright (c) 1996-2015 Texas Instruments Incorporated
C:\Users\bee25\AppData\Local\Temp\0350410                            PAGE   16

     757                      .dwattr $C$DW$137, DW_AT_TI_symbol_name("_EST_getRr_Ohm")
     758                      .dwattr $C$DW$137, DW_AT_type(*$C$DW$T$153)
     759                      .dwattr $C$DW$137, DW_AT_declaration
     760                      .dwattr $C$DW$137, DW_AT_external
     761              $C$DW$138       .dwtag  DW_TAG_formal_parameter
     762                      .dwattr $C$DW$138, DW_AT_type(*$C$DW$T$190)
     763                      .dwendtag $C$DW$137
     764              
     765              
     766              $C$DW$139       .dwtag  DW_TAG_subprogram, DW_AT_name("EST_getSpeed_krpm")
     767                      .dwattr $C$DW$139, DW_AT_TI_symbol_name("_EST_getSpeed_krpm")
     768                      .dwattr $C$DW$139, DW_AT_type(*$C$DW$T$47)
     769                      .dwattr $C$DW$139, DW_AT_declaration
     770                      .dwattr $C$DW$139, DW_AT_external
     771              $C$DW$140       .dwtag  DW_TAG_formal_parameter
     772                      .dwattr $C$DW$140, DW_AT_type(*$C$DW$T$190)
     773                      .dwendtag $C$DW$139
     774              
     775              
     776              $C$DW$141       .dwtag  DW_TAG_subprogram, DW_AT_name("EST_getFlux_VpHz")
     777                      .dwattr $C$DW$141, DW_AT_TI_symbol_name("_EST_getFlux_VpHz")
     778                      .dwattr $C$DW$141, DW_AT_type(*$C$DW$T$153)
     779                      .dwattr $C$DW$141, DW_AT_declaration
     780                      .dwattr $C$DW$141, DW_AT_external
     781              $C$DW$142       .dwtag  DW_TAG_formal_parameter
     782                      .dwattr $C$DW$142, DW_AT_type(*$C$DW$T$190)
     783                      .dwendtag $C$DW$141
     784              
     785              
     786              $C$DW$143       .dwtag  DW_TAG_subprogram, DW_AT_name("EST_getAngle_pu")
     787                      .dwattr $C$DW$143, DW_AT_TI_symbol_name("_EST_getAngle_pu")
     788                      .dwattr $C$DW$143, DW_AT_type(*$C$DW$T$47)
     789                      .dwattr $C$DW$143, DW_AT_declaration
     790                      .dwattr $C$DW$143, DW_AT_external
     791              $C$DW$144       .dwtag  DW_TAG_formal_parameter
     792                      .dwattr $C$DW$144, DW_AT_type(*$C$DW$T$190)
     793                      .dwendtag $C$DW$143
     794              
     795              
     796              $C$DW$145       .dwtag  DW_TAG_subprogram, DW_AT_name("EST_getFlux_pu")
     797                      .dwattr $C$DW$145, DW_AT_TI_symbol_name("_EST_getFlux_pu")
     798                      .dwattr $C$DW$145, DW_AT_type(*$C$DW$T$47)
     799                      .dwattr $C$DW$145, DW_AT_declaration
     800                      .dwattr $C$DW$145, DW_AT_external
     801              $C$DW$146       .dwtag  DW_TAG_formal_parameter
     802                      .dwattr $C$DW$146, DW_AT_type(*$C$DW$T$190)
     803                      .dwendtag $C$DW$145
     804              
     805              
     806              $C$DW$147       .dwtag  DW_TAG_subprogram, DW_AT_name("EST_getFm_pu")
     807                      .dwattr $C$DW$147, DW_AT_TI_symbol_name("_EST_getFm_pu")
     808                      .dwattr $C$DW$147, DW_AT_type(*$C$DW$T$47)
     809                      .dwattr $C$DW$147, DW_AT_declaration
     810                      .dwattr $C$DW$147, DW_AT_external
     811              $C$DW$148       .dwtag  DW_TAG_formal_parameter
TMS320C2000 Assembler PC v6.4.10 Mon Jul 11 12:58:57 2016

Tools Copyright (c) 1996-2015 Texas Instruments Incorporated
C:\Users\bee25\AppData\Local\Temp\0350410                            PAGE   17

     812                      .dwattr $C$DW$148, DW_AT_type(*$C$DW$T$190)
     813                      .dwendtag $C$DW$147
     814              
     815              
     816              $C$DW$149       .dwtag  DW_TAG_subprogram, DW_AT_name("IPARK_init")
     817                      .dwattr $C$DW$149, DW_AT_TI_symbol_name("_IPARK_init")
     818                      .dwattr $C$DW$149, DW_AT_type(*$C$DW$T$242)
     819                      .dwattr $C$DW$149, DW_AT_declaration
     820                      .dwattr $C$DW$149, DW_AT_external
     821              $C$DW$150       .dwtag  DW_TAG_formal_parameter
     822                      .dwattr $C$DW$150, DW_AT_type(*$C$DW$T$3)
     823              $C$DW$151       .dwtag  DW_TAG_formal_parameter
     824                      .dwattr $C$DW$151, DW_AT_type(*$C$DW$T$214)
     825                      .dwendtag $C$DW$149
     826              
     827              
     828              $C$DW$152       .dwtag  DW_TAG_subprogram, DW_AT_name("_IQ30toF")
     829                      .dwattr $C$DW$152, DW_AT_TI_symbol_name("__IQ30toF")
     830                      .dwattr $C$DW$152, DW_AT_type(*$C$DW$T$16)
     831                      .dwattr $C$DW$152, DW_AT_declaration
     832                      .dwattr $C$DW$152, DW_AT_external
     833              $C$DW$153       .dwtag  DW_TAG_formal_parameter
     834                      .dwattr $C$DW$153, DW_AT_type(*$C$DW$T$12)
     835                      .dwendtag $C$DW$152
     836              
     837              
     838              $C$DW$154       .dwtag  DW_TAG_subprogram, DW_AT_name("pow")
     839                      .dwattr $C$DW$154, DW_AT_TI_symbol_name("_pow")
     840                      .dwattr $C$DW$154, DW_AT_type(*$C$DW$T$17)
     841                      .dwattr $C$DW$154, DW_AT_declaration
     842                      .dwattr $C$DW$154, DW_AT_external
     843              $C$DW$155       .dwtag  DW_TAG_formal_parameter
     844                      .dwattr $C$DW$155, DW_AT_type(*$C$DW$T$17)
     845              $C$DW$156       .dwtag  DW_TAG_formal_parameter
     846                      .dwattr $C$DW$156, DW_AT_type(*$C$DW$T$17)
     847                      .dwendtag $C$DW$154
     848              
     849              
     850              $C$DW$157       .dwtag  DW_TAG_subprogram, DW_AT_name("_IQ24sinPU")
     851                      .dwattr $C$DW$157, DW_AT_TI_symbol_name("__IQ24sinPU")
     852                      .dwattr $C$DW$157, DW_AT_type(*$C$DW$T$12)
     853                      .dwattr $C$DW$157, DW_AT_declaration
     854                      .dwattr $C$DW$157, DW_AT_external
     855              $C$DW$158       .dwtag  DW_TAG_formal_parameter
     856                      .dwattr $C$DW$158, DW_AT_type(*$C$DW$T$12)
     857                      .dwendtag $C$DW$157
     858              
     859              
     860              $C$DW$159       .dwtag  DW_TAG_subprogram, DW_AT_name("_IQ24sqrt")
     861                      .dwattr $C$DW$159, DW_AT_TI_symbol_name("__IQ24sqrt")
     862                      .dwattr $C$DW$159, DW_AT_type(*$C$DW$T$12)
     863                      .dwattr $C$DW$159, DW_AT_declaration
     864                      .dwattr $C$DW$159, DW_AT_external
     865              $C$DW$160       .dwtag  DW_TAG_formal_parameter
     866                      .dwattr $C$DW$160, DW_AT_type(*$C$DW$T$12)
TMS320C2000 Assembler PC v6.4.10 Mon Jul 11 12:58:57 2016

Tools Copyright (c) 1996-2015 Texas Instruments Incorporated
C:\Users\bee25\AppData\Local\Temp\0350410                            PAGE   18

     867                      .dwendtag $C$DW$159
     868              
     869              
     870              $C$DW$161       .dwtag  DW_TAG_subprogram, DW_AT_name("_IQ24cosPU")
     871                      .dwattr $C$DW$161, DW_AT_TI_symbol_name("__IQ24cosPU")
     872                      .dwattr $C$DW$161, DW_AT_type(*$C$DW$T$12)
     873                      .dwattr $C$DW$161, DW_AT_declaration
     874                      .dwattr $C$DW$161, DW_AT_external
     875              $C$DW$162       .dwtag  DW_TAG_formal_parameter
     876                      .dwattr $C$DW$162, DW_AT_type(*$C$DW$T$12)
     877                      .dwendtag $C$DW$161
     878              
     879              
     880              $C$DW$163       .dwtag  DW_TAG_subprogram, DW_AT_name("HAL_init")
     881                      .dwattr $C$DW$163, DW_AT_TI_symbol_name("_HAL_init")
     882                      .dwattr $C$DW$163, DW_AT_type(*$C$DW$T$232)
     883                      .dwattr $C$DW$163, DW_AT_declaration
     884                      .dwattr $C$DW$163, DW_AT_external
     885              $C$DW$164       .dwtag  DW_TAG_formal_parameter
     886                      .dwattr $C$DW$164, DW_AT_type(*$C$DW$T$3)
     887              $C$DW$165       .dwtag  DW_TAG_formal_parameter
     888                      .dwattr $C$DW$165, DW_AT_type(*$C$DW$T$214)
     889                      .dwendtag $C$DW$163
     890              
     891              
     892              $C$DW$166       .dwtag  DW_TAG_subprogram, DW_AT_name("EST_getIdRated")
     893                      .dwattr $C$DW$166, DW_AT_TI_symbol_name("_EST_getIdRated")
     894                      .dwattr $C$DW$166, DW_AT_type(*$C$DW$T$153)
     895                      .dwattr $C$DW$166, DW_AT_declaration
     896                      .dwattr $C$DW$166, DW_AT_external
     897              $C$DW$167       .dwtag  DW_TAG_formal_parameter
     898                      .dwattr $C$DW$167, DW_AT_type(*$C$DW$T$190)
     899                      .dwendtag $C$DW$166
     900              
     901                      .global _ipark
     902 0000001a       _ipark: .usect  ".ebss",4,1,1
     903              $C$DW$168       .dwtag  DW_TAG_variable, DW_AT_name("ipark")
     904                      .dwattr $C$DW$168, DW_AT_TI_symbol_name("_ipark")
     905                      .dwattr $C$DW$168, DW_AT_location[DW_OP_addr _ipark]
     906                      .dwattr $C$DW$168, DW_AT_type(*$C$DW$T$239)
     907                      .dwattr $C$DW$168, DW_AT_external
     908                      .global _gVdq_out_pu
     909 0000001e       _gVdq_out_pu:   .usect  ".ebss",4,1,1
     910              $C$DW$169       .dwtag  DW_TAG_variable, DW_AT_name("gVdq_out_pu")
     911                      .dwattr $C$DW$169, DW_AT_TI_symbol_name("_gVdq_out_pu")
     912                      .dwattr $C$DW$169, DW_AT_location[DW_OP_addr _gVdq_out_pu]
     913                      .dwattr $C$DW$169, DW_AT_type(*$C$DW$T$246)
     914                      .dwattr $C$DW$169, DW_AT_external
     915                      .global _gIdq_pu
     916 00000022       _gIdq_pu:       .usect  ".ebss",4,1,1
     917              $C$DW$170       .dwtag  DW_TAG_variable, DW_AT_name("gIdq_pu")
     918                      .dwattr $C$DW$170, DW_AT_TI_symbol_name("_gIdq_pu")
     919                      .dwattr $C$DW$170, DW_AT_location[DW_OP_addr _gIdq_pu]
     920                      .dwattr $C$DW$170, DW_AT_type(*$C$DW$T$246)
     921                      .dwattr $C$DW$170, DW_AT_external
TMS320C2000 Assembler PC v6.4.10 Mon Jul 11 12:58:57 2016

Tools Copyright (c) 1996-2015 Texas Instruments Incorporated
C:\Users\bee25\AppData\Local\Temp\0350410                            PAGE   19

     922                      .global _gIdq_ref_pu
     923 00000026       _gIdq_ref_pu:   .usect  ".ebss",4,1,1
     924              $C$DW$171       .dwtag  DW_TAG_variable, DW_AT_name("gIdq_ref_pu")
     925                      .dwattr $C$DW$171, DW_AT_TI_symbol_name("_gIdq_ref_pu")
     926                      .dwattr $C$DW$171, DW_AT_location[DW_OP_addr _gIdq_ref_pu]
     927                      .dwattr $C$DW$171, DW_AT_type(*$C$DW$T$246)
     928                      .dwattr $C$DW$171, DW_AT_external
     929                      .global _pidHandle
     930 0000002a       _pidHandle:     .usect  ".ebss",6,1,1
     931              $C$DW$172       .dwtag  DW_TAG_variable, DW_AT_name("pidHandle")
     932                      .dwattr $C$DW$172, DW_AT_TI_symbol_name("_pidHandle")
     933                      .dwattr $C$DW$172, DW_AT_location[DW_OP_addr _pidHandle]
     934                      .dwattr $C$DW$172, DW_AT_type(*$C$DW$T$265)
     935                      .dwattr $C$DW$172, DW_AT_external
     936                      .global _gOffsets_V_pu
     937 00000030       _gOffsets_V_pu: .usect  ".ebss",6,1,1
     938              $C$DW$173       .dwtag  DW_TAG_variable, DW_AT_name("gOffsets_V_pu")
     939                      .dwattr $C$DW$173, DW_AT_TI_symbol_name("_gOffsets_V_pu")
     940                      .dwattr $C$DW$173, DW_AT_location[DW_OP_addr _gOffsets_V_pu]
     941                      .dwattr $C$DW$173, DW_AT_type(*$C$DW$T$98)
     942                      .dwattr $C$DW$173, DW_AT_external
     943                      .global _clarke_I
     944 00000036       _clarke_I:      .usect  ".ebss",6,1,1
     945              $C$DW$174       .dwtag  DW_TAG_variable, DW_AT_name("clarke_I")
     946                      .dwattr $C$DW$174, DW_AT_TI_symbol_name("_clarke_I")
     947                      .dwattr $C$DW$174, DW_AT_location[DW_OP_addr _clarke_I]
     948                      .dwattr $C$DW$174, DW_AT_type(*$C$DW$T$209)
     949                      .dwattr $C$DW$174, DW_AT_external
     950                      .global _clarke_V
     951 00000040       _clarke_V:      .usect  ".ebss",6,1,1
     952              $C$DW$175       .dwtag  DW_TAG_variable, DW_AT_name("clarke_V")
     953                      .dwattr $C$DW$175, DW_AT_TI_symbol_name("_clarke_V")
     954                      .dwattr $C$DW$175, DW_AT_location[DW_OP_addr _clarke_V]
     955                      .dwattr $C$DW$175, DW_AT_type(*$C$DW$T$209)
     956                      .dwattr $C$DW$175, DW_AT_external
     957                      .global _gOffsets_I_pu
     958 00000046       _gOffsets_I_pu: .usect  ".ebss",6,1,1
     959              $C$DW$176       .dwtag  DW_TAG_variable, DW_AT_name("gOffsets_I_pu")
     960                      .dwattr $C$DW$176, DW_AT_TI_symbol_name("_gOffsets_I_pu")
     961                      .dwattr $C$DW$176, DW_AT_location[DW_OP_addr _gOffsets_I_pu]
     962                      .dwattr $C$DW$176, DW_AT_type(*$C$DW$T$98)
     963                      .dwattr $C$DW$176, DW_AT_external
     964                      .global _gPwmData
     965 0000004c       _gPwmData:      .usect  ".ebss",6,1,1
     966              $C$DW$177       .dwtag  DW_TAG_variable, DW_AT_name("gPwmData")
     967                      .dwattr $C$DW$177, DW_AT_TI_symbol_name("_gPwmData")
     968                      .dwattr $C$DW$177, DW_AT_location[DW_OP_addr _gPwmData]
     969                      .dwattr $C$DW$177, DW_AT_type(*$C$DW$T$236)
     970                      .dwattr $C$DW$177, DW_AT_external
     971                      .global _gAdcData
     972 00000052       _gAdcData:      .usect  ".ebss",16,1,1
     973              $C$DW$178       .dwtag  DW_TAG_variable, DW_AT_name("gAdcData")
     974                      .dwattr $C$DW$178, DW_AT_TI_symbol_name("_gAdcData")
     975                      .dwattr $C$DW$178, DW_AT_location[DW_OP_addr _gAdcData]
     976                      .dwattr $C$DW$178, DW_AT_type(*$C$DW$T$129)
TMS320C2000 Assembler PC v6.4.10 Mon Jul 11 12:58:57 2016

Tools Copyright (c) 1996-2015 Texas Instruments Incorporated
C:\Users\bee25\AppData\Local\Temp\0350410                            PAGE   20

     977                      .dwattr $C$DW$178, DW_AT_external
     978                      .global _gDrvSpi8301Vars
     979 00000062       _gDrvSpi8301Vars:       .usect  ".ebss",24,1,0
     980              $C$DW$179       .dwtag  DW_TAG_variable, DW_AT_name("gDrvSpi8301Vars")
     981                      .dwattr $C$DW$179, DW_AT_TI_symbol_name("_gDrvSpi8301Vars")
     982                      .dwattr $C$DW$179, DW_AT_location[DW_OP_addr _gDrvSpi8301Vars]
     983                      .dwattr $C$DW$179, DW_AT_type(*$C$DW$T$219)
     984                      .dwattr $C$DW$179, DW_AT_external
     985                      .global _pid
     986 00000080       _pid:   .usect  ".ebss",48,1,1
     987              $C$DW$180       .dwtag  DW_TAG_variable, DW_AT_name("pid")
     988                      .dwattr $C$DW$180, DW_AT_TI_symbol_name("_pid")
     989                      .dwattr $C$DW$180, DW_AT_location[DW_OP_addr _pid]
     990                      .dwattr $C$DW$180, DW_AT_type(*$C$DW$T$260)
     991                      .dwattr $C$DW$180, DW_AT_external
     992                      .global _gMotorVars
     993 000000c0       _gMotorVars:    .usect  ".ebss",104,1,1
     994              $C$DW$181       .dwtag  DW_TAG_variable, DW_AT_name("gMotorVars")
     995                      .dwattr $C$DW$181, DW_AT_TI_symbol_name("_gMotorVars")
     996                      .dwattr $C$DW$181, DW_AT_location[DW_OP_addr _gMotorVars]
     997                      .dwattr $C$DW$181, DW_AT_type(*$C$DW$T$256)
     998                      .dwattr $C$DW$181, DW_AT_external
     999                      .global _gUserParams
    1000 00000040       _gUserParams:   .usect  "rom_accessed_data",172,1,1
    1001              $C$DW$182       .dwtag  DW_TAG_variable, DW_AT_name("gUserParams")
    1002                      .dwattr $C$DW$182, DW_AT_TI_symbol_name("_gUserParams")
    1003                      .dwattr $C$DW$182, DW_AT_location[DW_OP_addr _gUserParams]
    1004                      .dwattr $C$DW$182, DW_AT_type(*$C$DW$T$194)
    1005                      .dwattr $C$DW$182, DW_AT_external
    1006              $C$DW$183       .dwtag  DW_TAG_variable, DW_AT_name("hal")
    1007                      .dwattr $C$DW$183, DW_AT_TI_symbol_name("_hal")
    1008                      .dwattr $C$DW$183, DW_AT_type(*$C$DW$T$229)
    1009                      .dwattr $C$DW$183, DW_AT_declaration
    1010                      .dwattr $C$DW$183, DW_AT_external
    1011              ;       C:\ti\ccsv6\tools\compiler\ti-cgt-c2000_6.4.10\bin\opt2000.exe C:\\Users\\bee25\\AppData\\Local\\Temp
    1012              ;       C:\ti\ccsv6\tools\compiler\ti-cgt-c2000_6.4.10\bin\ac2000.exe -@C:\\Users\\bee25\\AppData\\Local\\Tem
    1013 00000000               .sect   ".text"
    1014                      .clink
    1015                      .global _updateGlobalVariables
    1016              
    1017              $C$DW$184       .dwtag  DW_TAG_subprogram, DW_AT_name("updateGlobalVariables")
    1018                      .dwattr $C$DW$184, DW_AT_low_pc(_updateGlobalVariables)
    1019                      .dwattr $C$DW$184, DW_AT_high_pc(0x00)
    1020                      .dwattr $C$DW$184, DW_AT_TI_symbol_name("_updateGlobalVariables")
    1021                      .dwattr $C$DW$184, DW_AT_external
    1022                      .dwattr $C$DW$184, DW_AT_TI_begin_file("C:/ti/motorware/motorware_1_01_00_16/sw/solutions/instaspin_f
    1023                      .dwattr $C$DW$184, DW_AT_TI_begin_line(0x334)
    1024                      .dwattr $C$DW$184, DW_AT_TI_begin_column(0x06)
    1025                      .dwattr $C$DW$184, DW_AT_TI_max_frame_size(-12)
    1026                      .dwpsn  file "C:/ti/motorware/motorware_1_01_00_16/sw/solutions/instaspin_foc/src/proj_lab11.c",line 
    1027              
    1028                      .dwfde $C$DW$CIE, _updateGlobalVariables
    1029              $C$DW$185       .dwtag  DW_TAG_formal_parameter, DW_AT_name("handle")
    1030                      .dwattr $C$DW$185, DW_AT_TI_symbol_name("_handle")
    1031                      .dwattr $C$DW$185, DW_AT_type(*$C$DW$T$190)
TMS320C2000 Assembler PC v6.4.10 Mon Jul 11 12:58:57 2016

Tools Copyright (c) 1996-2015 Texas Instruments Incorporated
C:\Users\bee25\AppData\Local\Temp\0350410                            PAGE   21

    1032                      .dwattr $C$DW$185, DW_AT_location[DW_OP_reg12]
    1033              
    1034              ;***************************************************************
    1035              ;* FNAME: _updateGlobalVariables        FR SIZE:  10           *
    1036              ;*                                                             *
    1037              ;* FUNCTION ENVIRONMENT                                        *
    1038              ;*                                                             *
    1039              ;* FUNCTION PROPERTIES                                         *
    1040              ;*                            0 Parameter,  4 Auto,  6 SOE     *
    1041              ;***************************************************************
    1042              
    1043              _updateGlobalVariables:
    1044              ;* AR4   assigned to $O$C1
    1045              ;* AR4   assigned to $O$C2
    1046              ;* AR5   assigned to $O$C3
    1047              ;* AR1   assigned to _handle
    1048              $C$DW$186       .dwtag  DW_TAG_variable, DW_AT_name("handle")
    1049                      .dwattr $C$DW$186, DW_AT_TI_symbol_name("_handle")
    1050                      .dwattr $C$DW$186, DW_AT_type(*$C$DW$T$222)
    1051                      .dwattr $C$DW$186, DW_AT_location[DW_OP_reg6]
    1052              $C$DW$187       .dwtag  DW_TAG_variable, DW_AT_name("Flux_pu")
    1053                      .dwattr $C$DW$187, DW_AT_TI_symbol_name("_Flux_pu")
    1054                      .dwattr $C$DW$187, DW_AT_type(*$C$DW$T$47)
    1055                      .dwattr $C$DW$187, DW_AT_location[DW_OP_breg20 -2]
    1056              ;* AR3   assigned to _Id_pu
    1057              $C$DW$188       .dwtag  DW_TAG_variable, DW_AT_name("Id_pu")
    1058                      .dwattr $C$DW$188, DW_AT_TI_symbol_name("_Id_pu")
    1059                      .dwattr $C$DW$188, DW_AT_type(*$C$DW$T$47)
    1060                      .dwattr $C$DW$188, DW_AT_location[DW_OP_reg10]
    1061              ;* AR2   assigned to _Iq_pu
    1062              $C$DW$189       .dwtag  DW_TAG_variable, DW_AT_name("Iq_pu")
    1063                      .dwattr $C$DW$189, DW_AT_TI_symbol_name("_Iq_pu")
    1064                      .dwattr $C$DW$189, DW_AT_type(*$C$DW$T$47)
    1065                      .dwattr $C$DW$189, DW_AT_location[DW_OP_reg8]
    1066              ;* AR7   assigned to _Ld_minus_Lq_pu
    1067              $C$DW$190       .dwtag  DW_TAG_variable, DW_AT_name("Ld_minus_Lq_pu")
    1068                      .dwattr $C$DW$190, DW_AT_TI_symbol_name("_Ld_minus_Lq_pu")
    1069                      .dwattr $C$DW$190, DW_AT_type(*$C$DW$T$47)
    1070                      .dwattr $C$DW$190, DW_AT_location[DW_OP_reg18]
    1071                      .dwcfi  cfa_offset, -2
    1072                      .dwcfi  save_reg_to_mem, 26, 0
    1073 00000000 B2BD          MOVL      *SP++,XAR1            ; [CPU_] 
    1074                      .dwcfi  save_reg_to_mem, 7, 2
    1075                      .dwcfi  cfa_offset, -4
    1076 00000001 AABD          MOVL      *SP++,XAR2            ; [CPU_] 
    1077                      .dwcfi  save_reg_to_mem, 9, 4
    1078                      .dwcfi  cfa_offset, -6
    1079 00000002 A2BD          MOVL      *SP++,XAR3            ; [CPU_] 
    1080                      .dwcfi  save_reg_to_mem, 11, 6
    1081                      .dwcfi  cfa_offset, -8
    1082 00000003 FE04          ADDB      SP,#4                 ; [CPU_U] 
    1083                      .dwcfi  cfa_offset, -12
    1084 00000004 8BA4          MOVL      XAR1,XAR4             ; [CPU_] |821| 
    1085                      .dwpsn  file "C:/ti/motorware/motorware_1_01_00_16/sw/solutions/instaspin_foc/src/proj_lab11.c",line 
    1086              $C$DW$191       .dwtag  DW_TAG_TI_branch
TMS320C2000 Assembler PC v6.4.10 Mon Jul 11 12:58:57 2016

Tools Copyright (c) 1996-2015 Texas Instruments Incorporated
C:\Users\bee25\AppData\Local\Temp\0350410                            PAGE   22

    1087                      .dwattr $C$DW$191, DW_AT_low_pc(0x00)
    1088                      .dwattr $C$DW$191, DW_AT_name("_EST_getSpeed_krpm")
    1089                      .dwattr $C$DW$191, DW_AT_TI_call
    1090 00000005 7640!         LCR       #_EST_getSpeed_krpm   ; [CPU_] |823| 
         00000006 0000 
    1091                      ; call occurs [#_EST_getSpeed_krpm] ; [] |823| 
    1092 00000007 761F-         MOVW      DP,#_gMotorVars+30    ; [CPU_U] 
         00000008 0003 
    1093 00000009 1E1E-         MOVL      @_gMotorVars+30,ACC   ; [CPU_] |823| 
    1094                      .dwpsn  file "C:/ti/motorware/motorware_1_01_00_16/sw/solutions/instaspin_foc/src/proj_lab11.c",line 
    1095 0000000a 8AA1          MOVL      XAR4,XAR1             ; [CPU_] |827| 
    1096              $C$DW$192       .dwtag  DW_TAG_TI_branch
    1097                      .dwattr $C$DW$192, DW_AT_low_pc(0x00)
    1098                      .dwattr $C$DW$192, DW_AT_name("_EST_getFlux_pu")
    1099                      .dwattr $C$DW$192, DW_AT_TI_call
    1100 0000000b 7640!         LCR       #_EST_getFlux_pu      ; [CPU_] |827| 
         0000000c 0000 
    1101                      ; call occurs [#_EST_getFlux_pu] ; [] |827| 
    1102                      .dwpsn  file "C:/ti/motorware/motorware_1_01_00_16/sw/modules/pid/src/32b/pid.h",line 106,column 3,is
    1103 0000000d 8F40-         MOVL      XAR5,#_pidHandle      ; [CPU_U] |106| 
         0000000e 002A 
    1104                      .dwpsn  file "C:/ti/motorware/motorware_1_01_00_16/sw/solutions/instaspin_foc/src/proj_lab11.c",line 
    1105 0000000f 1E42          MOVL      *-SP[2],ACC           ; [CPU_] |827| 
    1106                      .dwpsn  file "C:/ti/motorware/motorware_1_01_00_16/sw/modules/pid/src/32b/pid.h",line 106,column 3,is
    1107 00000010 020A          MOVB      ACC,#10               ; [CPU_] |106| 
    1108 00000011 07D5          ADDL      ACC,*+XAR5[2]         ; [CPU_] |106| 
    1109 00000012 8AA9          MOVL      XAR4,ACC              ; [CPU_] |106| 
    1110 00000013 020A          MOVB      ACC,#10               ; [CPU_] |106| 
    1111 00000014 82C4          MOVL      XAR3,*+XAR4[0]        ; [CPU_] |106| 
    1112 00000015 07E5          ADDL      ACC,*+XAR5[4]         ; [CPU_] |106| 
    1113 00000016 8AA9          MOVL      XAR4,ACC              ; [CPU_] |106| 
    1114 00000017 86C4          MOVL      XAR2,*+XAR4[0]        ; [CPU_] |106| 
    1115                      .dwpsn  file "C:/ti/motorware/motorware_1_01_00_16/sw/solutions/instaspin_foc/src/proj_lab11.c",line 
    1116 00000018 8AA1          MOVL      XAR4,XAR1             ; [CPU_] |830| 
    1117              $C$DW$193       .dwtag  DW_TAG_TI_branch
    1118                      .dwattr $C$DW$193, DW_AT_low_pc(0x00)
    1119                      .dwattr $C$DW$193, DW_AT_name("_EST_getLs_q_pu")
    1120                      .dwattr $C$DW$193, DW_AT_TI_call
    1121 00000019 7640!         LCR       #_EST_getLs_q_pu      ; [CPU_] |830| 
         0000001a 0000 
    1122                      ; call occurs [#_EST_getLs_q_pu] ; [] |830| 
    1123 0000001b 1E44          MOVL      *-SP[4],ACC           ; [CPU_] |830| 
    1124 0000001c 8AA1          MOVL      XAR4,XAR1             ; [CPU_] |830| 
    1125              $C$DW$194       .dwtag  DW_TAG_TI_branch
    1126                      .dwattr $C$DW$194, DW_AT_low_pc(0x00)
    1127                      .dwattr $C$DW$194, DW_AT_name("_EST_getLs_d_pu")
    1128                      .dwattr $C$DW$194, DW_AT_TI_call
    1129 0000001d 7640!         LCR       #_EST_getLs_d_pu      ; [CPU_] |830| 
         0000001e 0000 
    1130                      ; call occurs [#_EST_getLs_d_pu] ; [] |830| 
    1131 0000001f C444          MOVL      XAR6,*-SP[4]          ; [CPU_] |830| 
    1132 00000020 3B01          SETC      SXM                   ; [CPU_] 
    1133 00000021 8742          MOVL      XT,*-SP[2]            ; [CPU_] |830| 
    1134 00000022 761F-         MOVW      DP,#_gTorque_Flux_Iq_pu_to_Nm_sf ; [CPU_U] 
         00000023 0000 
TMS320C2000 Assembler PC v6.4.10 Mon Jul 11 12:58:57 2016

Tools Copyright (c) 1996-2015 Texas Instruments Incorporated
C:\Users\bee25\AppData\Local\Temp\0350410                            PAGE   23

    1135 00000024 03A6          SUBL      ACC,XAR6              ; [CPU_] |830| 
    1136                      .dwpsn  file "C:/ti/motorware/motorware_1_01_00_16/sw/solutions/instaspin_foc/src/proj_lab11.c",line 
    1137 00000025 5605          IMPYL     P,XT,XAR2             ; [CPU_] |844| 
         00000026 00A2 
    1138                      .dwpsn  file "C:/ti/motorware/motorware_1_01_00_16/sw/solutions/instaspin_foc/src/proj_lab11.c",line 
    1139 00000027 8AA1          MOVL      XAR4,XAR1             ; [CPU_] |848| 
    1140                      .dwpsn  file "C:/ti/motorware/motorware_1_01_00_16/sw/solutions/instaspin_foc/src/proj_lab11.c",line 
    1141 00000028 FF45          SFR       ACC,6                 ; [CPU_] |830| 
    1142 00000029 1EA7          MOVL      XAR7,ACC              ; [CPU_] |830| 
    1143                      .dwpsn  file "C:/ti/motorware/motorware_1_01_00_16/sw/solutions/instaspin_foc/src/proj_lab11.c",line 
    1144 0000002a 5663          QMPYL     ACC,XT,XAR2           ; [CPU_] |844| 
         0000002b 00A2 
    1145 0000002c 56A7          LSL64     ACC:P,#8              ; [CPU_] |844| 
    1146 0000002d 1EAC          MOVL      XT,ACC                ; [CPU_] |844| 
    1147 0000002e 5605-         IMPYL     P,XT,@_gTorque_Flux_Iq_pu_to_Nm_sf ; [CPU_] |844| 
         0000002f 0018 
    1148 00000030 5663-         QMPYL     ACC,XT,@_gTorque_Flux_Iq_pu_to_Nm_sf ; [CPU_] |844| 
         00000031 0018 
    1149 00000032 56A7          LSL64     ACC:P,#8              ; [CPU_] |844| 
    1150 00000033 87A7          MOVL      XT,XAR7               ; [CPU_] |844| 
    1151 00000034 1EA6          MOVL      XAR6,ACC              ; [CPU_] |844| 
    1152 00000035 5605          IMPYL     P,XT,XAR3             ; [CPU_] |844| 
         00000036 00A3 
    1153 00000037 5663          QMPYL     ACC,XT,XAR3           ; [CPU_] |844| 
         00000038 00A3 
    1154 00000039 56A7          LSL64     ACC:P,#8              ; [CPU_] |844| 
    1155 0000003a 1EAC          MOVL      XT,ACC                ; [CPU_] |844| 
    1156 0000003b 5605          IMPYL     P,XT,XAR2             ; [CPU_] |844| 
         0000003c 00A2 
    1157 0000003d 5663          QMPYL     ACC,XT,XAR2           ; [CPU_] |844| 
         0000003e 00A2 
    1158 0000003f 56A7          LSL64     ACC:P,#8              ; [CPU_] |844| 
    1159 00000040 1EAC          MOVL      XT,ACC                ; [CPU_] |844| 
    1160 00000041 5605-         IMPYL     P,XT,@_gTorque_Ls_Id_Iq_pu_to_Nm_sf ; [CPU_] |844| 
         00000042 0016 
    1161 00000043 5663-         QMPYL     ACC,XT,@_gTorque_Ls_Id_Iq_pu_to_Nm_sf ; [CPU_] |844| 
         00000044 0016 
    1162 00000045 761F-         MOVW      DP,#_gMotorVars+40    ; [CPU_U] 
         00000046 0003 
    1163 00000047 56A7          LSL64     ACC:P,#8              ; [CPU_] |844| 
    1164 00000048 07A6          ADDL      ACC,XAR6              ; [CPU_] |844| 
    1165 00000049 1E28-         MOVL      @_gMotorVars+40,ACC   ; [CPU_] |844| 
    1166                      .dwpsn  file "C:/ti/motorware/motorware_1_01_00_16/sw/solutions/instaspin_foc/src/proj_lab11.c",line 
    1167              $C$DW$195       .dwtag  DW_TAG_TI_branch
    1168                      .dwattr $C$DW$195, DW_AT_low_pc(0x00)
    1169                      .dwattr $C$DW$195, DW_AT_name("_EST_getIdRated")
    1170                      .dwattr $C$DW$195, DW_AT_TI_call
    1171 0000004a 7640!         LCR       #_EST_getIdRated      ; [CPU_] |848| 
         0000004b 0000 
    1172                      ; call occurs [#_EST_getIdRated] ; [] |848| 
    1173 0000004c 761F-         MOVW      DP,#_gMotorVars+42    ; [CPU_U] 
         0000004d 0003 
    1174 0000004e 1E2A-         MOVL      @_gMotorVars+42,ACC   ; [CPU_] |848| 
    1175                      .dwpsn  file "C:/ti/motorware/motorware_1_01_00_16/sw/solutions/instaspin_foc/src/proj_lab11.c",line 
    1176 0000004f 8AA1          MOVL      XAR4,XAR1             ; [CPU_] |851| 
TMS320C2000 Assembler PC v6.4.10 Mon Jul 11 12:58:57 2016

Tools Copyright (c) 1996-2015 Texas Instruments Incorporated
C:\Users\bee25\AppData\Local\Temp\0350410                            PAGE   24

    1177              $C$DW$196       .dwtag  DW_TAG_TI_branch
    1178                      .dwattr $C$DW$196, DW_AT_low_pc(0x00)
    1179                      .dwattr $C$DW$196, DW_AT_name("_EST_getRr_Ohm")
    1180                      .dwattr $C$DW$196, DW_AT_TI_call
    1181 00000050 7640!         LCR       #_EST_getRr_Ohm       ; [CPU_] |851| 
         00000051 0000 
    1182                      ; call occurs [#_EST_getRr_Ohm] ; [] |851| 
    1183 00000052 761F-         MOVW      DP,#_gMotorVars+44    ; [CPU_U] 
         00000053 0003 
    1184 00000054 1E2C-         MOVL      @_gMotorVars+44,ACC   ; [CPU_] |851| 
    1185                      .dwpsn  file "C:/ti/motorware/motorware_1_01_00_16/sw/solutions/instaspin_foc/src/proj_lab11.c",line 
    1186 00000055 8AA1          MOVL      XAR4,XAR1             ; [CPU_] |854| 
    1187              $C$DW$197       .dwtag  DW_TAG_TI_branch
    1188                      .dwattr $C$DW$197, DW_AT_low_pc(0x00)
    1189                      .dwattr $C$DW$197, DW_AT_name("_EST_getRs_Ohm")
    1190                      .dwattr $C$DW$197, DW_AT_TI_call
    1191 00000056 7640!         LCR       #_EST_getRs_Ohm       ; [CPU_] |854| 
         00000057 0000 
    1192                      ; call occurs [#_EST_getRs_Ohm] ; [] |854| 
    1193 00000058 761F-         MOVW      DP,#_gMotorVars+46    ; [CPU_U] 
         00000059 0003 
    1194 0000005a 1E2E-         MOVL      @_gMotorVars+46,ACC   ; [CPU_] |854| 
    1195                      .dwpsn  file "C:/ti/motorware/motorware_1_01_00_16/sw/solutions/instaspin_foc/src/proj_lab11.c",line 
    1196 0000005b 8AA1          MOVL      XAR4,XAR1             ; [CPU_] |857| 
    1197              $C$DW$198       .dwtag  DW_TAG_TI_branch
    1198                      .dwattr $C$DW$198, DW_AT_low_pc(0x00)
    1199                      .dwattr $C$DW$198, DW_AT_name("_EST_getLs_d_H")
    1200                      .dwattr $C$DW$198, DW_AT_TI_call
    1201 0000005c 7640!         LCR       #_EST_getLs_d_H       ; [CPU_] |857| 
         0000005d 0000 
    1202                      ; call occurs [#_EST_getLs_d_H] ; [] |857| 
    1203 0000005e 761F-         MOVW      DP,#_gMotorVars+50    ; [CPU_U] 
         0000005f 0003 
    1204 00000060 1E32-         MOVL      @_gMotorVars+50,ACC   ; [CPU_] |857| 
    1205                      .dwpsn  file "C:/ti/motorware/motorware_1_01_00_16/sw/solutions/instaspin_foc/src/proj_lab11.c",line 
    1206 00000061 8AA1          MOVL      XAR4,XAR1             ; [CPU_] |860| 
    1207              $C$DW$199       .dwtag  DW_TAG_TI_branch
    1208                      .dwattr $C$DW$199, DW_AT_low_pc(0x00)
    1209                      .dwattr $C$DW$199, DW_AT_name("_EST_getLs_q_H")
    1210                      .dwattr $C$DW$199, DW_AT_TI_call
    1211 00000062 7640!         LCR       #_EST_getLs_q_H       ; [CPU_] |860| 
         00000063 0000 
    1212                      ; call occurs [#_EST_getLs_q_H] ; [] |860| 
    1213 00000064 761F-         MOVW      DP,#_gMotorVars+52    ; [CPU_U] 
         00000065 0003 
    1214 00000066 1E34-         MOVL      @_gMotorVars+52,ACC   ; [CPU_] |860| 
    1215                      .dwpsn  file "C:/ti/motorware/motorware_1_01_00_16/sw/solutions/instaspin_foc/src/proj_lab11.c",line 
    1216 00000067 8AA1          MOVL      XAR4,XAR1             ; [CPU_] |863| 
    1217              $C$DW$200       .dwtag  DW_TAG_TI_branch
    1218                      .dwattr $C$DW$200, DW_AT_low_pc(0x00)
    1219                      .dwattr $C$DW$200, DW_AT_name("_EST_getFlux_VpHz")
    1220                      .dwattr $C$DW$200, DW_AT_TI_call
    1221 00000068 7640!         LCR       #_EST_getFlux_VpHz    ; [CPU_] |863| 
         00000069 0000 
    1222                      ; call occurs [#_EST_getFlux_VpHz] ; [] |863| 
TMS320C2000 Assembler PC v6.4.10 Mon Jul 11 12:58:57 2016

Tools Copyright (c) 1996-2015 Texas Instruments Incorporated
C:\Users\bee25\AppData\Local\Temp\0350410                            PAGE   25

    1223 0000006a 761F-         MOVW      DP,#_gMotorVars+54    ; [CPU_U] 
         0000006b 0003 
    1224 0000006c 1E36-         MOVL      @_gMotorVars+54,ACC   ; [CPU_] |863| 
    1225                      .dwpsn  file "C:/ti/motorware/motorware_1_01_00_16/sw/solutions/instaspin_foc/src/proj_lab11.c",line 
    1226 0000006d 8AA1          MOVL      XAR4,XAR1             ; [CPU_] |866| 
    1227              $C$DW$201       .dwtag  DW_TAG_TI_branch
    1228                      .dwattr $C$DW$201, DW_AT_low_pc(0x00)
    1229                      .dwattr $C$DW$201, DW_AT_name("_EST_getFlux_pu")
    1230                      .dwattr $C$DW$201, DW_AT_TI_call
    1231 0000006e 7640!         LCR       #_EST_getFlux_pu      ; [CPU_] |866| 
         0000006f 0000 
    1232                      ; call occurs [#_EST_getFlux_pu] ; [] |866| 
    1233 00000070 1EAC          MOVL      XT,ACC                ; [CPU_] |866| 
    1234 00000071 761F-         MOVW      DP,#_gFlux_pu_to_Wb_sf ; [CPU_U] 
         00000072 0000 
    1235                      .dwpsn  file "C:/ti/motorware/motorware_1_01_00_16/sw/solutions/instaspin_foc/src/proj_lab11.c",line 
    1236 00000073 8AA1          MOVL      XAR4,XAR1             ; [CPU_] |869| 
    1237                      .dwpsn  file "C:/ti/motorware/motorware_1_01_00_16/sw/solutions/instaspin_foc/src/proj_lab11.c",line 
    1238 00000074 5605-         IMPYL     P,XT,@_gFlux_pu_to_Wb_sf ; [CPU_] |866| 
         00000075 000E 
    1239 00000076 5663-         QMPYL     ACC,XT,@_gFlux_pu_to_Wb_sf ; [CPU_] |866| 
         00000077 000E 
    1240 00000078 761F-         MOVW      DP,#_gMotorVars+38    ; [CPU_U] 
         00000079 0003 
    1241 0000007a 56A7          LSL64     ACC:P,#8              ; [CPU_] |866| 
    1242 0000007b 1E26-         MOVL      @_gMotorVars+38,ACC   ; [CPU_] |866| 
    1243                      .dwpsn  file "C:/ti/motorware/motorware_1_01_00_16/sw/solutions/instaspin_foc/src/proj_lab11.c",line 
    1244              $C$DW$202       .dwtag  DW_TAG_TI_branch
    1245                      .dwattr $C$DW$202, DW_AT_low_pc(0x00)
    1246                      .dwattr $C$DW$202, DW_AT_name("_EST_getState")
    1247                      .dwattr $C$DW$202, DW_AT_TI_call
    1248 0000007c 7640!         LCR       #_EST_getState        ; [CPU_] |869| 
         0000007d 0000 
    1249                      ; call occurs [#_EST_getState] ; [] |869| 
    1250 0000007e 761F-         MOVW      DP,#_gMotorVars+11    ; [CPU_U] 
         0000007f 0003 
    1251                      .dwpsn  file "C:/ti/motorware/motorware_1_01_00_16/sw/solutions/instaspin_foc/src/proj_lab11.c",line 
    1252 00000080 8F27          MOVL      XAR4,#2583691         ; [CPU_U] |872| 
         00000081 6C8B 
    1253                      .dwpsn  file "C:/ti/motorware/motorware_1_01_00_16/sw/solutions/instaspin_foc/src/proj_lab11.c",line 
    1254 00000082 960B-         MOV       @_gMotorVars+11,AL    ; [CPU_] |869| 
    1255 00000083 761F-         MOVW      DP,#_gAdcData+12      ; [CPU_U] 
         00000084 0001 
    1256                      .dwpsn  file "C:/ti/motorware/motorware_1_01_00_16/sw/solutions/instaspin_foc/src/proj_lab11.c",line 
    1257 00000085 871E-         MOVL      XT,@_gAdcData+12      ; [CPU_] |872| 
    1258 00000086 761F-         MOVW      DP,#_gMotorVars+84    ; [CPU_U] 
         00000087 0004 
    1259 00000088 5663          QMPYL     ACC,XT,XAR4           ; [CPU_] |872| 
         00000089 00A4 
    1260 0000008a 5605          IMPYL     P,XT,XAR4             ; [CPU_] |872| 
         0000008b 00A4 
    1261                      .dwpsn  file "C:/ti/motorware/motorware_1_01_00_16/sw/solutions/instaspin_foc/src/proj_lab11.c",line 
    1262 0000008c 8F00-         MOVL      XAR4,#_gVdq_out_pu    ; [CPU_U] |876| 
         0000008d 001E 
    1263                      .dwpsn  file "C:/ti/motorware/motorware_1_01_00_16/sw/solutions/instaspin_foc/src/proj_lab11.c",line 
TMS320C2000 Assembler PC v6.4.10 Mon Jul 11 12:58:57 2016

Tools Copyright (c) 1996-2015 Texas Instruments Incorporated
C:\Users\bee25\AppData\Local\Temp\0350410                            PAGE   26

    1264 0000008e 56A7          LSL64     ACC:P,#8              ; [CPU_] |872| 
    1265 0000008f 1E14-         MOVL      @_gMotorVars+84,ACC   ; [CPU_] |872| 
    1266                      .dwpsn  file "C:/ti/motorware/motorware_1_01_00_16/sw/solutions/instaspin_foc/src/proj_lab11.c",line 
    1267 00000090 06C4          MOVL      ACC,*+XAR4[0]         ; [CPU_] |876| 
    1268 00000091 1E0C-         MOVL      @_gMotorVars+76,ACC   ; [CPU_] |876| 
    1269                      .dwpsn  file "C:/ti/motorware/motorware_1_01_00_16/sw/solutions/instaspin_foc/src/proj_lab11.c",line 
    1270 00000092 06D4          MOVL      ACC,*+XAR4[2]         ; [CPU_] |877| 
    1271 00000093 1E0E-         MOVL      @_gMotorVars+78,ACC   ; [CPU_] |877| 
    1272                      .dwpsn  file "C:/ti/motorware/motorware_1_01_00_16/sw/solutions/instaspin_foc/src/proj_lab11.c",line 
    1273 00000094 870C-         MOVL      XT,@_gMotorVars+76    ; [CPU_] |880| 
    1274 00000095 5605-         IMPYL     P,XT,@_gMotorVars+76  ; [CPU_] |880| 
         00000096 000C 
    1275 00000097 5663-         QMPYL     ACC,XT,@_gMotorVars+76 ; [CPU_] |880| 
         00000098 000C 
    1276 00000099 56A7          LSL64     ACC:P,#8              ; [CPU_] |880| 
    1277 0000009a 1EA6          MOVL      XAR6,ACC              ; [CPU_] |880| 
    1278 0000009b 870E-         MOVL      XT,@_gMotorVars+78    ; [CPU_] |880| 
    1279 0000009c 5605-         IMPYL     P,XT,@_gMotorVars+78  ; [CPU_] |880| 
         0000009d 000E 
    1280 0000009e 5663-         QMPYL     ACC,XT,@_gMotorVars+78 ; [CPU_] |880| 
         0000009f 000E 
    1281 000000a0 56A7          LSL64     ACC:P,#8              ; [CPU_] |880| 
    1282 000000a1 07A6          ADDL      ACC,XAR6              ; [CPU_] |880| 
    1283              $C$DW$203       .dwtag  DW_TAG_TI_branch
    1284                      .dwattr $C$DW$203, DW_AT_low_pc(0x00)
    1285                      .dwattr $C$DW$203, DW_AT_name("__IQ24sqrt")
    1286                      .dwattr $C$DW$203, DW_AT_TI_call
    1287 000000a2 7640!         LCR       #__IQ24sqrt           ; [CPU_] |880| 
         000000a3 0000 
    1288                      ; call occurs [#__IQ24sqrt] ; [] |880| 
    1289 000000a4 761F-         MOVW      DP,#_gMotorVars+80    ; [CPU_U] 
         000000a5 0004 
    1290                      .dwpsn  file "C:/ti/motorware/motorware_1_01_00_16/sw/solutions/instaspin_foc/src/proj_lab11.c",line 
    1291 000000a6 8F00-         MOVL      XAR4,#_gIdq_pu        ; [CPU_U] |884| 
         000000a7 0022 
    1292                      .dwpsn  file "C:/ti/motorware/motorware_1_01_00_16/sw/solutions/instaspin_foc/src/proj_lab11.c",line 
    1293 000000a8 1E10-         MOVL      @_gMotorVars+80,ACC   ; [CPU_] |880| 
    1294                      .dwpsn  file "C:/ti/motorware/motorware_1_01_00_16/sw/solutions/instaspin_foc/src/proj_lab11.c",line 
    1295 000000a9 FF2F          MOV       ACC,#10240 << 15      ; [CPU_] |884| 
         000000aa 2800 
    1296 000000ab 87C4          MOVL      XT,*+XAR4[0]          ; [CPU_] |884| 
    1297 000000ac 5605          IMPYL     P,XT,ACC              ; [CPU_] |884| 
         000000ad 00A9 
    1298 000000ae 5663          QMPYL     ACC,XT,ACC            ; [CPU_] |884| 
         000000af 00A9 
    1299 000000b0 56A7          LSL64     ACC:P,#8              ; [CPU_] |884| 
    1300 000000b1 1E16-         MOVL      @_gMotorVars+86,ACC   ; [CPU_] |884| 
    1301                      .dwpsn  file "C:/ti/motorware/motorware_1_01_00_16/sw/solutions/instaspin_foc/src/proj_lab11.c",line 
    1302 000000b2 FF2F          MOV       ACC,#10240 << 15      ; [CPU_] |886| 
         000000b3 2800 
    1303 000000b4 87D4          MOVL      XT,*+XAR4[2]          ; [CPU_] |886| 
    1304 000000b5 5605          IMPYL     P,XT,ACC              ; [CPU_] |886| 
         000000b6 00A9 
    1305 000000b7 5663          QMPYL     ACC,XT,ACC            ; [CPU_] |886| 
         000000b8 00A9 
TMS320C2000 Assembler PC v6.4.10 Mon Jul 11 12:58:57 2016

Tools Copyright (c) 1996-2015 Texas Instruments Incorporated
C:\Users\bee25\AppData\Local\Temp\0350410                            PAGE   27

    1306 000000b9 56A7          LSL64     ACC:P,#8              ; [CPU_] |886| 
    1307 000000ba 1E18-         MOVL      @_gMotorVars+88,ACC   ; [CPU_] |886| 
    1308                      .dwpsn  file "C:/ti/motorware/motorware_1_01_00_16/sw/solutions/instaspin_foc/src/proj_lab11.c",line 
    1309 000000bb 8716-         MOVL      XT,@_gMotorVars+86    ; [CPU_] |890| 
    1310 000000bc 5605-         IMPYL     P,XT,@_gMotorVars+86  ; [CPU_] |890| 
         000000bd 0016 
    1311 000000be 5663-         QMPYL     ACC,XT,@_gMotorVars+86 ; [CPU_] |890| 
         000000bf 0016 
    1312 000000c0 56A7          LSL64     ACC:P,#8              ; [CPU_] |890| 
    1313 000000c1 8718-         MOVL      XT,@_gMotorVars+88    ; [CPU_] |890| 
    1314 000000c2 1EA6          MOVL      XAR6,ACC              ; [CPU_] |890| 
    1315 000000c3 5605-         IMPYL     P,XT,@_gMotorVars+88  ; [CPU_] |890| 
         000000c4 0018 
    1316 000000c5 5663-         QMPYL     ACC,XT,@_gMotorVars+88 ; [CPU_] |890| 
         000000c6 0018 
    1317 000000c7 56A7          LSL64     ACC:P,#8              ; [CPU_] |890| 
    1318 000000c8 07A6          ADDL      ACC,XAR6              ; [CPU_] |890| 
    1319              $C$DW$204       .dwtag  DW_TAG_TI_branch
    1320                      .dwattr $C$DW$204, DW_AT_low_pc(0x00)
    1321                      .dwattr $C$DW$204, DW_AT_name("__IQ24sqrt")
    1322                      .dwattr $C$DW$204, DW_AT_TI_call
    1323 000000c9 7640!         LCR       #__IQ24sqrt           ; [CPU_] |890| 
         000000ca 0000 
    1324                      ; call occurs [#__IQ24sqrt] ; [] |890| 
    1325 000000cb FE84          SUBB      SP,#4                 ; [CPU_U] 
    1326                      .dwcfi  cfa_offset, -8
    1327 000000cc 82BE          MOVL      XAR3,*--SP            ; [CPU_] 
    1328                      .dwcfi  cfa_offset, -6
    1329                      .dwcfi  restore_reg, 11
    1330 000000cd 86BE          MOVL      XAR2,*--SP            ; [CPU_] 
    1331                      .dwcfi  cfa_offset, -4
    1332                      .dwcfi  restore_reg, 9
    1333 000000ce 8BBE          MOVL      XAR1,*--SP            ; [CPU_] 
    1334                      .dwcfi  cfa_offset, -2
    1335                      .dwcfi  restore_reg, 7
    1336 000000cf 761F-         MOVW      DP,#_gMotorVars+90    ; [CPU_U] 
         000000d0 0004 
    1337 000000d1 1E1A-         MOVL      @_gMotorVars+90,ACC   ; [CPU_] |890| 
    1338              $C$DW$205       .dwtag  DW_TAG_TI_branch
    1339                      .dwattr $C$DW$205, DW_AT_low_pc(0x00)
    1340                      .dwattr $C$DW$205, DW_AT_TI_return
    1341 000000d2 0006          LRETR     ; [CPU_] 
    1342                      ; return occurs ; [] 
    1343                      .dwattr $C$DW$184, DW_AT_TI_end_file("C:/ti/motorware/motorware_1_01_00_16/sw/solutions/instaspin_foc
    1344                      .dwattr $C$DW$184, DW_AT_TI_end_line(0x37e)
    1345                      .dwattr $C$DW$184, DW_AT_TI_end_column(0x01)
    1346                      .dwendentry
    1347                      .dwendtag $C$DW$184
    1348              
    1349 000000d3               .sect   ".text"
    1350                      .clink
    1351                      .global _softwareUpdate1p6
    1352              
    1353              $C$DW$206       .dwtag  DW_TAG_subprogram, DW_AT_name("softwareUpdate1p6")
    1354                      .dwattr $C$DW$206, DW_AT_low_pc(_softwareUpdate1p6)
TMS320C2000 Assembler PC v6.4.10 Mon Jul 11 12:58:57 2016

Tools Copyright (c) 1996-2015 Texas Instruments Incorporated
C:\Users\bee25\AppData\Local\Temp\0350410                            PAGE   28

    1355                      .dwattr $C$DW$206, DW_AT_high_pc(0x00)
    1356                      .dwattr $C$DW$206, DW_AT_TI_symbol_name("_softwareUpdate1p6")
    1357                      .dwattr $C$DW$206, DW_AT_external
    1358                      .dwattr $C$DW$206, DW_AT_TI_begin_file("C:/ti/motorware/motorware_1_01_00_16/sw/solutions/instaspin_f
    1359                      .dwattr $C$DW$206, DW_AT_TI_begin_line(0x2e0)
    1360                      .dwattr $C$DW$206, DW_AT_TI_begin_column(0x06)
    1361                      .dwattr $C$DW$206, DW_AT_TI_max_frame_size(-20)
    1362                      .dwpsn  file "C:/ti/motorware/motorware_1_01_00_16/sw/solutions/instaspin_foc/src/proj_lab11.c",line 
    1363              
    1364                      .dwfde $C$DW$CIE, _softwareUpdate1p6
    1365              $C$DW$207       .dwtag  DW_TAG_formal_parameter, DW_AT_name("handle")
    1366                      .dwattr $C$DW$207, DW_AT_TI_symbol_name("_handle")
    1367                      .dwattr $C$DW$207, DW_AT_type(*$C$DW$T$190)
    1368                      .dwattr $C$DW$207, DW_AT_location[DW_OP_reg12]
    1369              
    1370              ;***************************************************************
    1371              ;* FNAME: _softwareUpdate1p6            FR SIZE:  18           *
    1372              ;*                                                             *
    1373              ;* FUNCTION ENVIRONMENT                                        *
    1374              ;*                                                             *
    1375              ;* FUNCTION PROPERTIES                                         *
    1376              ;*                            2 Parameter, 10 Auto,  6 SOE     *
    1377              ;***************************************************************
    1378              
    1379              _softwareUpdate1p6:
    1380              ;* AR1   assigned to $O$C2
    1381              ;* AL    assigned to _ceil_result
    1382              $C$DW$208       .dwtag  DW_TAG_variable, DW_AT_name("ceil_result")
    1383                      .dwattr $C$DW$208, DW_AT_TI_symbol_name("_ceil_result")
    1384                      .dwattr $C$DW$208, DW_AT_type(*$C$DW$T$17)
    1385                      .dwattr $C$DW$208, DW_AT_location[DW_OP_reg0]
    1386              $C$DW$209       .dwtag  DW_TAG_variable, DW_AT_name("ceil_y")
    1387                      .dwattr $C$DW$209, DW_AT_TI_symbol_name("_ceil_y")
    1388                      .dwattr $C$DW$209, DW_AT_type(*$C$DW$T$17)
    1389                      .dwattr $C$DW$209, DW_AT_location[DW_OP_breg20 -4]
    1390              ;* AR2   assigned to _L_max
    1391              $C$DW$210       .dwtag  DW_TAG_variable, DW_AT_name("L_max")
    1392                      .dwattr $C$DW$210, DW_AT_TI_symbol_name("_L_max")
    1393                      .dwattr $C$DW$210, DW_AT_type(*$C$DW$T$153)
    1394                      .dwattr $C$DW$210, DW_AT_location[DW_OP_reg8]
    1395              ;* AR6   assigned to _Ls_coarse_max
    1396              $C$DW$211       .dwtag  DW_TAG_variable, DW_AT_name("Ls_coarse_max")
    1397                      .dwattr $C$DW$211, DW_AT_TI_symbol_name("_Ls_coarse_max")
    1398                      .dwattr $C$DW$211, DW_AT_type(*$C$DW$T$153)
    1399                      .dwattr $C$DW$211, DW_AT_location[DW_OP_reg16]
    1400              ;* AR3   assigned to _handle
    1401              $C$DW$212       .dwtag  DW_TAG_variable, DW_AT_name("handle")
    1402                      .dwattr $C$DW$212, DW_AT_TI_symbol_name("_handle")
    1403                      .dwattr $C$DW$212, DW_AT_type(*$C$DW$T$222)
    1404                      .dwattr $C$DW$212, DW_AT_location[DW_OP_reg10]
    1405                      .dwcfi  cfa_offset, -2
    1406                      .dwcfi  save_reg_to_mem, 26, 0
    1407 000000d3 B2BD          MOVL      *SP++,XAR1            ; [CPU_] 
    1408                      .dwcfi  save_reg_to_mem, 7, 2
    1409                      .dwcfi  cfa_offset, -4
TMS320C2000 Assembler PC v6.4.10 Mon Jul 11 12:58:57 2016

Tools Copyright (c) 1996-2015 Texas Instruments Incorporated
C:\Users\bee25\AppData\Local\Temp\0350410                            PAGE   29

    1410 000000d4 AABD          MOVL      *SP++,XAR2            ; [CPU_] 
    1411                      .dwcfi  save_reg_to_mem, 9, 4
    1412                      .dwcfi  cfa_offset, -6
    1413 000000d5 A2BD          MOVL      *SP++,XAR3            ; [CPU_] 
    1414                      .dwcfi  save_reg_to_mem, 11, 6
    1415                      .dwcfi  cfa_offset, -8
    1416 000000d6 FE0C          ADDB      SP,#12                ; [CPU_U] 
    1417                      .dwcfi  cfa_offset, -20
    1418 000000d7 82A4          MOVL      XAR3,XAR4             ; [CPU_] |737| 
    1419                      .dwpsn  file "C:/ti/motorware/motorware_1_01_00_16/sw/solutions/instaspin_foc/src/proj_lab11.c",line 
    1420              $C$DW$213       .dwtag  DW_TAG_TI_branch
    1421                      .dwattr $C$DW$213, DW_AT_low_pc(0x00)
    1422                      .dwattr $C$DW$213, DW_AT_name("_EST_getLs_coarse_max_pu")
    1423                      .dwattr $C$DW$213, DW_AT_TI_call
    1424 000000d8 7640!         LCR       #_EST_getLs_coarse_max_pu ; [CPU_] |741| 
         000000d9 0000 
    1425                      ; call occurs [#_EST_getLs_coarse_max_pu] ; [] |741| 
    1426              $C$DW$214       .dwtag  DW_TAG_TI_branch
    1427                      .dwattr $C$DW$214, DW_AT_low_pc(0x00)
    1428                      .dwattr $C$DW$214, DW_AT_name("__IQ30toF")
    1429                      .dwattr $C$DW$214, DW_AT_TI_call
    1430 000000da 7640!         LCR       #__IQ30toF            ; [CPU_] |741| 
         000000db 0000 
    1431                      ; call occurs [#__IQ30toF] ; [] |741| 
    1432 000000dc 1EA6          MOVL      XAR6,ACC              ; [CPU_] |741| 
    1433                      .dwpsn  file "C:/ti/motorware/motorware_1_01_00_16/sw/solutions/instaspin_foc/src/proj_lab11.c",line 
    1434 000000dd 28A9          MOV       AL,#28599             ; [CPU_] |742| 
         000000de 6FB7 
    1435 000000df 28A8          MOV       AH,#15195             ; [CPU_] |742| 
         000000e0 3B5B 
    1436 000000e1 1E42          MOVL      *-SP[2],ACC           ; [CPU_] |742| 
    1437 000000e2 06A6          MOVL      ACC,XAR6              ; [CPU_] |742| 
    1438              $C$DW$215       .dwtag  DW_TAG_TI_branch
    1439                      .dwattr $C$DW$215, DW_AT_low_pc(0x00)
    1440                      .dwattr $C$DW$215, DW_AT_name("FS$$MPY")
    1441                      .dwattr $C$DW$215, DW_AT_TI_call
    1442 000000e3 7640!         LCR       #FS$$MPY              ; [CPU_] |742| 
         000000e4 0000 
    1443                      ; call occurs [#FS$$MPY] ; [] |742| 
    1444 000000e5 1E42          MOVL      *-SP[2],ACC           ; [CPU_] |742| 
    1445 000000e6 28A9          MOV       AL,#39789             ; [CPU_] |742| 
         000000e7 9B6D 
    1446 000000e8 28A8          MOV       AH,#14298             ; [CPU_] |742| 
         000000e9 37DA 
    1447              $C$DW$216       .dwtag  DW_TAG_TI_branch
    1448                      .dwattr $C$DW$216, DW_AT_low_pc(0x00)
    1449                      .dwattr $C$DW$216, DW_AT_name("FS$$DIV")
    1450                      .dwattr $C$DW$216, DW_AT_TI_call
    1451 000000ea 7640!         LCR       #FS$$DIV              ; [CPU_] |742| 
         000000eb 0000 
    1452                      ; call occurs [#FS$$DIV] ; [] |742| 
    1453              $C$DW$217       .dwtag  DW_TAG_TI_branch
    1454                      .dwattr $C$DW$217, DW_AT_low_pc(0x00)
    1455                      .dwattr $C$DW$217, DW_AT_name("_log")
    1456                      .dwattr $C$DW$217, DW_AT_TI_call
TMS320C2000 Assembler PC v6.4.10 Mon Jul 11 12:58:57 2016

Tools Copyright (c) 1996-2015 Texas Instruments Incorporated
C:\Users\bee25\AppData\Local\Temp\0350410                            PAGE   30

    1457 000000ec 7640!         LCR       #_log                 ; [CPU_] |742| 
         000000ed 0000 
    1458                      ; call occurs [#_log] ; [] |742| 
    1459 000000ee 8BA9          MOVL      XAR1,ACC              ; [CPU_] |742| 
    1460 000000ef 9A00          MOV       AL,#0                 ; [CPU_] |742| 
    1461 000000f0 28A8          MOV       AH,#16384             ; [CPU_] |742| 
         000000f1 4000 
    1462              $C$DW$218       .dwtag  DW_TAG_TI_branch
    1463                      .dwattr $C$DW$218, DW_AT_low_pc(0x00)
    1464                      .dwattr $C$DW$218, DW_AT_name("_log")
    1465                      .dwattr $C$DW$218, DW_AT_TI_call
    1466 000000f2 7640!         LCR       #_log                 ; [CPU_] |742| 
         000000f3 0000 
    1467                      ; call occurs [#_log] ; [] |742| 
    1468 000000f4 1E42          MOVL      *-SP[2],ACC           ; [CPU_] |742| 
    1469 000000f5 B2A9          MOVL      ACC,XAR1              ; [CPU_] |742| 
    1470              $C$DW$219       .dwtag  DW_TAG_TI_branch
    1471                      .dwattr $C$DW$219, DW_AT_low_pc(0x00)
    1472                      .dwattr $C$DW$219, DW_AT_name("FS$$DIV")
    1473                      .dwattr $C$DW$219, DW_AT_TI_call
    1474 000000f6 7640!         LCR       #FS$$DIV              ; [CPU_] |742| 
         000000f7 0000 
    1475                      ; call occurs [#FS$$DIV] ; [] |742| 
    1476                      .dwpsn  file "C:/ti/ccsv6/tools/compiler/ti-cgt-c2000_6.4.10/include/math.h",line 143,column 14,is_st
    1477 000000f8 5CAD          MOVZ      AR4,SP                ; [CPU_] |143| 
    1478 000000f9 DC84          SUBB      XAR4,#4               ; [CPU_U] |143| 
    1479 000000fa 5CA4          MOVZ      AR4,AR4               ; [CPU_] |143| 
    1480              $C$DW$220       .dwtag  DW_TAG_TI_branch
    1481                      .dwattr $C$DW$220, DW_AT_low_pc(0x00)
    1482                      .dwattr $C$DW$220, DW_AT_name("_modf")
    1483                      .dwattr $C$DW$220, DW_AT_TI_call
    1484 000000fb 7640!         LCR       #_modf                ; [CPU_] |143| 
         000000fc 0000 
    1485                      ; call occurs [#_modf] ; [] |143| 
    1486 000000fd 1EA6          MOVL      XAR6,ACC              ; [CPU_] |143| 
    1487 000000fe 9A00          MOV       AL,#0                 ; [CPU_] |143| 
    1488 000000ff 9B00          MOV       AH,#0                 ; [CPU_] |143| 
    1489 00000100 1E42          MOVL      *-SP[2],ACC           ; [CPU_] |143| 
    1490 00000101 06A6          MOVL      ACC,XAR6              ; [CPU_] |143| 
    1491              $C$DW$221       .dwtag  DW_TAG_TI_branch
    1492                      .dwattr $C$DW$221, DW_AT_low_pc(0x00)
    1493                      .dwattr $C$DW$221, DW_AT_name("FS$$CMP")
    1494                      .dwattr $C$DW$221, DW_AT_TI_call
    1495 00000102 7640!         LCR       #FS$$CMP              ; [CPU_] |143| 
         00000103 0000 
    1496                      ; call occurs [#FS$$CMP] ; [] |143| 
    1497 00000104 5200          CMPB      AL,#0                 ; [CPU_] |143| 
    1498 00000105 56C2          BF        $C$L1,GT              ; [CPU_] |143| 
         00000106 0004 
    1499                      ; branchcc occurs ; [] |143| 
    1500                      .dwpsn  file "C:/ti/ccsv6/tools/compiler/ti-cgt-c2000_6.4.10/include/math.h",line 150,column 18,is_st
    1501 00000107 0644          MOVL      ACC,*-SP[4]           ; [CPU_] |150| 
    1502 00000108 6F07          B         $C$L2,UNC             ; [CPU_] |150| 
    1503                      ; branch occurs ; [] |150| 
    1504 00000109       $C$L1:    
TMS320C2000 Assembler PC v6.4.10 Mon Jul 11 12:58:57 2016

Tools Copyright (c) 1996-2015 Texas Instruments Incorporated
C:\Users\bee25\AppData\Local\Temp\0350410                            PAGE   31

    1505                      .dwpsn  file "C:/ti/ccsv6/tools/compiler/ti-cgt-c2000_6.4.10/include/math.h",line 146,column 18,is_st
    1506 00000109 FF2F          MOV       ACC,#32512 << 15      ; [CPU_] |146| 
         0000010a 7F00 
    1507 0000010b 1E42          MOVL      *-SP[2],ACC           ; [CPU_] |146| 
    1508 0000010c 0644          MOVL      ACC,*-SP[4]           ; [CPU_] |146| 
    1509              $C$DW$222       .dwtag  DW_TAG_TI_branch
    1510                      .dwattr $C$DW$222, DW_AT_low_pc(0x00)
    1511                      .dwattr $C$DW$222, DW_AT_name("FS$$ADD")
    1512                      .dwattr $C$DW$222, DW_AT_TI_call
    1513 0000010d 7640!         LCR       #FS$$ADD              ; [CPU_] |146| 
         0000010e 0000 
    1514                      ; call occurs [#FS$$ADD] ; [] |146| 
    1515 0000010f       $C$L2:    
    1516                      .dwpsn  file "C:/ti/motorware/motorware_1_01_00_16/sw/solutions/instaspin_foc/src/proj_lab11.c",line 
    1517              $C$DW$223       .dwtag  DW_TAG_TI_branch
    1518                      .dwattr $C$DW$223, DW_AT_low_pc(0x00)
    1519                      .dwattr $C$DW$223, DW_AT_name("FS$$TOI")
    1520                      .dwattr $C$DW$223, DW_AT_TI_call
    1521 0000010f 7640!         LCR       #FS$$TOI              ; [CPU_] |745| 
         00000110 0000 
    1522                      ; call occurs [#FS$$TOI] ; [] |745| 
    1523 00000111 59A9          MOVZ      AR1,AL                ; [CPU_] |745| 
    1524              $C$DW$224       .dwtag  DW_TAG_TI_branch
    1525                      .dwattr $C$DW$224, DW_AT_low_pc(0x00)
    1526                      .dwattr $C$DW$224, DW_AT_name("I$$TOFS")
    1527                      .dwattr $C$DW$224, DW_AT_TI_call
    1528 00000112 7640!         LCR       #I$$TOFS              ; [CPU_] |745| 
         00000113 0000 
    1529                      ; call occurs [#I$$TOFS] ; [] |745| 
    1530 00000114 1E42          MOVL      *-SP[2],ACC           ; [CPU_] |745| 
    1531 00000115 9A00          MOV       AL,#0                 ; [CPU_] |745| 
    1532 00000116 28A8          MOV       AH,#16384             ; [CPU_] |745| 
         00000117 4000 
    1533              $C$DW$225       .dwtag  DW_TAG_TI_branch
    1534                      .dwattr $C$DW$225, DW_AT_low_pc(0x00)
    1535                      .dwattr $C$DW$225, DW_AT_name("_pow")
    1536                      .dwattr $C$DW$225, DW_AT_TI_call
    1537 00000118 7640!         LCR       #_pow                 ; [CPU_] |745| 
         00000119 0000 
    1538                      ; call occurs [#_pow] ; [] |745| 
    1539 0000011a 1EA6          MOVL      XAR6,ACC              ; [CPU_] |745| 
    1540 0000011b 28A9          MOV       AL,#28599             ; [CPU_] |745| 
         0000011c 6FB7 
    1541 0000011d 28A8          MOV       AH,#15195             ; [CPU_] |745| 
         0000011e 3B5B 
    1542 0000011f 1E42          MOVL      *-SP[2],ACC           ; [CPU_] |745| 
    1543 00000120 06A6          MOVL      ACC,XAR6              ; [CPU_] |745| 
    1544              $C$DW$226       .dwtag  DW_TAG_TI_branch
    1545                      .dwattr $C$DW$226, DW_AT_low_pc(0x00)
    1546                      .dwattr $C$DW$226, DW_AT_name("FS$$MPY")
    1547                      .dwattr $C$DW$226, DW_AT_TI_call
    1548 00000121 7640!         LCR       #FS$$MPY              ; [CPU_] |745| 
         00000122 0000 
    1549                      ; call occurs [#FS$$MPY] ; [] |745| 
    1550 00000123 86A9          MOVL      XAR2,ACC              ; [CPU_] |745| 
TMS320C2000 Assembler PC v6.4.10 Mon Jul 11 12:58:57 2016

Tools Copyright (c) 1996-2015 Texas Instruments Incorporated
C:\Users\bee25\AppData\Local\Temp\0350410                            PAGE   32

    1551                      .dwpsn  file "C:/ti/motorware/motorware_1_01_00_16/sw/solutions/instaspin_foc/src/proj_lab11.c",line 
    1552 00000124 1E42          MOVL      *-SP[2],ACC           ; [CPU_] |750| 
    1553 00000125 28A9          MOV       AL,#39789             ; [CPU_] |750| 
         00000126 9B6D 
    1554 00000127 28A8          MOV       AH,#14298             ; [CPU_] |750| 
         00000128 37DA 
    1555              $C$DW$227       .dwtag  DW_TAG_TI_branch
    1556                      .dwattr $C$DW$227, DW_AT_low_pc(0x00)
    1557                      .dwattr $C$DW$227, DW_AT_name("FS$$DIV")
    1558                      .dwattr $C$DW$227, DW_AT_TI_call
    1559 00000129 7640!         LCR       #FS$$DIV              ; [CPU_] |750| 
         0000012a 0000 
    1560                      ; call occurs [#FS$$DIV] ; [] |750| 
    1561 0000012b 5CAD          MOVZ      AR4,SP                ; [CPU_] |750| 
    1562 0000012c DC8C          SUBB      XAR4,#12              ; [CPU_U] |750| 
    1563 0000012d 88A4          MOVZ      AR6,AR4               ; [CPU_] |750| 
    1564              $C$DW$228       .dwtag  DW_TAG_TI_branch
    1565                      .dwattr $C$DW$228, DW_AT_low_pc(0x00)
    1566                      .dwattr $C$DW$228, DW_AT_name("FS$$TOFD")
    1567                      .dwattr $C$DW$228, DW_AT_TI_call
    1568 0000012e 7640!         LCR       #FS$$TOFD             ; [CPU_] |750| 
         0000012f 0000 
    1569                      ; call occurs [#FS$$TOFD] ; [] |750| 
    1570 00000130 5DAD          MOVZ      AR5,SP                ; [CPU_] |750| 
    1571 00000131 5CAD          MOVZ      AR4,SP                ; [CPU_] |750| 
    1572 00000132 DD88          SUBB      XAR5,#8               ; [CPU_U] |750| 
    1573 00000133 DC8C          SUBB      XAR4,#12              ; [CPU_U] |750| 
    1574 00000134 88A5          MOVZ      AR6,AR5               ; [CPU_] |750| 
    1575 00000135 5CA4          MOVZ      AR4,AR4               ; [CPU_] |750| 
    1576 00000136 8F40+         MOVL      XAR5,#$C$FL1          ; [CPU_U] |750| 
         00000137 0000 
    1577              $C$DW$229       .dwtag  DW_TAG_TI_branch
    1578                      .dwattr $C$DW$229, DW_AT_low_pc(0x00)
    1579                      .dwattr $C$DW$229, DW_AT_name("FD$$MPY")
    1580                      .dwattr $C$DW$229, DW_AT_TI_call
    1581 00000138 7640!         LCR       #FD$$MPY              ; [CPU_] |750| 
         00000139 0000 
    1582                      ; call occurs [#FD$$MPY] ; [] |750| 
    1583 0000013a 5CAD          MOVZ      AR4,SP                ; [CPU_] |750| 
    1584 0000013b DC88          SUBB      XAR4,#8               ; [CPU_U] |750| 
    1585 0000013c 5CA4          MOVZ      AR4,AR4               ; [CPU_] |750| 
    1586              $C$DW$230       .dwtag  DW_TAG_TI_branch
    1587                      .dwattr $C$DW$230, DW_AT_low_pc(0x00)
    1588                      .dwattr $C$DW$230, DW_AT_name("FD$$TOL")
    1589                      .dwattr $C$DW$230, DW_AT_TI_call
    1590 0000013d 7640!         LCR       #FD$$TOL              ; [CPU_] |750| 
         0000013e 0000 
    1591                      ; call occurs [#FD$$TOL] ; [] |750| 
    1592 0000013f 8AA3          MOVL      XAR4,XAR3             ; [CPU_] |750| 
    1593              $C$DW$231       .dwtag  DW_TAG_TI_branch
    1594                      .dwattr $C$DW$231, DW_AT_low_pc(0x00)
    1595                      .dwattr $C$DW$231, DW_AT_name("_EST_setLs_d_pu")
    1596                      .dwattr $C$DW$231, DW_AT_TI_call
    1597 00000140 7640!         LCR       #_EST_setLs_d_pu      ; [CPU_] |750| 
         00000141 0000 
TMS320C2000 Assembler PC v6.4.10 Mon Jul 11 12:58:57 2016

Tools Copyright (c) 1996-2015 Texas Instruments Incorporated
C:\Users\bee25\AppData\Local\Temp\0350410                            PAGE   33

    1598                      ; call occurs [#_EST_setLs_d_pu] ; [] |750| 
    1599                      .dwpsn  file "C:/ti/motorware/motorware_1_01_00_16/sw/solutions/instaspin_foc/src/proj_lab11.c",line 
    1600 00000142 28A9          MOV       AL,#40338             ; [CPU_] |751| 
         00000143 9D92 
    1601 00000144 28A8          MOV       AH,#14298             ; [CPU_] |751| 
         00000145 37DA 
    1602 00000146 AA42          MOVL      *-SP[2],XAR2          ; [CPU_] |751| 
    1603              $C$DW$232       .dwtag  DW_TAG_TI_branch
    1604                      .dwattr $C$DW$232, DW_AT_low_pc(0x00)
    1605                      .dwattr $C$DW$232, DW_AT_name("FS$$DIV")
    1606                      .dwattr $C$DW$232, DW_AT_TI_call
    1607 00000147 7640!         LCR       #FS$$DIV              ; [CPU_] |751| 
         00000148 0000 
    1608                      ; call occurs [#FS$$DIV] ; [] |751| 
    1609 00000149 5CAD          MOVZ      AR4,SP                ; [CPU_] |751| 
    1610 0000014a DC8C          SUBB      XAR4,#12              ; [CPU_U] |751| 
    1611 0000014b 88A4          MOVZ      AR6,AR4               ; [CPU_] |751| 
    1612              $C$DW$233       .dwtag  DW_TAG_TI_branch
    1613                      .dwattr $C$DW$233, DW_AT_low_pc(0x00)
    1614                      .dwattr $C$DW$233, DW_AT_name("FS$$TOFD")
    1615                      .dwattr $C$DW$233, DW_AT_TI_call
    1616 0000014c 7640!         LCR       #FS$$TOFD             ; [CPU_] |751| 
         0000014d 0000 
    1617                      ; call occurs [#FS$$TOFD] ; [] |751| 
    1618 0000014e 5DAD          MOVZ      AR5,SP                ; [CPU_] |751| 
    1619 0000014f 5CAD          MOVZ      AR4,SP                ; [CPU_] |751| 
    1620 00000150 DD88          SUBB      XAR5,#8               ; [CPU_U] |751| 
    1621 00000151 DC8C          SUBB      XAR4,#12              ; [CPU_U] |751| 
    1622 00000152 88A5          MOVZ      AR6,AR5               ; [CPU_] |751| 
    1623 00000153 5CA4          MOVZ      AR4,AR4               ; [CPU_] |751| 
    1624 00000154 8F40+         MOVL      XAR5,#$C$FL1          ; [CPU_U] |751| 
         00000155 0000 
    1625              $C$DW$234       .dwtag  DW_TAG_TI_branch
    1626                      .dwattr $C$DW$234, DW_AT_low_pc(0x00)
    1627                      .dwattr $C$DW$234, DW_AT_name("FD$$MPY")
    1628                      .dwattr $C$DW$234, DW_AT_TI_call
    1629 00000156 7640!         LCR       #FD$$MPY              ; [CPU_] |751| 
         00000157 0000 
    1630                      ; call occurs [#FD$$MPY] ; [] |751| 
    1631 00000158 5CAD          MOVZ      AR4,SP                ; [CPU_] |751| 
    1632 00000159 DC88          SUBB      XAR4,#8               ; [CPU_U] |751| 
    1633 0000015a 5CA4          MOVZ      AR4,AR4               ; [CPU_] |751| 
    1634              $C$DW$235       .dwtag  DW_TAG_TI_branch
    1635                      .dwattr $C$DW$235, DW_AT_low_pc(0x00)
    1636                      .dwattr $C$DW$235, DW_AT_name("FD$$TOL")
    1637                      .dwattr $C$DW$235, DW_AT_TI_call
    1638 0000015b 7640!         LCR       #FD$$TOL              ; [CPU_] |751| 
         0000015c 0000 
    1639                      ; call occurs [#FD$$TOL] ; [] |751| 
    1640 0000015d 8AA3          MOVL      XAR4,XAR3             ; [CPU_] |751| 
    1641              $C$DW$236       .dwtag  DW_TAG_TI_branch
    1642                      .dwattr $C$DW$236, DW_AT_low_pc(0x00)
    1643                      .dwattr $C$DW$236, DW_AT_name("_EST_setLs_q_pu")
    1644                      .dwattr $C$DW$236, DW_AT_TI_call
    1645 0000015e 7640!         LCR       #_EST_setLs_q_pu      ; [CPU_] |751| 
TMS320C2000 Assembler PC v6.4.10 Mon Jul 11 12:58:57 2016

Tools Copyright (c) 1996-2015 Texas Instruments Incorporated
C:\Users\bee25\AppData\Local\Temp\0350410                            PAGE   34

         0000015f 0000 
    1646                      ; call occurs [#_EST_setLs_q_pu] ; [] |751| 
    1647                      .dwpsn  file "C:/ti/motorware/motorware_1_01_00_16/sw/solutions/instaspin_foc/src/proj_lab11.c",line 
    1648 00000160 9A1E          MOVB      AL,#30                ; [CPU_] |752| 
    1649 00000161 8AA3          MOVL      XAR4,XAR3             ; [CPU_] |752| 
    1650 00000162 9EA1          SUB       AL,AR1                ; [CPU_] |752| 
    1651              $C$DW$237       .dwtag  DW_TAG_TI_branch
    1652                      .dwattr $C$DW$237, DW_AT_low_pc(0x00)
    1653                      .dwattr $C$DW$237, DW_AT_name("_EST_setLs_qFmt")
    1654                      .dwattr $C$DW$237, DW_AT_TI_call
    1655 00000163 7640!         LCR       #_EST_setLs_qFmt      ; [CPU_] |752| 
         00000164 0000 
    1656                      ; call occurs [#_EST_setLs_qFmt] ; [] |752| 
    1657 00000165 FE8C          SUBB      SP,#12                ; [CPU_U] 
    1658                      .dwcfi  cfa_offset, -8
    1659 00000166 82BE          MOVL      XAR3,*--SP            ; [CPU_] 
    1660                      .dwcfi  cfa_offset, -6
    1661                      .dwcfi  restore_reg, 11
    1662 00000167 86BE          MOVL      XAR2,*--SP            ; [CPU_] 
    1663                      .dwcfi  cfa_offset, -4
    1664                      .dwcfi  restore_reg, 9
    1665 00000168 8BBE          MOVL      XAR1,*--SP            ; [CPU_] 
    1666                      .dwcfi  cfa_offset, -2
    1667                      .dwcfi  restore_reg, 7
    1668              $C$DW$238       .dwtag  DW_TAG_TI_branch
    1669                      .dwattr $C$DW$238, DW_AT_low_pc(0x00)
    1670                      .dwattr $C$DW$238, DW_AT_TI_return
    1671 00000169 0006          LRETR     ; [CPU_] 
    1672                      ; return occurs ; [] 
    1673                      .dwattr $C$DW$206, DW_AT_TI_end_file("C:/ti/motorware/motorware_1_01_00_16/sw/solutions/instaspin_foc
    1674                      .dwattr $C$DW$206, DW_AT_TI_end_line(0x2f3)
    1675                      .dwattr $C$DW$206, DW_AT_TI_end_column(0x01)
    1676                      .dwendentry
    1677                      .dwendtag $C$DW$206
    1678              
    1679 0000016a               .sect   ".text"
    1680                      .clink
    1681                      .global _setupClarke_V
    1682              
    1683              $C$DW$239       .dwtag  DW_TAG_subprogram, DW_AT_name("setupClarke_V")
    1684                      .dwattr $C$DW$239, DW_AT_low_pc(_setupClarke_V)
    1685                      .dwattr $C$DW$239, DW_AT_high_pc(0x00)
    1686                      .dwattr $C$DW$239, DW_AT_TI_symbol_name("_setupClarke_V")
    1687                      .dwattr $C$DW$239, DW_AT_external
    1688                      .dwattr $C$DW$239, DW_AT_TI_begin_file("C:/ti/motorware/motorware_1_01_00_16/sw/solutions/instaspin_f
    1689                      .dwattr $C$DW$239, DW_AT_TI_begin_line(0x319)
    1690                      .dwattr $C$DW$239, DW_AT_TI_begin_column(0x06)
    1691                      .dwattr $C$DW$239, DW_AT_TI_max_frame_size(-2)
    1692                      .dwpsn  file "C:/ti/motorware/motorware_1_01_00_16/sw/solutions/instaspin_foc/src/proj_lab11.c",line 
    1693              
    1694                      .dwfde $C$DW$CIE, _setupClarke_V
    1695              $C$DW$240       .dwtag  DW_TAG_formal_parameter, DW_AT_name("handle")
    1696                      .dwattr $C$DW$240, DW_AT_TI_symbol_name("_handle")
    1697                      .dwattr $C$DW$240, DW_AT_type(*$C$DW$T$211)
    1698                      .dwattr $C$DW$240, DW_AT_location[DW_OP_reg12]
TMS320C2000 Assembler PC v6.4.10 Mon Jul 11 12:58:57 2016

Tools Copyright (c) 1996-2015 Texas Instruments Incorporated
C:\Users\bee25\AppData\Local\Temp\0350410                            PAGE   35

    1699              $C$DW$241       .dwtag  DW_TAG_formal_parameter, DW_AT_name("numVoltageSensors")
    1700                      .dwattr $C$DW$241, DW_AT_TI_symbol_name("_numVoltageSensors")
    1701                      .dwattr $C$DW$241, DW_AT_type(*$C$DW$T$297)
    1702                      .dwattr $C$DW$241, DW_AT_location[DW_OP_reg0]
    1703              
    1704              ;***************************************************************
    1705              ;* FNAME: _setupClarke_V                FR SIZE:   0           *
    1706              ;*                                                             *
    1707              ;* FUNCTION ENVIRONMENT                                        *
    1708              ;*                                                             *
    1709              ;* FUNCTION PROPERTIES                                         *
    1710              ;*                            0 Parameter,  0 Auto,  0 SOE     *
    1711              ;***************************************************************
    1712              
    1713              _setupClarke_V:
    1714              ;* PL    assigned to _beta_sf
    1715              $C$DW$242       .dwtag  DW_TAG_variable, DW_AT_name("beta_sf")
    1716                      .dwattr $C$DW$242, DW_AT_TI_symbol_name("_beta_sf")
    1717                      .dwattr $C$DW$242, DW_AT_type(*$C$DW$T$47)
    1718                      .dwattr $C$DW$242, DW_AT_location[DW_OP_reg2]
    1719              ;* AR6   assigned to _alpha_sf
    1720              $C$DW$243       .dwtag  DW_TAG_variable, DW_AT_name("alpha_sf")
    1721                      .dwattr $C$DW$243, DW_AT_TI_symbol_name("_alpha_sf")
    1722                      .dwattr $C$DW$243, DW_AT_type(*$C$DW$T$47)
    1723                      .dwattr $C$DW$243, DW_AT_location[DW_OP_reg16]
    1724              ;* AL    assigned to _numVoltageSensors
    1725              $C$DW$244       .dwtag  DW_TAG_variable, DW_AT_name("numVoltageSensors")
    1726                      .dwattr $C$DW$244, DW_AT_TI_symbol_name("_numVoltageSensors")
    1727                      .dwattr $C$DW$244, DW_AT_type(*$C$DW$T$297)
    1728                      .dwattr $C$DW$244, DW_AT_location[DW_OP_reg0]
    1729              ;* AR4   assigned to _handle
    1730              $C$DW$245       .dwtag  DW_TAG_variable, DW_AT_name("handle")
    1731                      .dwattr $C$DW$245, DW_AT_TI_symbol_name("_handle")
    1732                      .dwattr $C$DW$245, DW_AT_type(*$C$DW$T$212)
    1733                      .dwattr $C$DW$245, DW_AT_location[DW_OP_reg12]
    1734                      .dwcfi  cfa_offset, -2
    1735                      .dwcfi  save_reg_to_mem, 26, 0
    1736                      .dwpsn  file "C:/ti/motorware/motorware_1_01_00_16/sw/solutions/instaspin_foc/src/proj_lab11.c",line 
    1737 0000016a 5203          CMPB      AL,#3                 ; [CPU_] |798| 
    1738 0000016b EC05          BF        $C$L3,EQ              ; [CPU_] |798| 
    1739                      ; branchcc occurs ; [] |798| 
    1740                      .dwpsn  file "C:/ti/motorware/motorware_1_01_00_16/sw/solutions/instaspin_foc/src/proj_lab11.c",line 
    1741 0000016c B600          MOVB      XAR7,#0               ; [CPU_] |806| 
    1742                      .dwpsn  file "C:/ti/motorware/motorware_1_01_00_16/sw/solutions/instaspin_foc/src/proj_lab11.c",line 
    1743 0000016d BE00          MOVB      XAR6,#0               ; [CPU_] |805| 
    1744                      .dwpsn  file "C:/ti/motorware/motorware_1_01_00_16/sw/solutions/instaspin_foc/src/proj_lab11.c",line 
    1745 0000016e A3A7          MOVL      P,XAR7                ; [CPU_] |806| 
    1746 0000016f 6F0A          B         $C$L4,UNC             ; [CPU_] |806| 
    1747                      ; branch occurs ; [] |806| 
    1748 00000170       $C$L3:    
    1749                      .dwpsn  file "C:/ti/motorware/motorware_1_01_00_16/sw/solutions/instaspin_foc/src/proj_lab11.c",line 
    1750 00000170 28AB          MOV       PL,#21845             ; [CPU_] |800| 
         00000171 5555 
    1751 00000172 28AA          MOV       PH,#85                ; [CPU_] |800| 
         00000173 0055 
TMS320C2000 Assembler PC v6.4.10 Mon Jul 11 12:58:57 2016

Tools Copyright (c) 1996-2015 Texas Instruments Incorporated
C:\Users\bee25\AppData\Local\Temp\0350410                            PAGE   36

    1752 00000174 A9A6          MOVL      XAR6,P                ; [CPU_] |800| 
    1753                      .dwpsn  file "C:/ti/motorware/motorware_1_01_00_16/sw/solutions/instaspin_foc/src/proj_lab11.c",line 
    1754 00000175 28AB          MOV       PL,#52538             ; [CPU_] |801| 
         00000176 CD3A 
    1755 00000177 28AA          MOV       PH,#147               ; [CPU_] |801| 
         00000178 0093 
    1756 00000179       $C$L4:    
    1757                      .dwpsn  file "C:/ti/motorware/motorware_1_01_00_16/sw/modules/clarke/src/32b/clarke.h",line 185,colum
    1758 00000179 C2C4          MOVL      *+XAR4[0],XAR6        ; [CPU_] |185| 
    1759                      .dwpsn  file "C:/ti/motorware/motorware_1_01_00_16/sw/modules/clarke/src/32b/clarke.h",line 186,colum
    1760 0000017a A9D4          MOVL      *+XAR4[2],P           ; [CPU_] |186| 
    1761                      .dwpsn  file "C:/ti/motorware/motorware_1_01_00_16/sw/modules/clarke/src/32b/clarke.h",line 170,colum
    1762 0000017b 96E4          MOV       *+XAR4[4],AL          ; [CPU_] |170| 
    1763              $C$DW$246       .dwtag  DW_TAG_TI_branch
    1764                      .dwattr $C$DW$246, DW_AT_low_pc(0x00)
    1765                      .dwattr $C$DW$246, DW_AT_TI_return
    1766 0000017c 0006          LRETR     ; [CPU_] 
    1767                      ; return occurs ; [] 
    1768                      .dwattr $C$DW$239, DW_AT_TI_end_file("C:/ti/motorware/motorware_1_01_00_16/sw/solutions/instaspin_foc
    1769                      .dwattr $C$DW$239, DW_AT_TI_end_line(0x32f)
    1770                      .dwattr $C$DW$239, DW_AT_TI_end_column(0x01)
    1771                      .dwendentry
    1772                      .dwendtag $C$DW$239
    1773              
    1774 0000017d               .sect   ".text"
    1775                      .clink
    1776                      .global _setupClarke_I
    1777              
    1778              $C$DW$247       .dwtag  DW_TAG_subprogram, DW_AT_name("setupClarke_I")
    1779                      .dwattr $C$DW$247, DW_AT_low_pc(_setupClarke_I)
    1780                      .dwattr $C$DW$247, DW_AT_high_pc(0x00)
    1781                      .dwattr $C$DW$247, DW_AT_TI_symbol_name("_setupClarke_I")
    1782                      .dwattr $C$DW$247, DW_AT_external
    1783                      .dwattr $C$DW$247, DW_AT_TI_begin_file("C:/ti/motorware/motorware_1_01_00_16/sw/solutions/instaspin_f
    1784                      .dwattr $C$DW$247, DW_AT_TI_begin_line(0x2f9)
    1785                      .dwattr $C$DW$247, DW_AT_TI_begin_column(0x06)
    1786                      .dwattr $C$DW$247, DW_AT_TI_max_frame_size(-2)
    1787                      .dwpsn  file "C:/ti/motorware/motorware_1_01_00_16/sw/solutions/instaspin_foc/src/proj_lab11.c",line 
    1788              
    1789                      .dwfde $C$DW$CIE, _setupClarke_I
    1790              $C$DW$248       .dwtag  DW_TAG_formal_parameter, DW_AT_name("handle")
    1791                      .dwattr $C$DW$248, DW_AT_TI_symbol_name("_handle")
    1792                      .dwattr $C$DW$248, DW_AT_type(*$C$DW$T$211)
    1793                      .dwattr $C$DW$248, DW_AT_location[DW_OP_reg12]
    1794              $C$DW$249       .dwtag  DW_TAG_formal_parameter, DW_AT_name("numCurrentSensors")
    1795                      .dwattr $C$DW$249, DW_AT_TI_symbol_name("_numCurrentSensors")
    1796                      .dwattr $C$DW$249, DW_AT_type(*$C$DW$T$297)
    1797                      .dwattr $C$DW$249, DW_AT_location[DW_OP_reg0]
    1798              
    1799              ;***************************************************************
    1800              ;* FNAME: _setupClarke_I                FR SIZE:   0           *
    1801              ;*                                                             *
    1802              ;* FUNCTION ENVIRONMENT                                        *
    1803              ;*                                                             *
    1804              ;* FUNCTION PROPERTIES                                         *
TMS320C2000 Assembler PC v6.4.10 Mon Jul 11 12:58:57 2016

Tools Copyright (c) 1996-2015 Texas Instruments Incorporated
C:\Users\bee25\AppData\Local\Temp\0350410                            PAGE   37

    1805              ;*                            0 Parameter,  0 Auto,  0 SOE     *
    1806              ;***************************************************************
    1807              
    1808              _setupClarke_I:
    1809              ;* PL    assigned to _beta_sf
    1810              $C$DW$250       .dwtag  DW_TAG_variable, DW_AT_name("beta_sf")
    1811                      .dwattr $C$DW$250, DW_AT_TI_symbol_name("_beta_sf")
    1812                      .dwattr $C$DW$250, DW_AT_type(*$C$DW$T$47)
    1813                      .dwattr $C$DW$250, DW_AT_location[DW_OP_reg2]
    1814              ;* AR6   assigned to _alpha_sf
    1815              $C$DW$251       .dwtag  DW_TAG_variable, DW_AT_name("alpha_sf")
    1816                      .dwattr $C$DW$251, DW_AT_TI_symbol_name("_alpha_sf")
    1817                      .dwattr $C$DW$251, DW_AT_type(*$C$DW$T$47)
    1818                      .dwattr $C$DW$251, DW_AT_location[DW_OP_reg16]
    1819              ;* AL    assigned to _numCurrentSensors
    1820              $C$DW$252       .dwtag  DW_TAG_variable, DW_AT_name("numCurrentSensors")
    1821                      .dwattr $C$DW$252, DW_AT_TI_symbol_name("_numCurrentSensors")
    1822                      .dwattr $C$DW$252, DW_AT_type(*$C$DW$T$297)
    1823                      .dwattr $C$DW$252, DW_AT_location[DW_OP_reg0]
    1824              ;* AR4   assigned to _handle
    1825              $C$DW$253       .dwtag  DW_TAG_variable, DW_AT_name("handle")
    1826                      .dwattr $C$DW$253, DW_AT_TI_symbol_name("_handle")
    1827                      .dwattr $C$DW$253, DW_AT_type(*$C$DW$T$212)
    1828                      .dwattr $C$DW$253, DW_AT_location[DW_OP_reg12]
    1829                      .dwcfi  cfa_offset, -2
    1830                      .dwcfi  save_reg_to_mem, 26, 0
    1831                      .dwpsn  file "C:/ti/motorware/motorware_1_01_00_16/sw/solutions/instaspin_foc/src/proj_lab11.c",line 
    1832 0000017d 5203          CMPB      AL,#3                 ; [CPU_] |766| 
    1833 0000017e EC0B          BF        $C$L6,EQ              ; [CPU_] |766| 
    1834                      ; branchcc occurs ; [] |766| 
    1835                      .dwpsn  file "C:/ti/motorware/motorware_1_01_00_16/sw/solutions/instaspin_foc/src/proj_lab11.c",line 
    1836 0000017f 5202          CMPB      AL,#2                 ; [CPU_] |771| 
    1837 00000180 EC05          BF        $C$L5,EQ              ; [CPU_] |771| 
    1838                      ; branchcc occurs ; [] |771| 
    1839                      .dwpsn  file "C:/ti/motorware/motorware_1_01_00_16/sw/solutions/instaspin_foc/src/proj_lab11.c",line 
    1840 00000181 B600          MOVB      XAR7,#0               ; [CPU_] |779| 
    1841                      .dwpsn  file "C:/ti/motorware/motorware_1_01_00_16/sw/solutions/instaspin_foc/src/proj_lab11.c",line 
    1842 00000182 BE00          MOVB      XAR6,#0               ; [CPU_] |778| 
    1843                      .dwpsn  file "C:/ti/motorware/motorware_1_01_00_16/sw/solutions/instaspin_foc/src/proj_lab11.c",line 
    1844 00000183 A3A7          MOVL      P,XAR7                ; [CPU_] |779| 
    1845 00000184 6F0E          B         $C$L8,UNC             ; [CPU_] |779| 
    1846                      ; branch occurs ; [] |779| 
    1847 00000185       $C$L5:    
    1848                      .dwpsn  file "C:/ti/motorware/motorware_1_01_00_16/sw/solutions/instaspin_foc/src/proj_lab11.c",line 
    1849 00000185 2BAB          MOV       PL,#0                 ; [CPU_] |773| 
    1850 00000186 28AA          MOV       PH,#256               ; [CPU_] |773| 
         00000187 0100 
    1851                      .dwpsn  file "C:/ti/motorware/motorware_1_01_00_16/sw/solutions/instaspin_foc/src/proj_lab11.c",line 
    1852 00000188 6F05          B         $C$L7,UNC             ; [CPU_] |775| 
    1853                      ; branch occurs ; [] |775| 
    1854 00000189       $C$L6:    
    1855                      .dwpsn  file "C:/ti/motorware/motorware_1_01_00_16/sw/solutions/instaspin_foc/src/proj_lab11.c",line 
    1856 00000189 28AB          MOV       PL,#21845             ; [CPU_] |768| 
         0000018a 5555 
    1857 0000018b 28AA          MOV       PH,#85                ; [CPU_] |768| 
TMS320C2000 Assembler PC v6.4.10 Mon Jul 11 12:58:57 2016

Tools Copyright (c) 1996-2015 Texas Instruments Incorporated
C:\Users\bee25\AppData\Local\Temp\0350410                            PAGE   38

         0000018c 0055 
    1858 0000018d       $C$L7:    
    1859 0000018d A9A6          MOVL      XAR6,P                ; [CPU_] |768| 
    1860                      .dwpsn  file "C:/ti/motorware/motorware_1_01_00_16/sw/solutions/instaspin_foc/src/proj_lab11.c",line 
    1861 0000018e 28AB          MOV       PL,#52538             ; [CPU_] |769| 
         0000018f CD3A 
    1862 00000190 28AA          MOV       PH,#147               ; [CPU_] |769| 
         00000191 0093 
    1863 00000192       $C$L8:    
    1864                      .dwpsn  file "C:/ti/motorware/motorware_1_01_00_16/sw/modules/clarke/src/32b/clarke.h",line 185,colum
    1865 00000192 C2C4          MOVL      *+XAR4[0],XAR6        ; [CPU_] |185| 
    1866                      .dwpsn  file "C:/ti/motorware/motorware_1_01_00_16/sw/modules/clarke/src/32b/clarke.h",line 186,colum
    1867 00000193 A9D4          MOVL      *+XAR4[2],P           ; [CPU_] |186| 
    1868                      .dwpsn  file "C:/ti/motorware/motorware_1_01_00_16/sw/modules/clarke/src/32b/clarke.h",line 170,colum
    1869 00000194 96E4          MOV       *+XAR4[4],AL          ; [CPU_] |170| 
    1870              $C$DW$254       .dwtag  DW_TAG_TI_branch
    1871                      .dwattr $C$DW$254, DW_AT_low_pc(0x00)
    1872                      .dwattr $C$DW$254, DW_AT_TI_return
    1873 00000195 0006          LRETR     ; [CPU_] 
    1874                      ; return occurs ; [] 
    1875                      .dwattr $C$DW$247, DW_AT_TI_end_file("C:/ti/motorware/motorware_1_01_00_16/sw/solutions/instaspin_foc
    1876                      .dwattr $C$DW$247, DW_AT_TI_end_line(0x313)
    1877                      .dwattr $C$DW$247, DW_AT_TI_end_column(0x01)
    1878                      .dwendentry
    1879                      .dwendtag $C$DW$247
    1880              
    1881 00000196               .sect   ".text"
    1882                      .clink
    1883                      .global _angleDelayComp
    1884              
    1885              $C$DW$255       .dwtag  DW_TAG_subprogram, DW_AT_name("angleDelayComp")
    1886                      .dwattr $C$DW$255, DW_AT_low_pc(_angleDelayComp)
    1887                      .dwattr $C$DW$255, DW_AT_high_pc(0x00)
    1888                      .dwattr $C$DW$255, DW_AT_TI_symbol_name("_angleDelayComp")
    1889                      .dwattr $C$DW$255, DW_AT_external
    1890                      .dwattr $C$DW$255, DW_AT_type(*$C$DW$T$47)
    1891                      .dwattr $C$DW$255, DW_AT_TI_begin_file("C:/ti/motorware/motorware_1_01_00_16/sw/solutions/instaspin_f
    1892                      .dwattr $C$DW$255, DW_AT_TI_begin_line(0x2c0)
    1893                      .dwattr $C$DW$255, DW_AT_TI_begin_column(0x05)
    1894                      .dwattr $C$DW$255, DW_AT_TI_max_frame_size(-2)
    1895                      .dwpsn  file "C:/ti/motorware/motorware_1_01_00_16/sw/solutions/instaspin_foc/src/proj_lab11.c",line 
    1896              
    1897                      .dwfde $C$DW$CIE, _angleDelayComp
    1898              $C$DW$256       .dwtag  DW_TAG_formal_parameter, DW_AT_name("fm_pu")
    1899                      .dwattr $C$DW$256, DW_AT_TI_symbol_name("_fm_pu")
    1900                      .dwattr $C$DW$256, DW_AT_type(*$C$DW$T$287)
    1901                      .dwattr $C$DW$256, DW_AT_location[DW_OP_reg0]
    1902              $C$DW$257       .dwtag  DW_TAG_formal_parameter, DW_AT_name("angleUncomp_pu")
    1903                      .dwattr $C$DW$257, DW_AT_TI_symbol_name("_angleUncomp_pu")
    1904                      .dwattr $C$DW$257, DW_AT_type(*$C$DW$T$287)
    1905                      .dwattr $C$DW$257, DW_AT_location[DW_OP_breg20 -4]
    1906              
    1907              ;***************************************************************
    1908              ;* FNAME: _angleDelayComp               FR SIZE:   0           *
    1909              ;*                                                             *
TMS320C2000 Assembler PC v6.4.10 Mon Jul 11 12:58:57 2016

Tools Copyright (c) 1996-2015 Texas Instruments Incorporated
C:\Users\bee25\AppData\Local\Temp\0350410                            PAGE   39

    1910              ;* FUNCTION ENVIRONMENT                                        *
    1911              ;*                                                             *
    1912              ;* FUNCTION PROPERTIES                                         *
    1913              ;*                            0 Parameter,  0 Auto,  0 SOE     *
    1914              ;***************************************************************
    1915              
    1916              _angleDelayComp:
    1917              ;* AR7   assigned to $O$C1
    1918              ;* AR6   assigned to _angleComp_pu
    1919              $C$DW$258       .dwtag  DW_TAG_variable, DW_AT_name("angleComp_pu")
    1920                      .dwattr $C$DW$258, DW_AT_TI_symbol_name("_angleComp_pu")
    1921                      .dwattr $C$DW$258, DW_AT_type(*$C$DW$T$47)
    1922                      .dwattr $C$DW$258, DW_AT_location[DW_OP_reg16]
    1923              ;* AR6   assigned to _angleUncomp_pu
    1924              $C$DW$259       .dwtag  DW_TAG_variable, DW_AT_name("angleUncomp_pu")
    1925                      .dwattr $C$DW$259, DW_AT_TI_symbol_name("_angleUncomp_pu")
    1926                      .dwattr $C$DW$259, DW_AT_type(*$C$DW$T$287)
    1927                      .dwattr $C$DW$259, DW_AT_location[DW_OP_reg16]
    1928              ;* XT    assigned to _fm_pu
    1929              $C$DW$260       .dwtag  DW_TAG_variable, DW_AT_name("fm_pu")
    1930                      .dwattr $C$DW$260, DW_AT_TI_symbol_name("_fm_pu")
    1931                      .dwattr $C$DW$260, DW_AT_type(*$C$DW$T$287)
    1932                      .dwattr $C$DW$260, DW_AT_location[DW_OP_reg21]
    1933              ;* AR6   assigned to $O$K11
    1934                      .dwcfi  cfa_offset, -2
    1935                      .dwcfi  save_reg_to_mem, 26, 0
    1936 00000196 1EAC          MOVL      XT,ACC                ; [CPU_] |705| 
    1937                      .dwpsn  file "C:/ti/motorware/motorware_1_01_00_16/sw/solutions/instaspin_foc/src/proj_lab11.c",line 
    1938 00000197 8F08          MOVL      XAR4,#581330          ; [CPU_U] |720| 
         00000198 DED2 
    1939                      .dwpsn  file "C:/ti/motorware/motorware_1_01_00_16/sw/solutions/instaspin_foc/src/proj_lab11.c",line 
    1940 00000199 C444          MOVL      XAR6,*-SP[4]          ; [CPU_] |705| 
    1941                      .dwpsn  file "C:/ti/motorware/motorware_1_01_00_16/sw/solutions/instaspin_foc/src/proj_lab11.c",line 
    1942 0000019a 5605          IMPYL     P,XT,XAR4             ; [CPU_] |720| 
         0000019b 00A4 
    1943 0000019c 5663          QMPYL     ACC,XT,XAR4           ; [CPU_] |720| 
         0000019d 00A4 
    1944 0000019e 56A7          LSL64     ACC:P,#8              ; [CPU_] |720| 
    1945 0000019f 1EAC          MOVL      XT,ACC                ; [CPU_] |720| 
    1946 000001a0 FF2F          MOV       ACC,#1280 << 15       ; [CPU_] |720| 
         000001a1 0500 
    1947 000001a2 5605          IMPYL     P,XT,ACC              ; [CPU_] |720| 
         000001a3 00A9 
    1948 000001a4 5663          QMPYL     ACC,XT,ACC            ; [CPU_] |720| 
         000001a5 00A9 
    1949 000001a6 56A7          LSL64     ACC:P,#8              ; [CPU_] |720| 
    1950 000001a7 07A6          ADDL      ACC,XAR6              ; [CPU_] |720| 
    1951 000001a8 1EA7          MOVL      XAR7,ACC              ; [CPU_] |720| 
    1952 000001a9 FF56          ABS       ACC                   ; [CPU_] |720| 
    1953 000001aa 91FF          ANDB      AH,#255               ; [CPU_] |720| 
    1954 000001ab 1EA6          MOVL      XAR6,ACC              ; [CPU_] |720| 
    1955 000001ac 06A7          MOVL      ACC,XAR7              ; [CPU_] |720| 
    1956                      .dwpsn  file "C:/ti/motorware/motorware_1_01_00_16/sw/solutions/instaspin_foc/src/proj_lab11.c",line 
    1957 000001ad 56C3          BF        $C$L9,GEQ             ; [CPU_] |723| 
         000001ae 0005 
TMS320C2000 Assembler PC v6.4.10 Mon Jul 11 12:58:57 2016

Tools Copyright (c) 1996-2015 Texas Instruments Incorporated
C:\Users\bee25\AppData\Local\Temp\0350410                            PAGE   40

    1958                      ; branchcc occurs ; [] |723| 
    1959                      .dwpsn  file "C:/ti/motorware/motorware_1_01_00_16/sw/solutions/instaspin_foc/src/proj_lab11.c",line 
    1960 000001af 06A6          MOVL      ACC,XAR6              ; [CPU_] |725| 
    1961 000001b0 FF54          NEG       ACC                   ; [CPU_] |725| 
    1962 000001b1 1EA6          MOVL      XAR6,ACC              ; [CPU_] |725| 
    1963 000001b2       $C$L9:    
    1964                      .dwpsn  file "C:/ti/motorware/motorware_1_01_00_16/sw/solutions/instaspin_foc/src/proj_lab11.c",line 
    1965 000001b2 06A6          MOVL      ACC,XAR6              ; [CPU_] |728| 
    1966              $C$DW$261       .dwtag  DW_TAG_TI_branch
    1967                      .dwattr $C$DW$261, DW_AT_low_pc(0x00)
    1968                      .dwattr $C$DW$261, DW_AT_TI_return
    1969 000001b3 0006          LRETR     ; [CPU_] 
    1970                      ; return occurs ; [] 
    1971                      .dwattr $C$DW$255, DW_AT_TI_end_file("C:/ti/motorware/motorware_1_01_00_16/sw/solutions/instaspin_foc
    1972                      .dwattr $C$DW$255, DW_AT_TI_end_line(0x2d9)
    1973                      .dwattr $C$DW$255, DW_AT_TI_end_column(0x01)
    1974                      .dwendentry
    1975                      .dwendtag $C$DW$255
    1976              
    1977 00000000               .sect   "ramfuncs:retain"
    1978                      .retain
    1979                      .retainrefs
    1980                      .global _mainISR
    1981              
    1982              $C$DW$262       .dwtag  DW_TAG_subprogram, DW_AT_name("mainISR")
    1983                      .dwattr $C$DW$262, DW_AT_low_pc(_mainISR)
    1984                      .dwattr $C$DW$262, DW_AT_high_pc(0x00)
    1985                      .dwattr $C$DW$262, DW_AT_TI_symbol_name("_mainISR")
    1986                      .dwattr $C$DW$262, DW_AT_external
    1987                      .dwattr $C$DW$262, DW_AT_TI_begin_file("C:/ti/motorware/motorware_1_01_00_16/sw/solutions/instaspin_f
    1988                      .dwattr $C$DW$262, DW_AT_TI_begin_line(0x219)
    1989                      .dwattr $C$DW$262, DW_AT_TI_begin_column(0x10)
    1990                      .dwattr $C$DW$262, DW_AT_TI_interrupt
    1991                      .dwattr $C$DW$262, DW_AT_TI_max_frame_size(-40)
    1992                      .dwpsn  file "C:/ti/motorware/motorware_1_01_00_16/sw/solutions/instaspin_foc/src/proj_lab11.c",line 
    1993              
    1994                      .dwfde $C$DW$CIE, _mainISR
    1995              
    1996              ;***************************************************************
    1997              ;* FNAME: _mainISR                      FR SIZE:  38           *
    1998              ;*                                                             *
    1999              ;* FUNCTION ENVIRONMENT                                        *
    2000              ;*                                                             *
    2001              ;* FUNCTION PROPERTIES                                         *
    2002              ;*                            4 Parameter, 18 Auto, 16 SOE     *
    2003              ;***************************************************************
    2004              
    2005              _mainISR:
    2006              ;* AR5   assigned to $O$C1
    2007              ;* AR5   assigned to $O$C2
    2008              ;* AR4   assigned to $O$C3
    2009              ;* AL    assigned to $O$C4
    2010              ;* PL    assigned to $O$C5
    2011              ;* AR4   assigned to $O$C6
    2012              ;* AR3   assigned to $O$C7
TMS320C2000 Assembler PC v6.4.10 Mon Jul 11 12:58:57 2016

Tools Copyright (c) 1996-2015 Texas Instruments Incorporated
C:\Users\bee25\AppData\Local\Temp\0350410                            PAGE   41

    2013              ;* AR4   assigned to $O$C9
    2014              ;* AR5   assigned to $O$C10
    2015              ;* AR5   assigned to $O$C11
    2016              ;* AR4   assigned to $O$C12
    2017              ;* AR4   assigned to $O$C13
    2018              ;* AL    assigned to $O$C14
    2019              ;* AR4   assigned to $O$C15
    2020              ;* AR4   assigned to $O$C16
    2021              ;* AL    assigned to $O$C17
    2022              ;* AR4   assigned to $O$C18
    2023              ;* AR4   assigned to $O$C19
    2024              ;* AR4   assigned to $O$C20
    2025              ;* AR7   assigned to $O$C21
    2026              ;* AR5   assigned to $O$C22
    2027              ;* AR6   assigned to $O$C23
    2028              ;* AR7   assigned to $O$C24
    2029              ;* AR4   assigned to $O$U317
    2030              ;* AR7   assigned to $O$U323
    2031              ;* AR4   assigned to _obj
    2032              $C$DW$263       .dwtag  DW_TAG_variable, DW_AT_name("obj")
    2033                      .dwattr $C$DW$263, DW_AT_TI_symbol_name("_obj")
    2034                      .dwattr $C$DW$263, DW_AT_type(*$C$DW$T$230)
    2035                      .dwattr $C$DW$263, DW_AT_location[DW_OP_reg12]
    2036              ;* AR7   assigned to _alpha_sf
    2037              $C$DW$264       .dwtag  DW_TAG_variable, DW_AT_name("alpha_sf")
    2038                      .dwattr $C$DW$264, DW_AT_TI_symbol_name("_alpha_sf")
    2039                      .dwattr $C$DW$264, DW_AT_type(*$C$DW$T$47)
    2040                      .dwattr $C$DW$264, DW_AT_location[DW_OP_reg18]
    2041              ;* AR6   assigned to _beta_sf
    2042              $C$DW$265       .dwtag  DW_TAG_variable, DW_AT_name("beta_sf")
    2043                      .dwattr $C$DW$265, DW_AT_TI_symbol_name("_beta_sf")
    2044                      .dwattr $C$DW$265, DW_AT_type(*$C$DW$T$47)
    2045                      .dwattr $C$DW$265, DW_AT_location[DW_OP_reg16]
    2046              ;* AR7   assigned to _alpha_sf
    2047              $C$DW$266       .dwtag  DW_TAG_variable, DW_AT_name("alpha_sf")
    2048                      .dwattr $C$DW$266, DW_AT_TI_symbol_name("_alpha_sf")
    2049                      .dwattr $C$DW$266, DW_AT_type(*$C$DW$T$47)
    2050                      .dwattr $C$DW$266, DW_AT_location[DW_OP_reg18]
    2051              ;* AR6   assigned to _beta_sf
    2052              $C$DW$267       .dwtag  DW_TAG_variable, DW_AT_name("beta_sf")
    2053                      .dwattr $C$DW$267, DW_AT_TI_symbol_name("_beta_sf")
    2054                      .dwattr $C$DW$267, DW_AT_type(*$C$DW$T$47)
    2055                      .dwattr $C$DW$267, DW_AT_location[DW_OP_reg16]
    2056              ;* AR7   assigned to _refValue
    2057              $C$DW$268       .dwtag  DW_TAG_variable, DW_AT_name("refValue")
    2058                      .dwattr $C$DW$268, DW_AT_TI_symbol_name("_refValue")
    2059                      .dwattr $C$DW$268, DW_AT_type(*$C$DW$T$47)
    2060                      .dwattr $C$DW$268, DW_AT_location[DW_OP_reg18]
    2061              ;* AR4   assigned to _obj
    2062              $C$DW$269       .dwtag  DW_TAG_variable, DW_AT_name("obj")
    2063                      .dwattr $C$DW$269, DW_AT_TI_symbol_name("_obj")
    2064                      .dwattr $C$DW$269, DW_AT_type(*$C$DW$T$261)
    2065                      .dwattr $C$DW$269, DW_AT_location[DW_OP_reg12]
    2066              ;* AR6   assigned to _Up
    2067              $C$DW$270       .dwtag  DW_TAG_variable, DW_AT_name("Up")
TMS320C2000 Assembler PC v6.4.10 Mon Jul 11 12:58:57 2016

Tools Copyright (c) 1996-2015 Texas Instruments Incorporated
C:\Users\bee25\AppData\Local\Temp\0350410                            PAGE   42

    2068                      .dwattr $C$DW$270, DW_AT_TI_symbol_name("_Up")
    2069                      .dwattr $C$DW$270, DW_AT_type(*$C$DW$T$47)
    2070                      .dwattr $C$DW$270, DW_AT_location[DW_OP_reg16]
    2071              ;* AL    assigned to _Ui
    2072              $C$DW$271       .dwtag  DW_TAG_variable, DW_AT_name("Ui")
    2073                      .dwattr $C$DW$271, DW_AT_TI_symbol_name("_Ui")
    2074                      .dwattr $C$DW$271, DW_AT_type(*$C$DW$T$47)
    2075                      .dwattr $C$DW$271, DW_AT_location[DW_OP_reg0]
    2076              ;* AR3   assigned to _refValue
    2077              $C$DW$272       .dwtag  DW_TAG_variable, DW_AT_name("refValue")
    2078                      .dwattr $C$DW$272, DW_AT_TI_symbol_name("_refValue")
    2079                      .dwattr $C$DW$272, DW_AT_type(*$C$DW$T$47)
    2080                      .dwattr $C$DW$272, DW_AT_location[DW_OP_reg10]
    2081              ;* AR7   assigned to _fbackValue
    2082              $C$DW$273       .dwtag  DW_TAG_variable, DW_AT_name("fbackValue")
    2083                      .dwattr $C$DW$273, DW_AT_TI_symbol_name("_fbackValue")
    2084                      .dwattr $C$DW$273, DW_AT_type(*$C$DW$T$47)
    2085                      .dwattr $C$DW$273, DW_AT_location[DW_OP_reg18]
    2086              ;* AR6   assigned to _obj
    2087              $C$DW$274       .dwtag  DW_TAG_variable, DW_AT_name("obj")
    2088                      .dwattr $C$DW$274, DW_AT_TI_symbol_name("_obj")
    2089                      .dwattr $C$DW$274, DW_AT_type(*$C$DW$T$261)
    2090                      .dwattr $C$DW$274, DW_AT_location[DW_OP_reg16]
    2091              $C$DW$275       .dwtag  DW_TAG_variable, DW_AT_name("Up")
    2092                      .dwattr $C$DW$275, DW_AT_TI_symbol_name("_Up")
    2093                      .dwattr $C$DW$275, DW_AT_type(*$C$DW$T$47)
    2094                      .dwattr $C$DW$275, DW_AT_location[DW_OP_breg20 -20]
    2095              ;* AL    assigned to _Ui
    2096              $C$DW$276       .dwtag  DW_TAG_variable, DW_AT_name("Ui")
    2097                      .dwattr $C$DW$276, DW_AT_TI_symbol_name("_Ui")
    2098                      .dwattr $C$DW$276, DW_AT_type(*$C$DW$T$47)
    2099                      .dwattr $C$DW$276, DW_AT_location[DW_OP_reg0]
    2100              ;* AR4   assigned to _obj
    2101              $C$DW$277       .dwtag  DW_TAG_variable, DW_AT_name("obj")
    2102                      .dwattr $C$DW$277, DW_AT_TI_symbol_name("_obj")
    2103                      .dwattr $C$DW$277, DW_AT_type(*$C$DW$T$261)
    2104                      .dwattr $C$DW$277, DW_AT_location[DW_OP_reg12]
    2105              ;* AR7   assigned to _refValue
    2106              $C$DW$278       .dwtag  DW_TAG_variable, DW_AT_name("refValue")
    2107                      .dwattr $C$DW$278, DW_AT_TI_symbol_name("_refValue")
    2108                      .dwattr $C$DW$278, DW_AT_type(*$C$DW$T$47)
    2109                      .dwattr $C$DW$278, DW_AT_location[DW_OP_reg18]
    2110              ;* AR6   assigned to _fbackValue
    2111              $C$DW$279       .dwtag  DW_TAG_variable, DW_AT_name("fbackValue")
    2112                      .dwattr $C$DW$279, DW_AT_TI_symbol_name("_fbackValue")
    2113                      .dwattr $C$DW$279, DW_AT_type(*$C$DW$T$47)
    2114                      .dwattr $C$DW$279, DW_AT_location[DW_OP_reg16]
    2115              ;* AR4   assigned to _obj
    2116              $C$DW$280       .dwtag  DW_TAG_variable, DW_AT_name("obj")
    2117                      .dwattr $C$DW$280, DW_AT_TI_symbol_name("_obj")
    2118                      .dwattr $C$DW$280, DW_AT_type(*$C$DW$T$261)
    2119                      .dwattr $C$DW$280, DW_AT_location[DW_OP_reg12]
    2120              ;* AR5   assigned to _Up
    2121              $C$DW$281       .dwtag  DW_TAG_variable, DW_AT_name("Up")
    2122                      .dwattr $C$DW$281, DW_AT_TI_symbol_name("_Up")
TMS320C2000 Assembler PC v6.4.10 Mon Jul 11 12:58:57 2016

Tools Copyright (c) 1996-2015 Texas Instruments Incorporated
C:\Users\bee25\AppData\Local\Temp\0350410                            PAGE   43

    2123                      .dwattr $C$DW$281, DW_AT_type(*$C$DW$T$47)
    2124                      .dwattr $C$DW$281, DW_AT_location[DW_OP_reg14]
    2125              ;* AL    assigned to _Ui
    2126              $C$DW$282       .dwtag  DW_TAG_variable, DW_AT_name("Ui")
    2127                      .dwattr $C$DW$282, DW_AT_TI_symbol_name("_Ui")
    2128                      .dwattr $C$DW$282, DW_AT_type(*$C$DW$T$47)
    2129                      .dwattr $C$DW$282, DW_AT_location[DW_OP_reg0]
    2130              ;* AR4   assigned to _obj
    2131              $C$DW$283       .dwtag  DW_TAG_variable, DW_AT_name("obj")
    2132                      .dwattr $C$DW$283, DW_AT_TI_symbol_name("_obj")
    2133                      .dwattr $C$DW$283, DW_AT_type(*$C$DW$T$240)
    2134                      .dwattr $C$DW$283, DW_AT_location[DW_OP_reg12]
    2135              ;* AR7   assigned to _sinTh
    2136              $C$DW$284       .dwtag  DW_TAG_variable, DW_AT_name("sinTh")
    2137                      .dwattr $C$DW$284, DW_AT_TI_symbol_name("_sinTh")
    2138                      .dwattr $C$DW$284, DW_AT_type(*$C$DW$T$47)
    2139                      .dwattr $C$DW$284, DW_AT_location[DW_OP_reg18]
    2140              ;* AR4   assigned to _cosTh
    2141              $C$DW$285       .dwtag  DW_TAG_variable, DW_AT_name("cosTh")
    2142                      .dwattr $C$DW$285, DW_AT_TI_symbol_name("_cosTh")
    2143                      .dwattr $C$DW$285, DW_AT_type(*$C$DW$T$47)
    2144                      .dwattr $C$DW$285, DW_AT_location[DW_OP_reg12]
    2145              ;* AR6   assigned to _Va
    2146              $C$DW$286       .dwtag  DW_TAG_variable, DW_AT_name("Va")
    2147                      .dwattr $C$DW$286, DW_AT_TI_symbol_name("_Va")
    2148                      .dwattr $C$DW$286, DW_AT_type(*$C$DW$T$47)
    2149                      .dwattr $C$DW$286, DW_AT_location[DW_OP_reg16]
    2150              ;* AR5   assigned to _Vb
    2151              $C$DW$287       .dwtag  DW_TAG_variable, DW_AT_name("Vb")
    2152                      .dwattr $C$DW$287, DW_AT_TI_symbol_name("_Vb")
    2153                      .dwattr $C$DW$287, DW_AT_type(*$C$DW$T$47)
    2154                      .dwattr $C$DW$287, DW_AT_location[DW_OP_reg14]
    2155              ;* AR7   assigned to _Vc
    2156              $C$DW$288       .dwtag  DW_TAG_variable, DW_AT_name("Vc")
    2157                      .dwattr $C$DW$288, DW_AT_TI_symbol_name("_Vc")
    2158                      .dwattr $C$DW$288, DW_AT_type(*$C$DW$T$47)
    2159                      .dwattr $C$DW$288, DW_AT_location[DW_OP_reg18]
    2160              ;* AR5   assigned to _obj
    2161              $C$DW$289       .dwtag  DW_TAG_variable, DW_AT_name("obj")
    2162                      .dwattr $C$DW$289, DW_AT_TI_symbol_name("_obj")
    2163                      .dwattr $C$DW$289, DW_AT_type(*$C$DW$T$230)
    2164                      .dwattr $C$DW$289, DW_AT_location[DW_OP_reg14]
    2165              ;* AR0   assigned to _period
    2166              $C$DW$290       .dwtag  DW_TAG_variable, DW_AT_name("period")
    2167                      .dwattr $C$DW$290, DW_AT_TI_symbol_name("_period")
    2168                      .dwattr $C$DW$290, DW_AT_type(*$C$DW$T$47)
    2169                      .dwattr $C$DW$290, DW_AT_location[DW_OP_reg4]
    2170              ;* AR6   assigned to _outMax_pu
    2171              $C$DW$291       .dwtag  DW_TAG_variable, DW_AT_name("outMax_pu")
    2172                      .dwattr $C$DW$291, DW_AT_TI_symbol_name("_outMax_pu")
    2173                      .dwattr $C$DW$291, DW_AT_type(*$C$DW$T$47)
    2174                      .dwattr $C$DW$291, DW_AT_location[DW_OP_reg16]
    2175              $C$DW$292       .dwtag  DW_TAG_variable, DW_AT_name("fbackValue")
    2176                      .dwattr $C$DW$292, DW_AT_TI_symbol_name("_fbackValue")
    2177                      .dwattr $C$DW$292, DW_AT_type(*$C$DW$T$47)
TMS320C2000 Assembler PC v6.4.10 Mon Jul 11 12:58:57 2016

Tools Copyright (c) 1996-2015 Texas Instruments Incorporated
C:\Users\bee25\AppData\Local\Temp\0350410                            PAGE   44

    2178                      .dwattr $C$DW$292, DW_AT_location[DW_OP_breg20 -20]
    2179              ;* AR1   assigned to _refValue
    2180              $C$DW$293       .dwtag  DW_TAG_variable, DW_AT_name("refValue")
    2181                      .dwattr $C$DW$293, DW_AT_TI_symbol_name("_refValue")
    2182                      .dwattr $C$DW$293, DW_AT_type(*$C$DW$T$47)
    2183                      .dwattr $C$DW$293, DW_AT_location[DW_OP_reg6]
    2184              ;* AR6   assigned to _oneOverDcBus
    2185              $C$DW$294       .dwtag  DW_TAG_variable, DW_AT_name("oneOverDcBus")
    2186                      .dwattr $C$DW$294, DW_AT_TI_symbol_name("_oneOverDcBus")
    2187                      .dwattr $C$DW$294, DW_AT_type(*$C$DW$T$47)
    2188                      .dwattr $C$DW$294, DW_AT_location[DW_OP_reg16]
    2189              $C$DW$295       .dwtag  DW_TAG_variable, DW_AT_name("speed_pu")
    2190                      .dwattr $C$DW$295, DW_AT_TI_symbol_name("_speed_pu")
    2191                      .dwattr $C$DW$295, DW_AT_type(*$C$DW$T$47)
    2192                      .dwattr $C$DW$295, DW_AT_location[DW_OP_breg20 -22]
    2193              ;* AR2   assigned to _angle_pu
    2194              $C$DW$296       .dwtag  DW_TAG_variable, DW_AT_name("angle_pu")
    2195                      .dwattr $C$DW$296, DW_AT_TI_symbol_name("_angle_pu")
    2196                      .dwattr $C$DW$296, DW_AT_type(*$C$DW$T$47)
    2197                      .dwattr $C$DW$296, DW_AT_location[DW_OP_reg8]
    2198              ;* XT    assigned to _value
    2199              $C$DW$297       .dwtag  DW_TAG_variable, DW_AT_name("value")
    2200                      .dwattr $C$DW$297, DW_AT_TI_symbol_name("_value")
    2201                      .dwattr $C$DW$297, DW_AT_type(*$C$DW$T$47)
    2202                      .dwattr $C$DW$297, DW_AT_location[DW_OP_reg21]
    2203              ;* XT    assigned to _value
    2204              $C$DW$298       .dwtag  DW_TAG_variable, DW_AT_name("value")
    2205                      .dwattr $C$DW$298, DW_AT_TI_symbol_name("_value")
    2206                      .dwattr $C$DW$298, DW_AT_type(*$C$DW$T$47)
    2207                      .dwattr $C$DW$298, DW_AT_location[DW_OP_reg21]
    2208              ;* XT    assigned to _value
    2209              $C$DW$299       .dwtag  DW_TAG_variable, DW_AT_name("value")
    2210                      .dwattr $C$DW$299, DW_AT_TI_symbol_name("_value")
    2211                      .dwattr $C$DW$299, DW_AT_type(*$C$DW$T$47)
    2212                      .dwattr $C$DW$299, DW_AT_location[DW_OP_reg21]
    2213              ;* XT    assigned to _value
    2214              $C$DW$300       .dwtag  DW_TAG_variable, DW_AT_name("value")
    2215                      .dwattr $C$DW$300, DW_AT_TI_symbol_name("_value")
    2216                      .dwattr $C$DW$300, DW_AT_type(*$C$DW$T$47)
    2217                      .dwattr $C$DW$300, DW_AT_location[DW_OP_reg21]
    2218              ;* XT    assigned to _value
    2219              $C$DW$301       .dwtag  DW_TAG_variable, DW_AT_name("value")
    2220                      .dwattr $C$DW$301, DW_AT_TI_symbol_name("_value")
    2221                      .dwattr $C$DW$301, DW_AT_type(*$C$DW$T$47)
    2222                      .dwattr $C$DW$301, DW_AT_location[DW_OP_reg21]
    2223              ;* XT    assigned to _value
    2224              $C$DW$302       .dwtag  DW_TAG_variable, DW_AT_name("value")
    2225                      .dwattr $C$DW$302, DW_AT_TI_symbol_name("_value")
    2226                      .dwattr $C$DW$302, DW_AT_type(*$C$DW$T$47)
    2227                      .dwattr $C$DW$302, DW_AT_location[DW_OP_reg21]
    2228              ;* XT    assigned to _value
    2229              $C$DW$303       .dwtag  DW_TAG_variable, DW_AT_name("value")
    2230                      .dwattr $C$DW$303, DW_AT_TI_symbol_name("_value")
    2231                      .dwattr $C$DW$303, DW_AT_type(*$C$DW$T$47)
    2232                      .dwattr $C$DW$303, DW_AT_location[DW_OP_reg21]
TMS320C2000 Assembler PC v6.4.10 Mon Jul 11 12:58:57 2016

Tools Copyright (c) 1996-2015 Texas Instruments Incorporated
C:\Users\bee25\AppData\Local\Temp\0350410                            PAGE   45

    2233              ;* PL    assigned to _Vmax
    2234              $C$DW$304       .dwtag  DW_TAG_variable, DW_AT_name("Vmax")
    2235                      .dwattr $C$DW$304, DW_AT_TI_symbol_name("_Vmax")
    2236                      .dwattr $C$DW$304, DW_AT_type(*$C$DW$T$47)
    2237                      .dwattr $C$DW$304, DW_AT_location[DW_OP_reg2]
    2238              ;* XT    assigned to _Vmin
    2239              $C$DW$305       .dwtag  DW_TAG_variable, DW_AT_name("Vmin")
    2240                      .dwattr $C$DW$305, DW_AT_TI_symbol_name("_Vmin")
    2241                      .dwattr $C$DW$305, DW_AT_type(*$C$DW$T$47)
    2242                      .dwattr $C$DW$305, DW_AT_location[DW_OP_reg21]
    2243              ;* AR4   assigned to $O$v2
    2244              ;* AR4   assigned to $O$v1
    2245              ;* AR4   assigned to $O$v1
    2246              $C$DW$306       .dwtag  DW_TAG_variable, DW_AT_name("Iab_pu")
    2247                      .dwattr $C$DW$306, DW_AT_TI_symbol_name("_Iab_pu")
    2248                      .dwattr $C$DW$306, DW_AT_type(*$C$DW$T$246)
    2249                      .dwattr $C$DW$306, DW_AT_location[DW_OP_breg20 -8]
    2250              $C$DW$307       .dwtag  DW_TAG_variable, DW_AT_name("Vab_pu")
    2251                      .dwattr $C$DW$307, DW_AT_TI_symbol_name("_Vab_pu")
    2252                      .dwattr $C$DW$307, DW_AT_type(*$C$DW$T$246)
    2253                      .dwattr $C$DW$307, DW_AT_location[DW_OP_breg20 -12]
    2254              $C$DW$308       .dwtag  DW_TAG_variable, DW_AT_name("phasor")
    2255                      .dwattr $C$DW$308, DW_AT_TI_symbol_name("_phasor")
    2256                      .dwattr $C$DW$308, DW_AT_type(*$C$DW$T$246)
    2257                      .dwattr $C$DW$308, DW_AT_location[DW_OP_breg20 -16]
    2258                      .dwcfi  cfa_offset, -2
    2259                      .dwcfi  save_reg_to_mem, 26, 0
    2260 00000000 761B          ASP       ; [CPU_] 
    2261 00000001 0005          PUSH      AR1H:AR0H             ; [CPU_] 
    2262                      .dwcfi  save_reg_to_mem, 5, 2
    2263                      .dwcfi  save_reg_to_mem, 7, 3
    2264                      .dwcfi  cfa_offset, -4
    2265 00000002 ABBD          MOVL      *SP++,XT              ; [CPU_] 
    2266                      .dwcfi  save_reg_to_mem, 21, 4
    2267                      .dwcfi  save_reg_to_mem, 22, 5
    2268                      .dwcfi  cfa_offset, -6
    2269 00000003 AABD          MOVL      *SP++,XAR2            ; [CPU_] 
    2270                      .dwcfi  save_reg_to_mem, 8, 6
    2271                      .dwcfi  save_reg_to_mem, 9, 7
    2272                      .dwcfi  cfa_offset, -8
    2273 00000004 A2BD          MOVL      *SP++,XAR3            ; [CPU_] 
    2274                      .dwcfi  save_reg_to_mem, 10, 8
    2275                      .dwcfi  save_reg_to_mem, 11, 9
    2276                      .dwcfi  cfa_offset, -10
    2277 00000005 A8BD          MOVL      *SP++,XAR4            ; [CPU_] 
    2278                      .dwcfi  save_reg_to_mem, 12, 10
    2279                      .dwcfi  save_reg_to_mem, 13, 11
    2280                      .dwcfi  cfa_offset, -12
    2281 00000006 A0BD          MOVL      *SP++,XAR5            ; [CPU_] 
    2282                      .dwcfi  save_reg_to_mem, 14, 12
    2283                      .dwcfi  save_reg_to_mem, 15, 13
    2284                      .dwcfi  cfa_offset, -14
    2285 00000007 C2BD          MOVL      *SP++,XAR6            ; [CPU_] 
    2286                      .dwcfi  save_reg_to_mem, 16, 14
    2287                      .dwcfi  save_reg_to_mem, 17, 15
TMS320C2000 Assembler PC v6.4.10 Mon Jul 11 12:58:57 2016

Tools Copyright (c) 1996-2015 Texas Instruments Incorporated
C:\Users\bee25\AppData\Local\Temp\0350410                            PAGE   46

    2288                      .dwcfi  cfa_offset, -16
    2289 00000008 C3BD          MOVL      *SP++,XAR7            ; [CPU_] 
    2290                      .dwcfi  save_reg_to_mem, 18, 16
    2291                      .dwcfi  save_reg_to_mem, 19, 17
    2292                      .dwcfi  cfa_offset, -18
    2293 00000009 FE16          ADDB      SP,#22                ; [CPU_U] 
    2294                      .dwcfi  cfa_offset, -40
    2295 0000000a FF69          SPM       0                     ; [CPU_] 
    2296 0000000b 2942          CLRC      PAGE0,OVM             ; [CPU_] 
    2297 0000000c 5616          CLRC      AMODE                 ; [CPU_] 
    2298 0000000d 761F-         MOVW      DP,#_halHandle        ; [CPU_U] 
         0000000e 0000 
    2299                      .dwpsn  file "C:/ti/motorware/motorware_1_01_00_16/sw/solutions/instaspin_foc/src/proj_lab11.c",line 
    2300 0000000f 8A00-         MOVL      XAR4,@_halHandle      ; [CPU_] |548| 
    2301                      .dwpsn  file "C:/ti/motorware/motorware_1_01_00_16/sw/drivers/adc/src/32b/f28x/f2802x/adc.h",line 571
    2302 00000010 8F40          MOVL      XAR5,#26117           ; [CPU_U] |571| 
         00000011 6605 
    2303 00000012 A0A9          MOVL      ACC,XAR5              ; [CPU_] |571| 
    2304 00000013 07C4          ADDL      ACC,*+XAR4[0]         ; [CPU_] |571| 
    2305 00000014 83A9          MOVL      XAR5,ACC              ; [CPU_] |571| 
    2306                      .dwpsn  file "C:/ti/motorware/motorware_1_01_00_16/sw/drivers/pie/src/32b/f28x/f2802x/pie.h",line 757
    2307 00000015 D078          MOVB      XAR0,#120             ; [CPU_] |757| 
    2308                      .dwpsn  file "C:/ti/motorware/motorware_1_01_00_16/sw/drivers/adc/src/32b/f28x/f2802x/adc.h",line 571
    2309 00000016 56BF          MOVB      *+XAR5[0],#1,UNC      ; [CPU_] |571| 
         00000017 01C5 
    2310                      .dwpsn  file "C:/ti/motorware/motorware_1_01_00_16/sw/drivers/pie/src/32b/f28x/f2802x/pie.h",line 757
    2311 00000018 8394          MOVL      XAR5,*+XAR4[AR0]      ; [CPU_] |757| 
    2312                      .dwpsn  file "C:/ti/motorware/motorware_1_01_00_16/sw/modules/hal/boards/boostxldrv8301_revB/f28x/f28
    2313 00000019 D0A2          MOVB      XAR0,#162             ; [CPU_] |564| 
    2314                      .dwpsn  file "C:/ti/motorware/motorware_1_01_00_16/sw/drivers/pie/src/32b/f28x/f2802x/pie.h",line 757
    2315 0000001a 28CD          MOV       *+XAR5[1],#512        ; [CPU_] |757| 
         0000001b 0200 
    2316                      .dwpsn  file "C:/ti/motorware/motorware_1_01_00_16/sw/drivers/adc/src/32b/f28x/f2802x/adc.h",line 684
    2317 0000001c 83C4          MOVL      XAR5,*+XAR4[0]        ; [CPU_] |684| 
    2318                      .dwpsn  file "C:/ti/motorware/motorware_1_01_00_16/sw/modules/hal/boards/boostxldrv8301_revB/f28x/f28
    2319 0000001d C594          MOVL      XAR7,*+XAR4[AR0]      ; [CPU_] |564| 
    2320                      .dwpsn  file "C:/ti/motorware/motorware_1_01_00_16/sw/modules/hal/boards/boostxldrv8301_revB/f28x/f28
    2321 0000001e 7680-         MOVL      XAR6,#_gAdcData       ; [CPU_U] |565| 
         0000001f 0052 
    2322                      .dwpsn  file "C:/ti/motorware/motorware_1_01_00_16/sw/modules/hal/boards/boostxldrv8301_revB/f28x/f28
    2323 00000020 D0A4          MOVB      XAR0,#164             ; [CPU_] |579| 
    2324                      .dwpsn  file "C:/ti/motorware/motorware_1_01_00_16/sw/drivers/adc/src/32b/f28x/f2802x/adc.h",line 684
    2325 00000021 0ECD          MOVU      ACC,*+XAR5[1]         ; [CPU_] |684| 
    2326 00000022 1EAC          MOVL      XT,ACC                ; [CPU_] |684| 
    2327                      .dwpsn  file "C:/ti/motorware/motorware_1_01_00_16/sw/modules/hal/boards/boostxldrv8301_revB/f28x/f28
    2328 00000023 5605          IMPYL     P,XT,XAR7             ; [CPU_] |564| 
         00000024 00A7 
    2329 00000025 5663          QMPYL     ACC,XT,XAR7           ; [CPU_] |564| 
         00000026 00A7 
    2330 00000027 568B          ASR64     ACC:P,#12             ; [CPU_] |564| 
    2331                      .dwpsn  file "C:/ti/motorware/motorware_1_01_00_16/sw/modules/hal/boards/boostxldrv8301_revB/f28x/f28
    2332 00000028 A9C6          MOVL      *+XAR6[0],P           ; [CPU_] |565| 
    2333                      .dwpsn  file "C:/ti/motorware/motorware_1_01_00_16/sw/drivers/adc/src/32b/f28x/f2802x/adc.h",line 684
    2334 00000029 0ED5          MOVU      ACC,*+XAR5[2]         ; [CPU_] |684| 
    2335 0000002a 1EAC          MOVL      XT,ACC                ; [CPU_] |684| 
TMS320C2000 Assembler PC v6.4.10 Mon Jul 11 12:58:57 2016

Tools Copyright (c) 1996-2015 Texas Instruments Incorporated
C:\Users\bee25\AppData\Local\Temp\0350410                            PAGE   47

    2336                      .dwpsn  file "C:/ti/motorware/motorware_1_01_00_16/sw/modules/hal/boards/boostxldrv8301_revB/f28x/f28
    2337 0000002b 5663          QMPYL     ACC,XT,XAR7           ; [CPU_] |569| 
         0000002c 00A7 
    2338 0000002d 5605          IMPYL     P,XT,XAR7             ; [CPU_] |569| 
         0000002e 00A7 
    2339 0000002f 568B          ASR64     ACC:P,#12             ; [CPU_] |569| 
    2340                      .dwpsn  file "C:/ti/motorware/motorware_1_01_00_16/sw/modules/hal/boards/boostxldrv8301_revB/f28x/f28
    2341 00000030 A9D6          MOVL      *+XAR6[2],P           ; [CPU_] |570| 
    2342                      .dwpsn  file "C:/ti/motorware/motorware_1_01_00_16/sw/drivers/adc/src/32b/f28x/f2802x/adc.h",line 684
    2343 00000031 0EDD          MOVU      ACC,*+XAR5[3]         ; [CPU_] |684| 
    2344 00000032 1EAC          MOVL      XT,ACC                ; [CPU_] |684| 
    2345                      .dwpsn  file "C:/ti/motorware/motorware_1_01_00_16/sw/modules/hal/boards/boostxldrv8301_revB/f28x/f28
    2346 00000033 5663          QMPYL     ACC,XT,XAR7           ; [CPU_] |574| 
         00000034 00A7 
    2347 00000035 5605          IMPYL     P,XT,XAR7             ; [CPU_] |574| 
         00000036 00A7 
    2348 00000037 568B          ASR64     ACC:P,#12             ; [CPU_] |574| 
    2349                      .dwpsn  file "C:/ti/motorware/motorware_1_01_00_16/sw/modules/hal/boards/boostxldrv8301_revB/f28x/f28
    2350 00000038 A9E6          MOVL      *+XAR6[4],P           ; [CPU_] |575| 
    2351                      .dwpsn  file "C:/ti/motorware/motorware_1_01_00_16/sw/drivers/adc/src/32b/f28x/f2802x/adc.h",line 684
    2352 00000039 0EE5          MOVU      ACC,*+XAR5[4]         ; [CPU_] |684| 
    2353                      .dwpsn  file "C:/ti/motorware/motorware_1_01_00_16/sw/modules/hal/boards/boostxldrv8301_revB/f28x/f28
    2354 0000003a C594          MOVL      XAR7,*+XAR4[AR0]      ; [CPU_] |579| 
    2355 0000003b 761F-         MOVW      DP,#_gAdcData+12      ; [CPU_U] 
         0000003c 0001 
    2356                      .dwpsn  file "C:/ti/motorware/motorware_1_01_00_16/sw/drivers/adc/src/32b/f28x/f2802x/adc.h",line 684
    2357 0000003d 1EAC          MOVL      XT,ACC                ; [CPU_] |684| 
    2358                      .dwpsn  file "C:/ti/motorware/motorware_1_01_00_16/sw/modules/hal/boards/boostxldrv8301_revB/f28x/f28
    2359 0000003e D008          MOVB      XAR0,#8               ; [CPU_] |585| 
    2360                      .dwpsn  file "C:/ti/motorware/motorware_1_01_00_16/sw/modules/hal/boards/boostxldrv8301_revB/f28x/f28
    2361 0000003f 5663          QMPYL     ACC,XT,XAR7           ; [CPU_] |579| 
         00000040 00A7 
    2362 00000041 5605          IMPYL     P,XT,XAR7             ; [CPU_] |579| 
         00000042 00A7 
    2363                      .dwpsn  file "C:/ti/motorware/motorware_1_01_00_16/sw/solutions/instaspin_foc/src/proj_lab11.c",line 
    2364 00000043 8F00-         MOVL      XAR4,#_gOffsets_I_pu  ; [CPU_U] |554| 
         00000044 0046 
    2365                      .dwpsn  file "C:/ti/motorware/motorware_1_01_00_16/sw/modules/hal/boards/boostxldrv8301_revB/f28x/f28
    2366 00000045 568B          ASR64     ACC:P,#12             ; [CPU_] |579| 
    2367                      .dwpsn  file "C:/ti/motorware/motorware_1_01_00_16/sw/modules/hal/boards/boostxldrv8301_revB/f28x/f28
    2368 00000046 A9F6          MOVL      *+XAR6[6],P           ; [CPU_] |580| 
    2369                      .dwpsn  file "C:/ti/motorware/motorware_1_01_00_16/sw/drivers/adc/src/32b/f28x/f2802x/adc.h",line 684
    2370 00000047 0EED          MOVU      ACC,*+XAR5[5]         ; [CPU_] |684| 
    2371 00000048 1EAC          MOVL      XT,ACC                ; [CPU_] |684| 
    2372                      .dwpsn  file "C:/ti/motorware/motorware_1_01_00_16/sw/modules/hal/boards/boostxldrv8301_revB/f28x/f28
    2373 00000049 5663          QMPYL     ACC,XT,XAR7           ; [CPU_] |584| 
         0000004a 00A7 
    2374 0000004b 5605          IMPYL     P,XT,XAR7             ; [CPU_] |584| 
         0000004c 00A7 
    2375 0000004d 568B          ASR64     ACC:P,#12             ; [CPU_] |584| 
    2376                      .dwpsn  file "C:/ti/motorware/motorware_1_01_00_16/sw/modules/hal/boards/boostxldrv8301_revB/f28x/f28
    2377 0000004e A996          MOVL      *+XAR6[AR0],P         ; [CPU_] |585| 
    2378                      .dwpsn  file "C:/ti/motorware/motorware_1_01_00_16/sw/modules/hal/boards/boostxldrv8301_revB/f28x/f28
    2379 0000004f D00A          MOVB      XAR0,#10              ; [CPU_] |590| 
    2380                      .dwpsn  file "C:/ti/motorware/motorware_1_01_00_16/sw/drivers/adc/src/32b/f28x/f2802x/adc.h",line 684
TMS320C2000 Assembler PC v6.4.10 Mon Jul 11 12:58:57 2016

Tools Copyright (c) 1996-2015 Texas Instruments Incorporated
C:\Users\bee25\AppData\Local\Temp\0350410                            PAGE   48

    2381 00000050 0EF5          MOVU      ACC,*+XAR5[6]         ; [CPU_] |684| 
    2382 00000051 1EAC          MOVL      XT,ACC                ; [CPU_] |684| 
    2383                      .dwpsn  file "C:/ti/motorware/motorware_1_01_00_16/sw/modules/hal/boards/boostxldrv8301_revB/f28x/f28
    2384 00000052 5663          QMPYL     ACC,XT,XAR7           ; [CPU_] |589| 
         00000053 00A7 
    2385 00000054 5605          IMPYL     P,XT,XAR7             ; [CPU_] |589| 
         00000055 00A7 
    2386 00000056 568B          ASR64     ACC:P,#12             ; [CPU_] |589| 
    2387                      .dwpsn  file "C:/ti/motorware/motorware_1_01_00_16/sw/modules/hal/boards/boostxldrv8301_revB/f28x/f28
    2388 00000057 A996          MOVL      *+XAR6[AR0],P         ; [CPU_] |590| 
    2389                      .dwpsn  file "C:/ti/motorware/motorware_1_01_00_16/sw/drivers/adc/src/32b/f28x/f2802x/adc.h",line 684
    2390 00000058 0EFD          MOVU      ACC,*+XAR5[7]         ; [CPU_] |684| 
    2391 00000059 1EAC          MOVL      XT,ACC                ; [CPU_] |684| 
    2392                      .dwpsn  file "C:/ti/motorware/motorware_1_01_00_16/sw/modules/hal/boards/boostxldrv8301_revB/f28x/f28
    2393 0000005a 5663          QMPYL     ACC,XT,XAR7           ; [CPU_] |594| 
         0000005b 00A7 
    2394 0000005c 5605          IMPYL     P,XT,XAR7             ; [CPU_] |594| 
         0000005d 00A7 
    2395 0000005e 568B          ASR64     ACC:P,#12             ; [CPU_] |594| 
    2396                      .dwpsn  file "C:/ti/motorware/motorware_1_01_00_16/sw/modules/hal/boards/boostxldrv8301_revB/f28x/f28
    2397 0000005f A91E-         MOVL      @_gAdcData+12,P       ; [CPU_] |595| 
    2398                      .dwpsn  file "C:/ti/motorware/motorware_1_01_00_16/sw/solutions/instaspin_foc/src/proj_lab11.c",line 
    2399 00000060 06C4          MOVL      ACC,*+XAR4[0]         ; [CPU_] |554| 
    2400 00000061 5641-         SUBL      @_gAdcData,ACC        ; [CPU_] |554| 
         00000062 0012 
    2401                      .dwpsn  file "C:/ti/motorware/motorware_1_01_00_16/sw/solutions/instaspin_foc/src/proj_lab11.c",line 
    2402 00000063 06D4          MOVL      ACC,*+XAR4[2]         ; [CPU_] |555| 
    2403 00000064 5641-         SUBL      @_gAdcData+2,ACC      ; [CPU_] |555| 
         00000065 0014 
    2404                      .dwpsn  file "C:/ti/motorware/motorware_1_01_00_16/sw/solutions/instaspin_foc/src/proj_lab11.c",line 
    2405 00000066 06E4          MOVL      ACC,*+XAR4[4]         ; [CPU_] |556| 
    2406                      .dwpsn  file "C:/ti/motorware/motorware_1_01_00_16/sw/solutions/instaspin_foc/src/proj_lab11.c",line 
    2407 00000067 8F00-         MOVL      XAR4,#_gOffsets_V_pu  ; [CPU_U] |557| 
         00000068 0030 
    2408                      .dwpsn  file "C:/ti/motorware/motorware_1_01_00_16/sw/solutions/instaspin_foc/src/proj_lab11.c",line 
    2409 00000069 5641-         SUBL      @_gAdcData+4,ACC      ; [CPU_] |556| 
         0000006a 0016 
    2410                      .dwpsn  file "C:/ti/motorware/motorware_1_01_00_16/sw/solutions/instaspin_foc/src/proj_lab11.c",line 
    2411 0000006b 06C4          MOVL      ACC,*+XAR4[0]         ; [CPU_] |557| 
    2412 0000006c 5641-         SUBL      @_gAdcData+6,ACC      ; [CPU_] |557| 
         0000006d 0018 
    2413                      .dwpsn  file "C:/ti/motorware/motorware_1_01_00_16/sw/solutions/instaspin_foc/src/proj_lab11.c",line 
    2414 0000006e 06D4          MOVL      ACC,*+XAR4[2]         ; [CPU_] |558| 
    2415 0000006f 5641-         SUBL      @_gAdcData+8,ACC      ; [CPU_] |558| 
         00000070 001A 
    2416                      .dwpsn  file "C:/ti/motorware/motorware_1_01_00_16/sw/solutions/instaspin_foc/src/proj_lab11.c",line 
    2417 00000071 06E4          MOVL      ACC,*+XAR4[4]         ; [CPU_] |559| 
    2418 00000072 5641-         SUBL      @_gAdcData+10,ACC     ; [CPU_] |559| 
         00000073 001C 
    2419 00000074 761F-         MOVW      DP,#_clarkeHandle_I   ; [CPU_U] 
         00000075 0000 
    2420                      .dwpsn  file "C:/ti/motorware/motorware_1_01_00_16/sw/modules/clarke/src/32b/clarke.h",line 125,colum
    2421 00000076 8A0A-         MOVL      XAR4,@_clarkeHandle_I ; [CPU_] |125| 
    2422                      .dwpsn  file "C:/ti/motorware/motorware_1_01_00_16/sw/modules/clarke/src/32b/clarke.h",line 129,colum
    2423 00000077 92E4          MOV       AL,*+XAR4[4]          ; [CPU_] |129| 
TMS320C2000 Assembler PC v6.4.10 Mon Jul 11 12:58:57 2016

Tools Copyright (c) 1996-2015 Texas Instruments Incorporated
C:\Users\bee25\AppData\Local\Temp\0350410                            PAGE   49

    2424                      .dwpsn  file "C:/ti/motorware/motorware_1_01_00_16/sw/modules/clarke/src/32b/clarke.h",line 126,colum
    2425 00000078 C4D4          MOVL      XAR6,*+XAR4[2]        ; [CPU_] |126| 
    2426                      .dwpsn  file "C:/ti/motorware/motorware_1_01_00_16/sw/modules/clarke/src/32b/clarke.h",line 125,colum
    2427 00000079 C5C4          MOVL      XAR7,*+XAR4[0]        ; [CPU_] |125| 
    2428                      .dwpsn  file "C:/ti/motorware/motorware_1_01_00_16/sw/modules/clarke/src/32b/clarke.h",line 129,colum
    2429 0000007a 5203          CMPB      AL,#3                 ; [CPU_] |129| 
    2430 0000007b EC10          BF        $C$L10,EQ             ; [CPU_] |129| 
    2431                      ; branchcc occurs ; [] |129| 
    2432                      .dwpsn  file "C:/ti/motorware/motorware_1_01_00_16/sw/modules/clarke/src/32b/clarke.h",line 134,colum
    2433 0000007c 5202          CMPB      AL,#2                 ; [CPU_] |134| 
    2434 0000007d ED26          BF        $C$L12,NEQ            ; [CPU_] |134| 
    2435                      ; branchcc occurs ; [] |134| 
    2436 0000007e 761F-         MOVW      DP,#_gAdcData         ; [CPU_U] 
         0000007f 0001 
    2437                      .dwpsn  file "C:/ti/motorware/motorware_1_01_00_16/sw/modules/clarke/src/32b/clarke.h",line 136,colum
    2438 00000080 8712-         MOVL      XT,@_gAdcData         ; [CPU_] |136| 
    2439 00000081 5605          IMPYL     P,XT,XAR7             ; [CPU_] |136| 
         00000082 00A7 
    2440 00000083 5663          QMPYL     ACC,XT,XAR7           ; [CPU_] |136| 
         00000084 00A7 
    2441 00000085 56A7          LSL64     ACC:P,#8              ; [CPU_] |136| 
    2442 00000086 1E48          MOVL      *-SP[8],ACC           ; [CPU_] |136| 
    2443                      .dwpsn  file "C:/ti/motorware/motorware_1_01_00_16/sw/modules/clarke/src/32b/clarke.h",line 137,colum
    2444 00000087 0614-         MOVL      ACC,@_gAdcData+2      ; [CPU_] |137| 
    2445 00000088 FF30          LSL       ACC,1                 ; [CPU_] |137| 
    2446 00000089 0712-         ADDL      ACC,@_gAdcData        ; [CPU_] |137| 
    2447 0000008a 6F12          B         $C$L11,UNC            ; [CPU_] |137| 
    2448                      ; branch occurs ; [] |137| 
    2449 0000008b       $C$L10:    
    2450 0000008b 761F-         MOVW      DP,#_gAdcData         ; [CPU_U] 
         0000008c 0001 
    2451                      .dwpsn  file "C:/ti/motorware/motorware_1_01_00_16/sw/modules/clarke/src/32b/clarke.h",line 131,colum
    2452 0000008d 8F00-         MOVL      XAR4,#_gAdcData       ; [CPU_U] |131| 
         0000008e 0052 
    2453 0000008f 0612-         MOVL      ACC,@_gAdcData        ; [CPU_] |131| 
    2454 00000090 FF30          LSL       ACC,1                 ; [CPU_] |131| 
    2455 00000091 03D4          SUBL      ACC,*+XAR4[2]         ; [CPU_] |131| 
    2456 00000092 03E4          SUBL      ACC,*+XAR4[4]         ; [CPU_] |131| 
    2457 00000093 1EAC          MOVL      XT,ACC                ; [CPU_] |131| 
    2458 00000094 5605          IMPYL     P,XT,XAR7             ; [CPU_] |131| 
         00000095 00A7 
    2459 00000096 5663          QMPYL     ACC,XT,XAR7           ; [CPU_] |131| 
         00000097 00A7 
    2460 00000098 56A7          LSL64     ACC:P,#8              ; [CPU_] |131| 
    2461 00000099 1E48          MOVL      *-SP[8],ACC           ; [CPU_] |131| 
    2462                      .dwpsn  file "C:/ti/motorware/motorware_1_01_00_16/sw/modules/clarke/src/32b/clarke.h",line 132,colum
    2463 0000009a 0614-         MOVL      ACC,@_gAdcData+2      ; [CPU_] |132| 
    2464 0000009b 0316-         SUBL      ACC,@_gAdcData+4      ; [CPU_] |132| 
    2465 0000009c       $C$L11:    
    2466 0000009c 1EAC          MOVL      XT,ACC                ; [CPU_] |132| 
    2467 0000009d 5605          IMPYL     P,XT,XAR6             ; [CPU_] |132| 
         0000009e 00A6 
    2468 0000009f 5663          QMPYL     ACC,XT,XAR6           ; [CPU_] |132| 
         000000a0 00A6 
    2469 000000a1 56A7          LSL64     ACC:P,#8              ; [CPU_] |132| 
TMS320C2000 Assembler PC v6.4.10 Mon Jul 11 12:58:57 2016

Tools Copyright (c) 1996-2015 Texas Instruments Incorporated
C:\Users\bee25\AppData\Local\Temp\0350410                            PAGE   50

    2470 000000a2 1E46          MOVL      *-SP[6],ACC           ; [CPU_] |132| 
    2471 000000a3       $C$L12:    
    2472 000000a3 761F-         MOVW      DP,#_clarkeHandle_V   ; [CPU_U] 
         000000a4 0000 
    2473                      .dwpsn  file "C:/ti/motorware/motorware_1_01_00_16/sw/modules/clarke/src/32b/clarke.h",line 125,colum
    2474 000000a5 8A04-         MOVL      XAR4,@_clarkeHandle_V ; [CPU_] |125| 
    2475                      .dwpsn  file "C:/ti/motorware/motorware_1_01_00_16/sw/modules/clarke/src/32b/clarke.h",line 129,colum
    2476 000000a6 92E4          MOV       AL,*+XAR4[4]          ; [CPU_] |129| 
    2477                      .dwpsn  file "C:/ti/motorware/motorware_1_01_00_16/sw/modules/clarke/src/32b/clarke.h",line 125,colum
    2478 000000a7 C5C4          MOVL      XAR7,*+XAR4[0]        ; [CPU_] |125| 
    2479                      .dwpsn  file "C:/ti/motorware/motorware_1_01_00_16/sw/modules/clarke/src/32b/clarke.h",line 126,colum
    2480 000000a8 C4D4          MOVL      XAR6,*+XAR4[2]        ; [CPU_] |126| 
    2481                      .dwpsn  file "C:/ti/motorware/motorware_1_01_00_16/sw/modules/clarke/src/32b/clarke.h",line 129,colum
    2482 000000a9 5203          CMPB      AL,#3                 ; [CPU_] |129| 
    2483 000000aa EC13          BF        $C$L13,EQ             ; [CPU_] |129| 
    2484                      ; branchcc occurs ; [] |129| 
    2485                      .dwpsn  file "C:/ti/motorware/motorware_1_01_00_16/sw/modules/clarke/src/32b/clarke.h",line 134,colum
    2486 000000ab 5202          CMPB      AL,#2                 ; [CPU_] |134| 
    2487 000000ac ED2B          BF        $C$L15,NEQ            ; [CPU_] |134| 
    2488                      ; branchcc occurs ; [] |134| 
    2489                      .dwpsn  file "C:/ti/motorware/motorware_1_01_00_16/sw/modules/clarke/src/32b/clarke.h",line 136,colum
    2490 000000ad 8F00-         MOVL      XAR4,#_gAdcData       ; [CPU_U] |136| 
         000000ae 0052 
    2491 000000af 87F4          MOVL      XT,*+XAR4[6]          ; [CPU_] |136| 
    2492                      .dwpsn  file "C:/ti/motorware/motorware_1_01_00_16/sw/modules/clarke/src/32b/clarke.h",line 137,colum
    2493 000000b0 D008          MOVB      XAR0,#8               ; [CPU_] |137| 
    2494 000000b1 761F-         MOVW      DP,#_gAdcData+6       ; [CPU_U] 
         000000b2 0001 
    2495                      .dwpsn  file "C:/ti/motorware/motorware_1_01_00_16/sw/modules/clarke/src/32b/clarke.h",line 136,colum
    2496 000000b3 5605          IMPYL     P,XT,XAR7             ; [CPU_] |136| 
         000000b4 00A7 
    2497 000000b5 5663          QMPYL     ACC,XT,XAR7           ; [CPU_] |136| 
         000000b6 00A7 
    2498 000000b7 56A7          LSL64     ACC:P,#8              ; [CPU_] |136| 
    2499 000000b8 1E4C          MOVL      *-SP[12],ACC          ; [CPU_] |136| 
    2500                      .dwpsn  file "C:/ti/motorware/motorware_1_01_00_16/sw/modules/clarke/src/32b/clarke.h",line 137,colum
    2501 000000b9 0694          MOVL      ACC,*+XAR4[AR0]       ; [CPU_] |137| 
    2502 000000ba FF30          LSL       ACC,1                 ; [CPU_] |137| 
    2503 000000bb 0718-         ADDL      ACC,@_gAdcData+6      ; [CPU_] |137| 
    2504 000000bc 6F14          B         $C$L14,UNC            ; [CPU_] |137| 
    2505                      ; branch occurs ; [] |137| 
    2506 000000bd       $C$L13:    
    2507                      .dwpsn  file "C:/ti/motorware/motorware_1_01_00_16/sw/modules/clarke/src/32b/clarke.h",line 131,colum
    2508 000000bd 8F00-         MOVL      XAR4,#_gAdcData       ; [CPU_U] |131| 
         000000be 0052 
    2509 000000bf D008          MOVB      XAR0,#8               ; [CPU_] |131| 
    2510 000000c0 06F4          MOVL      ACC,*+XAR4[6]         ; [CPU_] |131| 
    2511 000000c1 761F-         MOVW      DP,#_gAdcData+8       ; [CPU_U] 
         000000c2 0001 
    2512 000000c3 FF30          LSL       ACC,1                 ; [CPU_] |131| 
    2513 000000c4 0394          SUBL      ACC,*+XAR4[AR0]       ; [CPU_] |131| 
    2514 000000c5 D00A          MOVB      XAR0,#10              ; [CPU_] |131| 
    2515 000000c6 0394          SUBL      ACC,*+XAR4[AR0]       ; [CPU_] |131| 
    2516 000000c7 1EAC          MOVL      XT,ACC                ; [CPU_] |131| 
    2517 000000c8 5605          IMPYL     P,XT,XAR7             ; [CPU_] |131| 
TMS320C2000 Assembler PC v6.4.10 Mon Jul 11 12:58:57 2016

Tools Copyright (c) 1996-2015 Texas Instruments Incorporated
C:\Users\bee25\AppData\Local\Temp\0350410                            PAGE   51

         000000c9 00A7 
    2518 000000ca 5663          QMPYL     ACC,XT,XAR7           ; [CPU_] |131| 
         000000cb 00A7 
    2519 000000cc 56A7          LSL64     ACC:P,#8              ; [CPU_] |131| 
    2520 000000cd 1E4C          MOVL      *-SP[12],ACC          ; [CPU_] |131| 
    2521                      .dwpsn  file "C:/ti/motorware/motorware_1_01_00_16/sw/modules/clarke/src/32b/clarke.h",line 132,colum
    2522 000000ce 061A-         MOVL      ACC,@_gAdcData+8      ; [CPU_] |132| 
    2523 000000cf 031C-         SUBL      ACC,@_gAdcData+10     ; [CPU_] |132| 
    2524 000000d0       $C$L14:    
    2525 000000d0 1EAC          MOVL      XT,ACC                ; [CPU_] |132| 
    2526 000000d1 5605          IMPYL     P,XT,XAR6             ; [CPU_] |132| 
         000000d2 00A6 
    2527 000000d3 5663          QMPYL     ACC,XT,XAR6           ; [CPU_] |132| 
         000000d4 00A6 
    2528 000000d5 56A7          LSL64     ACC:P,#8              ; [CPU_] |132| 
    2529 000000d6 1E4A          MOVL      *-SP[10],ACC          ; [CPU_] |132| 
    2530 000000d7       $C$L15:    
    2531                      .dwpsn  file "C:/ti/motorware/motorware_1_01_00_16/sw/solutions/instaspin_foc/src/proj_lab11.c",line 
    2532 000000d7 5CAD          MOVZ      AR4,SP                ; [CPU_] |573| 
    2533 000000d8 5DAD          MOVZ      AR5,SP                ; [CPU_] |573| 
    2534 000000d9 761F-         MOVW      DP,#_gMotorVars+22    ; [CPU_U] 
         000000da 0003 
    2535 000000db DC8C          SUBB      XAR4,#12              ; [CPU_U] |573| 
    2536 000000dc DD88          SUBB      XAR5,#8               ; [CPU_U] |573| 
    2537 000000dd 0EA4          MOVU      ACC,AR4               ; [CPU_] |573| 
    2538 000000de 1E42          MOVL      *-SP[2],ACC           ; [CPU_] |573| 
    2539 000000df 5DA5          MOVZ      AR5,AR5               ; [CPU_] |573| 
    2540 000000e0 0616-         MOVL      ACC,@_gMotorVars+22   ; [CPU_] |573| 
    2541 000000e1 761F-         MOVW      DP,#_estHandle        ; [CPU_U] 
         000000e2 0000 
    2542 000000e3 1E44          MOVL      *-SP[4],ACC           ; [CPU_] |573| 
    2543 000000e4 8A0C-         MOVL      XAR4,@_estHandle      ; [CPU_] |573| 
    2544 000000e5 761F-         MOVW      DP,#_gAdcData+12      ; [CPU_U] 
         000000e6 0001 
    2545 000000e7 061E-         MOVL      ACC,@_gAdcData+12     ; [CPU_] |573| 
    2546              $C$DW$309       .dwtag  DW_TAG_TI_branch
    2547                      .dwattr $C$DW$309, DW_AT_low_pc(0x00)
    2548                      .dwattr $C$DW$309, DW_AT_name("_EST_run")
    2549                      .dwattr $C$DW$309, DW_AT_TI_call
    2550 000000e8 7640!         LCR       #_EST_run             ; [CPU_] |573| 
         000000e9 0000 
    2551                      ; call occurs [#_EST_run] ; [] |573| 
    2552 000000ea 761F-         MOVW      DP,#_estHandle        ; [CPU_U] 
         000000eb 0000 
    2553                      .dwpsn  file "C:/ti/motorware/motorware_1_01_00_16/sw/solutions/instaspin_foc/src/proj_lab11.c",line 
    2554 000000ec 8A0C-         MOVL      XAR4,@_estHandle      ; [CPU_] |576| 
    2555              $C$DW$310       .dwtag  DW_TAG_TI_branch
    2556                      .dwattr $C$DW$310, DW_AT_low_pc(0x00)
    2557                      .dwattr $C$DW$310, DW_AT_name("_EST_getAngle_pu")
    2558                      .dwattr $C$DW$310, DW_AT_TI_call
    2559 000000ed 7640!         LCR       #_EST_getAngle_pu     ; [CPU_] |576| 
         000000ee 0000 
    2560                      ; call occurs [#_EST_getAngle_pu] ; [] |576| 
    2561 000000ef 761F-         MOVW      DP,#_estHandle        ; [CPU_U] 
         000000f0 0000 
TMS320C2000 Assembler PC v6.4.10 Mon Jul 11 12:58:57 2016

Tools Copyright (c) 1996-2015 Texas Instruments Incorporated
C:\Users\bee25\AppData\Local\Temp\0350410                            PAGE   52

    2562 000000f1 86A9          MOVL      XAR2,ACC              ; [CPU_] |576| 
    2563                      .dwpsn  file "C:/ti/motorware/motorware_1_01_00_16/sw/solutions/instaspin_foc/src/proj_lab11.c",line 
    2564 000000f2 8A0C-         MOVL      XAR4,@_estHandle      ; [CPU_] |577| 
    2565              $C$DW$311       .dwtag  DW_TAG_TI_branch
    2566                      .dwattr $C$DW$311, DW_AT_low_pc(0x00)
    2567                      .dwattr $C$DW$311, DW_AT_name("_EST_getFm_pu")
    2568                      .dwattr $C$DW$311, DW_AT_TI_call
    2569 000000f3 7640!         LCR       #_EST_getFm_pu        ; [CPU_] |577| 
         000000f4 0000 
    2570                      ; call occurs [#_EST_getFm_pu] ; [] |577| 
    2571 000000f5 761F-         MOVW      DP,#_estHandle        ; [CPU_U] 
         000000f6 0000 
    2572                      .dwpsn  file "C:/ti/motorware/motorware_1_01_00_16/sw/solutions/instaspin_foc/src/proj_lab11.c",line 
    2573 000000f7 8F40-         MOVL      XAR5,#_gIdq_pu        ; [CPU_U] |581| 
         000000f8 0022 
    2574                      .dwpsn  file "C:/ti/motorware/motorware_1_01_00_16/sw/solutions/instaspin_foc/src/proj_lab11.c",line 
    2575 000000f9 1E56          MOVL      *-SP[22],ACC          ; [CPU_] |577| 
    2576                      .dwpsn  file "C:/ti/motorware/motorware_1_01_00_16/sw/solutions/instaspin_foc/src/proj_lab11.c",line 
    2577 000000fa 8A0C-         MOVL      XAR4,@_estHandle      ; [CPU_] |581| 
    2578              $C$DW$312       .dwtag  DW_TAG_TI_branch
    2579                      .dwattr $C$DW$312, DW_AT_low_pc(0x00)
    2580                      .dwattr $C$DW$312, DW_AT_name("_EST_getIdq_pu")
    2581                      .dwattr $C$DW$312, DW_AT_TI_call
    2582 000000fb 7640!         LCR       #_EST_getIdq_pu       ; [CPU_] |581| 
         000000fc 0000 
    2583                      ; call occurs [#_EST_getIdq_pu] ; [] |581| 
    2584 000000fd 761F-         MOVW      DP,#_gMotorVars+1     ; [CPU_U] 
         000000fe 0003 
    2585                      .dwpsn  file "C:/ti/motorware/motorware_1_01_00_16/sw/solutions/instaspin_foc/src/proj_lab11.c",line 
    2586 000000ff 9201-         MOV       AL,@_gMotorVars+1     ; [CPU_] |584| 
    2587 00000100 56C1          BF        $C$L22,EQ             ; [CPU_] |584| 
         00000101 012C 
    2588                      ; branchcc occurs ; [] |584| 
    2589 00000102 761F-         MOVW      DP,#_pidCntSpeed      ; [CPU_U] 
         00000103 0000 
    2590                      .dwpsn  file "C:/ti/motorware/motorware_1_01_00_16/sw/solutions/instaspin_foc/src/proj_lab11.c",line 
    2591 00000104 9200-         MOV       AL,@_pidCntSpeed      ; [CPU_] |593| 
    2592 00000105 520F          CMPB      AL,#15                ; [CPU_] |593| 
    2593 00000106 56C7          BF        $C$L16,HIS            ; [CPU_] |593| 
         00000107 0004 
    2594                      ; branchcc occurs ; [] |593| 
    2595                      .dwpsn  file "C:/ti/motorware/motorware_1_01_00_16/sw/solutions/instaspin_foc/src/proj_lab11.c",line 
    2596 00000108 0A00-         INC       @_pidCntSpeed         ; [CPU_] |607| 
    2597 00000109 6F2E          B         $C$L17,UNC            ; [CPU_] |607| 
    2598                      ; branch occurs ; [] |607| 
    2599 0000010a       $C$L16:    
    2600                      .dwpsn  file "C:/ti/motorware/motorware_1_01_00_16/sw/solutions/instaspin_foc/src/proj_lab11.c",line 
    2601 0000010a 2B00-         MOV       @_pidCntSpeed,#0      ; [CPU_] |596| 
    2602 0000010b 761F-         MOVW      DP,#_gMotorVars+22    ; [CPU_U] 
         0000010c 0003 
    2603                      .dwpsn  file "C:/ti/motorware/motorware_1_01_00_16/sw/solutions/instaspin_foc/src/proj_lab11.c",line 
    2604 0000010d C516-         MOVL      XAR7,@_gMotorVars+22  ; [CPU_] |601| 
    2605                      .dwpsn  file "C:/ti/motorware/motorware_1_01_00_16/sw/modules/pid/src/32b/pid.h",line 270,column 3,is
    2606 0000010e C456          MOVL      XAR6,*-SP[22]         ; [CPU_] |270| 
    2607 0000010f 761F-         MOVW      DP,#_pidHandle        ; [CPU_U] 
TMS320C2000 Assembler PC v6.4.10 Mon Jul 11 12:58:57 2016

Tools Copyright (c) 1996-2015 Texas Instruments Incorporated
C:\Users\bee25\AppData\Local\Temp\0350410                            PAGE   53

         00000110 0000 
    2608                      .dwpsn  file "C:/ti/motorware/motorware_1_01_00_16/sw/modules/pid/src/32b/pid.h",line 262,column 16,i
    2609 00000111 8A2A-         MOVL      XAR4,@_pidHandle      ; [CPU_] |262| 
    2610                      .dwpsn  file "C:/ti/motorware/motorware_1_01_00_16/sw/modules/pid/src/32b/pid.h",line 270,column 3,is
    2611 00000112 06A7          MOVL      ACC,XAR7              ; [CPU_] |270| 
    2612 00000113 03A6          SUBL      ACC,XAR6              ; [CPU_] |270| 
    2613 00000114 83A9          MOVL      XAR5,ACC              ; [CPU_] |270| 
    2614 00000115 87C4          MOVL      XT,*+XAR4[0]          ; [CPU_] |270| 
    2615                      .dwpsn  file "C:/ti/motorware/motorware_1_01_00_16/sw/modules/pid/src/32b/pid.h",line 271,column 3,is
    2616 00000116 D10E          MOVB      XAR1,#14              ; [CPU_] |271| 
    2617 00000117 D00C          MOVB      XAR0,#12              ; [CPU_] |271| 
    2618                      .dwpsn  file "C:/ti/motorware/motorware_1_01_00_16/sw/modules/pid/src/32b/pid.h",line 270,column 3,is
    2619 00000118 5605          IMPYL     P,XT,XAR5             ; [CPU_] |270| 
         00000119 00A5 
    2620 0000011a 5663          QMPYL     ACC,XT,XAR5           ; [CPU_] |270| 
         0000011b 00A5 
    2621 0000011c 56A7          LSL64     ACC:P,#8              ; [CPU_] |270| 
    2622                      .dwpsn  file "C:/ti/motorware/motorware_1_01_00_16/sw/modules/pid/src/32b/pid.h",line 271,column 3,is
    2623 0000011d 87D4          MOVL      XT,*+XAR4[2]          ; [CPU_] |271| 
    2624                      .dwpsn  file "C:/ti/motorware/motorware_1_01_00_16/sw/modules/pid/src/32b/pid.h",line 270,column 3,is
    2625 0000011e 1EA6          MOVL      XAR6,ACC              ; [CPU_] |270| 
    2626                      .dwpsn  file "C:/ti/motorware/motorware_1_01_00_16/sw/modules/pid/src/32b/pid.h",line 271,column 3,is
    2627 0000011f 5605          IMPYL     P,XT,XAR5             ; [CPU_] |271| 
         00000120 00A5 
    2628 00000121 5663          QMPYL     ACC,XT,XAR5           ; [CPU_] |271| 
         00000122 00A5 
    2629 00000123 56A7          LSL64     ACC:P,#8              ; [CPU_] |271| 
    2630 00000124 07F4          ADDL      ACC,*+XAR4[6]         ; [CPU_] |271| 
    2631 00000125 5650          MINL      ACC,*+XAR4[AR1]       ; [CPU_] |271| 
         00000126 009C 
    2632 00000127 5661          MAXL      ACC,*+XAR4[AR0]       ; [CPU_] |271| 
         00000128 0094 
    2633                      .dwpsn  file "C:/ti/motorware/motorware_1_01_00_16/sw/modules/pid/src/32b/pid.h",line 274,column 3,is
    2634 00000129 D008          MOVB      XAR0,#8               ; [CPU_] |274| 
    2635                      .dwpsn  file "C:/ti/motorware/motorware_1_01_00_16/sw/modules/pid/src/32b/pid.h",line 273,column 3,is
    2636 0000012a 1EF4          MOVL      *+XAR4[6],ACC         ; [CPU_] |273| 
    2637                      .dwpsn  file "C:/ti/motorware/motorware_1_01_00_16/sw/modules/pid/src/32b/pid.h",line 274,column 3,is
    2638 0000012b C394          MOVL      *+XAR4[AR0],XAR7      ; [CPU_] |274| 
    2639                      .dwpsn  file "C:/ti/motorware/motorware_1_01_00_16/sw/modules/pid/src/32b/pid.h",line 275,column 3,is
    2640 0000012c C556          MOVL      XAR7,*-SP[22]         ; [CPU_] |275| 
    2641 0000012d D00A          MOVB      XAR0,#10              ; [CPU_] |275| 
    2642                      .dwpsn  file "C:/ti/motorware/motorware_1_01_00_16/sw/modules/pid/src/32b/pid.h",line 277,column 3,is
    2643 0000012e D10E          MOVB      XAR1,#14              ; [CPU_] |277| 
    2644 0000012f 07A6          ADDL      ACC,XAR6              ; [CPU_] |277| 
    2645                      .dwpsn  file "C:/ti/motorware/motorware_1_01_00_16/sw/modules/pid/src/32b/pid.h",line 275,column 3,is
    2646 00000130 C394          MOVL      *+XAR4[AR0],XAR7      ; [CPU_] |275| 
    2647                      .dwpsn  file "C:/ti/motorware/motorware_1_01_00_16/sw/modules/pid/src/32b/pid.h",line 277,column 3,is
    2648 00000131 D00C          MOVB      XAR0,#12              ; [CPU_] |277| 
    2649 00000132 5650          MINL      ACC,*+XAR4[AR1]       ; [CPU_] |277| 
         00000133 009C 
    2650 00000134 5661          MAXL      ACC,*+XAR4[AR0]       ; [CPU_] |277| 
         00000135 0094 
    2651 00000136 1E28-         MOVL      @_gIdq_ref_pu+2,ACC   ; [CPU_] |277| 
    2652 00000137       $C$L17:    
    2653                      .dwpsn  file "C:/ti/motorware/motorware_1_01_00_16/sw/solutions/instaspin_foc/src/proj_lab11.c",line 
TMS320C2000 Assembler PC v6.4.10 Mon Jul 11 12:58:57 2016

Tools Copyright (c) 1996-2015 Texas Instruments Incorporated
C:\Users\bee25\AppData\Local\Temp\0350410                            PAGE   54

    2654 00000137 8F40-         MOVL      XAR5,#_gIdq_ref_pu    ; [CPU_U] |619| 
         00000138 0026 
    2655 00000139 8F00-         MOVL      XAR4,#_gIdq_pu        ; [CPU_U] |619| 
         0000013a 0022 
    2656 0000013b 82C5          MOVL      XAR3,*+XAR5[0]        ; [CPU_] |619| 
    2657                      .dwpsn  file "C:/ti/motorware/motorware_1_01_00_16/sw/modules/pid/src/32b/pid.h",line 233,column 16,i
    2658 0000013c 7680-         MOVL      XAR6,#_pidHandle      ; [CPU_U] |233| 
         0000013d 002A 
    2659                      .dwpsn  file "C:/ti/motorware/motorware_1_01_00_16/sw/solutions/instaspin_foc/src/proj_lab11.c",line 
    2660 0000013e C5C4          MOVL      XAR7,*+XAR4[0]        ; [CPU_] |619| 
    2661                      .dwpsn  file "C:/ti/motorware/motorware_1_01_00_16/sw/modules/pid/src/32b/pid.h",line 233,column 16,i
    2662 0000013f C252          MOVL      *-SP[18],XAR6         ; [CPU_] |233| 
    2663                      .dwpsn  file "C:/ti/motorware/motorware_1_01_00_16/sw/modules/pid/src/32b/pid.h",line 242,column 3,is
    2664 00000140 A2A9          MOVL      ACC,XAR3              ; [CPU_] |242| 
    2665                      .dwpsn  file "C:/ti/motorware/motorware_1_01_00_16/sw/modules/pid/src/32b/pid.h",line 233,column 16,i
    2666 00000141 C4D6          MOVL      XAR6,*+XAR6[2]        ; [CPU_] |233| 
    2667                      .dwpsn  file "C:/ti/motorware/motorware_1_01_00_16/sw/modules/pid/src/32b/pid.h",line 243,column 3,is
    2668 00000142 D10E          MOVB      XAR1,#14              ; [CPU_] |243| 
    2669 00000143 D00C          MOVB      XAR0,#12              ; [CPU_] |243| 
    2670                      .dwpsn  file "C:/ti/motorware/motorware_1_01_00_16/sw/modules/pid/src/32b/pid.h",line 242,column 3,is
    2671 00000144 03A7          SUBL      ACC,XAR7              ; [CPU_] |242| 
    2672 00000145 87C6          MOVL      XT,*+XAR6[0]          ; [CPU_] |242| 
    2673 00000146 5605          IMPYL     P,XT,ACC              ; [CPU_] |242| 
         00000147 00A9 
    2674 00000148 5663          QMPYL     ACC,XT,ACC            ; [CPU_] |242| 
         00000149 00A9 
    2675 0000014a 56A7          LSL64     ACC:P,#8              ; [CPU_] |242| 
    2676 0000014b 1E54          MOVL      *-SP[20],ACC          ; [CPU_] |242| 
    2677                      .dwpsn  file "C:/ti/motorware/motorware_1_01_00_16/sw/modules/pid/src/32b/pid.h",line 243,column 3,is
    2678 0000014c 87D6          MOVL      XT,*+XAR6[2]          ; [CPU_] |243| 
    2679 0000014d 5605          IMPYL     P,XT,ACC              ; [CPU_] |243| 
         0000014e 00A9 
    2680 0000014f 5663          QMPYL     ACC,XT,ACC            ; [CPU_] |243| 
         00000150 00A9 
    2681 00000151 56A7          LSL64     ACC:P,#8              ; [CPU_] |243| 
    2682 00000152 07F6          ADDL      ACC,*+XAR6[6]         ; [CPU_] |243| 
    2683 00000153 5650          MINL      ACC,*+XAR6[AR1]       ; [CPU_] |243| 
         00000154 009E 
    2684 00000155 5661          MAXL      ACC,*+XAR6[AR0]       ; [CPU_] |243| 
         00000156 0096 
    2685                      .dwpsn  file "C:/ti/motorware/motorware_1_01_00_16/sw/modules/pid/src/32b/pid.h",line 246,column 3,is
    2686 00000157 D008          MOVB      XAR0,#8               ; [CPU_] |246| 
    2687                      .dwpsn  file "C:/ti/motorware/motorware_1_01_00_16/sw/modules/pid/src/32b/pid.h",line 245,column 3,is
    2688 00000158 1EF6          MOVL      *+XAR6[6],ACC         ; [CPU_] |245| 
    2689                      .dwpsn  file "C:/ti/motorware/motorware_1_01_00_16/sw/modules/pid/src/32b/pid.h",line 246,column 3,is
    2690 00000159 A296          MOVL      *+XAR6[AR0],XAR3      ; [CPU_] |246| 
    2691                      .dwpsn  file "C:/ti/motorware/motorware_1_01_00_16/sw/modules/pid/src/32b/pid.h",line 247,column 3,is
    2692 0000015a D00A          MOVB      XAR0,#10              ; [CPU_] |247| 
    2693 0000015b C396          MOVL      *+XAR6[AR0],XAR7      ; [CPU_] |247| 
    2694                      .dwpsn  file "C:/ti/motorware/motorware_1_01_00_16/sw/modules/pid/src/32b/pid.h",line 249,column 3,is
    2695 0000015c C554          MOVL      XAR7,*-SP[20]         ; [CPU_] |249| 
    2696 0000015d D10E          MOVB      XAR1,#14              ; [CPU_] |249| 
    2697 0000015e D00C          MOVB      XAR0,#12              ; [CPU_] |249| 
    2698 0000015f 8DC0-         MOVL      XAR3,#_gVdq_out_pu    ; [CPU_U] |249| 
         00000160 001E 
TMS320C2000 Assembler PC v6.4.10 Mon Jul 11 12:58:57 2016

Tools Copyright (c) 1996-2015 Texas Instruments Incorporated
C:\Users\bee25\AppData\Local\Temp\0350410                            PAGE   55

    2699 00000161 07A7          ADDL      ACC,XAR7              ; [CPU_] |249| 
    2700 00000162 5650          MINL      ACC,*+XAR6[AR1]       ; [CPU_] |249| 
         00000163 009E 
    2701 00000164 5661          MAXL      ACC,*+XAR6[AR0]       ; [CPU_] |249| 
         00000165 0096 
    2702 00000166 1EC3          MOVL      *+XAR3[0],ACC         ; [CPU_] |249| 
    2703                      .dwpsn  file "C:/ti/motorware/motorware_1_01_00_16/sw/solutions/instaspin_foc/src/proj_lab11.c",line 
    2704 00000167 8BD5          MOVL      XAR1,*+XAR5[2]        ; [CPU_] |622| 
    2705                      .dwpsn  file "C:/ti/motorware/motorware_1_01_00_16/sw/solutions/instaspin_foc/src/proj_lab11.c",line 
    2706 00000168 06D4          MOVL      ACC,*+XAR4[2]         ; [CPU_] |625| 
    2707 00000169 1E54          MOVL      *-SP[20],ACC          ; [CPU_] |625| 
    2708                      .dwpsn  file "C:/ti/motorware/motorware_1_01_00_16/sw/solutions/instaspin_foc/src/proj_lab11.c",line 
    2709 0000016a 87C3          MOVL      XT,*+XAR3[0]          ; [CPU_] |635| 
    2710 0000016b 5605          IMPYL     P,XT,*+XAR3[0]        ; [CPU_] |635| 
         0000016c 00C3 
    2711 0000016d 5663          QMPYL     ACC,XT,*+XAR3[0]      ; [CPU_] |635| 
         0000016e 00C3 
    2712 0000016f 56A7          LSL64     ACC:P,#8              ; [CPU_] |635| 
    2713 00000170 2BAB          MOV       PL,#0                 ; [CPU_] |635| 
    2714 00000171 28AA          MOV       PH,#64                ; [CPU_] |635| 
         00000172 0040 
    2715 00000173 5641          SUBL      P,ACC                 ; [CPU_] |635| 
         00000174 00AB 
    2716 00000175 A9A9          MOVL      ACC,P                 ; [CPU_] |635| 
    2717              $C$DW$313       .dwtag  DW_TAG_TI_branch
    2718                      .dwattr $C$DW$313, DW_AT_low_pc(0x00)
    2719                      .dwattr $C$DW$313, DW_AT_name("__IQ24sqrt")
    2720                      .dwattr $C$DW$313, DW_AT_TI_call
    2721 00000176 7640!         LCR       #__IQ24sqrt           ; [CPU_] |635| 
         00000177 0000 
    2722                      ; call occurs [#__IQ24sqrt] ; [] |635| 
    2723 00000178 8A52          MOVL      XAR4,*-SP[18]         ; [CPU_] |635| 
    2724                      .dwpsn  file "C:/ti/motorware/motorware_1_01_00_16/sw/modules/pid/src/32b/pid.h",line 358,column 16,i
    2725 00000179 8AE4          MOVL      XAR4,*+XAR4[4]        ; [CPU_] |358| 
    2726                      .dwpsn  file "C:/ti/motorware/motorware_1_01_00_16/sw/solutions/instaspin_foc/src/proj_lab11.c",line 
    2727 0000017a 1EA6          MOVL      XAR6,ACC              ; [CPU_] |635| 
    2728                      .dwpsn  file "C:/ti/motorware/motorware_1_01_00_16/sw/modules/pid/src/32b/pid.h",line 360,column 3,is
    2729 0000017b D00C          MOVB      XAR0,#12              ; [CPU_] |360| 
    2730 0000017c FF54          NEG       ACC                   ; [CPU_] |360| 
    2731 0000017d 1E94          MOVL      *+XAR4[AR0],ACC       ; [CPU_] |360| 
    2732                      .dwpsn  file "C:/ti/motorware/motorware_1_01_00_16/sw/modules/pid/src/32b/pid.h",line 361,column 3,is
    2733 0000017e D00E          MOVB      XAR0,#14              ; [CPU_] |361| 
    2734 0000017f C294          MOVL      *+XAR4[AR0],XAR6      ; [CPU_] |361| 
    2735                      .dwpsn  file "C:/ti/motorware/motorware_1_01_00_16/sw/solutions/instaspin_foc/src/proj_lab11.c",line 
    2736 00000180 C454          MOVL      XAR6,*-SP[20]         ; [CPU_] |644| 
    2737 00000181 B2A9          MOVL      ACC,XAR1              ; [CPU_] |644| 
    2738 00000182 C5A1          MOVL      XAR7,XAR1             ; [CPU_] |644| 
    2739                      .dwpsn  file "C:/ti/motorware/motorware_1_01_00_16/sw/modules/pid/src/32b/pid.h",line 242,column 3,is
    2740 00000183 87C4          MOVL      XT,*+XAR4[0]          ; [CPU_] |242| 
    2741 00000184 03A6          SUBL      ACC,XAR6              ; [CPU_] |242| 
    2742 00000185 5605          IMPYL     P,XT,ACC              ; [CPU_] |242| 
         00000186 00A9 
    2743 00000187 5663          QMPYL     ACC,XT,ACC            ; [CPU_] |242| 
         00000188 00A9 
    2744 00000189 56A7          LSL64     ACC:P,#8              ; [CPU_] |242| 
TMS320C2000 Assembler PC v6.4.10 Mon Jul 11 12:58:57 2016

Tools Copyright (c) 1996-2015 Texas Instruments Incorporated
C:\Users\bee25\AppData\Local\Temp\0350410                            PAGE   56

    2745 0000018a 83A9          MOVL      XAR5,ACC              ; [CPU_] |242| 
    2746                      .dwpsn  file "C:/ti/motorware/motorware_1_01_00_16/sw/modules/pid/src/32b/pid.h",line 243,column 3,is
    2747 0000018b D10E          MOVB      XAR1,#14              ; [CPU_] |243| 
    2748 0000018c D00C          MOVB      XAR0,#12              ; [CPU_] |243| 
    2749 0000018d 87D4          MOVL      XT,*+XAR4[2]          ; [CPU_] |243| 
    2750 0000018e 5605          IMPYL     P,XT,XAR5             ; [CPU_] |243| 
         0000018f 00A5 
    2751 00000190 5663          QMPYL     ACC,XT,XAR5           ; [CPU_] |243| 
         00000191 00A5 
    2752 00000192 56A7          LSL64     ACC:P,#8              ; [CPU_] |243| 
    2753 00000193 07F4          ADDL      ACC,*+XAR4[6]         ; [CPU_] |243| 
    2754 00000194 5650          MINL      ACC,*+XAR4[AR1]       ; [CPU_] |243| 
         00000195 009C 
    2755                      .dwpsn  file "C:/ti/motorware/motorware_1_01_00_16/sw/modules/pid/src/32b/pid.h",line 249,column 3,is
    2756 00000196 D10E          MOVB      XAR1,#14              ; [CPU_] |249| 
    2757                      .dwpsn  file "C:/ti/motorware/motorware_1_01_00_16/sw/modules/pid/src/32b/pid.h",line 243,column 3,is
    2758 00000197 5661          MAXL      ACC,*+XAR4[AR0]       ; [CPU_] |243| 
         00000198 0094 
    2759                      .dwpsn  file "C:/ti/motorware/motorware_1_01_00_16/sw/modules/pid/src/32b/pid.h",line 246,column 3,is
    2760 00000199 D008          MOVB      XAR0,#8               ; [CPU_] |246| 
    2761                      .dwpsn  file "C:/ti/motorware/motorware_1_01_00_16/sw/modules/pid/src/32b/pid.h",line 245,column 3,is
    2762 0000019a 1EF4          MOVL      *+XAR4[6],ACC         ; [CPU_] |245| 
    2763                      .dwpsn  file "C:/ti/motorware/motorware_1_01_00_16/sw/modules/pid/src/32b/pid.h",line 249,column 3,is
    2764 0000019b 07A5          ADDL      ACC,XAR5              ; [CPU_] |249| 
    2765                      .dwpsn  file "C:/ti/motorware/motorware_1_01_00_16/sw/modules/pid/src/32b/pid.h",line 246,column 3,is
    2766 0000019c C394          MOVL      *+XAR4[AR0],XAR7      ; [CPU_] |246| 
    2767                      .dwpsn  file "C:/ti/motorware/motorware_1_01_00_16/sw/modules/pid/src/32b/pid.h",line 247,column 3,is
    2768 0000019d D00A          MOVB      XAR0,#10              ; [CPU_] |247| 
    2769 0000019e C294          MOVL      *+XAR4[AR0],XAR6      ; [CPU_] |247| 
    2770                      .dwpsn  file "C:/ti/motorware/motorware_1_01_00_16/sw/modules/pid/src/32b/pid.h",line 249,column 3,is
    2771 0000019f D00C          MOVB      XAR0,#12              ; [CPU_] |249| 
    2772 000001a0 5650          MINL      ACC,*+XAR4[AR1]       ; [CPU_] |249| 
         000001a1 009C 
    2773 000001a2 5661          MAXL      ACC,*+XAR4[AR0]       ; [CPU_] |249| 
         000001a3 0094 
    2774 000001a4 1ED3          MOVL      *+XAR3[2],ACC         ; [CPU_] |249| 
    2775                      .dwpsn  file "C:/ti/motorware/motorware_1_01_00_16/sw/solutions/instaspin_foc/src/proj_lab11.c",line 
    2776 000001a5 AA42          MOVL      *-SP[2],XAR2          ; [CPU_] |654| 
    2777 000001a6 0656          MOVL      ACC,*-SP[22]          ; [CPU_] |654| 
    2778              $C$DW$314       .dwtag  DW_TAG_TI_branch
    2779                      .dwattr $C$DW$314, DW_AT_low_pc(0x00)
    2780                      .dwattr $C$DW$314, DW_AT_name("_angleDelayComp")
    2781                      .dwattr $C$DW$314, DW_AT_TI_call
    2782 000001a7 7640'         LCR       #_angleDelayComp      ; [CPU_] |654| 
         000001a8 0196 
    2783                      ; call occurs [#_angleDelayComp] ; [] |654| 
    2784 000001a9 86A9          MOVL      XAR2,ACC              ; [CPU_] |654| 
    2785                      .dwpsn  file "C:/ti/motorware/motorware_1_01_00_16/sw/solutions/instaspin_foc/src/proj_lab11.c",line 
    2786              $C$DW$315       .dwtag  DW_TAG_TI_branch
    2787                      .dwattr $C$DW$315, DW_AT_low_pc(0x00)
    2788                      .dwattr $C$DW$315, DW_AT_name("__IQ24cosPU")
    2789                      .dwattr $C$DW$315, DW_AT_TI_call
    2790 000001aa 7640!         LCR       #__IQ24cosPU          ; [CPU_] |660| 
         000001ab 0000 
    2791                      ; call occurs [#__IQ24cosPU] ; [] |660| 
TMS320C2000 Assembler PC v6.4.10 Mon Jul 11 12:58:57 2016

Tools Copyright (c) 1996-2015 Texas Instruments Incorporated
C:\Users\bee25\AppData\Local\Temp\0350410                            PAGE   57

    2792 000001ac 1E50          MOVL      *-SP[16],ACC          ; [CPU_] |660| 
    2793                      .dwpsn  file "C:/ti/motorware/motorware_1_01_00_16/sw/solutions/instaspin_foc/src/proj_lab11.c",line 
    2794 000001ad AAA9          MOVL      ACC,XAR2              ; [CPU_] |661| 
    2795              $C$DW$316       .dwtag  DW_TAG_TI_branch
    2796                      .dwattr $C$DW$316, DW_AT_low_pc(0x00)
    2797                      .dwattr $C$DW$316, DW_AT_name("__IQ24sinPU")
    2798                      .dwattr $C$DW$316, DW_AT_TI_call
    2799 000001ae 7640!         LCR       #__IQ24sinPU          ; [CPU_] |661| 
         000001af 0000 
    2800                      ; call occurs [#__IQ24sinPU] ; [] |661| 
    2801 000001b0 761F-         MOVW      DP,#_iparkHandle      ; [CPU_U] 
         000001b1 0000 
    2802                      .dwpsn  file "C:/ti/motorware/motorware_1_01_00_16/sw/solutions/instaspin_foc/src/proj_lab11.c",line 
    2803 000001b2 8A06-         MOVL      XAR4,@_iparkHandle    ; [CPU_] |664| 
    2804                      .dwpsn  file "C:/ti/motorware/motorware_1_01_00_16/sw/solutions/instaspin_foc/src/proj_lab11.c",line 
    2805 000001b3 1E4E          MOVL      *-SP[14],ACC          ; [CPU_] |661| 
    2806                      .dwpsn  file "C:/ti/motorware/motorware_1_01_00_16/sw/modules/ipark/src/32b/ipark.h",line 175,column 
    2807 000001b4 0650          MOVL      ACC,*-SP[16]          ; [CPU_] |175| 
    2808 000001b5 1ED4          MOVL      *+XAR4[2],ACC         ; [CPU_] |175| 
    2809                      .dwpsn  file "C:/ti/motorware/motorware_1_01_00_16/sw/modules/ipark/src/32b/ipark.h",line 176,column 
    2810 000001b6 064E          MOVL      ACC,*-SP[14]          ; [CPU_] |176| 
    2811 000001b7 1EC4          MOVL      *+XAR4[0],ACC         ; [CPU_] |176| 
    2812                      .dwpsn  file "C:/ti/motorware/motorware_1_01_00_16/sw/modules/ipark/src/32b/ipark.h",line 141,column 
    2813 000001b8 C5C4          MOVL      XAR7,*+XAR4[0]        ; [CPU_] |141| 
    2814                      .dwpsn  file "C:/ti/motorware/motorware_1_01_00_16/sw/modules/ipark/src/32b/ipark.h",line 148,column 
    2815 000001b9 8720-         MOVL      XT,@_gVdq_out_pu+2    ; [CPU_] |148| 
    2816 000001ba 5605          IMPYL     P,XT,XAR7             ; [CPU_] |148| 
         000001bb 00A7 
    2817 000001bc 5663          QMPYL     ACC,XT,XAR7           ; [CPU_] |148| 
         000001bd 00A7 
    2818                      .dwpsn  file "C:/ti/motorware/motorware_1_01_00_16/sw/modules/ipark/src/32b/ipark.h",line 142,column 
    2819 000001be 8AD4          MOVL      XAR4,*+XAR4[2]        ; [CPU_] |142| 
    2820                      .dwpsn  file "C:/ti/motorware/motorware_1_01_00_16/sw/modules/ipark/src/32b/ipark.h",line 148,column 
    2821 000001bf 56A7          LSL64     ACC:P,#8              ; [CPU_] |148| 
    2822 000001c0 871E-         MOVL      XT,@_gVdq_out_pu      ; [CPU_] |148| 
    2823 000001c1 1EA6          MOVL      XAR6,ACC              ; [CPU_] |148| 
    2824 000001c2 5605          IMPYL     P,XT,XAR4             ; [CPU_] |148| 
         000001c3 00A4 
    2825 000001c4 5663          QMPYL     ACC,XT,XAR4           ; [CPU_] |148| 
         000001c5 00A4 
    2826 000001c6 56A7          LSL64     ACC:P,#8              ; [CPU_] |148| 
    2827                      .dwpsn  file "C:/ti/motorware/motorware_1_01_00_16/sw/modules/ipark/src/32b/ipark.h",line 149,column 
    2828 000001c7 8720-         MOVL      XT,@_gVdq_out_pu+2    ; [CPU_] |149| 
    2829                      .dwpsn  file "C:/ti/motorware/motorware_1_01_00_16/sw/modules/ipark/src/32b/ipark.h",line 148,column 
    2830 000001c8 03A6          SUBL      ACC,XAR6              ; [CPU_] |148| 
    2831                      .dwpsn  file "C:/ti/motorware/motorware_1_01_00_16/sw/modules/ipark/src/32b/ipark.h",line 149,column 
    2832 000001c9 5605          IMPYL     P,XT,XAR4             ; [CPU_] |149| 
         000001ca 00A4 
    2833                      .dwpsn  file "C:/ti/motorware/motorware_1_01_00_16/sw/modules/ipark/src/32b/ipark.h",line 148,column 
    2834 000001cb 1E4C          MOVL      *-SP[12],ACC          ; [CPU_] |148| 
    2835                      .dwpsn  file "C:/ti/motorware/motorware_1_01_00_16/sw/modules/ipark/src/32b/ipark.h",line 149,column 
    2836 000001cc 5663          QMPYL     ACC,XT,XAR4           ; [CPU_] |149| 
         000001cd 00A4 
    2837 000001ce 56A7          LSL64     ACC:P,#8              ; [CPU_] |149| 
    2838 000001cf 871E-         MOVL      XT,@_gVdq_out_pu      ; [CPU_] |149| 
TMS320C2000 Assembler PC v6.4.10 Mon Jul 11 12:58:57 2016

Tools Copyright (c) 1996-2015 Texas Instruments Incorporated
C:\Users\bee25\AppData\Local\Temp\0350410                            PAGE   58

    2839                      .dwpsn  file "C:/ti/motorware/motorware_1_01_00_16/sw/solutions/instaspin_foc/src/proj_lab11.c",line 
    2840 000001d0 8A0C-         MOVL      XAR4,@_estHandle      ; [CPU_] |674| 
    2841                      .dwpsn  file "C:/ti/motorware/motorware_1_01_00_16/sw/modules/ipark/src/32b/ipark.h",line 149,column 
    2842 000001d1 1EA6          MOVL      XAR6,ACC              ; [CPU_] |149| 
    2843 000001d2 5605          IMPYL     P,XT,XAR7             ; [CPU_] |149| 
         000001d3 00A7 
    2844 000001d4 5663          QMPYL     ACC,XT,XAR7           ; [CPU_] |149| 
         000001d5 00A7 
    2845 000001d6 56A7          LSL64     ACC:P,#8              ; [CPU_] |149| 
    2846 000001d7 07A6          ADDL      ACC,XAR6              ; [CPU_] |149| 
    2847 000001d8 1E4A          MOVL      *-SP[10],ACC          ; [CPU_] |149| 
    2848                      .dwpsn  file "C:/ti/motorware/motorware_1_01_00_16/sw/solutions/instaspin_foc/src/proj_lab11.c",line 
    2849              $C$DW$317       .dwtag  DW_TAG_TI_branch
    2850                      .dwattr $C$DW$317, DW_AT_low_pc(0x00)
    2851                      .dwattr $C$DW$317, DW_AT_name("_EST_getOneOverDcBus_pu")
    2852                      .dwattr $C$DW$317, DW_AT_TI_call
    2853 000001d9 7640!         LCR       #_EST_getOneOverDcBus_pu ; [CPU_] |674| 
         000001da 0000 
    2854                      ; call occurs [#_EST_getOneOverDcBus_pu] ; [] |674| 
    2855 000001db 1EA6          MOVL      XAR6,ACC              ; [CPU_] |674| 
    2856                      .dwpsn  file "C:/ti/motorware/motorware_1_01_00_16/sw/solutions/instaspin_foc/src/proj_lab11.c",line 
    2857 000001dc 874C          MOVL      XT,*-SP[12]           ; [CPU_] |675| 
    2858 000001dd 3B01          SETC      SXM                   ; [CPU_] 
    2859 000001de 5605          IMPYL     P,XT,XAR6             ; [CPU_] |675| 
         000001df 00A6 
    2860 000001e0 5663          QMPYL     ACC,XT,XAR6           ; [CPU_] |675| 
         000001e1 00A6 
    2861 000001e2 56A7          LSL64     ACC:P,#8              ; [CPU_] |675| 
    2862 000001e3 1E4C          MOVL      *-SP[12],ACC          ; [CPU_] |675| 
    2863                      .dwpsn  file "C:/ti/motorware/motorware_1_01_00_16/sw/solutions/instaspin_foc/src/proj_lab11.c",line 
    2864 000001e4 874A          MOVL      XT,*-SP[10]           ; [CPU_] |676| 
    2865 000001e5 5605          IMPYL     P,XT,XAR6             ; [CPU_] |676| 
         000001e6 00A6 
    2866 000001e7 5663          QMPYL     ACC,XT,XAR6           ; [CPU_] |676| 
         000001e8 00A6 
    2867 000001e9 56A7          LSL64     ACC:P,#8              ; [CPU_] |676| 
    2868 000001ea 1E4A          MOVL      *-SP[10],ACC          ; [CPU_] |676| 
    2869                      .dwpsn  file "C:/ti/motorware/motorware_1_01_00_16/sw/modules/svgen/src/32b/svgen.h",line 133,column 
    2870 000001eb 28A9          MOV       AL,#46039             ; [CPU_] |133| 
         000001ec B3D7 
    2871 000001ed 9BDD          MOV       AH,#221               ; [CPU_] |133| 
    2872 000001ee 1EAC          MOVL      XT,ACC                ; [CPU_] |133| 
    2873                      .dwpsn  file "C:/ti/motorware/motorware_1_01_00_16/sw/modules/svgen/src/32b/svgen.h",line 132,column 
    2874 000001ef C44C          MOVL      XAR6,*-SP[12]         ; [CPU_] |132| 
    2875                      .dwpsn  file "C:/ti/motorware/motorware_1_01_00_16/sw/modules/svgen/src/32b/svgen.h",line 133,column 
    2876 000001f0 5605          IMPYL     P,XT,*-SP[10]         ; [CPU_] |133| 
         000001f1 004A 
    2877 000001f2 5663          QMPYL     ACC,XT,*-SP[10]       ; [CPU_] |133| 
         000001f3 004A 
    2878 000001f4 56A7          LSL64     ACC:P,#8              ; [CPU_] |133| 
    2879 000001f5 8AA9          MOVL      XAR4,ACC              ; [CPU_] |133| 
    2880 000001f6 06A6          MOVL      ACC,XAR6              ; [CPU_] |133| 
    2881 000001f7 FF40          SFR       ACC,1                 ; [CPU_] |133| 
    2882 000001f8 FF54          NEG       ACC                   ; [CPU_] |133| 
    2883 000001f9 FF5A          MOVL      P,ACC                 ; [CPU_] |133| 
TMS320C2000 Assembler PC v6.4.10 Mon Jul 11 12:58:57 2016

Tools Copyright (c) 1996-2015 Texas Instruments Incorporated
C:\Users\bee25\AppData\Local\Temp\0350410                            PAGE   59

    2884 000001fa A8A9          MOVL      ACC,XAR4              ; [CPU_] |133| 
    2885 000001fb 07AB          ADDL      ACC,P                 ; [CPU_] |133| 
    2886 000001fc 83A9          MOVL      XAR5,ACC              ; [CPU_] |133| 
    2887                      .dwpsn  file "C:/ti/motorware/motorware_1_01_00_16/sw/modules/svgen/src/32b/svgen.h",line 134,column 
    2888 000001fd 565D          SUBUL     P,XAR4                ; [CPU_] |134| 
         000001fe 00A4 
    2889 000001ff A9A7          MOVL      XAR7,P                ; [CPU_] |134| 
    2890                      .dwpsn  file "C:/ti/motorware/motorware_1_01_00_16/sw/modules/svgen/src/32b/svgen.h",line 140,column 
    2891 00000200 0FA6          CMPL      ACC,XAR6              ; [CPU_] |140| 
    2892 00000201 56C4          BF        $C$L18,LT             ; [CPU_] |140| 
         00000202 0005 
    2893                      ; branchcc occurs ; [] |140| 
    2894 00000203 A0AB          MOVL      P,XAR5                ; [CPU_] 
    2895                      .dwpsn  file "C:/ti/motorware/motorware_1_01_00_16/sw/modules/svgen/src/32b/svgen.h",line 148,column 
    2896 00000204 87A6          MOVL      XT,XAR6               ; [CPU_] |148| 
    2897 00000205 6F03          B         $C$L19,UNC            ; [CPU_] |148| 
    2898                      ; branch occurs ; [] |148| 
    2899 00000206       $C$L18:    
    2900                      .dwpsn  file "C:/ti/motorware/motorware_1_01_00_16/sw/modules/svgen/src/32b/svgen.h",line 142,column 
    2901 00000206 A3A6          MOVL      P,XAR6                ; [CPU_] |142| 
    2902 00000207 A0AC          MOVL      XT,XAR5               ; [CPU_] |142| 
    2903 00000208       $C$L19:    
    2904 00000208 A9A9          MOVL      ACC,P                 ; [CPU_] 
    2905                      .dwpsn  file "C:/ti/motorware/motorware_1_01_00_16/sw/modules/svgen/src/32b/svgen.h",line 151,column 
    2906 00000209 0FA7          CMPL      ACC,XAR7              ; [CPU_] |151| 
    2907 0000020a 56C4          BF        $C$L20,LT             ; [CPU_] |151| 
         0000020b 0008 
    2908                      ; branchcc occurs ; [] |151| 
    2909 0000020c ABA9          MOVL      ACC,XT                ; [CPU_] 
    2910                      .dwpsn  file "C:/ti/motorware/motorware_1_01_00_16/sw/modules/svgen/src/32b/svgen.h",line 155,column 
    2911 0000020d 0FA7          CMPL      ACC,XAR7              ; [CPU_] |155| 
    2912 0000020e 56C5          BF        $C$L21,LEQ            ; [CPU_] |155| 
         0000020f 0005 
    2913                      ; branchcc occurs ; [] |155| 
    2914                      .dwpsn  file "C:/ti/motorware/motorware_1_01_00_16/sw/modules/svgen/src/32b/svgen.h",line 157,column 
    2915 00000210 87A7          MOVL      XT,XAR7               ; [CPU_] |157| 
    2916 00000211 6F02          B         $C$L21,UNC            ; [CPU_] |157| 
    2917                      ; branch occurs ; [] |157| 
    2918 00000212       $C$L20:    
    2919                      .dwpsn  file "C:/ti/motorware/motorware_1_01_00_16/sw/modules/svgen/src/32b/svgen.h",line 153,column 
    2920 00000212 A3A7          MOVL      P,XAR7                ; [CPU_] |153| 
    2921 00000213       $C$L21:    
    2922                      .dwpsn  file "C:/ti/motorware/motorware_1_01_00_16/sw/modules/svgen/src/32b/svgen.h",line 163,column 
    2923 00000213 A9A9          MOVL      ACC,P                 ; [CPU_] |163| 
    2924 00000214 5601          ADDL      XT,ACC                ; [CPU_] |163| 
         00000215 00AC 
    2925 00000216 9A00          MOV       AL,#0                 ; [CPU_] |163| 
    2926 00000217 9B80          MOV       AH,#128               ; [CPU_] |163| 
    2927 00000218 8F00-         MOVL      XAR4,#_gPwmData       ; [CPU_U] |163| 
         00000219 004C 
    2928 0000021a 5605          IMPYL     P,XT,ACC              ; [CPU_] |163| 
         0000021b 00A9 
    2929 0000021c 5663          QMPYL     ACC,XT,ACC            ; [CPU_] |163| 
         0000021d 00A9 
    2930 0000021e 56A7          LSL64     ACC:P,#8              ; [CPU_] |163| 
TMS320C2000 Assembler PC v6.4.10 Mon Jul 11 12:58:57 2016

Tools Copyright (c) 1996-2015 Texas Instruments Incorporated
C:\Users\bee25\AppData\Local\Temp\0350410                            PAGE   60

    2931 0000021f 5641          SUBL      XAR6,ACC              ; [CPU_] |163| 
         00000220 00A6 
    2932                      .dwpsn  file "C:/ti/motorware/motorware_1_01_00_16/sw/modules/svgen/src/32b/svgen.h",line 164,column 
    2933 00000221 5641          SUBL      XAR5,ACC              ; [CPU_] |164| 
         00000222 00A5 
    2934                      .dwpsn  file "C:/ti/motorware/motorware_1_01_00_16/sw/modules/svgen/src/32b/svgen.h",line 165,column 
    2935 00000223 5641          SUBL      XAR7,ACC              ; [CPU_] |165| 
         00000224 00A7 
    2936 00000225 761F-         MOVW      DP,#_halHandle        ; [CPU_U] 
         00000226 0000 
    2937                      .dwpsn  file "C:/ti/motorware/motorware_1_01_00_16/sw/modules/svgen/src/32b/svgen.h",line 163,column 
    2938 00000227 C2C4          MOVL      *+XAR4[0],XAR6        ; [CPU_] |163| 
    2939                      .dwpsn  file "C:/ti/motorware/motorware_1_01_00_16/sw/modules/svgen/src/32b/svgen.h",line 164,column 
    2940 00000228 A0D4          MOVL      *+XAR4[2],XAR5        ; [CPU_] |164| 
    2941                      .dwpsn  file "C:/ti/motorware/motorware_1_01_00_16/sw/modules/svgen/src/32b/svgen.h",line 165,column 
    2942 00000229 C3E4          MOVL      *+XAR4[4],XAR7        ; [CPU_] |165| 
    2943                      .dwpsn  file "C:/ti/motorware/motorware_1_01_00_16/sw/modules/svgen/src/32b/svgen.h",line 167,column 
    2944 0000022a 8A00-         MOVL      XAR4,@_halHandle      ; [CPU_] |167| 
    2945 0000022b 6F22          B         $C$L23,UNC            ; [CPU_] |167| 
    2946                      ; branch occurs ; [] |167| 
    2947 0000022c       $C$L22:    
    2948 0000022c 761F-         MOVW      DP,#_halHandle        ; [CPU_U] 
         0000022d 0000 
    2949                      .dwpsn  file "C:/ti/motorware/motorware_1_01_00_16/sw/solutions/instaspin_foc/src/proj_lab11.c",line 
    2950 0000022e 8A00-         MOVL      XAR4,@_halHandle      ; [CPU_] |686| 
    2951                      .dwpsn  file "C:/ti/motorware/motorware_1_01_00_16/sw/modules/hal/boards/boostxldrv8301_revB/f28x/f28
    2952 0000022f 83A4          MOVL      XAR5,XAR4             ; [CPU_] |240| 
    2953 00000230 DD7E          ADDB      XAR5,#126             ; [CPU_] |240| 
    2954 00000231 7622   EALLOW
    2955                      .dwpsn  file "C:/ti/motorware/motorware_1_01_00_16/sw/drivers/pwm/src/32b/f28x/f2802x/pwm.h",line 156
    2956 00000232 D07C          MOVB      XAR0,#124             ; [CPU_] |1567| 
    2957 00000233 0218          MOVB      ACC,#24               ; [CPU_] |1567| 
    2958 00000234 0794          ADDL      ACC,*+XAR4[AR0]       ; [CPU_] |1567| 
    2959 00000235 1EA6          MOVL      XAR6,ACC              ; [CPU_] |1567| 
    2960 00000236 1AC6          OR        *+XAR6[0],#0x0004     ; [CPU_] |1567| 
         00000237 0004 
    2961 00000238 761A   EDIS
    2962 00000239 7622   EALLOW
    2963 0000023a 0218          MOVB      ACC,#24               ; [CPU_] |1567| 
    2964 0000023b 07C5          ADDL      ACC,*+XAR5[0]         ; [CPU_] |1567| 
    2965 0000023c 1EA6          MOVL      XAR6,ACC              ; [CPU_] |1567| 
    2966 0000023d 1AC6          OR        *+XAR6[0],#0x0004     ; [CPU_] |1567| 
         0000023e 0004 
    2967 0000023f 761A   EDIS
    2968 00000240 7622   EALLOW
    2969 00000241 0218          MOVB      ACC,#24               ; [CPU_] |1567| 
    2970 00000242 07D5          ADDL      ACC,*+XAR5[2]         ; [CPU_] |1567| 
    2971 00000243 83A9          MOVL      XAR5,ACC              ; [CPU_] |1567| 
    2972 00000244 1AC5          OR        *+XAR5[0],#0x0004     ; [CPU_] |1567| 
         00000245 0004 
    2973 00000246 761A   EDIS
    2974                      .dwpsn  file "C:/ti/motorware/motorware_1_01_00_16/sw/solutions/instaspin_foc/src/proj_lab11.c",line 
    2975 00000247 0200          MOVB      ACC,#0                ; [CPU_] |689| 
    2976 00000248 8F40-         MOVL      XAR5,#_gPwmData       ; [CPU_U] |689| 
         00000249 004C 
TMS320C2000 Assembler PC v6.4.10 Mon Jul 11 12:58:57 2016

Tools Copyright (c) 1996-2015 Texas Instruments Incorporated
C:\Users\bee25\AppData\Local\Temp\0350410                            PAGE   61

    2977 0000024a 1EC5          MOVL      *+XAR5[0],ACC         ; [CPU_] |689| 
    2978                      .dwpsn  file "C:/ti/motorware/motorware_1_01_00_16/sw/solutions/instaspin_foc/src/proj_lab11.c",line 
    2979 0000024b 1ED5          MOVL      *+XAR5[2],ACC         ; [CPU_] |690| 
    2980                      .dwpsn  file "C:/ti/motorware/motorware_1_01_00_16/sw/solutions/instaspin_foc/src/proj_lab11.c",line 
    2981 0000024c 1EE5          MOVL      *+XAR5[4],ACC         ; [CPU_] |691| 
    2982 0000024d       $C$L23:    
    2983 0000024d DC7C          ADDB      XAR4,#124             ; [CPU_] 
    2984 0000024e 76C0-         MOVL      XAR7,#_gPwmData       ; [CPU_U] 
         0000024f 004C 
    2985 00000250 BE02          MOVB      XAR6,#2               ; [CPU_] 
    2986 00000251 3B01          SETC      SXM                   ; [CPU_] 
    2987 00000252 FF69          SPM       #0                    ; [CPU_] 
    2988 00000253       $C$L24:    
    2989                      .dwpsn  file "C:/ti/motorware/motorware_1_01_00_16/sw/modules/hal/boards/boostxldrv8301_revB/f28x/f28
    2990 00000253 8384          MOVL      XAR5,*XAR4++          ; [CPU_] |1067| 
    2991                      .dwpsn  file "C:/ti/motorware/motorware_1_01_00_16/sw/drivers/pwm/src/32b/f28x/f2802x/pwm.h",line 171
    2992 00000254 FF2F          MOV       ACC,#-512 << 15       ; [CPU_] |1717| 
         00000255 FE00 
    2993 00000256 8787          MOVL      XT,*XAR7++            ; [CPU_] |1717| 
    2994 00000257 5605          IMPYL     P,XT,ACC              ; [CPU_] |1717| 
         00000258 00A9 
    2995                      .dwpsn  file "C:/ti/motorware/motorware_1_01_00_16/sw/modules/hal/boards/boostxldrv8301_revB/f28x/f28
    2996 00000259 58ED          MOVZ      AR0,*+XAR5[5]         ; [CPU_] |1067| 
    2997                      .dwpsn  file "C:/ti/motorware/motorware_1_01_00_16/sw/drivers/pwm/src/32b/f28x/f2802x/pwm.h",line 171
    2998 0000025a 5663          QMPYL     ACC,XT,ACC            ; [CPU_] |1717| 
         0000025b 00A9 
    2999 0000025c 56A7          LSL64     ACC:P,#8              ; [CPU_] |1717| 
    3000 0000025d 2BAB          MOV       PL,#0                 ; [CPU_] |1717| 
    3001 0000025e 28AA          MOV       PH,#128               ; [CPU_] |1717| 
         0000025f 0080 
    3002 00000260 A9AC          MOVL      XT,P                  ; [CPU_] |1717| 
    3003 00000261 2BAB          MOV       PL,#0                 ; [CPU_] |1717| 
    3004 00000262 28AA          MOV       PH,#65408             ; [CPU_] |1717| 
         00000263 FF80 
    3005 00000264 5650          MINL      ACC,XT                ; [CPU_] |1717| 
         00000265 00AC 
    3006 00000266 5661          MAXL      ACC,P                 ; [CPU_] |1717| 
         00000267 00AB 
    3007 00000268 FF1F          ADD       ACC,#256 << 15        ; [CPU_] |1717| 
         00000269 0100 
    3008 0000026a 1EAC          MOVL      XT,ACC                ; [CPU_] |1717| 
    3009 0000026b 5605          IMPYL     P,XT,XAR0             ; [CPU_] |1717| 
         0000026c 00A0 
    3010 0000026d 5663          QMPYL     ACC,XT,XAR0           ; [CPU_] |1717| 
         0000026e 00A0 
    3011 0000026f 56A7          LSL64     ACC:P,#8              ; [CPU_] |1717| 
    3012 00000270 3100          MOV       P,#0                  ; [CPU_] |1717| 
    3013 00000271 5650          MINL      ACC,XAR0              ; [CPU_] |1717| 
         00000272 00A0 
    3014 00000273 D009          MOVB      XAR0,#9               ; [CPU_] |1717| 
    3015 00000274 5661          MAXL      ACC,P                 ; [CPU_] |1717| 
         00000275 00AB 
    3016 00000276 9695          MOV       *+XAR5[AR0],AL        ; [CPU_] |1717| 
    3017                      .dwpsn  file "C:/ti/motorware/motorware_1_01_00_16/sw/modules/hal/boards/boostxldrv8301_revB/f28x/f28
    3018 00000277 000E          BANZ      $C$L24,AR6--          ; [CPU_] |1064| 
TMS320C2000 Assembler PC v6.4.10 Mon Jul 11 12:58:57 2016

Tools Copyright (c) 1996-2015 Texas Instruments Incorporated
C:\Users\bee25\AppData\Local\Temp\0350410                            PAGE   62

         00000278 FFDC 
    3019                      ; branchcc occurs ; [] |1064| 
    3020 00000279 FE96          SUBB      SP,#22                ; [CPU_U] 
    3021                      .dwcfi  cfa_offset, -18
    3022 0000027a C5BE          MOVL      XAR7,*--SP            ; [CPU_] 
    3023                      .dwcfi  cfa_offset, -16
    3024                      .dwcfi  restore_reg, 18
    3025 0000027b C4BE          MOVL      XAR6,*--SP            ; [CPU_] 
    3026                      .dwcfi  cfa_offset, -14
    3027                      .dwcfi  restore_reg, 16
    3028 0000027c 83BE          MOVL      XAR5,*--SP            ; [CPU_] 
    3029                      .dwcfi  cfa_offset, -12
    3030                      .dwcfi  restore_reg, 14
    3031 0000027d 8ABE          MOVL      XAR4,*--SP            ; [CPU_] 
    3032                      .dwcfi  cfa_offset, -10
    3033                      .dwcfi  restore_reg, 12
    3034 0000027e 82BE          MOVL      XAR3,*--SP            ; [CPU_] 
    3035                      .dwcfi  cfa_offset, -8
    3036                      .dwcfi  restore_reg, 10
    3037 0000027f 86BE          MOVL      XAR2,*--SP            ; [CPU_] 
    3038                      .dwcfi  cfa_offset, -6
    3039                      .dwcfi  restore_reg, 8
    3040 00000280 87BE          MOVL      XT,*--SP              ; [CPU_] 
    3041                      .dwcfi  cfa_offset, -4
    3042                      .dwcfi  restore_reg, 22
    3043                      .dwcfi  restore_reg, 21
    3044 00000281 0003          POP       AR1H:AR0H             ; [CPU_] 
    3045                      .dwcfi  cfa_offset, -2
    3046                      .dwcfi  restore_reg, 5
    3047                      .dwcfi  restore_reg, 7
    3048 00000282 7617          NASP      ; [CPU_] 
    3049              $C$DW$318       .dwtag  DW_TAG_TI_branch
    3050                      .dwattr $C$DW$318, DW_AT_low_pc(0x00)
    3051                      .dwattr $C$DW$318, DW_AT_TI_return
    3052 00000283 7602          IRET      ; [CPU_] 
    3053                      ; return occurs ; [] 
    3054                      .dwattr $C$DW$262, DW_AT_TI_end_file("C:/ti/motorware/motorware_1_01_00_16/sw/solutions/instaspin_foc
    3055                      .dwattr $C$DW$262, DW_AT_TI_end_line(0x2ba)
    3056                      .dwattr $C$DW$262, DW_AT_TI_end_column(0x01)
    3057                      .dwendentry
    3058                      .dwendtag $C$DW$262
    3059              
    3060 000001b4               .sect   ".text"
    3061                      .clink
    3062                      .global _main
    3063              
    3064              $C$DW$319       .dwtag  DW_TAG_subprogram, DW_AT_name("main")
    3065                      .dwattr $C$DW$319, DW_AT_low_pc(_main)
    3066                      .dwattr $C$DW$319, DW_AT_high_pc(0x00)
    3067                      .dwattr $C$DW$319, DW_AT_TI_symbol_name("_main")
    3068                      .dwattr $C$DW$319, DW_AT_external
    3069                      .dwattr $C$DW$319, DW_AT_TI_begin_file("C:/ti/motorware/motorware_1_01_00_16/sw/solutions/instaspin_f
    3070                      .dwattr $C$DW$319, DW_AT_TI_begin_line(0xa4)
    3071                      .dwattr $C$DW$319, DW_AT_TI_begin_column(0x06)
    3072                      .dwattr $C$DW$319, DW_AT_TI_max_frame_size(-10)
TMS320C2000 Assembler PC v6.4.10 Mon Jul 11 12:58:57 2016

Tools Copyright (c) 1996-2015 Texas Instruments Incorporated
C:\Users\bee25\AppData\Local\Temp\0350410                            PAGE   63

    3073                      .dwpsn  file "C:/ti/motorware/motorware_1_01_00_16/sw/solutions/instaspin_foc/src/proj_lab11.c",line 
    3074              
    3075                      .dwfde $C$DW$CIE, _main
    3076              
    3077              ;***************************************************************
    3078              ;* FNAME: _main                         FR SIZE:   8           *
    3079              ;*                                                             *
    3080              ;* FUNCTION ENVIRONMENT                                        *
    3081              ;*                                                             *
    3082              ;* FUNCTION PROPERTIES                                         *
    3083              ;*                            2 Parameter,  0 Auto,  6 SOE     *
    3084              ;***************************************************************
    3085              
    3086              _main:
    3087              ;* AR5   assigned to $O$C2
    3088              ;* AR6   assigned to $O$C3
    3089              ;* AR4   assigned to $O$C4
    3090              ;* AR4   assigned to $O$C5
    3091              ;* AR5   assigned to $O$C6
    3092              ;* AR5   assigned to $O$C7
    3093              ;* AR3   assigned to $O$C8
    3094              ;* AR1   assigned to $O$C9
    3095              ;* AR4   assigned to $O$C10
    3096              ;* AR4   assigned to $O$C11
    3097              ;* AR1   assigned to $O$K32
    3098              ;* AR1   assigned to $O$K160
    3099              ;* AR4   assigned to _obj
    3100              $C$DW$320       .dwtag  DW_TAG_variable, DW_AT_name("obj")
    3101                      .dwattr $C$DW$320, DW_AT_TI_symbol_name("_obj")
    3102                      .dwattr $C$DW$320, DW_AT_type(*$C$DW$T$230)
    3103                      .dwattr $C$DW$320, DW_AT_location[DW_OP_reg12]
    3104              ;* AR4   assigned to _obj
    3105              $C$DW$321       .dwtag  DW_TAG_variable, DW_AT_name("obj")
    3106                      .dwattr $C$DW$321, DW_AT_TI_symbol_name("_obj")
    3107                      .dwattr $C$DW$321, DW_AT_type(*$C$DW$T$230)
    3108                      .dwattr $C$DW$321, DW_AT_location[DW_OP_reg12]
    3109              ;* AR4   assigned to _obj
    3110              $C$DW$322       .dwtag  DW_TAG_variable, DW_AT_name("obj")
    3111                      .dwattr $C$DW$322, DW_AT_TI_symbol_name("_obj")
    3112                      .dwattr $C$DW$322, DW_AT_type(*$C$DW$T$230)
    3113                      .dwattr $C$DW$322, DW_AT_location[DW_OP_reg12]
    3114              ;* AR4   assigned to _obj
    3115              $C$DW$323       .dwtag  DW_TAG_variable, DW_AT_name("obj")
    3116                      .dwattr $C$DW$323, DW_AT_TI_symbol_name("_obj")
    3117                      .dwattr $C$DW$323, DW_AT_type(*$C$DW$T$230)
    3118                      .dwattr $C$DW$323, DW_AT_location[DW_OP_reg12]
    3119              ;* AR4   assigned to _obj
    3120              $C$DW$324       .dwtag  DW_TAG_variable, DW_AT_name("obj")
    3121                      .dwattr $C$DW$324, DW_AT_TI_symbol_name("_obj")
    3122                      .dwattr $C$DW$324, DW_AT_type(*$C$DW$T$261)
    3123                      .dwattr $C$DW$324, DW_AT_location[DW_OP_reg12]
    3124              ;* AR4   assigned to _obj
    3125              $C$DW$325       .dwtag  DW_TAG_variable, DW_AT_name("obj")
    3126                      .dwattr $C$DW$325, DW_AT_TI_symbol_name("_obj")
    3127                      .dwattr $C$DW$325, DW_AT_type(*$C$DW$T$261)
TMS320C2000 Assembler PC v6.4.10 Mon Jul 11 12:58:57 2016

Tools Copyright (c) 1996-2015 Texas Instruments Incorporated
C:\Users\bee25\AppData\Local\Temp\0350410                            PAGE   64

    3128                      .dwattr $C$DW$325, DW_AT_location[DW_OP_reg12]
    3129              ;* AR4   assigned to _obj
    3130              $C$DW$326       .dwtag  DW_TAG_variable, DW_AT_name("obj")
    3131                      .dwattr $C$DW$326, DW_AT_TI_symbol_name("_obj")
    3132                      .dwattr $C$DW$326, DW_AT_type(*$C$DW$T$261)
    3133                      .dwattr $C$DW$326, DW_AT_location[DW_OP_reg12]
    3134              ;* AR4   assigned to _obj
    3135              $C$DW$327       .dwtag  DW_TAG_variable, DW_AT_name("obj")
    3136                      .dwattr $C$DW$327, DW_AT_TI_symbol_name("_obj")
    3137                      .dwattr $C$DW$327, DW_AT_type(*$C$DW$T$261)
    3138                      .dwattr $C$DW$327, DW_AT_location[DW_OP_reg12]
    3139              ;* AR4   assigned to _obj
    3140              $C$DW$328       .dwtag  DW_TAG_variable, DW_AT_name("obj")
    3141                      .dwattr $C$DW$328, DW_AT_TI_symbol_name("_obj")
    3142                      .dwattr $C$DW$328, DW_AT_type(*$C$DW$T$261)
    3143                      .dwattr $C$DW$328, DW_AT_location[DW_OP_reg12]
    3144              ;* AR4   assigned to _obj
    3145              $C$DW$329       .dwtag  DW_TAG_variable, DW_AT_name("obj")
    3146                      .dwattr $C$DW$329, DW_AT_TI_symbol_name("_obj")
    3147                      .dwattr $C$DW$329, DW_AT_type(*$C$DW$T$261)
    3148                      .dwattr $C$DW$329, DW_AT_location[DW_OP_reg12]
    3149              ;* AR2   assigned to $O$K33
    3150              ;* AR4   assigned to $O$K33
    3151              ;* AR4   assigned to $O$v1
    3152              ;* AR4   assigned to $O$v1
    3153                      .dwcfi  cfa_offset, -2
    3154                      .dwcfi  save_reg_to_mem, 26, 0
    3155 000001b4 B2BD          MOVL      *SP++,XAR1            ; [CPU_] 
    3156                      .dwcfi  save_reg_to_mem, 7, 2
    3157                      .dwcfi  cfa_offset, -4
    3158 000001b5 AABD          MOVL      *SP++,XAR2            ; [CPU_] 
    3159                      .dwcfi  save_reg_to_mem, 9, 4
    3160                      .dwcfi  cfa_offset, -6
    3161 000001b6 A2BD          MOVL      *SP++,XAR3            ; [CPU_] 
    3162                      .dwcfi  save_reg_to_mem, 11, 6
    3163                      .dwcfi  cfa_offset, -8
    3164 000001b7 FE02          ADDB      SP,#2                 ; [CPU_U] 
    3165                      .dwcfi  cfa_offset, -10
    3166                      .dwpsn  file "C:/ti/motorware/motorware_1_01_00_16/sw/solutions/instaspin_foc/src/proj_lab11.c",line 
    3167 000001b8 8F00!         MOVL      XAR4,#_RamfuncsRunStart ; [CPU_U] |177| 
         000001b9 0000 
    3168 000001ba 8F40!         MOVL      XAR5,#_RamfuncsLoadEnd ; [CPU_U] |177| 
         000001bb 0000 
    3169 000001bc A842          MOVL      *-SP[2],XAR4          ; [CPU_] |177| 
    3170 000001bd 8F00!         MOVL      XAR4,#_RamfuncsLoadStart ; [CPU_U] |177| 
         000001be 0000 
    3171              $C$DW$330       .dwtag  DW_TAG_TI_branch
    3172                      .dwattr $C$DW$330, DW_AT_low_pc(0x00)
    3173                      .dwattr $C$DW$330, DW_AT_name("_memCopy")
    3174                      .dwattr $C$DW$330, DW_AT_TI_call
    3175 000001bf 7640!         LCR       #_memCopy             ; [CPU_] |177| 
         000001c0 0000 
    3176                      ; call occurs [#_memCopy] ; [] |177| 
    3177 000001c1 761F!         MOVW      DP,#_econst_start     ; [CPU_U] 
         000001c2 0000 
TMS320C2000 Assembler PC v6.4.10 Mon Jul 11 12:58:57 2016

Tools Copyright (c) 1996-2015 Texas Instruments Incorporated
C:\Users\bee25\AppData\Local\Temp\0350410                            PAGE   65

    3178                      .dwpsn  file "C:/ti/motorware/motorware_1_01_00_16/sw/solutions/instaspin_foc/src/proj_lab11.c",line 
    3179 000001c3 8A00!         MOVL      XAR4,@_econst_start   ; [CPU_] |182| 
    3180 000001c4 761F!         MOVW      DP,#_econst_end       ; [CPU_U] 
         000001c5 0000 
    3181 000001c6 0EC4          MOVU      ACC,*+XAR4[0]         ; [CPU_] |182| 
    3182 000001c7 8A00!         MOVL      XAR4,@_econst_end     ; [CPU_] |182| 
    3183 000001c8 88C4          MOVZ      AR6,*+XAR4[0]         ; [CPU_] |182| 
    3184 000001c9 0FA6          CMPL      ACC,XAR6              ; [CPU_] |182| 
    3185 000001ca EC0A          BF        $C$L25,EQ             ; [CPU_] |182| 
    3186                      ; branchcc occurs ; [] |182| 
    3187                      .dwpsn  file "C:/ti/motorware/motorware_1_01_00_16/sw/solutions/instaspin_foc/src/proj_lab11.c",line 
    3188 000001cb 8F00!         MOVL      XAR4,#_econst_ram_load ; [CPU_U] |184| 
         000001cc 0000 
    3189 000001cd 8F40!         MOVL      XAR5,#_econst_end     ; [CPU_U] |184| 
         000001ce 0000 
    3190 000001cf A842          MOVL      *-SP[2],XAR4          ; [CPU_] |184| 
    3191 000001d0 8F00!         MOVL      XAR4,#_econst_start   ; [CPU_U] |184| 
         000001d1 0000 
    3192              $C$DW$331       .dwtag  DW_TAG_TI_branch
    3193                      .dwattr $C$DW$331, DW_AT_low_pc(0x00)
    3194                      .dwattr $C$DW$331, DW_AT_name("_memCopy")
    3195                      .dwattr $C$DW$331, DW_AT_TI_call
    3196 000001d2 7640!         LCR       #_memCopy             ; [CPU_] |184| 
         000001d3 0000 
    3197                      ; call occurs [#_memCopy] ; [] |184| 
    3198 000001d4       $C$L25:    
    3199 000001d4 761F!         MOVW      DP,#_switch_start     ; [CPU_U] 
         000001d5 0000 
    3200                      .dwpsn  file "C:/ti/motorware/motorware_1_01_00_16/sw/solutions/instaspin_foc/src/proj_lab11.c",line 
    3201 000001d6 8A00!         MOVL      XAR4,@_switch_start   ; [CPU_] |189| 
    3202 000001d7 761F!         MOVW      DP,#_switch_end       ; [CPU_U] 
         000001d8 0000 
    3203 000001d9 0EC4          MOVU      ACC,*+XAR4[0]         ; [CPU_] |189| 
    3204 000001da 8A00!         MOVL      XAR4,@_switch_end     ; [CPU_] |189| 
    3205 000001db 88C4          MOVZ      AR6,*+XAR4[0]         ; [CPU_] |189| 
    3206 000001dc 0FA6          CMPL      ACC,XAR6              ; [CPU_] |189| 
    3207 000001dd EC0A          BF        $C$L26,EQ             ; [CPU_] |189| 
    3208                      ; branchcc occurs ; [] |189| 
    3209                      .dwpsn  file "C:/ti/motorware/motorware_1_01_00_16/sw/solutions/instaspin_foc/src/proj_lab11.c",line 
    3210 000001de 8F00!         MOVL      XAR4,#_switch_ram_load ; [CPU_U] |191| 
         000001df 0000 
    3211 000001e0 8F40!         MOVL      XAR5,#_switch_end     ; [CPU_U] |191| 
         000001e1 0000 
    3212 000001e2 A842          MOVL      *-SP[2],XAR4          ; [CPU_] |191| 
    3213 000001e3 8F00!         MOVL      XAR4,#_switch_start   ; [CPU_U] |191| 
         000001e4 0000 
    3214              $C$DW$332       .dwtag  DW_TAG_TI_branch
    3215                      .dwattr $C$DW$332, DW_AT_low_pc(0x00)
    3216                      .dwattr $C$DW$332, DW_AT_name("_memCopy")
    3217                      .dwattr $C$DW$332, DW_AT_TI_call
    3218 000001e5 7640!         LCR       #_memCopy             ; [CPU_] |191| 
         000001e6 0000 
    3219                      ; call occurs [#_memCopy] ; [] |191| 
    3220 000001e7       $C$L26:    
    3221                      .dwpsn  file "C:/ti/motorware/motorware_1_01_00_16/sw/solutions/instaspin_foc/src/proj_lab11.c",line 
TMS320C2000 Assembler PC v6.4.10 Mon Jul 11 12:58:57 2016

Tools Copyright (c) 1996-2015 Texas Instruments Incorporated
C:\Users\bee25\AppData\Local\Temp\0350410                            PAGE   66

    3222 000001e7 8F00!         MOVL      XAR4,#_hal            ; [CPU_U] |205| 
         000001e8 0000 
    3223 000001e9 02EA          MOVB      ACC,#234              ; [CPU_] |205| 
    3224              $C$DW$333       .dwtag  DW_TAG_TI_branch
    3225                      .dwattr $C$DW$333, DW_AT_low_pc(0x00)
    3226                      .dwattr $C$DW$333, DW_AT_name("_HAL_init")
    3227                      .dwattr $C$DW$333, DW_AT_TI_call
    3228 000001ea 7640!         LCR       #_HAL_init            ; [CPU_] |205| 
         000001eb 0000 
    3229                      ; call occurs [#_HAL_init] ; [] |205| 
    3230                      .dwpsn  file "C:/ti/motorware/motorware_1_01_00_16/sw/solutions/instaspin_foc/src/proj_lab11.c",line 
    3231 000001ec 8D40-         MOVL      XAR1,#_gUserParams    ; [CPU_U] |208| 
         000001ed 0040 
    3232 000001ee 761F-         MOVW      DP,#_halHandle        ; [CPU_U] 
         000001ef 0000 
    3233                      .dwpsn  file "C:/ti/motorware/motorware_1_01_00_16/sw/solutions/instaspin_foc/src/proj_lab11.c",line 
    3234 000001f0 A800-         MOVL      @_halHandle,XAR4      ; [CPU_] |205| 
    3235                      .dwpsn  file "C:/ti/motorware/motorware_1_01_00_16/sw/solutions/instaspin_foc/src/proj_lab11.c",line 
    3236 000001f1 8AA1          MOVL      XAR4,XAR1             ; [CPU_] |208| 
    3237              $C$DW$334       .dwtag  DW_TAG_TI_branch
    3238                      .dwattr $C$DW$334, DW_AT_low_pc(0x00)
    3239                      .dwattr $C$DW$334, DW_AT_name("_USER_checkForErrors")
    3240                      .dwattr $C$DW$334, DW_AT_TI_call
    3241 000001f2 7640!         LCR       #_USER_checkForErrors ; [CPU_] |208| 
         000001f3 0000 
    3242                      ; call occurs [#_USER_checkForErrors] ; [] |208| 
    3243                      .dwpsn  file "C:/ti/motorware/motorware_1_01_00_16/sw/solutions/instaspin_foc/src/proj_lab11.c",line 
    3244 000001f4 8AA1          MOVL      XAR4,XAR1             ; [CPU_] |211| 
    3245              $C$DW$335       .dwtag  DW_TAG_TI_branch
    3246                      .dwattr $C$DW$335, DW_AT_low_pc(0x00)
    3247                      .dwattr $C$DW$335, DW_AT_name("_USER_getErrorCode")
    3248                      .dwattr $C$DW$335, DW_AT_TI_call
    3249 000001f5 7640!         LCR       #_USER_getErrorCode   ; [CPU_] |211| 
         000001f6 0000 
    3250                      ; call occurs [#_USER_getErrorCode] ; [] |211| 
    3251 000001f7 8D80-         MOVL      XAR2,#_gMotorVars     ; [CPU_U] |211| 
         000001f8 00C0 
    3252 000001f9 D00C          MOVB      XAR0,#12              ; [CPU_] |211| 
    3253 000001fa 9692          MOV       *+XAR2[AR0],AL        ; [CPU_] |211| 
    3254                      .dwpsn  file "C:/ti/motorware/motorware_1_01_00_16/sw/solutions/instaspin_foc/src/proj_lab11.c",line 
    3255 000001fb D00C          MOVB      XAR0,#12              ; [CPU_] |215| 
    3256 000001fc 9292          MOV       AL,*+XAR2[AR0]        ; [CPU_] |215| 
    3257 000001fd 56C0          BF        $C$L32,NEQ            ; [CPU_] |215| 
         000001fe 01C0 
    3258                      ; branchcc occurs ; [] |215| 
    3259                      .dwpsn  file "C:/ti/motorware/motorware_1_01_00_16/sw/solutions/instaspin_foc/src/proj_lab11.c",line 
    3260 000001ff 8F00-         MOVL      XAR4,#_clarke_I       ; [CPU_U] |225| 
         00000200 0036 
    3261 00000201 0206          MOVB      ACC,#6                ; [CPU_] |225| 
    3262              $C$DW$336       .dwtag  DW_TAG_TI_branch
    3263                      .dwattr $C$DW$336, DW_AT_low_pc(0x00)
    3264                      .dwattr $C$DW$336, DW_AT_name("_CLARKE_init")
    3265                      .dwattr $C$DW$336, DW_AT_TI_call
    3266 00000202 7640!         LCR       #_CLARKE_init         ; [CPU_] |225| 
         00000203 0000 
TMS320C2000 Assembler PC v6.4.10 Mon Jul 11 12:58:57 2016

Tools Copyright (c) 1996-2015 Texas Instruments Incorporated
C:\Users\bee25\AppData\Local\Temp\0350410                            PAGE   67

    3267                      ; call occurs [#_CLARKE_init] ; [] |225| 
    3268 00000204 761F-         MOVW      DP,#_clarkeHandle_I   ; [CPU_U] 
         00000205 0000 
    3269                      .dwpsn  file "C:/ti/motorware/motorware_1_01_00_16/sw/solutions/instaspin_foc/src/proj_lab11.c",line 
    3270 00000206 0206          MOVB      ACC,#6                ; [CPU_] |227| 
    3271                      .dwpsn  file "C:/ti/motorware/motorware_1_01_00_16/sw/solutions/instaspin_foc/src/proj_lab11.c",line 
    3272 00000207 A80A-         MOVL      @_clarkeHandle_I,XAR4 ; [CPU_] |225| 
    3273                      .dwpsn  file "C:/ti/motorware/motorware_1_01_00_16/sw/solutions/instaspin_foc/src/proj_lab11.c",line 
    3274 00000208 8F00-         MOVL      XAR4,#_clarke_V       ; [CPU_U] |227| 
         00000209 0040 
    3275              $C$DW$337       .dwtag  DW_TAG_TI_branch
    3276                      .dwattr $C$DW$337, DW_AT_low_pc(0x00)
    3277                      .dwattr $C$DW$337, DW_AT_name("_CLARKE_init")
    3278                      .dwattr $C$DW$337, DW_AT_TI_call
    3279 0000020a 7640!         LCR       #_CLARKE_init         ; [CPU_] |227| 
         0000020b 0000 
    3280                      ; call occurs [#_CLARKE_init] ; [] |227| 
    3281 0000020c 761F-         MOVW      DP,#_clarkeHandle_V   ; [CPU_U] 
         0000020d 0000 
    3282                      .dwpsn  file "C:/ti/motorware/motorware_1_01_00_16/sw/solutions/instaspin_foc/src/proj_lab11.c",line 
    3283 0000020e 8F40          MOVL      XAR5,#512             ; [CPU_U] |230| 
         0000020f 0200 
    3284                      .dwpsn  file "C:/ti/motorware/motorware_1_01_00_16/sw/solutions/instaspin_foc/src/proj_lab11.c",line 
    3285 00000210 A804-         MOVL      @_clarkeHandle_V,XAR4 ; [CPU_] |227| 
    3286                      .dwpsn  file "C:/ti/motorware/motorware_1_01_00_16/sw/solutions/instaspin_foc/src/proj_lab11.c",line 
    3287 00000211 A0A9          MOVL      ACC,XAR5              ; [CPU_] |230| 
    3288 00000212 8F00          MOVL      XAR4,#1536            ; [CPU_U] |230| 
         00000213 0600 
    3289              $C$DW$338       .dwtag  DW_TAG_TI_branch
    3290                      .dwattr $C$DW$338, DW_AT_low_pc(0x00)
    3291                      .dwattr $C$DW$338, DW_AT_name("_EST_init")
    3292                      .dwattr $C$DW$338, DW_AT_TI_call
    3293 00000214 7640!         LCR       #_EST_init            ; [CPU_] |230| 
         00000215 0000 
    3294                      ; call occurs [#_EST_init] ; [] |230| 
    3295 00000216 761F-         MOVW      DP,#_estHandle        ; [CPU_U] 
         00000217 0000 
    3296 00000218 A80C-         MOVL      @_estHandle,XAR4      ; [CPU_] |230| 
    3297                      .dwpsn  file "C:/ti/motorware/motorware_1_01_00_16/sw/solutions/instaspin_foc/src/proj_lab11.c",line 
    3298 00000219 8AA1          MOVL      XAR4,XAR1             ; [CPU_] |237| 
    3299              $C$DW$339       .dwtag  DW_TAG_TI_branch
    3300                      .dwattr $C$DW$339, DW_AT_low_pc(0x00)
    3301                      .dwattr $C$DW$339, DW_AT_name("_USER_setParams")
    3302                      .dwattr $C$DW$339, DW_AT_TI_call
    3303 0000021a 7640!         LCR       #_USER_setParams      ; [CPU_] |237| 
         0000021b 0000 
    3304                      ; call occurs [#_USER_setParams] ; [] |237| 
    3305 0000021c 761F-         MOVW      DP,#_halHandle        ; [CPU_U] 
         0000021d 0000 
    3306                      .dwpsn  file "C:/ti/motorware/motorware_1_01_00_16/sw/solutions/instaspin_foc/src/proj_lab11.c",line 
    3307 0000021e 83A1          MOVL      XAR5,XAR1             ; [CPU_] |242| 
    3308 0000021f 8A00-         MOVL      XAR4,@_halHandle      ; [CPU_] |242| 
    3309              $C$DW$340       .dwtag  DW_TAG_TI_branch
    3310                      .dwattr $C$DW$340, DW_AT_low_pc(0x00)
    3311                      .dwattr $C$DW$340, DW_AT_name("_HAL_setParams")
TMS320C2000 Assembler PC v6.4.10 Mon Jul 11 12:58:57 2016

Tools Copyright (c) 1996-2015 Texas Instruments Incorporated
C:\Users\bee25\AppData\Local\Temp\0350410                            PAGE   68

    3312                      .dwattr $C$DW$340, DW_AT_TI_call
    3313 00000220 7640!         LCR       #_HAL_setParams       ; [CPU_] |242| 
         00000221 0000 
    3314                      ; call occurs [#_HAL_setParams] ; [] |242| 
    3315 00000222 761F-         MOVW      DP,#_estHandle        ; [CPU_U] 
         00000223 0000 
    3316                      .dwpsn  file "C:/ti/motorware/motorware_1_01_00_16/sw/solutions/instaspin_foc/src/proj_lab11.c",line 
    3317 00000224 83A1          MOVL      XAR5,XAR1             ; [CPU_] |274| 
    3318 00000225 8A0C-         MOVL      XAR4,@_estHandle      ; [CPU_] |274| 
    3319              $C$DW$341       .dwtag  DW_TAG_TI_branch
    3320                      .dwattr $C$DW$341, DW_AT_low_pc(0x00)
    3321                      .dwattr $C$DW$341, DW_AT_name("_EST_setEstParams")
    3322                      .dwattr $C$DW$341, DW_AT_TI_call
    3323 00000226 7640!         LCR       #_EST_setEstParams    ; [CPU_] |274| 
         00000227 0000 
    3324                      ; call occurs [#_EST_setEstParams] ; [] |274| 
    3325 00000228 761F-         MOVW      DP,#_estHandle        ; [CPU_U] 
         00000229 0000 
    3326                      .dwpsn  file "C:/ti/motorware/motorware_1_01_00_16/sw/solutions/instaspin_foc/src/proj_lab11.c",line 
    3327 0000022a 8A0C-         MOVL      XAR4,@_estHandle      ; [CPU_] |275| 
    3328              $C$DW$342       .dwtag  DW_TAG_TI_branch
    3329                      .dwattr $C$DW$342, DW_AT_low_pc(0x00)
    3330                      .dwattr $C$DW$342, DW_AT_name("_EST_setupEstIdleState")
    3331                      .dwattr $C$DW$342, DW_AT_TI_call
    3332 0000022b 7640!         LCR       #_EST_setupEstIdleState ; [CPU_] |275| 
         0000022c 0000 
    3333                      ; call occurs [#_EST_setupEstIdleState] ; [] |275| 
    3334 0000022d 761F-         MOVW      DP,#_estHandle        ; [CPU_U] 
         0000022e 0000 
    3335                      .dwpsn  file "C:/ti/motorware/motorware_1_01_00_16/sw/solutions/instaspin_foc/src/proj_lab11.c",line 
    3336 0000022f 9A00          MOVB      AL,#0                 ; [CPU_] |280| 
    3337 00000230 8A0C-         MOVL      XAR4,@_estHandle      ; [CPU_] |280| 
    3338              $C$DW$343       .dwtag  DW_TAG_TI_branch
    3339                      .dwattr $C$DW$343, DW_AT_low_pc(0x00)
    3340                      .dwattr $C$DW$343, DW_AT_name("_EST_setFlag_enableRsRecalc")
    3341                      .dwattr $C$DW$343, DW_AT_TI_call
    3342 00000231 7640!         LCR       #_EST_setFlag_enableRsRecalc ; [CPU_] |280| 
         00000232 0000 
    3343                      ; call occurs [#_EST_setFlag_enableRsRecalc] ; [] |280| 
    3344 00000233 761F-         MOVW      DP,#_clarkeHandle_I   ; [CPU_U] 
         00000234 0000 
    3345                      .dwpsn  file "C:/ti/motorware/motorware_1_01_00_16/sw/solutions/instaspin_foc/src/proj_lab11.c",line 
    3346 00000235 9A03          MOVB      AL,#3                 ; [CPU_] |283| 
    3347 00000236 8A0A-         MOVL      XAR4,@_clarkeHandle_I ; [CPU_] |283| 
    3348              $C$DW$344       .dwtag  DW_TAG_TI_branch
    3349                      .dwattr $C$DW$344, DW_AT_low_pc(0x00)
    3350                      .dwattr $C$DW$344, DW_AT_name("_setupClarke_I")
    3351                      .dwattr $C$DW$344, DW_AT_TI_call
    3352 00000237 7640'         LCR       #_setupClarke_I       ; [CPU_] |283| 
         00000238 017D 
    3353                      ; call occurs [#_setupClarke_I] ; [] |283| 
    3354                      .dwpsn  file "C:/ti/motorware/motorware_1_01_00_16/sw/solutions/instaspin_foc/src/proj_lab11.c",line 
    3355 00000239 9A03          MOVB      AL,#3                 ; [CPU_] |286| 
    3356 0000023a 8A04-         MOVL      XAR4,@_clarkeHandle_V ; [CPU_] |286| 
    3357              $C$DW$345       .dwtag  DW_TAG_TI_branch
TMS320C2000 Assembler PC v6.4.10 Mon Jul 11 12:58:57 2016

Tools Copyright (c) 1996-2015 Texas Instruments Incorporated
C:\Users\bee25\AppData\Local\Temp\0350410                            PAGE   69

    3358                      .dwattr $C$DW$345, DW_AT_low_pc(0x00)
    3359                      .dwattr $C$DW$345, DW_AT_name("_setupClarke_V")
    3360                      .dwattr $C$DW$345, DW_AT_TI_call
    3361 0000023b 7640'         LCR       #_setupClarke_V       ; [CPU_] |286| 
         0000023c 016A 
    3362                      ; call occurs [#_setupClarke_V] ; [] |286| 
    3363                      .dwpsn  file "C:/ti/motorware/motorware_1_01_00_16/sw/solutions/instaspin_foc/src/proj_lab11.c",line 
    3364 0000023d 8D40-         MOVL      XAR1,#_pid            ; [CPU_U] |357| 
         0000023e 0080 
    3365                      .dwpsn  file "C:/ti/motorware/motorware_1_01_00_16/sw/solutions/instaspin_foc/src/proj_lab11.c",line 
    3366 0000023f 9BDB          MOV       AH,#219               ; [CPU_] |289| 
    3367                      .dwpsn  file "C:/ti/motorware/motorware_1_01_00_16/sw/solutions/instaspin_foc/src/proj_lab11.c",line 
    3368 00000240 8F5A          MOVL      XAR5,#1710397         ; [CPU_U] |292| 
         00000241 193D 
    3369                      .dwpsn  file "C:/ti/motorware/motorware_1_01_00_16/sw/solutions/instaspin_foc/src/proj_lab11.c",line 
    3370 00000242 28A9          MOV       AL,#7574              ; [CPU_] |289| 
         00000243 1D96 
    3371 00000244 8F00-         MOVL      XAR4,#_gOffsets_I_pu  ; [CPU_U] |289| 
         00000245 0046 
    3372 00000246 1EC4          MOVL      *+XAR4[0],ACC         ; [CPU_] |289| 
    3373                      .dwpsn  file "C:/ti/motorware/motorware_1_01_00_16/sw/solutions/instaspin_foc/src/proj_lab11.c",line 
    3374 00000247 28A9          MOV       AL,#42816             ; [CPU_] |290| 
         00000248 A740 
    3375 00000249 1ED4          MOVL      *+XAR4[2],ACC         ; [CPU_] |290| 
    3376                      .dwpsn  file "C:/ti/motorware/motorware_1_01_00_16/sw/solutions/instaspin_foc/src/proj_lab11.c",line 
    3377 0000024a 28A9          MOV       AL,#7887              ; [CPU_] |291| 
         0000024b 1ECF 
    3378 0000024c 9BE0          MOV       AH,#224               ; [CPU_] |291| 
    3379 0000024d 1EE4          MOVL      *+XAR4[4],ACC         ; [CPU_] |291| 
    3380                      .dwpsn  file "C:/ti/motorware/motorware_1_01_00_16/sw/solutions/instaspin_foc/src/proj_lab11.c",line 
    3381 0000024e 8F00-         MOVL      XAR4,#_gOffsets_V_pu  ; [CPU_U] |292| 
         0000024f 0030 
    3382                      .dwpsn  file "C:/ti/motorware/motorware_1_01_00_16/sw/solutions/instaspin_foc/src/proj_lab11.c",line 
    3383 00000250 0210          MOVB      ACC,#16               ; [CPU_] |357| 
    3384                      .dwpsn  file "C:/ti/motorware/motorware_1_01_00_16/sw/solutions/instaspin_foc/src/proj_lab11.c",line 
    3385 00000251 A0C4          MOVL      *+XAR4[0],XAR5        ; [CPU_] |292| 
    3386                      .dwpsn  file "C:/ti/motorware/motorware_1_01_00_16/sw/solutions/instaspin_foc/src/proj_lab11.c",line 
    3387 00000252 8F5A          MOVL      XAR5,#1713852         ; [CPU_U] |293| 
         00000253 26BC 
    3388 00000254 A0D4          MOVL      *+XAR4[2],XAR5        ; [CPU_] |293| 
    3389                      .dwpsn  file "C:/ti/motorware/motorware_1_01_00_16/sw/solutions/instaspin_foc/src/proj_lab11.c",line 
    3390 00000255 8F5A          MOVL      XAR5,#1714641         ; [CPU_U] |294| 
         00000256 29D1 
    3391 00000257 A0E4          MOVL      *+XAR4[4],XAR5        ; [CPU_] |294| 
    3392                      .dwpsn  file "C:/ti/motorware/motorware_1_01_00_16/sw/solutions/instaspin_foc/src/proj_lab11.c",line 
    3393 00000258 8AA1          MOVL      XAR4,XAR1             ; [CPU_] |357| 
    3394              $C$DW$346       .dwtag  DW_TAG_TI_branch
    3395                      .dwattr $C$DW$346, DW_AT_low_pc(0x00)
    3396                      .dwattr $C$DW$346, DW_AT_name("_PID_init")
    3397                      .dwattr $C$DW$346, DW_AT_TI_call
    3398 00000259 7640!         LCR       #_PID_init            ; [CPU_] |357| 
         0000025a 0000 
    3399                      ; call occurs [#_PID_init] ; [] |357| 
    3400 0000025b 8DC0-         MOVL      XAR3,#_pidHandle      ; [CPU_U] |357| 
         0000025c 002A 
TMS320C2000 Assembler PC v6.4.10 Mon Jul 11 12:58:57 2016

Tools Copyright (c) 1996-2015 Texas Instruments Incorporated
C:\Users\bee25\AppData\Local\Temp\0350410                            PAGE   70

    3401 0000025d A8C3          MOVL      *+XAR3[0],XAR4        ; [CPU_] |357| 
    3402                      .dwpsn  file "C:/ti/motorware/motorware_1_01_00_16/sw/solutions/instaspin_foc/src/proj_lab11.c",line 
    3403 0000025e 8AA1          MOVL      XAR4,XAR1             ; [CPU_] |359| 
    3404 0000025f 0210          MOVB      ACC,#16               ; [CPU_] |359| 
    3405 00000260 DC10          ADDB      XAR4,#16              ; [CPU_] |359| 
    3406              $C$DW$347       .dwtag  DW_TAG_TI_branch
    3407                      .dwattr $C$DW$347, DW_AT_low_pc(0x00)
    3408                      .dwattr $C$DW$347, DW_AT_name("_PID_init")
    3409                      .dwattr $C$DW$347, DW_AT_TI_call
    3410 00000261 7640!         LCR       #_PID_init            ; [CPU_] |359| 
         00000262 0000 
    3411                      ; call occurs [#_PID_init] ; [] |359| 
    3412                      .dwpsn  file "C:/ti/motorware/motorware_1_01_00_16/sw/solutions/instaspin_foc/src/proj_lab11.c",line 
    3413 00000263 D920          ADDB      XAR1,#32              ; [CPU_] |361| 
    3414 00000264 0210          MOVB      ACC,#16               ; [CPU_] |361| 
    3415                      .dwpsn  file "C:/ti/motorware/motorware_1_01_00_16/sw/solutions/instaspin_foc/src/proj_lab11.c",line 
    3416 00000265 A8D3          MOVL      *+XAR3[2],XAR4        ; [CPU_] |359| 
    3417                      .dwpsn  file "C:/ti/motorware/motorware_1_01_00_16/sw/solutions/instaspin_foc/src/proj_lab11.c",line 
    3418 00000266 8AA1          MOVL      XAR4,XAR1             ; [CPU_] |361| 
    3419              $C$DW$348       .dwtag  DW_TAG_TI_branch
    3420                      .dwattr $C$DW$348, DW_AT_low_pc(0x00)
    3421                      .dwattr $C$DW$348, DW_AT_name("_PID_init")
    3422                      .dwattr $C$DW$348, DW_AT_TI_call
    3423 00000267 7640!         LCR       #_PID_init            ; [CPU_] |361| 
         00000268 0000 
    3424                      ; call occurs [#_PID_init] ; [] |361| 
    3425 00000269 761F-         MOVW      DP,#_pidHandle        ; [CPU_U] 
         0000026a 0000 
    3426                      .dwpsn  file "C:/ti/motorware/motorware_1_01_00_16/sw/modules/pid/src/32b/pid.h",line 305,column 3,is
    3427 0000026b FF2F          MOV       ACC,#512 << 15        ; [CPU_] |305| 
         0000026c 0200 
    3428                      .dwpsn  file "C:/ti/motorware/motorware_1_01_00_16/sw/solutions/instaspin_foc/src/proj_lab11.c",line 
    3429 0000026d A8E3          MOVL      *+XAR3[4],XAR4        ; [CPU_] |361| 
    3430                      .dwpsn  file "C:/ti/motorware/motorware_1_01_00_16/sw/modules/pid/src/32b/pid.h",line 303,column 16,i
    3431 0000026e 8A2A-         MOVL      XAR4,@_pidHandle      ; [CPU_] |303| 
    3432                      .dwpsn  file "C:/ti/motorware/motorware_1_01_00_16/sw/modules/pid/src/32b/pid.h",line 306,column 3,is
    3433 0000026f 8F42          MOVL      XAR5,#167772          ; [CPU_U] |306| 
         00000270 8F5C 
    3434 00000271 3B01          SETC      SXM                   ; [CPU_] 
    3435                      .dwpsn  file "C:/ti/motorware/motorware_1_01_00_16/sw/modules/pid/src/32b/pid.h",line 360,column 3,is
    3436 00000272 D00C          MOVB      XAR0,#12              ; [CPU_] |360| 
    3437                      .dwpsn  file "C:/ti/motorware/motorware_1_01_00_16/sw/modules/pid/src/32b/pid.h",line 305,column 3,is
    3438 00000273 1EC4          MOVL      *+XAR4[0],ACC         ; [CPU_] |305| 
    3439                      .dwpsn  file "C:/ti/motorware/motorware_1_01_00_16/sw/modules/pid/src/32b/pid.h",line 307,column 3,is
    3440 00000274 0200          MOVB      ACC,#0                ; [CPU_] |307| 
    3441                      .dwpsn  file "C:/ti/motorware/motorware_1_01_00_16/sw/modules/pid/src/32b/pid.h",line 306,column 3,is
    3442 00000275 A0D4          MOVL      *+XAR4[2],XAR5        ; [CPU_] |306| 
    3443                      .dwpsn  file "C:/ti/motorware/motorware_1_01_00_16/sw/modules/pid/src/32b/pid.h",line 307,column 3,is
    3444 00000276 1EE4          MOVL      *+XAR4[4],ACC         ; [CPU_] |307| 
    3445                      .dwpsn  file "C:/ti/motorware/motorware_1_01_00_16/sw/modules/pid/src/32b/pid.h",line 360,column 3,is
    3446 00000277 FF2F          MOV       ACC,#-512 << 15       ; [CPU_] |360| 
         00000278 FE00 
    3447 00000279 1E94          MOVL      *+XAR4[AR0],ACC       ; [CPU_] |360| 
    3448                      .dwpsn  file "C:/ti/motorware/motorware_1_01_00_16/sw/modules/pid/src/32b/pid.h",line 361,column 3,is
    3449 0000027a D00E          MOVB      XAR0,#14              ; [CPU_] |361| 
TMS320C2000 Assembler PC v6.4.10 Mon Jul 11 12:58:57 2016

Tools Copyright (c) 1996-2015 Texas Instruments Incorporated
C:\Users\bee25\AppData\Local\Temp\0350410                            PAGE   71

    3450 0000027b FF2F          MOV       ACC,#512 << 15        ; [CPU_] |361| 
         0000027c 0200 
    3451 0000027d 1E94          MOVL      *+XAR4[AR0],ACC       ; [CPU_] |361| 
    3452                      .dwpsn  file "C:/ti/motorware/motorware_1_01_00_16/sw/modules/pid/src/32b/pid.h",line 413,column 3,is
    3453 0000027e 0200          MOVB      ACC,#0                ; [CPU_] |413| 
    3454 0000027f 1EF4          MOVL      *+XAR4[6],ACC         ; [CPU_] |413| 
    3455                      .dwpsn  file "C:/ti/motorware/motorware_1_01_00_16/sw/modules/pid/src/32b/pid.h",line 303,column 16,i
    3456 00000280 8A2C-         MOVL      XAR4,@_pidHandle+2    ; [CPU_] |303| 
    3457                      .dwpsn  file "C:/ti/motorware/motorware_1_01_00_16/sw/modules/pid/src/32b/pid.h",line 305,column 3,is
    3458 00000281 8F41          MOVL      XAR5,#94635           ; [CPU_U] |305| 
         00000282 71AB 
    3459                      .dwpsn  file "C:/ti/motorware/motorware_1_01_00_16/sw/solutions/instaspin_foc/src/proj_lab11.c",line 
    3460 00000283 2B00-         MOV       @_pidCntSpeed,#0      ; [CPU_] |375| 
    3461                      .dwpsn  file "C:/ti/motorware/motorware_1_01_00_16/sw/modules/pid/src/32b/pid.h",line 360,column 3,is
    3462 00000284 D00C          MOVB      XAR0,#12              ; [CPU_] |360| 
    3463                      .dwpsn  file "C:/ti/motorware/motorware_1_01_00_16/sw/modules/pid/src/32b/pid.h",line 305,column 3,is
    3464 00000285 A0C4          MOVL      *+XAR4[0],XAR5        ; [CPU_] |305| 
    3465                      .dwpsn  file "C:/ti/motorware/motorware_1_01_00_16/sw/modules/pid/src/32b/pid.h",line 306,column 3,is
    3466 00000286 8F58          MOVL      XAR5,#1588556         ; [CPU_U] |306| 
         00000287 3D4C 
    3467 00000288 A0D4          MOVL      *+XAR4[2],XAR5        ; [CPU_] |306| 
    3468                      .dwpsn  file "C:/ti/motorware/motorware_1_01_00_16/sw/modules/pid/src/32b/pid.h",line 307,column 3,is
    3469 00000289 1EE4          MOVL      *+XAR4[4],ACC         ; [CPU_] |307| 
    3470                      .dwpsn  file "C:/ti/motorware/motorware_1_01_00_16/sw/modules/pid/src/32b/pid.h",line 360,column 3,is
    3471 0000028a 28A9          MOV       AL,#26215             ; [CPU_] |360| 
         0000028b 6667 
    3472 0000028c 28A8          MOV       AH,#65414             ; [CPU_] |360| 
         0000028d FF86 
    3473 0000028e 1E94          MOVL      *+XAR4[AR0],ACC       ; [CPU_] |360| 
    3474                      .dwpsn  file "C:/ti/motorware/motorware_1_01_00_16/sw/modules/pid/src/32b/pid.h",line 361,column 3,is
    3475 0000028f D00E          MOVB      XAR0,#14              ; [CPU_] |361| 
    3476 00000290 28A9          MOV       AL,#39321             ; [CPU_] |361| 
         00000291 9999 
    3477 00000292 9B79          MOV       AH,#121               ; [CPU_] |361| 
    3478 00000293 1E94          MOVL      *+XAR4[AR0],ACC       ; [CPU_] |361| 
    3479                      .dwpsn  file "C:/ti/motorware/motorware_1_01_00_16/sw/modules/pid/src/32b/pid.h",line 413,column 3,is
    3480 00000294 0200          MOVB      ACC,#0                ; [CPU_] |413| 
    3481 00000295 1EF4          MOVL      *+XAR4[6],ACC         ; [CPU_] |413| 
    3482                      .dwpsn  file "C:/ti/motorware/motorware_1_01_00_16/sw/modules/pid/src/32b/pid.h",line 303,column 16,i
    3483 00000296 8A2E-         MOVL      XAR4,@_pidHandle+4    ; [CPU_] |303| 
    3484                      .dwpsn  file "C:/ti/motorware/motorware_1_01_00_16/sw/modules/pid/src/32b/pid.h",line 305,column 3,is
    3485 00000297 8F41          MOVL      XAR5,#94638           ; [CPU_U] |305| 
         00000298 71AE 
    3486                      .dwpsn  file "C:/ti/motorware/motorware_1_01_00_16/sw/modules/pid/src/32b/pid.h",line 360,column 3,is
    3487 00000299 D00C          MOVB      XAR0,#12              ; [CPU_] |360| 
    3488                      .dwpsn  file "C:/ti/motorware/motorware_1_01_00_16/sw/modules/pid/src/32b/pid.h",line 305,column 3,is
    3489 0000029a A0C4          MOVL      *+XAR4[0],XAR5        ; [CPU_] |305| 
    3490                      .dwpsn  file "C:/ti/motorware/motorware_1_01_00_16/sw/modules/pid/src/32b/pid.h",line 306,column 3,is
    3491 0000029b 8F58          MOVL      XAR5,#1588495         ; [CPU_U] |306| 
         0000029c 3D0F 
    3492 0000029d A0D4          MOVL      *+XAR4[2],XAR5        ; [CPU_] |306| 
    3493                      .dwpsn  file "C:/ti/motorware/motorware_1_01_00_16/sw/modules/pid/src/32b/pid.h",line 307,column 3,is
    3494 0000029e 1EE4          MOVL      *+XAR4[4],ACC         ; [CPU_] |307| 
    3495                      .dwpsn  file "C:/ti/motorware/motorware_1_01_00_16/sw/modules/pid/src/32b/pid.h",line 360,column 3,is
    3496 0000029f 1E94          MOVL      *+XAR4[AR0],ACC       ; [CPU_] |360| 
TMS320C2000 Assembler PC v6.4.10 Mon Jul 11 12:58:57 2016

Tools Copyright (c) 1996-2015 Texas Instruments Incorporated
C:\Users\bee25\AppData\Local\Temp\0350410                            PAGE   72

    3497                      .dwpsn  file "C:/ti/motorware/motorware_1_01_00_16/sw/modules/pid/src/32b/pid.h",line 361,column 3,is
    3498 000002a0 D00E          MOVB      XAR0,#14              ; [CPU_] |361| 
    3499 000002a1 1E94          MOVL      *+XAR4[AR0],ACC       ; [CPU_] |361| 
    3500                      .dwpsn  file "C:/ti/motorware/motorware_1_01_00_16/sw/solutions/instaspin_foc/src/proj_lab11.c",line 
    3501 000002a2 D018          MOVB      XAR0,#24              ; [CPU_] |410| 
    3502                      .dwpsn  file "C:/ti/motorware/motorware_1_01_00_16/sw/modules/pid/src/32b/pid.h",line 413,column 3,is
    3503 000002a3 1EF4          MOVL      *+XAR4[6],ACC         ; [CPU_] |413| 
    3504                      .dwpsn  file "C:/ti/motorware/motorware_1_01_00_16/sw/solutions/instaspin_foc/src/proj_lab11.c",line 
    3505 000002a4 FF2F          MOV       ACC,#5120 << 15       ; [CPU_] |410| 
         000002a5 1400 
    3506 000002a6 1EAC          MOVL      XT,ACC                ; [CPU_] |410| 
    3507                      .dwpsn  file "C:/ti/motorware/motorware_1_01_00_16/sw/solutions/instaspin_foc/src/proj_lab11.c",line 
    3508 000002a7 8F00-         MOVL      XAR4,#_ipark          ; [CPU_U] |413| 
         000002a8 001A 
    3509                      .dwpsn  file "C:/ti/motorware/motorware_1_01_00_16/sw/solutions/instaspin_foc/src/proj_lab11.c",line 
    3510 000002a9 5605-         IMPYL     P,XT,@_gSpeed_hz_to_krpm_sf ; [CPU_] |410| 
         000002aa 0014 
    3511 000002ab 5663-         QMPYL     ACC,XT,@_gSpeed_hz_to_krpm_sf ; [CPU_] |410| 
         000002ac 0014 
    3512 000002ad 56A7          LSL64     ACC:P,#8              ; [CPU_] |410| 
    3513 000002ae 1E92          MOVL      *+XAR2[AR0],ACC       ; [CPU_] |410| 
    3514                      .dwpsn  file "C:/ti/motorware/motorware_1_01_00_16/sw/solutions/instaspin_foc/src/proj_lab11.c",line 
    3515 000002af 0204          MOVB      ACC,#4                ; [CPU_] |413| 
    3516              $C$DW$349       .dwtag  DW_TAG_TI_branch
    3517                      .dwattr $C$DW$349, DW_AT_low_pc(0x00)
    3518                      .dwattr $C$DW$349, DW_AT_name("_IPARK_init")
    3519                      .dwattr $C$DW$349, DW_AT_TI_call
    3520 000002b0 7640!         LCR       #_IPARK_init          ; [CPU_] |413| 
         000002b1 0000 
    3521                      ; call occurs [#_IPARK_init] ; [] |413| 
    3522 000002b2 761F-         MOVW      DP,#_iparkHandle      ; [CPU_U] 
         000002b3 0000 
    3523                      .dwpsn  file "C:/ti/motorware/motorware_1_01_00_16/sw/solutions/instaspin_foc/src/proj_lab11.c",line 
    3524 000002b4 0202          MOVB      ACC,#2                ; [CPU_] |416| 
    3525                      .dwpsn  file "C:/ti/motorware/motorware_1_01_00_16/sw/solutions/instaspin_foc/src/proj_lab11.c",line 
    3526 000002b5 A806-         MOVL      @_iparkHandle,XAR4    ; [CPU_] |413| 
    3527                      .dwpsn  file "C:/ti/motorware/motorware_1_01_00_16/sw/solutions/instaspin_foc/src/proj_lab11.c",line 
    3528 000002b6 8F00-         MOVL      XAR4,#_svgen          ; [CPU_U] |416| 
         000002b7 0008 
    3529              $C$DW$350       .dwtag  DW_TAG_TI_branch
    3530                      .dwattr $C$DW$350, DW_AT_low_pc(0x00)
    3531                      .dwattr $C$DW$350, DW_AT_name("_SVGEN_init")
    3532                      .dwattr $C$DW$350, DW_AT_TI_call
    3533 000002b8 7640!         LCR       #_SVGEN_init          ; [CPU_] |416| 
         000002b9 0000 
    3534                      ; call occurs [#_SVGEN_init] ; [] |416| 
    3535 000002ba 761F-         MOVW      DP,#_svgenHandle      ; [CPU_U] 
         000002bb 0000 
    3536 000002bc A802-         MOVL      @_svgenHandle,XAR4    ; [CPU_] |416| 
    3537 000002bd 761F-         MOVW      DP,#_halHandle        ; [CPU_U] 
         000002be 0000 
    3538                      .dwpsn  file "C:/ti/motorware/motorware_1_01_00_16/sw/solutions/instaspin_foc/src/proj_lab11.c",line 
    3539 000002bf 8A00-         MOVL      XAR4,@_halHandle      ; [CPU_] |419| 
    3540              $C$DW$351       .dwtag  DW_TAG_TI_branch
    3541                      .dwattr $C$DW$351, DW_AT_low_pc(0x00)
TMS320C2000 Assembler PC v6.4.10 Mon Jul 11 12:58:57 2016

Tools Copyright (c) 1996-2015 Texas Instruments Incorporated
C:\Users\bee25\AppData\Local\Temp\0350410                            PAGE   73

    3542                      .dwattr $C$DW$351, DW_AT_name("_HAL_setupFaults")
    3543                      .dwattr $C$DW$351, DW_AT_TI_call
    3544 000002c0 7640!         LCR       #_HAL_setupFaults     ; [CPU_] |419| 
         000002c1 0000 
    3545                      ; call occurs [#_HAL_setupFaults] ; [] |419| 
    3546 000002c2 761F-         MOVW      DP,#_halHandle        ; [CPU_U] 
         000002c3 0000 
    3547                      .dwpsn  file "C:/ti/motorware/motorware_1_01_00_16/sw/solutions/instaspin_foc/src/proj_lab11.c",line 
    3548 000002c4 8A00-         MOVL      XAR4,@_halHandle      ; [CPU_] |422| 
    3549 000002c5 7622   EALLOW
    3550                      .dwpsn  file "C:/ti/motorware/motorware_1_01_00_16/sw/modules/hal/boards/boostxldrv8301_revB/f28x/f28
    3551 000002c6 D078          MOVB      XAR0,#120             ; [CPU_] |477| 
    3552 000002c7 02F0          MOVB      ACC,#240              ; [CPU_] |477| 
    3553 000002c8 0794          ADDL      ACC,*+XAR4[AR0]       ; [CPU_] |477| 
    3554 000002c9 83A9          MOVL      XAR5,ACC              ; [CPU_] |477| 
    3555 000002ca 7680+         MOVL      XAR6,#_mainISR        ; [CPU_U] |477| 
         000002cb 0000 
    3556 000002cc C2C5          MOVL      *+XAR5[0],XAR6        ; [CPU_] |477| 
    3557 000002cd 761A   EDIS
    3558 000002ce FF69          SPM       #0                    ; [CPU_] 
    3559                      .dwpsn  file "C:/ti/motorware/motorware_1_01_00_16/sw/solutions/instaspin_foc/src/proj_lab11.c",line 
    3560              $C$DW$352       .dwtag  DW_TAG_TI_branch
    3561                      .dwattr $C$DW$352, DW_AT_low_pc(0x00)
    3562                      .dwattr $C$DW$352, DW_AT_name("_HAL_enableAdcInts")
    3563                      .dwattr $C$DW$352, DW_AT_TI_call
    3564 000002cf 7640!         LCR       #_HAL_enableAdcInts   ; [CPU_] |425| 
         000002d0 0000 
    3565                      ; call occurs [#_HAL_enableAdcInts] ; [] |425| 
    3566 000002d1 761F-         MOVW      DP,#_halHandle        ; [CPU_U] 
         000002d2 0000 
    3567                      .dwpsn  file "C:/ti/motorware/motorware_1_01_00_16/sw/solutions/instaspin_foc/src/proj_lab11.c",line 
    3568 000002d3 8A00-         MOVL      XAR4,@_halHandle      ; [CPU_] |428| 
    3569              $C$DW$353       .dwtag  DW_TAG_TI_branch
    3570                      .dwattr $C$DW$353, DW_AT_low_pc(0x00)
    3571                      .dwattr $C$DW$353, DW_AT_name("_HAL_enableGlobalInts")
    3572                      .dwattr $C$DW$353, DW_AT_TI_call
    3573 000002d4 7640!         LCR       #_HAL_enableGlobalInts ; [CPU_] |428| 
         000002d5 0000 
    3574                      ; call occurs [#_HAL_enableGlobalInts] ; [] |428| 
    3575 000002d6 761F-         MOVW      DP,#_halHandle        ; [CPU_U] 
         000002d7 0000 
    3576                      .dwpsn  file "C:/ti/motorware/motorware_1_01_00_16/sw/solutions/instaspin_foc/src/proj_lab11.c",line 
    3577 000002d8 8A00-         MOVL      XAR4,@_halHandle      ; [CPU_] |431| 
    3578              $C$DW$354       .dwtag  DW_TAG_TI_branch
    3579                      .dwattr $C$DW$354, DW_AT_low_pc(0x00)
    3580                      .dwattr $C$DW$354, DW_AT_name("_HAL_enableDebugInt")
    3581                      .dwattr $C$DW$354, DW_AT_TI_call
    3582 000002d9 7640!         LCR       #_HAL_enableDebugInt  ; [CPU_] |431| 
         000002da 0000 
    3583                      ; call occurs [#_HAL_enableDebugInt] ; [] |431| 
    3584 000002db 761F-         MOVW      DP,#_halHandle        ; [CPU_U] 
         000002dc 0000 
    3585                      .dwpsn  file "C:/ti/motorware/motorware_1_01_00_16/sw/modules/hal/boards/boostxldrv8301_revB/f28x/f28
    3586 000002dd 8300-         MOVL      XAR5,@_halHandle      ; [CPU_] |240| 
    3587 000002de 8AA5          MOVL      XAR4,XAR5             ; [CPU_] |240| 
TMS320C2000 Assembler PC v6.4.10 Mon Jul 11 12:58:57 2016

Tools Copyright (c) 1996-2015 Texas Instruments Incorporated
C:\Users\bee25\AppData\Local\Temp\0350410                            PAGE   74

    3588 000002df DC7E          ADDB      XAR4,#126             ; [CPU_] |240| 
    3589 000002e0 7622   EALLOW
    3590                      .dwpsn  file "C:/ti/motorware/motorware_1_01_00_16/sw/drivers/pwm/src/32b/f28x/f2802x/pwm.h",line 156
    3591 000002e1 D07C          MOVB      XAR0,#124             ; [CPU_] |1567| 
    3592 000002e2 0218          MOVB      ACC,#24               ; [CPU_] |1567| 
    3593 000002e3 0795          ADDL      ACC,*+XAR5[AR0]       ; [CPU_] |1567| 
    3594 000002e4 83A9          MOVL      XAR5,ACC              ; [CPU_] |1567| 
    3595 000002e5 1AC5          OR        *+XAR5[0],#0x0004     ; [CPU_] |1567| 
         000002e6 0004 
    3596 000002e7 761A   EDIS
    3597 000002e8 7622   EALLOW
    3598 000002e9 0218          MOVB      ACC,#24               ; [CPU_] |1567| 
    3599 000002ea 07C4          ADDL      ACC,*+XAR4[0]         ; [CPU_] |1567| 
    3600 000002eb 83A9          MOVL      XAR5,ACC              ; [CPU_] |1567| 
    3601 000002ec 1AC5          OR        *+XAR5[0],#0x0004     ; [CPU_] |1567| 
         000002ed 0004 
    3602 000002ee 761A   EDIS
    3603 000002ef 7622   EALLOW
    3604 000002f0 0218          MOVB      ACC,#24               ; [CPU_] |1567| 
    3605 000002f1 07D4          ADDL      ACC,*+XAR4[2]         ; [CPU_] |1567| 
    3606 000002f2 8AA9          MOVL      XAR4,ACC              ; [CPU_] |1567| 
    3607 000002f3 1AC4          OR        *+XAR4[0],#0x0004     ; [CPU_] |1567| 
         000002f4 0004 
    3608 000002f5 761A   EDIS
    3609 000002f6 FF69          SPM       #0                    ; [CPU_] 
    3610                      .dwpsn  file "C:/ti/motorware/motorware_1_01_00_16/sw/solutions/instaspin_foc/src/proj_lab11.c",line 
    3611              $C$DW$355       .dwtag  DW_TAG_TI_branch
    3612                      .dwattr $C$DW$355, DW_AT_low_pc(0x00)
    3613                      .dwattr $C$DW$355, DW_AT_name("_USER_computeFlux_pu_to_Wb_sf")
    3614                      .dwattr $C$DW$355, DW_AT_TI_call
    3615 000002f7 7640!         LCR       #_USER_computeFlux_pu_to_Wb_sf ; [CPU_] |437| 
         000002f8 0000 
    3616                      ; call occurs [#_USER_computeFlux_pu_to_Wb_sf] ; [] |437| 
    3617 000002f9 761F-         MOVW      DP,#_gFlux_pu_to_Wb_sf ; [CPU_U] 
         000002fa 0000 
    3618 000002fb 1E0E-         MOVL      @_gFlux_pu_to_Wb_sf,ACC ; [CPU_] |437| 
    3619                      .dwpsn  file "C:/ti/motorware/motorware_1_01_00_16/sw/solutions/instaspin_foc/src/proj_lab11.c",line 
    3620              $C$DW$356       .dwtag  DW_TAG_TI_branch
    3621                      .dwattr $C$DW$356, DW_AT_low_pc(0x00)
    3622                      .dwattr $C$DW$356, DW_AT_name("_USER_computeFlux_pu_to_VpHz_sf")
    3623                      .dwattr $C$DW$356, DW_AT_TI_call
    3624 000002fc 7640!         LCR       #_USER_computeFlux_pu_to_VpHz_sf ; [CPU_] |438| 
         000002fd 0000 
    3625                      ; call occurs [#_USER_computeFlux_pu_to_VpHz_sf] ; [] |438| 
    3626 000002fe 761F-         MOVW      DP,#_gFlux_pu_to_VpHz_sf ; [CPU_U] 
         000002ff 0000 
    3627 00000300 1E10-         MOVL      @_gFlux_pu_to_VpHz_sf,ACC ; [CPU_] |438| 
    3628                      .dwpsn  file "C:/ti/motorware/motorware_1_01_00_16/sw/solutions/instaspin_foc/src/proj_lab11.c",line 
    3629              $C$DW$357       .dwtag  DW_TAG_TI_branch
    3630                      .dwattr $C$DW$357, DW_AT_low_pc(0x00)
    3631                      .dwattr $C$DW$357, DW_AT_name("_USER_computeTorque_Ls_Id_Iq_pu_to_Nm_sf")
    3632                      .dwattr $C$DW$357, DW_AT_TI_call
    3633 00000301 7640!         LCR       #_USER_computeTorque_Ls_Id_Iq_pu_to_Nm_sf ; [CPU_] |439| 
         00000302 0000 
    3634                      ; call occurs [#_USER_computeTorque_Ls_Id_Iq_pu_to_Nm_sf] ; [] |439| 
TMS320C2000 Assembler PC v6.4.10 Mon Jul 11 12:58:57 2016

Tools Copyright (c) 1996-2015 Texas Instruments Incorporated
C:\Users\bee25\AppData\Local\Temp\0350410                            PAGE   75

    3635 00000303 761F-         MOVW      DP,#_gTorque_Ls_Id_Iq_pu_to_Nm_sf ; [CPU_U] 
         00000304 0000 
    3636 00000305 1E16-         MOVL      @_gTorque_Ls_Id_Iq_pu_to_Nm_sf,ACC ; [CPU_] |439| 
    3637                      .dwpsn  file "C:/ti/motorware/motorware_1_01_00_16/sw/solutions/instaspin_foc/src/proj_lab11.c",line 
    3638              $C$DW$358       .dwtag  DW_TAG_TI_branch
    3639                      .dwattr $C$DW$358, DW_AT_low_pc(0x00)
    3640                      .dwattr $C$DW$358, DW_AT_name("_USER_computeTorque_Flux_Iq_pu_to_Nm_sf")
    3641                      .dwattr $C$DW$358, DW_AT_TI_call
    3642 00000306 7640!         LCR       #_USER_computeTorque_Flux_Iq_pu_to_Nm_sf ; [CPU_] |440| 
         00000307 0000 
    3643                      ; call occurs [#_USER_computeTorque_Flux_Iq_pu_to_Nm_sf] ; [] |440| 
    3644 00000308 761F-         MOVW      DP,#_gTorque_Flux_Iq_pu_to_Nm_sf ; [CPU_U] 
         00000309 0000 
    3645 0000030a 1E18-         MOVL      @_gTorque_Flux_Iq_pu_to_Nm_sf,ACC ; [CPU_] |440| 
    3646 0000030b 761F-         MOVW      DP,#_halHandle        ; [CPU_U] 
         0000030c 0000 
    3647                      .dwpsn  file "C:/ti/motorware/motorware_1_01_00_16/sw/solutions/instaspin_foc/src/proj_lab11.c",line 
    3648 0000030d 56BF          MOVB      *+XAR2[0],#1,UNC      ; [CPU_] |443| 
         0000030e 01C2 
    3649                      .dwpsn  file "C:/ti/motorware/motorware_1_01_00_16/sw/solutions/instaspin_foc/src/proj_lab11.c",line 
    3650 0000030f 8A00-         MOVL      XAR4,@_halHandle      ; [CPU_] |447| 
    3651              $C$DW$359       .dwtag  DW_TAG_TI_branch
    3652                      .dwattr $C$DW$359, DW_AT_low_pc(0x00)
    3653                      .dwattr $C$DW$359, DW_AT_name("_HAL_enableDrv")
    3654                      .dwattr $C$DW$359, DW_AT_TI_call
    3655 00000310 7640!         LCR       #_HAL_enableDrv       ; [CPU_] |447| 
         00000311 0000 
    3656                      ; call occurs [#_HAL_enableDrv] ; [] |447| 
    3657                      .dwpsn  file "C:/ti/motorware/motorware_1_01_00_16/sw/solutions/instaspin_foc/src/proj_lab11.c",line 
    3658 00000312 8D40-         MOVL      XAR1,#_gDrvSpi8301Vars ; [CPU_U] |449| 
         00000313 0062 
    3659 00000314 761F-         MOVW      DP,#_halHandle        ; [CPU_U] 
         00000315 0000 
    3660 00000316 83A1          MOVL      XAR5,XAR1             ; [CPU_] |449| 
    3661 00000317 8A00-         MOVL      XAR4,@_halHandle      ; [CPU_] |449| 
    3662              $C$DW$360       .dwtag  DW_TAG_TI_branch
    3663                      .dwattr $C$DW$360, DW_AT_low_pc(0x00)
    3664                      .dwattr $C$DW$360, DW_AT_name("_HAL_setupDrvSpi")
    3665                      .dwattr $C$DW$360, DW_AT_TI_call
    3666 00000318 7640!         LCR       #_HAL_setupDrvSpi     ; [CPU_] |449| 
         00000319 0000 
    3667                      ; call occurs [#_HAL_setupDrvSpi] ; [] |449| 
    3668 0000031a       $C$L27:    
    3669 0000031a 761F-         MOVW      DP,#_gMotorVars       ; [CPU_U] 
         0000031b 0003 
    3670                      .dwpsn  file "C:/ti/motorware/motorware_1_01_00_16/sw/solutions/instaspin_foc/src/proj_lab11.c",line 
    3671 0000031c 9200-         MOV       AL,@_gMotorVars       ; [CPU_] |463| 
    3672 0000031d ECFD          BF        $C$L27,EQ             ; [CPU_] |463| 
    3673                      ; branchcc occurs ; [] |463| 
    3674                      .dwpsn  file "C:/ti/motorware/motorware_1_01_00_16/sw/solutions/instaspin_foc/src/proj_lab11.c",line 
    3675 0000031e 6F7B          B         $C$L31,UNC            ; [CPU_] |466| 
    3676                      ; branch occurs ; [] |466| 
    3677 0000031f       $C$L28:    
    3678                      .dwpsn  file "C:/ti/motorware/motorware_1_01_00_16/sw/solutions/instaspin_foc/src/proj_lab11.c",line 
    3679 0000031f 92CC          MOV       AL,*+XAR4[1]          ; [CPU_] |470| 
TMS320C2000 Assembler PC v6.4.10 Mon Jul 11 12:58:57 2016

Tools Copyright (c) 1996-2015 Texas Instruments Incorporated
C:\Users\bee25\AppData\Local\Temp\0350410                            PAGE   76

    3680 00000320 ED30          BF        $C$L29,NEQ            ; [CPU_] |470| 
    3681                      ; branchcc occurs ; [] |470| 
    3682 00000321 761F-         MOVW      DP,#_estHandle        ; [CPU_U] 
         00000322 0000 
    3683 00000323 FF69          SPM       #0                    ; [CPU_] 
    3684                      .dwpsn  file "C:/ti/motorware/motorware_1_01_00_16/sw/solutions/instaspin_foc/src/proj_lab11.c",line 
    3685 00000324 8A0C-         MOVL      XAR4,@_estHandle      ; [CPU_] |489| 
    3686              $C$DW$361       .dwtag  DW_TAG_TI_branch
    3687                      .dwattr $C$DW$361, DW_AT_low_pc(0x00)
    3688                      .dwattr $C$DW$361, DW_AT_name("_EST_setIdle")
    3689                      .dwattr $C$DW$361, DW_AT_TI_call
    3690 00000325 7640!         LCR       #_EST_setIdle         ; [CPU_] |489| 
         00000326 0000 
    3691                      ; call occurs [#_EST_setIdle] ; [] |489| 
    3692 00000327 761F-         MOVW      DP,#_halHandle        ; [CPU_U] 
         00000328 0000 
    3693                      .dwpsn  file "C:/ti/motorware/motorware_1_01_00_16/sw/modules/hal/boards/boostxldrv8301_revB/f28x/f28
    3694 00000329 8300-         MOVL      XAR5,@_halHandle      ; [CPU_] |240| 
    3695 0000032a 8AA5          MOVL      XAR4,XAR5             ; [CPU_] |240| 
    3696 0000032b DC7E          ADDB      XAR4,#126             ; [CPU_] |240| 
    3697 0000032c 7622   EALLOW
    3698                      .dwpsn  file "C:/ti/motorware/motorware_1_01_00_16/sw/drivers/pwm/src/32b/f28x/f2802x/pwm.h",line 156
    3699 0000032d D07C          MOVB      XAR0,#124             ; [CPU_] |1567| 
    3700 0000032e 0218          MOVB      ACC,#24               ; [CPU_] |1567| 
    3701 0000032f 0795          ADDL      ACC,*+XAR5[AR0]       ; [CPU_] |1567| 
    3702 00000330 83A9          MOVL      XAR5,ACC              ; [CPU_] |1567| 
    3703 00000331 1AC5          OR        *+XAR5[0],#0x0004     ; [CPU_] |1567| 
         00000332 0004 
    3704 00000333 761A   EDIS
    3705 00000334 7622   EALLOW
    3706 00000335 0218          MOVB      ACC,#24               ; [CPU_] |1567| 
    3707 00000336 07C4          ADDL      ACC,*+XAR4[0]         ; [CPU_] |1567| 
    3708 00000337 83A9          MOVL      XAR5,ACC              ; [CPU_] |1567| 
    3709 00000338 1AC5          OR        *+XAR5[0],#0x0004     ; [CPU_] |1567| 
         00000339 0004 
    3710 0000033a 761A   EDIS
    3711 0000033b 7622   EALLOW
    3712 0000033c 0218          MOVB      ACC,#24               ; [CPU_] |1567| 
    3713 0000033d 07D4          ADDL      ACC,*+XAR4[2]         ; [CPU_] |1567| 
    3714 0000033e 8AA9          MOVL      XAR4,ACC              ; [CPU_] |1567| 
    3715 0000033f 1AC4          OR        *+XAR4[0],#0x0004     ; [CPU_] |1567| 
         00000340 0004 
    3716 00000341 761A   EDIS
    3717                      .dwpsn  file "C:/ti/motorware/motorware_1_01_00_16/sw/modules/pid/src/32b/pid.h",line 413,column 3,is
    3718 00000342 8F00-         MOVL      XAR4,#_pidHandle      ; [CPU_U] |413| 
         00000343 002A 
    3719 00000344 83C4          MOVL      XAR5,*+XAR4[0]        ; [CPU_] |413| 
    3720 00000345 0200          MOVB      ACC,#0                ; [CPU_] |413| 
    3721 00000346 1EF5          MOVL      *+XAR5[6],ACC         ; [CPU_] |413| 
    3722 00000347 83D4          MOVL      XAR5,*+XAR4[2]        ; [CPU_] |413| 
    3723 00000348 1EF5          MOVL      *+XAR5[6],ACC         ; [CPU_] |413| 
    3724 00000349 8AE4          MOVL      XAR4,*+XAR4[4]        ; [CPU_] |413| 
    3725 0000034a 1EF4          MOVL      *+XAR4[6],ACC         ; [CPU_] |413| 
    3726                      .dwpsn  file "C:/ti/motorware/motorware_1_01_00_16/sw/solutions/instaspin_foc/src/proj_lab11.c",line 
    3727 0000034b 8F00-         MOVL      XAR4,#_gIdq_ref_pu    ; [CPU_U] |500| 
TMS320C2000 Assembler PC v6.4.10 Mon Jul 11 12:58:57 2016

Tools Copyright (c) 1996-2015 Texas Instruments Incorporated
C:\Users\bee25\AppData\Local\Temp\0350410                            PAGE   77

         0000034c 0026 
    3728 0000034d 1EC4          MOVL      *+XAR4[0],ACC         ; [CPU_] |500| 
    3729                      .dwpsn  file "C:/ti/motorware/motorware_1_01_00_16/sw/solutions/instaspin_foc/src/proj_lab11.c",line 
    3730 0000034e 1ED4          MOVL      *+XAR4[2],ACC         ; [CPU_] |501| 
    3731 0000034f 6F23          B         $C$L30,UNC            ; [CPU_] |501| 
    3732                      ; branch occurs ; [] |501| 
    3733 00000350       $C$L29:    
    3734 00000350 761F-         MOVW      DP,#_estHandle        ; [CPU_U] 
         00000351 0000 
    3735                      .dwpsn  file "C:/ti/motorware/motorware_1_01_00_16/sw/solutions/instaspin_foc/src/proj_lab11.c",line 
    3736 00000352 0200          MOVB      ACC,#0                ; [CPU_] |473| 
    3737 00000353 FF69          SPM       #0                    ; [CPU_] 
    3738 00000354 8A0C-         MOVL      XAR4,@_estHandle      ; [CPU_] |473| 
    3739              $C$DW$362       .dwtag  DW_TAG_TI_branch
    3740                      .dwattr $C$DW$362, DW_AT_low_pc(0x00)
    3741                      .dwattr $C$DW$362, DW_AT_name("_EST_updateState")
    3742                      .dwattr $C$DW$362, DW_AT_TI_call
    3743 00000355 7640!         LCR       #_EST_updateState     ; [CPU_] |473| 
         00000356 0000 
    3744                      ; call occurs [#_EST_updateState] ; [] |473| 
    3745 00000357 761F-         MOVW      DP,#_halHandle        ; [CPU_U] 
         00000358 0000 
    3746                      .dwpsn  file "C:/ti/motorware/motorware_1_01_00_16/sw/modules/hal/boards/boostxldrv8301_revB/f28x/f28
    3747 00000359 C400-         MOVL      XAR6,@_halHandle      ; [CPU_] |282| 
    3748 0000035a 8AA6          MOVL      XAR4,XAR6             ; [CPU_] |282| 
    3749 0000035b DC7E          ADDB      XAR4,#126             ; [CPU_] |282| 
    3750 0000035c 7622   EALLOW
    3751                      .dwpsn  file "C:/ti/motorware/motorware_1_01_00_16/sw/drivers/pwm/src/32b/f28x/f2802x/pwm.h",line 951
    3752 0000035d D07C          MOVB      XAR0,#124             ; [CPU_] |951| 
    3753 0000035e 0217          MOVB      ACC,#23               ; [CPU_] |951| 
    3754 0000035f 0796          ADDL      ACC,*+XAR6[AR0]       ; [CPU_] |951| 
    3755 00000360 83A9          MOVL      XAR5,ACC              ; [CPU_] |951| 
    3756 00000361 56BF          MOVB      *+XAR5[0],#4,UNC      ; [CPU_] |951| 
         00000362 04C5 
    3757 00000363 761A   EDIS
    3758 00000364 7622   EALLOW
    3759 00000365 0217          MOVB      ACC,#23               ; [CPU_] |951| 
    3760 00000366 07C4          ADDL      ACC,*+XAR4[0]         ; [CPU_] |951| 
    3761 00000367 83A9          MOVL      XAR5,ACC              ; [CPU_] |951| 
    3762 00000368 56BF          MOVB      *+XAR5[0],#4,UNC      ; [CPU_] |951| 
         00000369 04C5 
    3763 0000036a 761A   EDIS
    3764 0000036b 7622   EALLOW
    3765 0000036c 0217          MOVB      ACC,#23               ; [CPU_] |951| 
    3766 0000036d 07D4          ADDL      ACC,*+XAR4[2]         ; [CPU_] |951| 
    3767 0000036e 8AA9          MOVL      XAR4,ACC              ; [CPU_] |951| 
    3768 0000036f 56BF          MOVB      *+XAR4[0],#4,UNC      ; [CPU_] |951| 
         00000370 04C4 
    3769 00000371 761A   EDIS
    3770 00000372       $C$L30:    
    3771 00000372 761F-         MOVW      DP,#_estHandle        ; [CPU_U] 
         00000373 0000 
    3772 00000374 FF69          SPM       #0                    ; [CPU_] 
    3773                      .dwpsn  file "C:/ti/motorware/motorware_1_01_00_16/sw/solutions/instaspin_foc/src/proj_lab11.c",line 
    3774 00000375 8A0C-         MOVL      XAR4,@_estHandle      ; [CPU_] |505| 
TMS320C2000 Assembler PC v6.4.10 Mon Jul 11 12:58:57 2016

Tools Copyright (c) 1996-2015 Texas Instruments Incorporated
C:\Users\bee25\AppData\Local\Temp\0350410                            PAGE   78

    3775              $C$DW$363       .dwtag  DW_TAG_TI_branch
    3776                      .dwattr $C$DW$363, DW_AT_low_pc(0x00)
    3777                      .dwattr $C$DW$363, DW_AT_name("_updateGlobalVariables")
    3778                      .dwattr $C$DW$363, DW_AT_TI_call
    3779 00000376 7640'         LCR       #_updateGlobalVariables ; [CPU_] |505| 
         00000377 0000 
    3780                      ; call occurs [#_updateGlobalVariables] ; [] |505| 
    3781 00000378 761F-         MOVW      DP,#_estHandle        ; [CPU_U] 
         00000379 0000 
    3782                      .dwpsn  file "C:/ti/motorware/motorware_1_01_00_16/sw/solutions/instaspin_foc/src/proj_lab11.c",line 
    3783 0000037a 8A0C-         MOVL      XAR4,@_estHandle      ; [CPU_] |508| 
    3784 0000037b 761F-         MOVW      DP,#_gMotorVars+3     ; [CPU_U] 
         0000037c 0003 
    3785 0000037d 9203-         MOV       AL,@_gMotorVars+3     ; [CPU_] |508| 
    3786              $C$DW$364       .dwtag  DW_TAG_TI_branch
    3787                      .dwattr $C$DW$364, DW_AT_low_pc(0x00)
    3788                      .dwattr $C$DW$364, DW_AT_name("_EST_setFlag_enableForceAngle")
    3789                      .dwattr $C$DW$364, DW_AT_TI_call
    3790 0000037e 7640!         LCR       #_EST_setFlag_enableForceAngle ; [CPU_] |508| 
         0000037f 0000 
    3791                      ; call occurs [#_EST_setFlag_enableForceAngle] ; [] |508| 
    3792 00000380 761F-         MOVW      DP,#_gMotorVars+24    ; [CPU_U] 
         00000381 0003 
    3793                      .dwpsn  file "C:/ti/motorware/motorware_1_01_00_16/sw/solutions/instaspin_foc/src/proj_lab11.c",line 
    3794 00000382 8718-         MOVL      XT,@_gMotorVars+24    ; [CPU_] |512| 
    3795                      .dwpsn  file "C:/ti/motorware/motorware_1_01_00_16/sw/solutions/instaspin_foc/src/proj_lab11.c",line 
    3796 00000383 83A1          MOVL      XAR5,XAR1             ; [CPU_] |516| 
    3797 00000384 761F-         MOVW      DP,#_gSpeed_krpm_to_pu_sf ; [CPU_U] 
         00000385 0000 
    3798                      .dwpsn  file "C:/ti/motorware/motorware_1_01_00_16/sw/solutions/instaspin_foc/src/proj_lab11.c",line 
    3799 00000386 5663-         QMPYL     ACC,XT,@_gSpeed_krpm_to_pu_sf ; [CPU_] |512| 
         00000387 0012 
    3800 00000388 5605-         IMPYL     P,XT,@_gSpeed_krpm_to_pu_sf ; [CPU_] |512| 
         00000389 0012 
    3801 0000038a 761F-         MOVW      DP,#_gMotorVars+22    ; [CPU_U] 
         0000038b 0003 
    3802 0000038c 56A7          LSL64     ACC:P,#8              ; [CPU_] |512| 
    3803 0000038d 1E16-         MOVL      @_gMotorVars+22,ACC   ; [CPU_] |512| 
    3804 0000038e 761F-         MOVW      DP,#_halHandle        ; [CPU_U] 
         0000038f 0000 
    3805                      .dwpsn  file "C:/ti/motorware/motorware_1_01_00_16/sw/solutions/instaspin_foc/src/proj_lab11.c",line 
    3806 00000390 8A00-         MOVL      XAR4,@_halHandle      ; [CPU_] |516| 
    3807              $C$DW$365       .dwtag  DW_TAG_TI_branch
    3808                      .dwattr $C$DW$365, DW_AT_low_pc(0x00)
    3809                      .dwattr $C$DW$365, DW_AT_name("_HAL_writeDrvData")
    3810                      .dwattr $C$DW$365, DW_AT_TI_call
    3811 00000391 7640!         LCR       #_HAL_writeDrvData    ; [CPU_] |516| 
         00000392 0000 
    3812                      ; call occurs [#_HAL_writeDrvData] ; [] |516| 
    3813 00000393 761F-         MOVW      DP,#_halHandle        ; [CPU_U] 
         00000394 0000 
    3814                      .dwpsn  file "C:/ti/motorware/motorware_1_01_00_16/sw/solutions/instaspin_foc/src/proj_lab11.c",line 
    3815 00000395 83A1          MOVL      XAR5,XAR1             ; [CPU_] |518| 
    3816 00000396 8A00-         MOVL      XAR4,@_halHandle      ; [CPU_] |518| 
    3817              $C$DW$366       .dwtag  DW_TAG_TI_branch
TMS320C2000 Assembler PC v6.4.10 Mon Jul 11 12:58:57 2016

Tools Copyright (c) 1996-2015 Texas Instruments Incorporated
C:\Users\bee25\AppData\Local\Temp\0350410                            PAGE   79

    3818                      .dwattr $C$DW$366, DW_AT_low_pc(0x00)
    3819                      .dwattr $C$DW$366, DW_AT_name("_HAL_readDrvData")
    3820                      .dwattr $C$DW$366, DW_AT_TI_call
    3821 00000397 7640!         LCR       #_HAL_readDrvData     ; [CPU_] |518| 
         00000398 0000 
    3822                      ; call occurs [#_HAL_readDrvData] ; [] |518| 
    3823 00000399       $C$L31:    
    3824                      .dwpsn  file "C:/ti/motorware/motorware_1_01_00_16/sw/solutions/instaspin_foc/src/proj_lab11.c",line 
    3825 00000399 8F00-         MOVL      XAR4,#_gMotorVars     ; [CPU_U] |466| 
         0000039a 00C0 
    3826 0000039b 92C4          MOV       AL,*+XAR4[0]          ; [CPU_] |466| 
    3827 0000039c ED83          BF        $C$L28,NEQ            ; [CPU_] |466| 
    3828                      ; branchcc occurs ; [] |466| 
    3829 0000039d 761F-         MOVW      DP,#_halHandle        ; [CPU_U] 
         0000039e 0000 
    3830                      .dwpsn  file "C:/ti/motorware/motorware_1_01_00_16/sw/modules/hal/boards/boostxldrv8301_revB/f28x/f28
    3831 0000039f 8300-         MOVL      XAR5,@_halHandle      ; [CPU_] |240| 
    3832 000003a0 8AA5          MOVL      XAR4,XAR5             ; [CPU_] |240| 
    3833 000003a1 DC7E          ADDB      XAR4,#126             ; [CPU_] |240| 
    3834 000003a2 7622   EALLOW
    3835                      .dwpsn  file "C:/ti/motorware/motorware_1_01_00_16/sw/drivers/pwm/src/32b/f28x/f2802x/pwm.h",line 156
    3836 000003a3 D07C          MOVB      XAR0,#124             ; [CPU_] |1567| 
    3837 000003a4 0218          MOVB      ACC,#24               ; [CPU_] |1567| 
    3838 000003a5 0795          ADDL      ACC,*+XAR5[AR0]       ; [CPU_] |1567| 
    3839 000003a6 83A9          MOVL      XAR5,ACC              ; [CPU_] |1567| 
    3840 000003a7 1AC5          OR        *+XAR5[0],#0x0004     ; [CPU_] |1567| 
         000003a8 0004 
    3841 000003a9 761A   EDIS
    3842 000003aa 7622   EALLOW
    3843 000003ab 0218          MOVB      ACC,#24               ; [CPU_] |1567| 
    3844 000003ac 07C4          ADDL      ACC,*+XAR4[0]         ; [CPU_] |1567| 
    3845 000003ad 83A9          MOVL      XAR5,ACC              ; [CPU_] |1567| 
    3846 000003ae 1AC5          OR        *+XAR5[0],#0x0004     ; [CPU_] |1567| 
         000003af 0004 
    3847 000003b0 761A   EDIS
    3848 000003b1 7622   EALLOW
    3849 000003b2 0218          MOVB      ACC,#24               ; [CPU_] |1567| 
    3850 000003b3 07D4          ADDL      ACC,*+XAR4[2]         ; [CPU_] |1567| 
    3851 000003b4 8AA9          MOVL      XAR4,ACC              ; [CPU_] |1567| 
    3852 000003b5 1AC4          OR        *+XAR4[0],#0x0004     ; [CPU_] |1567| 
         000003b6 0004 
    3853 000003b7 761A   EDIS
    3854 000003b8 761F-         MOVW      DP,#_gMotorVars+1     ; [CPU_U] 
         000003b9 0003 
    3855                      .dwpsn  file "C:/ti/motorware/motorware_1_01_00_16/sw/solutions/instaspin_foc/src/proj_lab11.c",line 
    3856 000003ba 2B01-         MOV       @_gMotorVars+1,#0     ; [CPU_] |531| 
    3857                      .dwpsn  file "C:/ti/motorware/motorware_1_01_00_16/sw/solutions/instaspin_foc/src/proj_lab11.c",line 
    3858 000003bb FFEF          B         $C$L27,UNC            ; [CPU_] |532| 
         000003bc FF5F 
    3859                      ; branch occurs ; [] |532| 
    3860 000003bd       $C$L32:    
    3861 000003bd 761F-         MOVW      DP,#_gMotorVars       ; [CPU_U] 
         000003be 0003 
    3862                      .dwpsn  file "C:/ti/motorware/motorware_1_01_00_16/sw/solutions/instaspin_foc/src/proj_lab11.c",line 
    3863 000003bf 2B00-         MOV       @_gMotorVars,#0       ; [CPU_] |219| 
TMS320C2000 Assembler PC v6.4.10 Mon Jul 11 12:58:57 2016

Tools Copyright (c) 1996-2015 Texas Instruments Incorporated
C:\Users\bee25\AppData\Local\Temp\0350410                            PAGE   80

    3864                      .dwpsn  file "C:/ti/motorware/motorware_1_01_00_16/sw/solutions/instaspin_foc/src/proj_lab11.c",line 
    3865 000003c0 6FFD          B         $C$L32,UNC            ; [CPU_] |220| 
    3866                      ; branch occurs ; [] |220| 
    3867                      .dwattr $C$DW$319, DW_AT_TI_end_file("C:/ti/motorware/motorware_1_01_00_16/sw/solutions/instaspin_foc
    3868                      .dwattr $C$DW$319, DW_AT_TI_end_line(0x215)
    3869                      .dwattr $C$DW$319, DW_AT_TI_end_column(0x01)
    3870                      .dwendentry
    3871                      .dwendtag $C$DW$319
    3872              
    3873              ;***************************************************************
    3874              ;* FLOATING-POINT CONSTANTS                                    *
    3875              ;***************************************************************
    3876 00000000               .sect   ".econst"
    3877                      .align  2
    3878 00000000 0000  $C$FL1: .xldouble       $strtod("0x1p+30")
         00000001 0000 
         00000002 0000 
         00000003 41D0 
    3879              ;**************************************************************
    3880              ;* UNDEFINED EXTERNAL REFERENCES                              *
    3881              ;**************************************************************
    3882                      .global _USER_setParams
    3883                      .global _USER_checkForErrors
    3884                      .global _HAL_enableDebugInt
    3885                      .global _HAL_enableGlobalInts
    3886                      .global _HAL_enableAdcInts
    3887                      .global _EST_setupEstIdleState
    3888                      .global _EST_getIdq_pu
    3889                      .global _EST_setEstParams
    3890                      .global _HAL_setupDrvSpi
    3891                      .global _HAL_setupFaults
    3892                      .global _HAL_enableDrv
    3893                      .global _HAL_writeDrvData
    3894                      .global _HAL_readDrvData
    3895                      .global _HAL_setParams
    3896                      .global _EST_setLs_d_pu
    3897                      .global _EST_setIdle
    3898                      .global _EST_setLs_qFmt
    3899                      .global _EST_setLs_q_pu
    3900                      .global _EST_run
    3901                      .global _memCopy
    3902                      .global _EST_setFlag_enableRsRecalc
    3903                      .global _EST_setFlag_enableForceAngle
    3904                      .global _EST_getState
    3905                      .global _USER_getErrorCode
    3906                      .global _EST_updateState
    3907                      .global _log
    3908                      .global _modf
    3909                      .global _EST_init
    3910                      .global _switch_end
    3911                      .global _switch_ram_load
    3912                      .global _RamfuncsLoadEnd
    3913                      .global _RamfuncsRunStart
    3914                      .global _RamfuncsLoadStart
    3915                      .global _econst_ram_load
TMS320C2000 Assembler PC v6.4.10 Mon Jul 11 12:58:57 2016

Tools Copyright (c) 1996-2015 Texas Instruments Incorporated
C:\Users\bee25\AppData\Local\Temp\0350410                            PAGE   81

    3916                      .global _switch_start
    3917                      .global _econst_start
    3918                      .global _econst_end
    3919                      .global _CLARKE_init
    3920                      .global _PID_init
    3921                      .global _EST_getLs_q_pu
    3922                      .global _SVGEN_init
    3923                      .global _EST_getLs_d_H
    3924                      .global _EST_getLs_q_H
    3925                      .global _EST_getLs_d_pu
    3926                      .global _USER_computeTorque_Flux_Iq_pu_to_Nm_sf
    3927                      .global _USER_computeFlux_pu_to_Wb_sf
    3928                      .global _EST_getRs_Ohm
    3929                      .global _USER_computeTorque_Ls_Id_Iq_pu_to_Nm_sf
    3930                      .global _EST_getOneOverDcBus_pu
    3931                      .global _EST_getLs_coarse_max_pu
    3932                      .global _USER_computeFlux_pu_to_VpHz_sf
    3933                      .global _EST_getRr_Ohm
    3934                      .global _EST_getSpeed_krpm
    3935                      .global _EST_getFlux_VpHz
    3936                      .global _EST_getAngle_pu
    3937                      .global _EST_getFlux_pu
    3938                      .global _EST_getFm_pu
    3939                      .global _IPARK_init
    3940                      .global __IQ30toF
    3941                      .global _pow
    3942                      .global __IQ24sinPU
    3943                      .global __IQ24sqrt
    3944                      .global __IQ24cosPU
    3945                      .global _HAL_init
    3946                      .global _EST_getIdRated
    3947                      .global _hal
    3948                      .global FS$$MPY
    3949                      .global FS$$DIV
    3950                      .global I$$TOFS
    3951                      .global FD$$MPY
    3952                      .global FS$$TOFD
    3953                      .global FS$$CMP
    3954                      .global FS$$ADD
    3955                      .global FS$$TOI
    3956                      .global FD$$TOL
    3957              
    3958              ;***************************************************************
    3959              ;* TYPE INFORMATION                                            *
    3960              ;***************************************************************
    3961              
    3962              $C$DW$T$53      .dwtag  DW_TAG_enumeration_type
    3963                      .dwattr $C$DW$T$53, DW_AT_byte_size(0x01)
    3964              $C$DW$367       .dwtag  DW_TAG_enumerator, DW_AT_name("CTRL_TargetProc_2806x"), DW_AT_const_value(0x00)
    3965              $C$DW$368       .dwtag  DW_TAG_enumerator, DW_AT_name("CTRL_TargetProc_2805x"), DW_AT_const_value(0x01)
    3966              $C$DW$369       .dwtag  DW_TAG_enumerator, DW_AT_name("CTRL_TargetProc_2803x"), DW_AT_const_value(0x02)
    3967              $C$DW$370       .dwtag  DW_TAG_enumerator, DW_AT_name("CTRL_TargetProc_2802x"), DW_AT_const_value(0x03)
    3968              $C$DW$371       .dwtag  DW_TAG_enumerator, DW_AT_name("CTRL_TargetProc_Unknown"), DW_AT_const_value(0x04)
    3969                      .dwendtag $C$DW$T$53
    3970              
TMS320C2000 Assembler PC v6.4.10 Mon Jul 11 12:58:57 2016

Tools Copyright (c) 1996-2015 Texas Instruments Incorporated
C:\Users\bee25\AppData\Local\Temp\0350410                            PAGE   82

    3971              $C$DW$T$54      .dwtag  DW_TAG_typedef, DW_AT_name("CTRL_TargetProc_e")
    3972                      .dwattr $C$DW$T$54, DW_AT_type(*$C$DW$T$53)
    3973                      .dwattr $C$DW$T$54, DW_AT_language(DW_LANG_C)
    3974              
    3975              $C$DW$T$60      .dwtag  DW_TAG_enumeration_type
    3976                      .dwattr $C$DW$T$60, DW_AT_byte_size(0x01)
    3977              $C$DW$372       .dwtag  DW_TAG_enumerator, DW_AT_name("GPIO_Number_0"), DW_AT_const_value(0x00)
    3978              $C$DW$373       .dwtag  DW_TAG_enumerator, DW_AT_name("GPIO_Number_1"), DW_AT_const_value(0x01)
    3979              $C$DW$374       .dwtag  DW_TAG_enumerator, DW_AT_name("GPIO_Number_2"), DW_AT_const_value(0x02)
    3980              $C$DW$375       .dwtag  DW_TAG_enumerator, DW_AT_name("GPIO_Number_3"), DW_AT_const_value(0x03)
    3981              $C$DW$376       .dwtag  DW_TAG_enumerator, DW_AT_name("GPIO_Number_4"), DW_AT_const_value(0x04)
    3982              $C$DW$377       .dwtag  DW_TAG_enumerator, DW_AT_name("GPIO_Number_5"), DW_AT_const_value(0x05)
    3983              $C$DW$378       .dwtag  DW_TAG_enumerator, DW_AT_name("GPIO_Number_6"), DW_AT_const_value(0x06)
    3984              $C$DW$379       .dwtag  DW_TAG_enumerator, DW_AT_name("GPIO_Number_7"), DW_AT_const_value(0x07)
    3985              $C$DW$380       .dwtag  DW_TAG_enumerator, DW_AT_name("GPIO_Rsvd_8"), DW_AT_const_value(0x08)
    3986              $C$DW$381       .dwtag  DW_TAG_enumerator, DW_AT_name("GPIO_Rsvd_9"), DW_AT_const_value(0x09)
    3987              $C$DW$382       .dwtag  DW_TAG_enumerator, DW_AT_name("GPIO_Rsvd_10"), DW_AT_const_value(0x0a)
    3988              $C$DW$383       .dwtag  DW_TAG_enumerator, DW_AT_name("GPIO_Rsvd_11"), DW_AT_const_value(0x0b)
    3989              $C$DW$384       .dwtag  DW_TAG_enumerator, DW_AT_name("GPIO_Number_12"), DW_AT_const_value(0x0c)
    3990              $C$DW$385       .dwtag  DW_TAG_enumerator, DW_AT_name("GPIO_Rsvd_13"), DW_AT_const_value(0x0d)
    3991              $C$DW$386       .dwtag  DW_TAG_enumerator, DW_AT_name("GPIO_Rsvd_14"), DW_AT_const_value(0x0e)
    3992              $C$DW$387       .dwtag  DW_TAG_enumerator, DW_AT_name("GPIO_Rsvd_15"), DW_AT_const_value(0x0f)
    3993              $C$DW$388       .dwtag  DW_TAG_enumerator, DW_AT_name("GPIO_Number_16"), DW_AT_const_value(0x10)
    3994              $C$DW$389       .dwtag  DW_TAG_enumerator, DW_AT_name("GPIO_Number_17"), DW_AT_const_value(0x11)
    3995              $C$DW$390       .dwtag  DW_TAG_enumerator, DW_AT_name("GPIO_Number_18"), DW_AT_const_value(0x12)
    3996              $C$DW$391       .dwtag  DW_TAG_enumerator, DW_AT_name("GPIO_Number_19"), DW_AT_const_value(0x13)
    3997              $C$DW$392       .dwtag  DW_TAG_enumerator, DW_AT_name("GPIO_Rsvd_20"), DW_AT_const_value(0x14)
    3998              $C$DW$393       .dwtag  DW_TAG_enumerator, DW_AT_name("GPIO_Rsvd_21"), DW_AT_const_value(0x15)
    3999              $C$DW$394       .dwtag  DW_TAG_enumerator, DW_AT_name("GPIO_Rsvd_22"), DW_AT_const_value(0x16)
    4000              $C$DW$395       .dwtag  DW_TAG_enumerator, DW_AT_name("GPIO_Rsvd_23"), DW_AT_const_value(0x17)
    4001              $C$DW$396       .dwtag  DW_TAG_enumerator, DW_AT_name("GPIO_Rsvd_24"), DW_AT_const_value(0x18)
    4002              $C$DW$397       .dwtag  DW_TAG_enumerator, DW_AT_name("GPIO_Rsvd_25"), DW_AT_const_value(0x19)
    4003              $C$DW$398       .dwtag  DW_TAG_enumerator, DW_AT_name("GPIO_Rsvd_26"), DW_AT_const_value(0x1a)
    4004              $C$DW$399       .dwtag  DW_TAG_enumerator, DW_AT_name("GPIO_Rsvd_27"), DW_AT_const_value(0x1b)
    4005              $C$DW$400       .dwtag  DW_TAG_enumerator, DW_AT_name("GPIO_Number_28"), DW_AT_const_value(0x1c)
    4006              $C$DW$401       .dwtag  DW_TAG_enumerator, DW_AT_name("GPIO_Number_29"), DW_AT_const_value(0x1d)
    4007              $C$DW$402       .dwtag  DW_TAG_enumerator, DW_AT_name("GPIO_Rsvd_30"), DW_AT_const_value(0x1e)
    4008              $C$DW$403       .dwtag  DW_TAG_enumerator, DW_AT_name("GPIO_Rsvd_31"), DW_AT_const_value(0x1f)
    4009              $C$DW$404       .dwtag  DW_TAG_enumerator, DW_AT_name("GPIO_Number_32"), DW_AT_const_value(0x20)
    4010              $C$DW$405       .dwtag  DW_TAG_enumerator, DW_AT_name("GPIO_Number_33"), DW_AT_const_value(0x21)
    4011              $C$DW$406       .dwtag  DW_TAG_enumerator, DW_AT_name("GPIO_Number_34"), DW_AT_const_value(0x22)
    4012              $C$DW$407       .dwtag  DW_TAG_enumerator, DW_AT_name("GPIO_Number_35"), DW_AT_const_value(0x23)
    4013              $C$DW$408       .dwtag  DW_TAG_enumerator, DW_AT_name("GPIO_Number_36"), DW_AT_const_value(0x24)
    4014              $C$DW$409       .dwtag  DW_TAG_enumerator, DW_AT_name("GPIO_Number_37"), DW_AT_const_value(0x25)
    4015              $C$DW$410       .dwtag  DW_TAG_enumerator, DW_AT_name("GPIO_Number_38"), DW_AT_const_value(0x26)
    4016              $C$DW$411       .dwtag  DW_TAG_enumerator, DW_AT_name("GPIO_numGpios"), DW_AT_const_value(0x27)
    4017                      .dwendtag $C$DW$T$60
    4018              
    4019              $C$DW$T$61      .dwtag  DW_TAG_typedef, DW_AT_name("GPIO_Number_e")
    4020                      .dwattr $C$DW$T$61, DW_AT_type(*$C$DW$T$60)
    4021                      .dwattr $C$DW$T$61, DW_AT_language(DW_LANG_C)
    4022              
    4023              $C$DW$T$64      .dwtag  DW_TAG_enumeration_type
    4024                      .dwattr $C$DW$T$64, DW_AT_byte_size(0x01)
    4025              $C$DW$412       .dwtag  DW_TAG_enumerator, DW_AT_name("DRV8301_PeakCurrent_1p70_A"), DW_AT_const_value(0x00)
TMS320C2000 Assembler PC v6.4.10 Mon Jul 11 12:58:57 2016

Tools Copyright (c) 1996-2015 Texas Instruments Incorporated
C:\Users\bee25\AppData\Local\Temp\0350410                            PAGE   83

    4026              $C$DW$413       .dwtag  DW_TAG_enumerator, DW_AT_name("DRV8301_PeakCurrent_0p70_A"), DW_AT_const_value(0x01)
    4027              $C$DW$414       .dwtag  DW_TAG_enumerator, DW_AT_name("DRV8301_PeakCurrent_0p25_A"), DW_AT_const_value(0x02)
    4028                      .dwendtag $C$DW$T$64
    4029              
    4030              $C$DW$T$65      .dwtag  DW_TAG_typedef, DW_AT_name("DRV8301_PeakCurrent_e")
    4031                      .dwattr $C$DW$T$65, DW_AT_type(*$C$DW$T$64)
    4032                      .dwattr $C$DW$T$65, DW_AT_language(DW_LANG_C)
    4033              
    4034              $C$DW$T$66      .dwtag  DW_TAG_enumeration_type
    4035                      .dwattr $C$DW$T$66, DW_AT_byte_size(0x01)
    4036              $C$DW$415       .dwtag  DW_TAG_enumerator, DW_AT_name("DRV8301_Reset_Normal"), DW_AT_const_value(0x00)
    4037              $C$DW$416       .dwtag  DW_TAG_enumerator, DW_AT_name("DRV8301_Reset_All"), DW_AT_const_value(0x04)
    4038                      .dwendtag $C$DW$T$66
    4039              
    4040              $C$DW$T$67      .dwtag  DW_TAG_typedef, DW_AT_name("DRV8301_Reset_e")
    4041                      .dwattr $C$DW$T$67, DW_AT_type(*$C$DW$T$66)
    4042                      .dwattr $C$DW$T$67, DW_AT_language(DW_LANG_C)
    4043              
    4044              $C$DW$T$68      .dwtag  DW_TAG_enumeration_type
    4045                      .dwattr $C$DW$T$68, DW_AT_byte_size(0x01)
    4046              $C$DW$417       .dwtag  DW_TAG_enumerator, DW_AT_name("DRV8301_PwmMode_Six_Inputs"), DW_AT_const_value(0x00)
    4047              $C$DW$418       .dwtag  DW_TAG_enumerator, DW_AT_name("DRV8301_PwmMode_Three_Inputs"), DW_AT_const_value(0x08
    4048                      .dwendtag $C$DW$T$68
    4049              
    4050              $C$DW$T$69      .dwtag  DW_TAG_typedef, DW_AT_name("DRV8301_PwmMode_e")
    4051                      .dwattr $C$DW$T$69, DW_AT_type(*$C$DW$T$68)
    4052                      .dwattr $C$DW$T$69, DW_AT_language(DW_LANG_C)
    4053              
    4054              $C$DW$T$70      .dwtag  DW_TAG_enumeration_type
    4055                      .dwattr $C$DW$T$70, DW_AT_byte_size(0x01)
    4056              $C$DW$419       .dwtag  DW_TAG_enumerator, DW_AT_name("DRV8301_OcMode_CurrentLimit"), DW_AT_const_value(0x00)
    4057              $C$DW$420       .dwtag  DW_TAG_enumerator, DW_AT_name("DRV8301_OcMode_LatchShutDown"), DW_AT_const_value(0x10
    4058              $C$DW$421       .dwtag  DW_TAG_enumerator, DW_AT_name("DRV8301_OcMode_ReportOnly"), DW_AT_const_value(0x20)
    4059              $C$DW$422       .dwtag  DW_TAG_enumerator, DW_AT_name("DRV8301_OcMode_Disabled"), DW_AT_const_value(0x30)
    4060                      .dwendtag $C$DW$T$70
    4061              
    4062              $C$DW$T$71      .dwtag  DW_TAG_typedef, DW_AT_name("DRV8301_OcMode_e")
    4063                      .dwattr $C$DW$T$71, DW_AT_type(*$C$DW$T$70)
    4064                      .dwattr $C$DW$T$71, DW_AT_language(DW_LANG_C)
    4065              
    4066              $C$DW$T$72      .dwtag  DW_TAG_enumeration_type
    4067                      .dwattr $C$DW$T$72, DW_AT_byte_size(0x01)
    4068              $C$DW$423       .dwtag  DW_TAG_enumerator, DW_AT_name("DRV8301_VdsLevel_0p060_V"), DW_AT_const_value(0x00)
    4069              $C$DW$424       .dwtag  DW_TAG_enumerator, DW_AT_name("DRV8301_VdsLevel_0p068_V"), DW_AT_const_value(0x40)
    4070              $C$DW$425       .dwtag  DW_TAG_enumerator, DW_AT_name("DRV8301_VdsLevel_0p076_V"), DW_AT_const_value(0x80)
    4071              $C$DW$426       .dwtag  DW_TAG_enumerator, DW_AT_name("DRV8301_VdsLevel_0p086_V"), DW_AT_const_value(0xc0)
    4072              $C$DW$427       .dwtag  DW_TAG_enumerator, DW_AT_name("DRV8301_VdsLevel_0p097_V"), DW_AT_const_value(0x100)
    4073              $C$DW$428       .dwtag  DW_TAG_enumerator, DW_AT_name("DRV8301_VdsLevel_0p109_V"), DW_AT_const_value(0x140)
    4074              $C$DW$429       .dwtag  DW_TAG_enumerator, DW_AT_name("DRV8301_VdsLevel_0p123_V"), DW_AT_const_value(0x180)
    4075              $C$DW$430       .dwtag  DW_TAG_enumerator, DW_AT_name("DRV8301_VdsLevel_0p138_V"), DW_AT_const_value(0x1c0)
    4076              $C$DW$431       .dwtag  DW_TAG_enumerator, DW_AT_name("DRV8301_VdsLevel_0p155_V"), DW_AT_const_value(0x200)
    4077              $C$DW$432       .dwtag  DW_TAG_enumerator, DW_AT_name("DRV8301_VdsLevel_0p175_V"), DW_AT_const_value(0x240)
    4078              $C$DW$433       .dwtag  DW_TAG_enumerator, DW_AT_name("DRV8301_VdsLevel_0p197_V"), DW_AT_const_value(0x280)
    4079              $C$DW$434       .dwtag  DW_TAG_enumerator, DW_AT_name("DRV8301_VdsLevel_0p222_V"), DW_AT_const_value(0x2c0)
    4080              $C$DW$435       .dwtag  DW_TAG_enumerator, DW_AT_name("DRV8301_VdsLevel_0p250_V"), DW_AT_const_value(0x300)
TMS320C2000 Assembler PC v6.4.10 Mon Jul 11 12:58:57 2016

Tools Copyright (c) 1996-2015 Texas Instruments Incorporated
C:\Users\bee25\AppData\Local\Temp\0350410                            PAGE   84

    4081              $C$DW$436       .dwtag  DW_TAG_enumerator, DW_AT_name("DRV8301_VdsLevel_0p282_V"), DW_AT_const_value(0x340)
    4082              $C$DW$437       .dwtag  DW_TAG_enumerator, DW_AT_name("DRV8301_VdsLevel_0p317_V"), DW_AT_const_value(0x380)
    4083              $C$DW$438       .dwtag  DW_TAG_enumerator, DW_AT_name("DRV8301_VdsLevel_0p358_V"), DW_AT_const_value(0x3c0)
    4084              $C$DW$439       .dwtag  DW_TAG_enumerator, DW_AT_name("DRV8301_VdsLevel_0p403_V"), DW_AT_const_value(0x400)
    4085              $C$DW$440       .dwtag  DW_TAG_enumerator, DW_AT_name("DRV8301_VdsLevel_0p454_V"), DW_AT_const_value(0x440)
    4086              $C$DW$441       .dwtag  DW_TAG_enumerator, DW_AT_name("DRV8301_VdsLevel_0p511_V"), DW_AT_const_value(0x480)
    4087              $C$DW$442       .dwtag  DW_TAG_enumerator, DW_AT_name("DRV8301_VdsLevel_0p576_V"), DW_AT_const_value(0x4c0)
    4088              $C$DW$443       .dwtag  DW_TAG_enumerator, DW_AT_name("DRV8301_VdsLevel_0p648_V"), DW_AT_const_value(0x500)
    4089              $C$DW$444       .dwtag  DW_TAG_enumerator, DW_AT_name("DRV8301_VdsLevel_0p730_V"), DW_AT_const_value(0x540)
    4090              $C$DW$445       .dwtag  DW_TAG_enumerator, DW_AT_name("DRV8301_VdsLevel_0p822_V"), DW_AT_const_value(0x580)
    4091              $C$DW$446       .dwtag  DW_TAG_enumerator, DW_AT_name("DRV8301_VdsLevel_0p926_V"), DW_AT_const_value(0x5c0)
    4092              $C$DW$447       .dwtag  DW_TAG_enumerator, DW_AT_name("DRV8301_VdsLevel_1p043_V"), DW_AT_const_value(0x600)
    4093              $C$DW$448       .dwtag  DW_TAG_enumerator, DW_AT_name("DRV8301_VdsLevel_1p175_V"), DW_AT_const_value(0x640)
    4094              $C$DW$449       .dwtag  DW_TAG_enumerator, DW_AT_name("DRV8301_VdsLevel_1p324_V"), DW_AT_const_value(0x680)
    4095              $C$DW$450       .dwtag  DW_TAG_enumerator, DW_AT_name("DRV8301_VdsLevel_1p491_V"), DW_AT_const_value(0x6c0)
    4096              $C$DW$451       .dwtag  DW_TAG_enumerator, DW_AT_name("DRV8301_VdsLevel_1p679_V"), DW_AT_const_value(0x700)
    4097              $C$DW$452       .dwtag  DW_TAG_enumerator, DW_AT_name("DRV8301_VdsLevel_1p892_V"), DW_AT_const_value(0x740)
    4098              $C$DW$453       .dwtag  DW_TAG_enumerator, DW_AT_name("DRV8301_VdsLevel_2p131_V"), DW_AT_const_value(0x780)
    4099              $C$DW$454       .dwtag  DW_TAG_enumerator, DW_AT_name("DRV8301_VdsLevel_2p400_V"), DW_AT_const_value(0x7c0)
    4100                      .dwendtag $C$DW$T$72
    4101              
    4102              $C$DW$T$73      .dwtag  DW_TAG_typedef, DW_AT_name("DRV8301_VdsLevel_e")
    4103                      .dwattr $C$DW$T$73, DW_AT_type(*$C$DW$T$72)
    4104                      .dwattr $C$DW$T$73, DW_AT_language(DW_LANG_C)
    4105              
    4106              $C$DW$T$75      .dwtag  DW_TAG_enumeration_type
    4107                      .dwattr $C$DW$T$75, DW_AT_byte_size(0x01)
    4108              $C$DW$455       .dwtag  DW_TAG_enumerator, DW_AT_name("DRV8301_OcTwMode_Both"), DW_AT_const_value(0x00)
    4109              $C$DW$456       .dwtag  DW_TAG_enumerator, DW_AT_name("DRV8301_OcTwMode_OT_Only"), DW_AT_const_value(0x01)
    4110              $C$DW$457       .dwtag  DW_TAG_enumerator, DW_AT_name("DRV8301_OcTwMode_OC_Only"), DW_AT_const_value(0x02)
    4111                      .dwendtag $C$DW$T$75
    4112              
    4113              $C$DW$T$76      .dwtag  DW_TAG_typedef, DW_AT_name("DRV8301_OcTwMode_e")
    4114                      .dwattr $C$DW$T$76, DW_AT_type(*$C$DW$T$75)
    4115                      .dwattr $C$DW$T$76, DW_AT_language(DW_LANG_C)
    4116              
    4117              $C$DW$T$77      .dwtag  DW_TAG_enumeration_type
    4118                      .dwattr $C$DW$T$77, DW_AT_byte_size(0x01)
    4119              $C$DW$458       .dwtag  DW_TAG_enumerator, DW_AT_name("DRV8301_ShuntAmpGain_10VpV"), DW_AT_const_value(0x00)
    4120              $C$DW$459       .dwtag  DW_TAG_enumerator, DW_AT_name("DRV8301_ShuntAmpGain_20VpV"), DW_AT_const_value(0x04)
    4121              $C$DW$460       .dwtag  DW_TAG_enumerator, DW_AT_name("DRV8301_ShuntAmpGain_40VpV"), DW_AT_const_value(0x08)
    4122              $C$DW$461       .dwtag  DW_TAG_enumerator, DW_AT_name("DRV8301_ShuntAmpGain_80VpV"), DW_AT_const_value(0x0c)
    4123                      .dwendtag $C$DW$T$77
    4124              
    4125              $C$DW$T$78      .dwtag  DW_TAG_typedef, DW_AT_name("DRV8301_ShuntAmpGain_e")
    4126                      .dwattr $C$DW$T$78, DW_AT_type(*$C$DW$T$77)
    4127                      .dwattr $C$DW$T$78, DW_AT_language(DW_LANG_C)
    4128              
    4129              $C$DW$T$79      .dwtag  DW_TAG_enumeration_type
    4130                      .dwattr $C$DW$T$79, DW_AT_byte_size(0x01)
    4131              $C$DW$462       .dwtag  DW_TAG_enumerator, DW_AT_name("DRV8301_DcCalMode_Ch1_Load"), DW_AT_const_value(0x00)
    4132              $C$DW$463       .dwtag  DW_TAG_enumerator, DW_AT_name("DRV8301_DcCalMode_Ch1_NoLoad"), DW_AT_const_value(0x10
    4133              $C$DW$464       .dwtag  DW_TAG_enumerator, DW_AT_name("DRV8301_DcCalMode_Ch2_Load"), DW_AT_const_value(0x00)
    4134              $C$DW$465       .dwtag  DW_TAG_enumerator, DW_AT_name("DRV8301_DcCalMode_Ch2_NoLoad"), DW_AT_const_value(0x20
    4135                      .dwendtag $C$DW$T$79
TMS320C2000 Assembler PC v6.4.10 Mon Jul 11 12:58:57 2016

Tools Copyright (c) 1996-2015 Texas Instruments Incorporated
C:\Users\bee25\AppData\Local\Temp\0350410                            PAGE   85

    4136              
    4137              $C$DW$T$80      .dwtag  DW_TAG_typedef, DW_AT_name("DRV8301_DcCalMode_e")
    4138                      .dwattr $C$DW$T$80, DW_AT_type(*$C$DW$T$79)
    4139                      .dwattr $C$DW$T$80, DW_AT_language(DW_LANG_C)
    4140              
    4141              $C$DW$T$81      .dwtag  DW_TAG_enumeration_type
    4142                      .dwattr $C$DW$T$81, DW_AT_byte_size(0x01)
    4143              $C$DW$466       .dwtag  DW_TAG_enumerator, DW_AT_name("DRV8301_OcOffTimeMode_Normal"), DW_AT_const_value(0x00
    4144              $C$DW$467       .dwtag  DW_TAG_enumerator, DW_AT_name("DRV8301_OcOffTimeMode_Ctrl"), DW_AT_const_value(0x40)
    4145                      .dwendtag $C$DW$T$81
    4146              
    4147              $C$DW$T$82      .dwtag  DW_TAG_typedef, DW_AT_name("DRV8301_OcOffTimeMode_e")
    4148                      .dwattr $C$DW$T$82, DW_AT_type(*$C$DW$T$81)
    4149                      .dwattr $C$DW$T$82, DW_AT_language(DW_LANG_C)
    4150              
    4151              $C$DW$T$146     .dwtag  DW_TAG_enumeration_type
    4152                      .dwattr $C$DW$T$146, DW_AT_byte_size(0x01)
    4153              $C$DW$468       .dwtag  DW_TAG_enumerator, DW_AT_name("CTRL_State_Error"), DW_AT_const_value(0x00)
    4154              $C$DW$469       .dwtag  DW_TAG_enumerator, DW_AT_name("CTRL_State_Idle"), DW_AT_const_value(0x01)
    4155              $C$DW$470       .dwtag  DW_TAG_enumerator, DW_AT_name("CTRL_State_OffLine"), DW_AT_const_value(0x02)
    4156              $C$DW$471       .dwtag  DW_TAG_enumerator, DW_AT_name("CTRL_State_OnLine"), DW_AT_const_value(0x03)
    4157              $C$DW$472       .dwtag  DW_TAG_enumerator, DW_AT_name("CTRL_numStates"), DW_AT_const_value(0x04)
    4158                      .dwendtag $C$DW$T$146
    4159              
    4160              $C$DW$T$147     .dwtag  DW_TAG_typedef, DW_AT_name("CTRL_State_e")
    4161                      .dwattr $C$DW$T$147, DW_AT_type(*$C$DW$T$146)
    4162                      .dwattr $C$DW$T$147, DW_AT_language(DW_LANG_C)
    4163              
    4164              $C$DW$T$148     .dwtag  DW_TAG_enumeration_type
    4165                      .dwattr $C$DW$T$148, DW_AT_byte_size(0x01)
    4166              $C$DW$473       .dwtag  DW_TAG_enumerator, DW_AT_name("EST_State_Error"), DW_AT_const_value(0x00)
    4167              $C$DW$474       .dwtag  DW_TAG_enumerator, DW_AT_name("EST_State_Idle"), DW_AT_const_value(0x01)
    4168              $C$DW$475       .dwtag  DW_TAG_enumerator, DW_AT_name("EST_State_RoverL"), DW_AT_const_value(0x02)
    4169              $C$DW$476       .dwtag  DW_TAG_enumerator, DW_AT_name("EST_State_Rs"), DW_AT_const_value(0x03)
    4170              $C$DW$477       .dwtag  DW_TAG_enumerator, DW_AT_name("EST_State_RampUp"), DW_AT_const_value(0x04)
    4171              $C$DW$478       .dwtag  DW_TAG_enumerator, DW_AT_name("EST_State_IdRated"), DW_AT_const_value(0x05)
    4172              $C$DW$479       .dwtag  DW_TAG_enumerator, DW_AT_name("EST_State_RatedFlux_OL"), DW_AT_const_value(0x06)
    4173              $C$DW$480       .dwtag  DW_TAG_enumerator, DW_AT_name("EST_State_RatedFlux"), DW_AT_const_value(0x07)
    4174              $C$DW$481       .dwtag  DW_TAG_enumerator, DW_AT_name("EST_State_RampDown"), DW_AT_const_value(0x08)
    4175              $C$DW$482       .dwtag  DW_TAG_enumerator, DW_AT_name("EST_State_LockRotor"), DW_AT_const_value(0x09)
    4176              $C$DW$483       .dwtag  DW_TAG_enumerator, DW_AT_name("EST_State_Ls"), DW_AT_const_value(0x0a)
    4177              $C$DW$484       .dwtag  DW_TAG_enumerator, DW_AT_name("EST_State_Rr"), DW_AT_const_value(0x0b)
    4178              $C$DW$485       .dwtag  DW_TAG_enumerator, DW_AT_name("EST_State_MotorIdentified"), DW_AT_const_value(0x0c)
    4179              $C$DW$486       .dwtag  DW_TAG_enumerator, DW_AT_name("EST_State_OnLine"), DW_AT_const_value(0x0d)
    4180              $C$DW$487       .dwtag  DW_TAG_enumerator, DW_AT_name("EST_numStates"), DW_AT_const_value(0x0e)
    4181                      .dwendtag $C$DW$T$148
    4182              
    4183              $C$DW$T$149     .dwtag  DW_TAG_typedef, DW_AT_name("EST_State_e")
    4184                      .dwattr $C$DW$T$149, DW_AT_type(*$C$DW$T$148)
    4185                      .dwattr $C$DW$T$149, DW_AT_language(DW_LANG_C)
    4186              
    4187              $C$DW$T$150     .dwtag  DW_TAG_enumeration_type
    4188                      .dwattr $C$DW$T$150, DW_AT_byte_size(0x01)
    4189              $C$DW$488       .dwtag  DW_TAG_enumerator, DW_AT_name("USER_ErrorCode_NoError"), DW_AT_const_value(0x00)
    4190              $C$DW$489       .dwtag  DW_TAG_enumerator, DW_AT_name("USER_ErrorCode_iqFullScaleCurrent_A_High"), DW_AT_cons
TMS320C2000 Assembler PC v6.4.10 Mon Jul 11 12:58:57 2016

Tools Copyright (c) 1996-2015 Texas Instruments Incorporated
C:\Users\bee25\AppData\Local\Temp\0350410                            PAGE   86

    4191              $C$DW$490       .dwtag  DW_TAG_enumerator, DW_AT_name("USER_ErrorCode_iqFullScaleCurrent_A_Low"), DW_AT_const
    4192              $C$DW$491       .dwtag  DW_TAG_enumerator, DW_AT_name("USER_ErrorCode_iqFullScaleVoltage_V_High"), DW_AT_cons
    4193              $C$DW$492       .dwtag  DW_TAG_enumerator, DW_AT_name("USER_ErrorCode_iqFullScaleVoltage_V_Low"), DW_AT_const
    4194              $C$DW$493       .dwtag  DW_TAG_enumerator, DW_AT_name("USER_ErrorCode_iqFullScaleFreq_Hz_High"), DW_AT_const_
    4195              $C$DW$494       .dwtag  DW_TAG_enumerator, DW_AT_name("USER_ErrorCode_iqFullScaleFreq_Hz_Low"), DW_AT_const_v
    4196              $C$DW$495       .dwtag  DW_TAG_enumerator, DW_AT_name("USER_ErrorCode_numPwmTicksPerIsrTick_High"), DW_AT_con
    4197              $C$DW$496       .dwtag  DW_TAG_enumerator, DW_AT_name("USER_ErrorCode_numPwmTicksPerIsrTick_Low"), DW_AT_cons
    4198              $C$DW$497       .dwtag  DW_TAG_enumerator, DW_AT_name("USER_ErrorCode_numIsrTicksPerCtrlTick_High"), DW_AT_co
    4199              $C$DW$498       .dwtag  DW_TAG_enumerator, DW_AT_name("USER_ErrorCode_numIsrTicksPerCtrlTick_Low"), DW_AT_con
    4200              $C$DW$499       .dwtag  DW_TAG_enumerator, DW_AT_name("USER_ErrorCode_numCtrlTicksPerCurrentTick_High"), DW_A
    4201              $C$DW$500       .dwtag  DW_TAG_enumerator, DW_AT_name("USER_ErrorCode_numCtrlTicksPerCurrentTick_Low"), DW_AT
    4202              $C$DW$501       .dwtag  DW_TAG_enumerator, DW_AT_name("USER_ErrorCode_numCtrlTicksPerEstTick_High"), DW_AT_co
    4203              $C$DW$502       .dwtag  DW_TAG_enumerator, DW_AT_name("USER_ErrorCode_numCtrlTicksPerEstTick_Low"), DW_AT_con
    4204              $C$DW$503       .dwtag  DW_TAG_enumerator, DW_AT_name("USER_ErrorCode_numCtrlTicksPerSpeedTick_High"), DW_AT_
    4205              $C$DW$504       .dwtag  DW_TAG_enumerator, DW_AT_name("USER_ErrorCode_numCtrlTicksPerSpeedTick_Low"), DW_AT_c
    4206              $C$DW$505       .dwtag  DW_TAG_enumerator, DW_AT_name("USER_ErrorCode_numCtrlTicksPerTrajTick_High"), DW_AT_c
    4207              $C$DW$506       .dwtag  DW_TAG_enumerator, DW_AT_name("USER_ErrorCode_numCtrlTicksPerTrajTick_Low"), DW_AT_co
    4208              $C$DW$507       .dwtag  DW_TAG_enumerator, DW_AT_name("USER_ErrorCode_numCurrentSensors_High"), DW_AT_const_v
    4209              $C$DW$508       .dwtag  DW_TAG_enumerator, DW_AT_name("USER_ErrorCode_numCurrentSensors_Low"), DW_AT_const_va
    4210              $C$DW$509       .dwtag  DW_TAG_enumerator, DW_AT_name("USER_ErrorCode_numVoltageSensors_High"), DW_AT_const_v
    4211              $C$DW$510       .dwtag  DW_TAG_enumerator, DW_AT_name("USER_ErrorCode_numVoltageSensors_Low"), DW_AT_const_va
    4212              $C$DW$511       .dwtag  DW_TAG_enumerator, DW_AT_name("USER_ErrorCode_offsetPole_rps_High"), DW_AT_const_valu
    4213              $C$DW$512       .dwtag  DW_TAG_enumerator, DW_AT_name("USER_ErrorCode_offsetPole_rps_Low"), DW_AT_const_value
    4214              $C$DW$513       .dwtag  DW_TAG_enumerator, DW_AT_name("USER_ErrorCode_fluxPole_rps_High"), DW_AT_const_value(
    4215              $C$DW$514       .dwtag  DW_TAG_enumerator, DW_AT_name("USER_ErrorCode_fluxPole_rps_Low"), DW_AT_const_value(0
    4216              $C$DW$515       .dwtag  DW_TAG_enumerator, DW_AT_name("USER_ErrorCode_zeroSpeedLimit_High"), DW_AT_const_valu
    4217              $C$DW$516       .dwtag  DW_TAG_enumerator, DW_AT_name("USER_ErrorCode_zeroSpeedLimit_Low"), DW_AT_const_value
    4218              $C$DW$517       .dwtag  DW_TAG_enumerator, DW_AT_name("USER_ErrorCode_forceAngleFreq_Hz_High"), DW_AT_const_v
    4219              $C$DW$518       .dwtag  DW_TAG_enumerator, DW_AT_name("USER_ErrorCode_forceAngleFreq_Hz_Low"), DW_AT_const_va
    4220              $C$DW$519       .dwtag  DW_TAG_enumerator, DW_AT_name("USER_ErrorCode_maxAccel_Hzps_High"), DW_AT_const_value
    4221              $C$DW$520       .dwtag  DW_TAG_enumerator, DW_AT_name("USER_ErrorCode_maxAccel_Hzps_Low"), DW_AT_const_value(
    4222              $C$DW$521       .dwtag  DW_TAG_enumerator, DW_AT_name("USER_ErrorCode_maxAccel_est_Hzps_High"), DW_AT_const_v
    4223              $C$DW$522       .dwtag  DW_TAG_enumerator, DW_AT_name("USER_ErrorCode_maxAccel_est_Hzps_Low"), DW_AT_const_va
    4224              $C$DW$523       .dwtag  DW_TAG_enumerator, DW_AT_name("USER_ErrorCode_directionPole_rps_High"), DW_AT_const_v
    4225              $C$DW$524       .dwtag  DW_TAG_enumerator, DW_AT_name("USER_ErrorCode_directionPole_rps_Low"), DW_AT_const_va
    4226              $C$DW$525       .dwtag  DW_TAG_enumerator, DW_AT_name("USER_ErrorCode_speedPole_rps_High"), DW_AT_const_value
    4227              $C$DW$526       .dwtag  DW_TAG_enumerator, DW_AT_name("USER_ErrorCode_speedPole_rps_Low"), DW_AT_const_value(
    4228              $C$DW$527       .dwtag  DW_TAG_enumerator, DW_AT_name("USER_ErrorCode_dcBusPole_rps_High"), DW_AT_const_value
    4229              $C$DW$528       .dwtag  DW_TAG_enumerator, DW_AT_name("USER_ErrorCode_dcBusPole_rps_Low"), DW_AT_const_value(
    4230              $C$DW$529       .dwtag  DW_TAG_enumerator, DW_AT_name("USER_ErrorCode_fluxFraction_High"), DW_AT_const_value(
    4231              $C$DW$530       .dwtag  DW_TAG_enumerator, DW_AT_name("USER_ErrorCode_fluxFraction_Low"), DW_AT_const_value(0
    4232              $C$DW$531       .dwtag  DW_TAG_enumerator, DW_AT_name("USER_ErrorCode_indEst_speedMaxFraction_High"), DW_AT_c
    4233              $C$DW$532       .dwtag  DW_TAG_enumerator, DW_AT_name("USER_ErrorCode_indEst_speedMaxFraction_Low"), DW_AT_co
    4234              $C$DW$533       .dwtag  DW_TAG_enumerator, DW_AT_name("USER_ErrorCode_powerWarpGain_High"), DW_AT_const_value
    4235              $C$DW$534       .dwtag  DW_TAG_enumerator, DW_AT_name("USER_ErrorCode_powerWarpGain_Low"), DW_AT_const_value(
    4236              $C$DW$535       .dwtag  DW_TAG_enumerator, DW_AT_name("USER_ErrorCode_systemFreq_MHz_High"), DW_AT_const_valu
    4237              $C$DW$536       .dwtag  DW_TAG_enumerator, DW_AT_name("USER_ErrorCode_systemFreq_MHz_Low"), DW_AT_const_value
    4238              $C$DW$537       .dwtag  DW_TAG_enumerator, DW_AT_name("USER_ErrorCode_pwmFreq_kHz_High"), DW_AT_const_value(0
    4239              $C$DW$538       .dwtag  DW_TAG_enumerator, DW_AT_name("USER_ErrorCode_pwmFreq_kHz_Low"), DW_AT_const_value(0x
    4240              $C$DW$539       .dwtag  DW_TAG_enumerator, DW_AT_name("USER_ErrorCode_voltage_sf_High"), DW_AT_const_value(0x
    4241              $C$DW$540       .dwtag  DW_TAG_enumerator, DW_AT_name("USER_ErrorCode_voltage_sf_Low"), DW_AT_const_value(0x3
    4242              $C$DW$541       .dwtag  DW_TAG_enumerator, DW_AT_name("USER_ErrorCode_current_sf_High"), DW_AT_const_value(0x
    4243              $C$DW$542       .dwtag  DW_TAG_enumerator, DW_AT_name("USER_ErrorCode_current_sf_Low"), DW_AT_const_value(0x3
    4244              $C$DW$543       .dwtag  DW_TAG_enumerator, DW_AT_name("USER_ErrorCode_voltageFilterPole_Hz_High"), DW_AT_cons
    4245              $C$DW$544       .dwtag  DW_TAG_enumerator, DW_AT_name("USER_ErrorCode_voltageFilterPole_Hz_Low"), DW_AT_const
TMS320C2000 Assembler PC v6.4.10 Mon Jul 11 12:58:57 2016

Tools Copyright (c) 1996-2015 Texas Instruments Incorporated
C:\Users\bee25\AppData\Local\Temp\0350410                            PAGE   87

    4246              $C$DW$545       .dwtag  DW_TAG_enumerator, DW_AT_name("USER_ErrorCode_maxVsMag_pu_High"), DW_AT_const_value(0
    4247              $C$DW$546       .dwtag  DW_TAG_enumerator, DW_AT_name("USER_ErrorCode_maxVsMag_pu_Low"), DW_AT_const_value(0x
    4248              $C$DW$547       .dwtag  DW_TAG_enumerator, DW_AT_name("USER_ErrorCode_estKappa_High"), DW_AT_const_value(0x3b
    4249              $C$DW$548       .dwtag  DW_TAG_enumerator, DW_AT_name("USER_ErrorCode_estKappa_Low"), DW_AT_const_value(0x3c)
    4250              $C$DW$549       .dwtag  DW_TAG_enumerator, DW_AT_name("USER_ErrorCode_motor_type_Unknown"), DW_AT_const_value
    4251              $C$DW$550       .dwtag  DW_TAG_enumerator, DW_AT_name("USER_ErrorCode_motor_numPolePairs_High"), DW_AT_const_
    4252              $C$DW$551       .dwtag  DW_TAG_enumerator, DW_AT_name("USER_ErrorCode_motor_numPolePairs_Low"), DW_AT_const_v
    4253              $C$DW$552       .dwtag  DW_TAG_enumerator, DW_AT_name("USER_ErrorCode_motor_ratedFlux_High"), DW_AT_const_val
    4254              $C$DW$553       .dwtag  DW_TAG_enumerator, DW_AT_name("USER_ErrorCode_motor_ratedFlux_Low"), DW_AT_const_valu
    4255              $C$DW$554       .dwtag  DW_TAG_enumerator, DW_AT_name("USER_ErrorCode_motor_Rr_High"), DW_AT_const_value(0x42
    4256              $C$DW$555       .dwtag  DW_TAG_enumerator, DW_AT_name("USER_ErrorCode_motor_Rr_Low"), DW_AT_const_value(0x43)
    4257              $C$DW$556       .dwtag  DW_TAG_enumerator, DW_AT_name("USER_ErrorCode_motor_Rs_High"), DW_AT_const_value(0x44
    4258              $C$DW$557       .dwtag  DW_TAG_enumerator, DW_AT_name("USER_ErrorCode_motor_Rs_Low"), DW_AT_const_value(0x45)
    4259              $C$DW$558       .dwtag  DW_TAG_enumerator, DW_AT_name("USER_ErrorCode_motor_Ls_d_High"), DW_AT_const_value(0x
    4260              $C$DW$559       .dwtag  DW_TAG_enumerator, DW_AT_name("USER_ErrorCode_motor_Ls_d_Low"), DW_AT_const_value(0x4
    4261              $C$DW$560       .dwtag  DW_TAG_enumerator, DW_AT_name("USER_ErrorCode_motor_Ls_q_High"), DW_AT_const_value(0x
    4262              $C$DW$561       .dwtag  DW_TAG_enumerator, DW_AT_name("USER_ErrorCode_motor_Ls_q_Low"), DW_AT_const_value(0x4
    4263              $C$DW$562       .dwtag  DW_TAG_enumerator, DW_AT_name("USER_ErrorCode_maxCurrent_High"), DW_AT_const_value(0x
    4264              $C$DW$563       .dwtag  DW_TAG_enumerator, DW_AT_name("USER_ErrorCode_maxCurrent_Low"), DW_AT_const_value(0x4
    4265              $C$DW$564       .dwtag  DW_TAG_enumerator, DW_AT_name("USER_ErrorCode_maxCurrent_resEst_High"), DW_AT_const_v
    4266              $C$DW$565       .dwtag  DW_TAG_enumerator, DW_AT_name("USER_ErrorCode_maxCurrent_resEst_Low"), DW_AT_const_va
    4267              $C$DW$566       .dwtag  DW_TAG_enumerator, DW_AT_name("USER_ErrorCode_maxCurrent_indEst_High"), DW_AT_const_v
    4268              $C$DW$567       .dwtag  DW_TAG_enumerator, DW_AT_name("USER_ErrorCode_maxCurrent_indEst_Low"), DW_AT_const_va
    4269              $C$DW$568       .dwtag  DW_TAG_enumerator, DW_AT_name("USER_ErrorCode_maxCurrentSlope_High"), DW_AT_const_val
    4270              $C$DW$569       .dwtag  DW_TAG_enumerator, DW_AT_name("USER_ErrorCode_maxCurrentSlope_Low"), DW_AT_const_valu
    4271              $C$DW$570       .dwtag  DW_TAG_enumerator, DW_AT_name("USER_ErrorCode_maxCurrentSlope_powerWarp_High"), DW_AT
    4272              $C$DW$571       .dwtag  DW_TAG_enumerator, DW_AT_name("USER_ErrorCode_maxCurrentSlope_powerWarp_Low"), DW_AT_
    4273              $C$DW$572       .dwtag  DW_TAG_enumerator, DW_AT_name("USER_ErrorCode_IdRated_High"), DW_AT_const_value(0x54)
    4274              $C$DW$573       .dwtag  DW_TAG_enumerator, DW_AT_name("USER_ErrorCode_IdRated_Low"), DW_AT_const_value(0x55)
    4275              $C$DW$574       .dwtag  DW_TAG_enumerator, DW_AT_name("USER_ErrorCode_IdRatedFraction_indEst_High"), DW_AT_co
    4276              $C$DW$575       .dwtag  DW_TAG_enumerator, DW_AT_name("USER_ErrorCode_IdRatedFraction_indEst_Low"), DW_AT_con
    4277              $C$DW$576       .dwtag  DW_TAG_enumerator, DW_AT_name("USER_ErrorCode_IdRatedFraction_ratedFlux_High"), DW_AT
    4278              $C$DW$577       .dwtag  DW_TAG_enumerator, DW_AT_name("USER_ErrorCode_IdRatedFraction_ratedFlux_Low"), DW_AT_
    4279              $C$DW$578       .dwtag  DW_TAG_enumerator, DW_AT_name("USER_ErrorCode_IdRated_delta_High"), DW_AT_const_value
    4280              $C$DW$579       .dwtag  DW_TAG_enumerator, DW_AT_name("USER_ErrorCode_IdRated_delta_Low"), DW_AT_const_value(
    4281              $C$DW$580       .dwtag  DW_TAG_enumerator, DW_AT_name("USER_ErrorCode_fluxEstFreq_Hz_High"), DW_AT_const_valu
    4282              $C$DW$581       .dwtag  DW_TAG_enumerator, DW_AT_name("USER_ErrorCode_fluxEstFreq_Hz_Low"), DW_AT_const_value
    4283              $C$DW$582       .dwtag  DW_TAG_enumerator, DW_AT_name("USER_ErrorCode_ctrlFreq_Hz_High"), DW_AT_const_value(0
    4284              $C$DW$583       .dwtag  DW_TAG_enumerator, DW_AT_name("USER_ErrorCode_ctrlFreq_Hz_Low"), DW_AT_const_value(0x
    4285              $C$DW$584       .dwtag  DW_TAG_enumerator, DW_AT_name("USER_ErrorCode_estFreq_Hz_High"), DW_AT_const_value(0x
    4286              $C$DW$585       .dwtag  DW_TAG_enumerator, DW_AT_name("USER_ErrorCode_estFreq_Hz_Low"), DW_AT_const_value(0x6
    4287              $C$DW$586       .dwtag  DW_TAG_enumerator, DW_AT_name("USER_ErrorCode_RoverL_estFreq_Hz_High"), DW_AT_const_v
    4288              $C$DW$587       .dwtag  DW_TAG_enumerator, DW_AT_name("USER_ErrorCode_RoverL_estFreq_Hz_Low"), DW_AT_const_va
    4289              $C$DW$588       .dwtag  DW_TAG_enumerator, DW_AT_name("USER_ErrorCode_trajFreq_Hz_High"), DW_AT_const_value(0
    4290              $C$DW$589       .dwtag  DW_TAG_enumerator, DW_AT_name("USER_ErrorCode_trajFreq_Hz_Low"), DW_AT_const_value(0x
    4291              $C$DW$590       .dwtag  DW_TAG_enumerator, DW_AT_name("USER_ErrorCode_ctrlPeriod_sec_High"), DW_AT_const_valu
    4292              $C$DW$591       .dwtag  DW_TAG_enumerator, DW_AT_name("USER_ErrorCode_ctrlPeriod_sec_Low"), DW_AT_const_value
    4293              $C$DW$592       .dwtag  DW_TAG_enumerator, DW_AT_name("USER_ErrorCode_maxNegativeIdCurrent_a_High"), DW_AT_co
    4294              $C$DW$593       .dwtag  DW_TAG_enumerator, DW_AT_name("USER_ErrorCode_maxNegativeIdCurrent_a_Low"), DW_AT_con
    4295              $C$DW$594       .dwtag  DW_TAG_enumerator, DW_AT_name("USER_numErrorCodes"), DW_AT_const_value(0x6a)
    4296                      .dwendtag $C$DW$T$150
    4297              
    4298              $C$DW$T$151     .dwtag  DW_TAG_typedef, DW_AT_name("USER_ErrorCode_e")
    4299                      .dwattr $C$DW$T$151, DW_AT_type(*$C$DW$T$150)
    4300                      .dwattr $C$DW$T$151, DW_AT_language(DW_LANG_C)
TMS320C2000 Assembler PC v6.4.10 Mon Jul 11 12:58:57 2016

Tools Copyright (c) 1996-2015 Texas Instruments Incorporated
C:\Users\bee25\AppData\Local\Temp\0350410                            PAGE   88

    4301              
    4302              $C$DW$T$180     .dwtag  DW_TAG_enumeration_type
    4303                      .dwattr $C$DW$T$180, DW_AT_byte_size(0x01)
    4304              $C$DW$595       .dwtag  DW_TAG_enumerator, DW_AT_name("MOTOR_Type_Induction"), DW_AT_const_value(0x00)
    4305              $C$DW$596       .dwtag  DW_TAG_enumerator, DW_AT_name("MOTOR_Type_Pm"), DW_AT_const_value(0x01)
    4306                      .dwendtag $C$DW$T$180
    4307              
    4308              $C$DW$T$181     .dwtag  DW_TAG_typedef, DW_AT_name("MOTOR_Type_e")
    4309                      .dwattr $C$DW$T$181, DW_AT_type(*$C$DW$T$180)
    4310                      .dwattr $C$DW$T$181, DW_AT_language(DW_LANG_C)
    4311              
    4312              $C$DW$T$199     .dwtag  DW_TAG_enumeration_type
    4313                      .dwattr $C$DW$T$199, DW_AT_byte_size(0x01)
    4314              $C$DW$597       .dwtag  DW_TAG_enumerator, DW_AT_name("ADC_IntNumber_1"), DW_AT_const_value(0x00)
    4315              $C$DW$598       .dwtag  DW_TAG_enumerator, DW_AT_name("ADC_IntNumber_2"), DW_AT_const_value(0x01)
    4316              $C$DW$599       .dwtag  DW_TAG_enumerator, DW_AT_name("ADC_IntNumber_3"), DW_AT_const_value(0x02)
    4317              $C$DW$600       .dwtag  DW_TAG_enumerator, DW_AT_name("ADC_IntNumber_4"), DW_AT_const_value(0x03)
    4318              $C$DW$601       .dwtag  DW_TAG_enumerator, DW_AT_name("ADC_IntNumber_5"), DW_AT_const_value(0x04)
    4319              $C$DW$602       .dwtag  DW_TAG_enumerator, DW_AT_name("ADC_IntNumber_6"), DW_AT_const_value(0x05)
    4320              $C$DW$603       .dwtag  DW_TAG_enumerator, DW_AT_name("ADC_IntNumber_7"), DW_AT_const_value(0x06)
    4321              $C$DW$604       .dwtag  DW_TAG_enumerator, DW_AT_name("ADC_IntNumber_8"), DW_AT_const_value(0x07)
    4322              $C$DW$605       .dwtag  DW_TAG_enumerator, DW_AT_name("ADC_IntNumber_9"), DW_AT_const_value(0x08)
    4323              $C$DW$606       .dwtag  DW_TAG_enumerator, DW_AT_name("ADC_IntNumber_1HP"), DW_AT_const_value(0x09)
    4324              $C$DW$607       .dwtag  DW_TAG_enumerator, DW_AT_name("ADC_IntNumber_2HP"), DW_AT_const_value(0x0a)
    4325              $C$DW$608       .dwtag  DW_TAG_enumerator, DW_AT_name("ADC_IntNumber_9HP"), DW_AT_const_value(0x0e)
    4326                      .dwendtag $C$DW$T$199
    4327              
    4328              $C$DW$T$200     .dwtag  DW_TAG_typedef, DW_AT_name("ADC_IntNumber_e")
    4329                      .dwattr $C$DW$T$200, DW_AT_type(*$C$DW$T$199)
    4330                      .dwattr $C$DW$T$200, DW_AT_language(DW_LANG_C)
    4331              
    4332              $C$DW$T$202     .dwtag  DW_TAG_enumeration_type
    4333                      .dwattr $C$DW$T$202, DW_AT_byte_size(0x01)
    4334              $C$DW$609       .dwtag  DW_TAG_enumerator, DW_AT_name("ADC_ResultNumber_0"), DW_AT_const_value(0x00)
    4335              $C$DW$610       .dwtag  DW_TAG_enumerator, DW_AT_name("ADC_ResultNumber_1"), DW_AT_const_value(0x01)
    4336              $C$DW$611       .dwtag  DW_TAG_enumerator, DW_AT_name("ADC_ResultNumber_2"), DW_AT_const_value(0x02)
    4337              $C$DW$612       .dwtag  DW_TAG_enumerator, DW_AT_name("ADC_ResultNumber_3"), DW_AT_const_value(0x03)
    4338              $C$DW$613       .dwtag  DW_TAG_enumerator, DW_AT_name("ADC_ResultNumber_4"), DW_AT_const_value(0x04)
    4339              $C$DW$614       .dwtag  DW_TAG_enumerator, DW_AT_name("ADC_ResultNumber_5"), DW_AT_const_value(0x05)
    4340              $C$DW$615       .dwtag  DW_TAG_enumerator, DW_AT_name("ADC_ResultNumber_6"), DW_AT_const_value(0x06)
    4341              $C$DW$616       .dwtag  DW_TAG_enumerator, DW_AT_name("ADC_ResultNumber_7"), DW_AT_const_value(0x07)
    4342              $C$DW$617       .dwtag  DW_TAG_enumerator, DW_AT_name("ADC_ResultNumber_8"), DW_AT_const_value(0x08)
    4343              $C$DW$618       .dwtag  DW_TAG_enumerator, DW_AT_name("ADC_ResultNumber_9"), DW_AT_const_value(0x09)
    4344              $C$DW$619       .dwtag  DW_TAG_enumerator, DW_AT_name("ADC_ResultNumber_10"), DW_AT_const_value(0x0a)
    4345              $C$DW$620       .dwtag  DW_TAG_enumerator, DW_AT_name("ADC_ResultNumber_11"), DW_AT_const_value(0x0b)
    4346              $C$DW$621       .dwtag  DW_TAG_enumerator, DW_AT_name("ADC_ResultNumber_12"), DW_AT_const_value(0x0c)
    4347              $C$DW$622       .dwtag  DW_TAG_enumerator, DW_AT_name("ADC_ResultNumber_13"), DW_AT_const_value(0x0d)
    4348              $C$DW$623       .dwtag  DW_TAG_enumerator, DW_AT_name("ADC_ResultNumber_14"), DW_AT_const_value(0x0e)
    4349              $C$DW$624       .dwtag  DW_TAG_enumerator, DW_AT_name("ADC_ResultNumber_15"), DW_AT_const_value(0x0f)
    4350                      .dwendtag $C$DW$T$202
    4351              
    4352              $C$DW$T$203     .dwtag  DW_TAG_typedef, DW_AT_name("ADC_ResultNumber_e")
    4353                      .dwattr $C$DW$T$203, DW_AT_type(*$C$DW$T$202)
    4354                      .dwattr $C$DW$T$203, DW_AT_language(DW_LANG_C)
    4355              
TMS320C2000 Assembler PC v6.4.10 Mon Jul 11 12:58:57 2016

Tools Copyright (c) 1996-2015 Texas Instruments Incorporated
C:\Users\bee25\AppData\Local\Temp\0350410                            PAGE   89

    4356              $C$DW$T$205     .dwtag  DW_TAG_enumeration_type
    4357                      .dwattr $C$DW$T$205, DW_AT_byte_size(0x01)
    4358              $C$DW$625       .dwtag  DW_TAG_enumerator, DW_AT_name("PIE_GroupNumber_1"), DW_AT_const_value(0x00)
    4359              $C$DW$626       .dwtag  DW_TAG_enumerator, DW_AT_name("PIE_GroupNumber_2"), DW_AT_const_value(0x01)
    4360              $C$DW$627       .dwtag  DW_TAG_enumerator, DW_AT_name("PIE_GroupNumber_3"), DW_AT_const_value(0x02)
    4361              $C$DW$628       .dwtag  DW_TAG_enumerator, DW_AT_name("PIE_GroupNumber_4"), DW_AT_const_value(0x03)
    4362              $C$DW$629       .dwtag  DW_TAG_enumerator, DW_AT_name("PIE_GroupNumber_5"), DW_AT_const_value(0x04)
    4363              $C$DW$630       .dwtag  DW_TAG_enumerator, DW_AT_name("PIE_GroupNumber_6"), DW_AT_const_value(0x05)
    4364              $C$DW$631       .dwtag  DW_TAG_enumerator, DW_AT_name("PIE_GroupNumber_7"), DW_AT_const_value(0x06)
    4365              $C$DW$632       .dwtag  DW_TAG_enumerator, DW_AT_name("PIE_GroupNumber_8"), DW_AT_const_value(0x07)
    4366              $C$DW$633       .dwtag  DW_TAG_enumerator, DW_AT_name("PIE_GroupNumber_9"), DW_AT_const_value(0x08)
    4367              $C$DW$634       .dwtag  DW_TAG_enumerator, DW_AT_name("PIE_GroupNumber_10"), DW_AT_const_value(0x09)
    4368              $C$DW$635       .dwtag  DW_TAG_enumerator, DW_AT_name("PIE_GroupNumber_11"), DW_AT_const_value(0x0a)
    4369              $C$DW$636       .dwtag  DW_TAG_enumerator, DW_AT_name("PIE_GroupNumber_12"), DW_AT_const_value(0x0b)
    4370                      .dwendtag $C$DW$T$205
    4371              
    4372              $C$DW$T$206     .dwtag  DW_TAG_typedef, DW_AT_name("PIE_GroupNumber_e")
    4373                      .dwattr $C$DW$T$206, DW_AT_type(*$C$DW$T$205)
    4374                      .dwattr $C$DW$T$206, DW_AT_language(DW_LANG_C)
    4375              
    4376              $C$DW$T$23      .dwtag  DW_TAG_structure_type
    4377                      .dwattr $C$DW$T$23, DW_AT_name("I2CEMDR_BITS")
    4378                      .dwattr $C$DW$T$23, DW_AT_byte_size(0x01)
    4379              $C$DW$637       .dwtag  DW_TAG_member
    4380                      .dwattr $C$DW$637, DW_AT_type(*$C$DW$T$22)
    4381                      .dwattr $C$DW$637, DW_AT_name("BCM")
    4382                      .dwattr $C$DW$637, DW_AT_TI_symbol_name("_BCM")
    4383                      .dwattr $C$DW$637, DW_AT_bit_offset(0x0f), DW_AT_bit_size(0x01)
    4384                      .dwattr $C$DW$637, DW_AT_data_member_location[DW_OP_plus_uconst 0x0]
    4385                      .dwattr $C$DW$637, DW_AT_accessibility(DW_ACCESS_public)
    4386              $C$DW$638       .dwtag  DW_TAG_member
    4387                      .dwattr $C$DW$638, DW_AT_type(*$C$DW$T$22)
    4388                      .dwattr $C$DW$638, DW_AT_name("rsvd1")
    4389                      .dwattr $C$DW$638, DW_AT_TI_symbol_name("_rsvd1")
    4390                      .dwattr $C$DW$638, DW_AT_bit_offset(0x00), DW_AT_bit_size(0x0f)
    4391                      .dwattr $C$DW$638, DW_AT_data_member_location[DW_OP_plus_uconst 0x0]
    4392                      .dwattr $C$DW$638, DW_AT_accessibility(DW_ACCESS_public)
    4393                      .dwendtag $C$DW$T$23
    4394              
    4395              
    4396              $C$DW$T$24      .dwtag  DW_TAG_union_type
    4397                      .dwattr $C$DW$T$24, DW_AT_name("I2CEMDR_REG")
    4398                      .dwattr $C$DW$T$24, DW_AT_byte_size(0x01)
    4399              $C$DW$639       .dwtag  DW_TAG_member
    4400                      .dwattr $C$DW$639, DW_AT_type(*$C$DW$T$22)
    4401                      .dwattr $C$DW$639, DW_AT_name("all")
    4402                      .dwattr $C$DW$639, DW_AT_TI_symbol_name("_all")
    4403                      .dwattr $C$DW$639, DW_AT_data_member_location[DW_OP_plus_uconst 0x0]
    4404                      .dwattr $C$DW$639, DW_AT_accessibility(DW_ACCESS_public)
    4405              $C$DW$640       .dwtag  DW_TAG_member
    4406                      .dwattr $C$DW$640, DW_AT_type(*$C$DW$T$23)
    4407                      .dwattr $C$DW$640, DW_AT_name("bit")
    4408                      .dwattr $C$DW$640, DW_AT_TI_symbol_name("_bit")
    4409                      .dwattr $C$DW$640, DW_AT_data_member_location[DW_OP_plus_uconst 0x0]
    4410                      .dwattr $C$DW$640, DW_AT_accessibility(DW_ACCESS_public)
TMS320C2000 Assembler PC v6.4.10 Mon Jul 11 12:58:57 2016

Tools Copyright (c) 1996-2015 Texas Instruments Incorporated
C:\Users\bee25\AppData\Local\Temp\0350410                            PAGE   90

    4411                      .dwendtag $C$DW$T$24
    4412              
    4413              
    4414              $C$DW$T$25      .dwtag  DW_TAG_structure_type
    4415                      .dwattr $C$DW$T$25, DW_AT_name("I2CFFRX_BITS")
    4416                      .dwattr $C$DW$T$25, DW_AT_byte_size(0x01)
    4417              $C$DW$641       .dwtag  DW_TAG_member
    4418                      .dwattr $C$DW$641, DW_AT_type(*$C$DW$T$22)
    4419                      .dwattr $C$DW$641, DW_AT_name("RXFFIL")
    4420                      .dwattr $C$DW$641, DW_AT_TI_symbol_name("_RXFFIL")
    4421                      .dwattr $C$DW$641, DW_AT_bit_offset(0x0b), DW_AT_bit_size(0x05)
    4422                      .dwattr $C$DW$641, DW_AT_data_member_location[DW_OP_plus_uconst 0x0]
    4423                      .dwattr $C$DW$641, DW_AT_accessibility(DW_ACCESS_public)
    4424              $C$DW$642       .dwtag  DW_TAG_member
    4425                      .dwattr $C$DW$642, DW_AT_type(*$C$DW$T$22)
    4426                      .dwattr $C$DW$642, DW_AT_name("RXFFIENA")
    4427                      .dwattr $C$DW$642, DW_AT_TI_symbol_name("_RXFFIENA")
    4428                      .dwattr $C$DW$642, DW_AT_bit_offset(0x0a), DW_AT_bit_size(0x01)
    4429                      .dwattr $C$DW$642, DW_AT_data_member_location[DW_OP_plus_uconst 0x0]
    4430                      .dwattr $C$DW$642, DW_AT_accessibility(DW_ACCESS_public)
    4431              $C$DW$643       .dwtag  DW_TAG_member
    4432                      .dwattr $C$DW$643, DW_AT_type(*$C$DW$T$22)
    4433                      .dwattr $C$DW$643, DW_AT_name("RXFFINTCLR")
    4434                      .dwattr $C$DW$643, DW_AT_TI_symbol_name("_RXFFINTCLR")
    4435                      .dwattr $C$DW$643, DW_AT_bit_offset(0x09), DW_AT_bit_size(0x01)
    4436                      .dwattr $C$DW$643, DW_AT_data_member_location[DW_OP_plus_uconst 0x0]
    4437                      .dwattr $C$DW$643, DW_AT_accessibility(DW_ACCESS_public)
    4438              $C$DW$644       .dwtag  DW_TAG_member
    4439                      .dwattr $C$DW$644, DW_AT_type(*$C$DW$T$22)
    4440                      .dwattr $C$DW$644, DW_AT_name("RXFFINT")
    4441                      .dwattr $C$DW$644, DW_AT_TI_symbol_name("_RXFFINT")
    4442                      .dwattr $C$DW$644, DW_AT_bit_offset(0x08), DW_AT_bit_size(0x01)
    4443                      .dwattr $C$DW$644, DW_AT_data_member_location[DW_OP_plus_uconst 0x0]
    4444                      .dwattr $C$DW$644, DW_AT_accessibility(DW_ACCESS_public)
    4445              $C$DW$645       .dwtag  DW_TAG_member
    4446                      .dwattr $C$DW$645, DW_AT_type(*$C$DW$T$22)
    4447                      .dwattr $C$DW$645, DW_AT_name("RXFFST")
    4448                      .dwattr $C$DW$645, DW_AT_TI_symbol_name("_RXFFST")
    4449                      .dwattr $C$DW$645, DW_AT_bit_offset(0x03), DW_AT_bit_size(0x05)
    4450                      .dwattr $C$DW$645, DW_AT_data_member_location[DW_OP_plus_uconst 0x0]
    4451                      .dwattr $C$DW$645, DW_AT_accessibility(DW_ACCESS_public)
    4452              $C$DW$646       .dwtag  DW_TAG_member
    4453                      .dwattr $C$DW$646, DW_AT_type(*$C$DW$T$22)
    4454                      .dwattr $C$DW$646, DW_AT_name("RXFFRST")
    4455                      .dwattr $C$DW$646, DW_AT_TI_symbol_name("_RXFFRST")
    4456                      .dwattr $C$DW$646, DW_AT_bit_offset(0x02), DW_AT_bit_size(0x01)
    4457                      .dwattr $C$DW$646, DW_AT_data_member_location[DW_OP_plus_uconst 0x0]
    4458                      .dwattr $C$DW$646, DW_AT_accessibility(DW_ACCESS_public)
    4459              $C$DW$647       .dwtag  DW_TAG_member
    4460                      .dwattr $C$DW$647, DW_AT_type(*$C$DW$T$22)
    4461                      .dwattr $C$DW$647, DW_AT_name("rsvd1")
    4462                      .dwattr $C$DW$647, DW_AT_TI_symbol_name("_rsvd1")
    4463                      .dwattr $C$DW$647, DW_AT_bit_offset(0x00), DW_AT_bit_size(0x02)
    4464                      .dwattr $C$DW$647, DW_AT_data_member_location[DW_OP_plus_uconst 0x0]
    4465                      .dwattr $C$DW$647, DW_AT_accessibility(DW_ACCESS_public)
TMS320C2000 Assembler PC v6.4.10 Mon Jul 11 12:58:57 2016

Tools Copyright (c) 1996-2015 Texas Instruments Incorporated
C:\Users\bee25\AppData\Local\Temp\0350410                            PAGE   91

    4466                      .dwendtag $C$DW$T$25
    4467              
    4468              
    4469              $C$DW$T$26      .dwtag  DW_TAG_union_type
    4470                      .dwattr $C$DW$T$26, DW_AT_name("I2CFFRX_REG")
    4471                      .dwattr $C$DW$T$26, DW_AT_byte_size(0x01)
    4472              $C$DW$648       .dwtag  DW_TAG_member
    4473                      .dwattr $C$DW$648, DW_AT_type(*$C$DW$T$22)
    4474                      .dwattr $C$DW$648, DW_AT_name("all")
    4475                      .dwattr $C$DW$648, DW_AT_TI_symbol_name("_all")
    4476                      .dwattr $C$DW$648, DW_AT_data_member_location[DW_OP_plus_uconst 0x0]
    4477                      .dwattr $C$DW$648, DW_AT_accessibility(DW_ACCESS_public)
    4478              $C$DW$649       .dwtag  DW_TAG_member
    4479                      .dwattr $C$DW$649, DW_AT_type(*$C$DW$T$25)
    4480                      .dwattr $C$DW$649, DW_AT_name("bit")
    4481                      .dwattr $C$DW$649, DW_AT_TI_symbol_name("_bit")
    4482                      .dwattr $C$DW$649, DW_AT_data_member_location[DW_OP_plus_uconst 0x0]
    4483                      .dwattr $C$DW$649, DW_AT_accessibility(DW_ACCESS_public)
    4484                      .dwendtag $C$DW$T$26
    4485              
    4486              
    4487              $C$DW$T$27      .dwtag  DW_TAG_structure_type
    4488                      .dwattr $C$DW$T$27, DW_AT_name("I2CFFTX_BITS")
    4489                      .dwattr $C$DW$T$27, DW_AT_byte_size(0x01)
    4490              $C$DW$650       .dwtag  DW_TAG_member
    4491                      .dwattr $C$DW$650, DW_AT_type(*$C$DW$T$22)
    4492                      .dwattr $C$DW$650, DW_AT_name("TXFFIL")
    4493                      .dwattr $C$DW$650, DW_AT_TI_symbol_name("_TXFFIL")
    4494                      .dwattr $C$DW$650, DW_AT_bit_offset(0x0b), DW_AT_bit_size(0x05)
    4495                      .dwattr $C$DW$650, DW_AT_data_member_location[DW_OP_plus_uconst 0x0]
    4496                      .dwattr $C$DW$650, DW_AT_accessibility(DW_ACCESS_public)
    4497              $C$DW$651       .dwtag  DW_TAG_member
    4498                      .dwattr $C$DW$651, DW_AT_type(*$C$DW$T$22)
    4499                      .dwattr $C$DW$651, DW_AT_name("TXFFIENA")
    4500                      .dwattr $C$DW$651, DW_AT_TI_symbol_name("_TXFFIENA")
    4501                      .dwattr $C$DW$651, DW_AT_bit_offset(0x0a), DW_AT_bit_size(0x01)
    4502                      .dwattr $C$DW$651, DW_AT_data_member_location[DW_OP_plus_uconst 0x0]
    4503                      .dwattr $C$DW$651, DW_AT_accessibility(DW_ACCESS_public)
    4504              $C$DW$652       .dwtag  DW_TAG_member
    4505                      .dwattr $C$DW$652, DW_AT_type(*$C$DW$T$22)
    4506                      .dwattr $C$DW$652, DW_AT_name("TXFFINTCLR")
    4507                      .dwattr $C$DW$652, DW_AT_TI_symbol_name("_TXFFINTCLR")
    4508                      .dwattr $C$DW$652, DW_AT_bit_offset(0x09), DW_AT_bit_size(0x01)
    4509                      .dwattr $C$DW$652, DW_AT_data_member_location[DW_OP_plus_uconst 0x0]
    4510                      .dwattr $C$DW$652, DW_AT_accessibility(DW_ACCESS_public)
    4511              $C$DW$653       .dwtag  DW_TAG_member
    4512                      .dwattr $C$DW$653, DW_AT_type(*$C$DW$T$22)
    4513                      .dwattr $C$DW$653, DW_AT_name("TXFFINT")
    4514                      .dwattr $C$DW$653, DW_AT_TI_symbol_name("_TXFFINT")
    4515                      .dwattr $C$DW$653, DW_AT_bit_offset(0x08), DW_AT_bit_size(0x01)
    4516                      .dwattr $C$DW$653, DW_AT_data_member_location[DW_OP_plus_uconst 0x0]
    4517                      .dwattr $C$DW$653, DW_AT_accessibility(DW_ACCESS_public)
    4518              $C$DW$654       .dwtag  DW_TAG_member
    4519                      .dwattr $C$DW$654, DW_AT_type(*$C$DW$T$22)
    4520                      .dwattr $C$DW$654, DW_AT_name("TXFFST")
TMS320C2000 Assembler PC v6.4.10 Mon Jul 11 12:58:57 2016

Tools Copyright (c) 1996-2015 Texas Instruments Incorporated
C:\Users\bee25\AppData\Local\Temp\0350410                            PAGE   92

    4521                      .dwattr $C$DW$654, DW_AT_TI_symbol_name("_TXFFST")
    4522                      .dwattr $C$DW$654, DW_AT_bit_offset(0x03), DW_AT_bit_size(0x05)
    4523                      .dwattr $C$DW$654, DW_AT_data_member_location[DW_OP_plus_uconst 0x0]
    4524                      .dwattr $C$DW$654, DW_AT_accessibility(DW_ACCESS_public)
    4525              $C$DW$655       .dwtag  DW_TAG_member
    4526                      .dwattr $C$DW$655, DW_AT_type(*$C$DW$T$22)
    4527                      .dwattr $C$DW$655, DW_AT_name("TXFFRST")
    4528                      .dwattr $C$DW$655, DW_AT_TI_symbol_name("_TXFFRST")
    4529                      .dwattr $C$DW$655, DW_AT_bit_offset(0x02), DW_AT_bit_size(0x01)
    4530                      .dwattr $C$DW$655, DW_AT_data_member_location[DW_OP_plus_uconst 0x0]
    4531                      .dwattr $C$DW$655, DW_AT_accessibility(DW_ACCESS_public)
    4532              $C$DW$656       .dwtag  DW_TAG_member
    4533                      .dwattr $C$DW$656, DW_AT_type(*$C$DW$T$22)
    4534                      .dwattr $C$DW$656, DW_AT_name("I2CFFEN")
    4535                      .dwattr $C$DW$656, DW_AT_TI_symbol_name("_I2CFFEN")
    4536                      .dwattr $C$DW$656, DW_AT_bit_offset(0x01), DW_AT_bit_size(0x01)
    4537                      .dwattr $C$DW$656, DW_AT_data_member_location[DW_OP_plus_uconst 0x0]
    4538                      .dwattr $C$DW$656, DW_AT_accessibility(DW_ACCESS_public)
    4539              $C$DW$657       .dwtag  DW_TAG_member
    4540                      .dwattr $C$DW$657, DW_AT_type(*$C$DW$T$22)
    4541                      .dwattr $C$DW$657, DW_AT_name("rsvd1")
    4542                      .dwattr $C$DW$657, DW_AT_TI_symbol_name("_rsvd1")
    4543                      .dwattr $C$DW$657, DW_AT_bit_offset(0x00), DW_AT_bit_size(0x01)
    4544                      .dwattr $C$DW$657, DW_AT_data_member_location[DW_OP_plus_uconst 0x0]
    4545                      .dwattr $C$DW$657, DW_AT_accessibility(DW_ACCESS_public)
    4546                      .dwendtag $C$DW$T$27
    4547              
    4548              
    4549              $C$DW$T$28      .dwtag  DW_TAG_union_type
    4550                      .dwattr $C$DW$T$28, DW_AT_name("I2CFFTX_REG")
    4551                      .dwattr $C$DW$T$28, DW_AT_byte_size(0x01)
    4552              $C$DW$658       .dwtag  DW_TAG_member
    4553                      .dwattr $C$DW$658, DW_AT_type(*$C$DW$T$22)
    4554                      .dwattr $C$DW$658, DW_AT_name("all")
    4555                      .dwattr $C$DW$658, DW_AT_TI_symbol_name("_all")
    4556                      .dwattr $C$DW$658, DW_AT_data_member_location[DW_OP_plus_uconst 0x0]
    4557                      .dwattr $C$DW$658, DW_AT_accessibility(DW_ACCESS_public)
    4558              $C$DW$659       .dwtag  DW_TAG_member
    4559                      .dwattr $C$DW$659, DW_AT_type(*$C$DW$T$27)
    4560                      .dwattr $C$DW$659, DW_AT_name("bit")
    4561                      .dwattr $C$DW$659, DW_AT_TI_symbol_name("_bit")
    4562                      .dwattr $C$DW$659, DW_AT_data_member_location[DW_OP_plus_uconst 0x0]
    4563                      .dwattr $C$DW$659, DW_AT_accessibility(DW_ACCESS_public)
    4564                      .dwendtag $C$DW$T$28
    4565              
    4566              
    4567              $C$DW$T$29      .dwtag  DW_TAG_structure_type
    4568                      .dwattr $C$DW$T$29, DW_AT_name("I2CIER_BITS")
    4569                      .dwattr $C$DW$T$29, DW_AT_byte_size(0x01)
    4570              $C$DW$660       .dwtag  DW_TAG_member
    4571                      .dwattr $C$DW$660, DW_AT_type(*$C$DW$T$22)
    4572                      .dwattr $C$DW$660, DW_AT_name("ARBL")
    4573                      .dwattr $C$DW$660, DW_AT_TI_symbol_name("_ARBL")
    4574                      .dwattr $C$DW$660, DW_AT_bit_offset(0x0f), DW_AT_bit_size(0x01)
    4575                      .dwattr $C$DW$660, DW_AT_data_member_location[DW_OP_plus_uconst 0x0]
TMS320C2000 Assembler PC v6.4.10 Mon Jul 11 12:58:57 2016

Tools Copyright (c) 1996-2015 Texas Instruments Incorporated
C:\Users\bee25\AppData\Local\Temp\0350410                            PAGE   93

    4576                      .dwattr $C$DW$660, DW_AT_accessibility(DW_ACCESS_public)
    4577              $C$DW$661       .dwtag  DW_TAG_member
    4578                      .dwattr $C$DW$661, DW_AT_type(*$C$DW$T$22)
    4579                      .dwattr $C$DW$661, DW_AT_name("NACK")
    4580                      .dwattr $C$DW$661, DW_AT_TI_symbol_name("_NACK")
    4581                      .dwattr $C$DW$661, DW_AT_bit_offset(0x0e), DW_AT_bit_size(0x01)
    4582                      .dwattr $C$DW$661, DW_AT_data_member_location[DW_OP_plus_uconst 0x0]
    4583                      .dwattr $C$DW$661, DW_AT_accessibility(DW_ACCESS_public)
    4584              $C$DW$662       .dwtag  DW_TAG_member
    4585                      .dwattr $C$DW$662, DW_AT_type(*$C$DW$T$22)
    4586                      .dwattr $C$DW$662, DW_AT_name("ARDY")
    4587                      .dwattr $C$DW$662, DW_AT_TI_symbol_name("_ARDY")
    4588                      .dwattr $C$DW$662, DW_AT_bit_offset(0x0d), DW_AT_bit_size(0x01)
    4589                      .dwattr $C$DW$662, DW_AT_data_member_location[DW_OP_plus_uconst 0x0]
    4590                      .dwattr $C$DW$662, DW_AT_accessibility(DW_ACCESS_public)
    4591              $C$DW$663       .dwtag  DW_TAG_member
    4592                      .dwattr $C$DW$663, DW_AT_type(*$C$DW$T$22)
    4593                      .dwattr $C$DW$663, DW_AT_name("RRDY")
    4594                      .dwattr $C$DW$663, DW_AT_TI_symbol_name("_RRDY")
    4595                      .dwattr $C$DW$663, DW_AT_bit_offset(0x0c), DW_AT_bit_size(0x01)
    4596                      .dwattr $C$DW$663, DW_AT_data_member_location[DW_OP_plus_uconst 0x0]
    4597                      .dwattr $C$DW$663, DW_AT_accessibility(DW_ACCESS_public)
    4598              $C$DW$664       .dwtag  DW_TAG_member
    4599                      .dwattr $C$DW$664, DW_AT_type(*$C$DW$T$22)
    4600                      .dwattr $C$DW$664, DW_AT_name("XRDY")
    4601                      .dwattr $C$DW$664, DW_AT_TI_symbol_name("_XRDY")
    4602                      .dwattr $C$DW$664, DW_AT_bit_offset(0x0b), DW_AT_bit_size(0x01)
    4603                      .dwattr $C$DW$664, DW_AT_data_member_location[DW_OP_plus_uconst 0x0]
    4604                      .dwattr $C$DW$664, DW_AT_accessibility(DW_ACCESS_public)
    4605              $C$DW$665       .dwtag  DW_TAG_member
    4606                      .dwattr $C$DW$665, DW_AT_type(*$C$DW$T$22)
    4607                      .dwattr $C$DW$665, DW_AT_name("SCD")
    4608                      .dwattr $C$DW$665, DW_AT_TI_symbol_name("_SCD")
    4609                      .dwattr $C$DW$665, DW_AT_bit_offset(0x0a), DW_AT_bit_size(0x01)
    4610                      .dwattr $C$DW$665, DW_AT_data_member_location[DW_OP_plus_uconst 0x0]
    4611                      .dwattr $C$DW$665, DW_AT_accessibility(DW_ACCESS_public)
    4612              $C$DW$666       .dwtag  DW_TAG_member
    4613                      .dwattr $C$DW$666, DW_AT_type(*$C$DW$T$22)
    4614                      .dwattr $C$DW$666, DW_AT_name("AAS")
    4615                      .dwattr $C$DW$666, DW_AT_TI_symbol_name("_AAS")
    4616                      .dwattr $C$DW$666, DW_AT_bit_offset(0x09), DW_AT_bit_size(0x01)
    4617                      .dwattr $C$DW$666, DW_AT_data_member_location[DW_OP_plus_uconst 0x0]
    4618                      .dwattr $C$DW$666, DW_AT_accessibility(DW_ACCESS_public)
    4619              $C$DW$667       .dwtag  DW_TAG_member
    4620                      .dwattr $C$DW$667, DW_AT_type(*$C$DW$T$22)
    4621                      .dwattr $C$DW$667, DW_AT_name("rsvd")
    4622                      .dwattr $C$DW$667, DW_AT_TI_symbol_name("_rsvd")
    4623                      .dwattr $C$DW$667, DW_AT_bit_offset(0x00), DW_AT_bit_size(0x09)
    4624                      .dwattr $C$DW$667, DW_AT_data_member_location[DW_OP_plus_uconst 0x0]
    4625                      .dwattr $C$DW$667, DW_AT_accessibility(DW_ACCESS_public)
    4626                      .dwendtag $C$DW$T$29
    4627              
    4628              
    4629              $C$DW$T$30      .dwtag  DW_TAG_union_type
    4630                      .dwattr $C$DW$T$30, DW_AT_name("I2CIER_REG")
TMS320C2000 Assembler PC v6.4.10 Mon Jul 11 12:58:57 2016

Tools Copyright (c) 1996-2015 Texas Instruments Incorporated
C:\Users\bee25\AppData\Local\Temp\0350410                            PAGE   94

    4631                      .dwattr $C$DW$T$30, DW_AT_byte_size(0x01)
    4632              $C$DW$668       .dwtag  DW_TAG_member
    4633                      .dwattr $C$DW$668, DW_AT_type(*$C$DW$T$22)
    4634                      .dwattr $C$DW$668, DW_AT_name("all")
    4635                      .dwattr $C$DW$668, DW_AT_TI_symbol_name("_all")
    4636                      .dwattr $C$DW$668, DW_AT_data_member_location[DW_OP_plus_uconst 0x0]
    4637                      .dwattr $C$DW$668, DW_AT_accessibility(DW_ACCESS_public)
    4638              $C$DW$669       .dwtag  DW_TAG_member
    4639                      .dwattr $C$DW$669, DW_AT_type(*$C$DW$T$29)
    4640                      .dwattr $C$DW$669, DW_AT_name("bit")
    4641                      .dwattr $C$DW$669, DW_AT_TI_symbol_name("_bit")
    4642                      .dwattr $C$DW$669, DW_AT_data_member_location[DW_OP_plus_uconst 0x0]
    4643                      .dwattr $C$DW$669, DW_AT_accessibility(DW_ACCESS_public)
    4644                      .dwendtag $C$DW$T$30
    4645              
    4646              
    4647              $C$DW$T$31      .dwtag  DW_TAG_structure_type
    4648                      .dwattr $C$DW$T$31, DW_AT_name("I2CISRC_BITS")
    4649                      .dwattr $C$DW$T$31, DW_AT_byte_size(0x01)
    4650              $C$DW$670       .dwtag  DW_TAG_member
    4651                      .dwattr $C$DW$670, DW_AT_type(*$C$DW$T$22)
    4652                      .dwattr $C$DW$670, DW_AT_name("INTCODE")
    4653                      .dwattr $C$DW$670, DW_AT_TI_symbol_name("_INTCODE")
    4654                      .dwattr $C$DW$670, DW_AT_bit_offset(0x0d), DW_AT_bit_size(0x03)
    4655                      .dwattr $C$DW$670, DW_AT_data_member_location[DW_OP_plus_uconst 0x0]
    4656                      .dwattr $C$DW$670, DW_AT_accessibility(DW_ACCESS_public)
    4657              $C$DW$671       .dwtag  DW_TAG_member
    4658                      .dwattr $C$DW$671, DW_AT_type(*$C$DW$T$22)
    4659                      .dwattr $C$DW$671, DW_AT_name("rsvd1")
    4660                      .dwattr $C$DW$671, DW_AT_TI_symbol_name("_rsvd1")
    4661                      .dwattr $C$DW$671, DW_AT_bit_offset(0x00), DW_AT_bit_size(0x0d)
    4662                      .dwattr $C$DW$671, DW_AT_data_member_location[DW_OP_plus_uconst 0x0]
    4663                      .dwattr $C$DW$671, DW_AT_accessibility(DW_ACCESS_public)
    4664                      .dwendtag $C$DW$T$31
    4665              
    4666              
    4667              $C$DW$T$32      .dwtag  DW_TAG_union_type
    4668                      .dwattr $C$DW$T$32, DW_AT_name("I2CISRC_REG")
    4669                      .dwattr $C$DW$T$32, DW_AT_byte_size(0x01)
    4670              $C$DW$672       .dwtag  DW_TAG_member
    4671                      .dwattr $C$DW$672, DW_AT_type(*$C$DW$T$22)
    4672                      .dwattr $C$DW$672, DW_AT_name("all")
    4673                      .dwattr $C$DW$672, DW_AT_TI_symbol_name("_all")
    4674                      .dwattr $C$DW$672, DW_AT_data_member_location[DW_OP_plus_uconst 0x0]
    4675                      .dwattr $C$DW$672, DW_AT_accessibility(DW_ACCESS_public)
    4676              $C$DW$673       .dwtag  DW_TAG_member
    4677                      .dwattr $C$DW$673, DW_AT_type(*$C$DW$T$31)
    4678                      .dwattr $C$DW$673, DW_AT_name("bit")
    4679                      .dwattr $C$DW$673, DW_AT_TI_symbol_name("_bit")
    4680                      .dwattr $C$DW$673, DW_AT_data_member_location[DW_OP_plus_uconst 0x0]
    4681                      .dwattr $C$DW$673, DW_AT_accessibility(DW_ACCESS_public)
    4682                      .dwendtag $C$DW$T$32
    4683              
    4684              
    4685              $C$DW$T$33      .dwtag  DW_TAG_structure_type
TMS320C2000 Assembler PC v6.4.10 Mon Jul 11 12:58:57 2016

Tools Copyright (c) 1996-2015 Texas Instruments Incorporated
C:\Users\bee25\AppData\Local\Temp\0350410                            PAGE   95

    4686                      .dwattr $C$DW$T$33, DW_AT_name("I2CMDR_BITS")
    4687                      .dwattr $C$DW$T$33, DW_AT_byte_size(0x01)
    4688              $C$DW$674       .dwtag  DW_TAG_member
    4689                      .dwattr $C$DW$674, DW_AT_type(*$C$DW$T$22)
    4690                      .dwattr $C$DW$674, DW_AT_name("BC")
    4691                      .dwattr $C$DW$674, DW_AT_TI_symbol_name("_BC")
    4692                      .dwattr $C$DW$674, DW_AT_bit_offset(0x0d), DW_AT_bit_size(0x03)
    4693                      .dwattr $C$DW$674, DW_AT_data_member_location[DW_OP_plus_uconst 0x0]
    4694                      .dwattr $C$DW$674, DW_AT_accessibility(DW_ACCESS_public)
    4695              $C$DW$675       .dwtag  DW_TAG_member
    4696                      .dwattr $C$DW$675, DW_AT_type(*$C$DW$T$22)
    4697                      .dwattr $C$DW$675, DW_AT_name("FDF")
    4698                      .dwattr $C$DW$675, DW_AT_TI_symbol_name("_FDF")
    4699                      .dwattr $C$DW$675, DW_AT_bit_offset(0x0c), DW_AT_bit_size(0x01)
    4700                      .dwattr $C$DW$675, DW_AT_data_member_location[DW_OP_plus_uconst 0x0]
    4701                      .dwattr $C$DW$675, DW_AT_accessibility(DW_ACCESS_public)
    4702              $C$DW$676       .dwtag  DW_TAG_member
    4703                      .dwattr $C$DW$676, DW_AT_type(*$C$DW$T$22)
    4704                      .dwattr $C$DW$676, DW_AT_name("STB")
    4705                      .dwattr $C$DW$676, DW_AT_TI_symbol_name("_STB")
    4706                      .dwattr $C$DW$676, DW_AT_bit_offset(0x0b), DW_AT_bit_size(0x01)
    4707                      .dwattr $C$DW$676, DW_AT_data_member_location[DW_OP_plus_uconst 0x0]
    4708                      .dwattr $C$DW$676, DW_AT_accessibility(DW_ACCESS_public)
    4709              $C$DW$677       .dwtag  DW_TAG_member
    4710                      .dwattr $C$DW$677, DW_AT_type(*$C$DW$T$22)
    4711                      .dwattr $C$DW$677, DW_AT_name("IRS")
    4712                      .dwattr $C$DW$677, DW_AT_TI_symbol_name("_IRS")
    4713                      .dwattr $C$DW$677, DW_AT_bit_offset(0x0a), DW_AT_bit_size(0x01)
    4714                      .dwattr $C$DW$677, DW_AT_data_member_location[DW_OP_plus_uconst 0x0]
    4715                      .dwattr $C$DW$677, DW_AT_accessibility(DW_ACCESS_public)
    4716              $C$DW$678       .dwtag  DW_TAG_member
    4717                      .dwattr $C$DW$678, DW_AT_type(*$C$DW$T$22)
    4718                      .dwattr $C$DW$678, DW_AT_name("DLB")
    4719                      .dwattr $C$DW$678, DW_AT_TI_symbol_name("_DLB")
    4720                      .dwattr $C$DW$678, DW_AT_bit_offset(0x09), DW_AT_bit_size(0x01)
    4721                      .dwattr $C$DW$678, DW_AT_data_member_location[DW_OP_plus_uconst 0x0]
    4722                      .dwattr $C$DW$678, DW_AT_accessibility(DW_ACCESS_public)
    4723              $C$DW$679       .dwtag  DW_TAG_member
    4724                      .dwattr $C$DW$679, DW_AT_type(*$C$DW$T$22)
    4725                      .dwattr $C$DW$679, DW_AT_name("RM")
    4726                      .dwattr $C$DW$679, DW_AT_TI_symbol_name("_RM")
    4727                      .dwattr $C$DW$679, DW_AT_bit_offset(0x08), DW_AT_bit_size(0x01)
    4728                      .dwattr $C$DW$679, DW_AT_data_member_location[DW_OP_plus_uconst 0x0]
    4729                      .dwattr $C$DW$679, DW_AT_accessibility(DW_ACCESS_public)
    4730              $C$DW$680       .dwtag  DW_TAG_member
    4731                      .dwattr $C$DW$680, DW_AT_type(*$C$DW$T$22)
    4732                      .dwattr $C$DW$680, DW_AT_name("XA")
    4733                      .dwattr $C$DW$680, DW_AT_TI_symbol_name("_XA")
    4734                      .dwattr $C$DW$680, DW_AT_bit_offset(0x07), DW_AT_bit_size(0x01)
    4735                      .dwattr $C$DW$680, DW_AT_data_member_location[DW_OP_plus_uconst 0x0]
    4736                      .dwattr $C$DW$680, DW_AT_accessibility(DW_ACCESS_public)
    4737              $C$DW$681       .dwtag  DW_TAG_member
    4738                      .dwattr $C$DW$681, DW_AT_type(*$C$DW$T$22)
    4739                      .dwattr $C$DW$681, DW_AT_name("TRX")
    4740                      .dwattr $C$DW$681, DW_AT_TI_symbol_name("_TRX")
TMS320C2000 Assembler PC v6.4.10 Mon Jul 11 12:58:57 2016

Tools Copyright (c) 1996-2015 Texas Instruments Incorporated
C:\Users\bee25\AppData\Local\Temp\0350410                            PAGE   96

    4741                      .dwattr $C$DW$681, DW_AT_bit_offset(0x06), DW_AT_bit_size(0x01)
    4742                      .dwattr $C$DW$681, DW_AT_data_member_location[DW_OP_plus_uconst 0x0]
    4743                      .dwattr $C$DW$681, DW_AT_accessibility(DW_ACCESS_public)
    4744              $C$DW$682       .dwtag  DW_TAG_member
    4745                      .dwattr $C$DW$682, DW_AT_type(*$C$DW$T$22)
    4746                      .dwattr $C$DW$682, DW_AT_name("MST")
    4747                      .dwattr $C$DW$682, DW_AT_TI_symbol_name("_MST")
    4748                      .dwattr $C$DW$682, DW_AT_bit_offset(0x05), DW_AT_bit_size(0x01)
    4749                      .dwattr $C$DW$682, DW_AT_data_member_location[DW_OP_plus_uconst 0x0]
    4750                      .dwattr $C$DW$682, DW_AT_accessibility(DW_ACCESS_public)
    4751              $C$DW$683       .dwtag  DW_TAG_member
    4752                      .dwattr $C$DW$683, DW_AT_type(*$C$DW$T$22)
    4753                      .dwattr $C$DW$683, DW_AT_name("STP")
    4754                      .dwattr $C$DW$683, DW_AT_TI_symbol_name("_STP")
    4755                      .dwattr $C$DW$683, DW_AT_bit_offset(0x04), DW_AT_bit_size(0x01)
    4756                      .dwattr $C$DW$683, DW_AT_data_member_location[DW_OP_plus_uconst 0x0]
    4757                      .dwattr $C$DW$683, DW_AT_accessibility(DW_ACCESS_public)
    4758              $C$DW$684       .dwtag  DW_TAG_member
    4759                      .dwattr $C$DW$684, DW_AT_type(*$C$DW$T$22)
    4760                      .dwattr $C$DW$684, DW_AT_name("rsvd1")
    4761                      .dwattr $C$DW$684, DW_AT_TI_symbol_name("_rsvd1")
    4762                      .dwattr $C$DW$684, DW_AT_bit_offset(0x03), DW_AT_bit_size(0x01)
    4763                      .dwattr $C$DW$684, DW_AT_data_member_location[DW_OP_plus_uconst 0x0]
    4764                      .dwattr $C$DW$684, DW_AT_accessibility(DW_ACCESS_public)
    4765              $C$DW$685       .dwtag  DW_TAG_member
    4766                      .dwattr $C$DW$685, DW_AT_type(*$C$DW$T$22)
    4767                      .dwattr $C$DW$685, DW_AT_name("STT")
    4768                      .dwattr $C$DW$685, DW_AT_TI_symbol_name("_STT")
    4769                      .dwattr $C$DW$685, DW_AT_bit_offset(0x02), DW_AT_bit_size(0x01)
    4770                      .dwattr $C$DW$685, DW_AT_data_member_location[DW_OP_plus_uconst 0x0]
    4771                      .dwattr $C$DW$685, DW_AT_accessibility(DW_ACCESS_public)
    4772              $C$DW$686       .dwtag  DW_TAG_member
    4773                      .dwattr $C$DW$686, DW_AT_type(*$C$DW$T$22)
    4774                      .dwattr $C$DW$686, DW_AT_name("FREE")
    4775                      .dwattr $C$DW$686, DW_AT_TI_symbol_name("_FREE")
    4776                      .dwattr $C$DW$686, DW_AT_bit_offset(0x01), DW_AT_bit_size(0x01)
    4777                      .dwattr $C$DW$686, DW_AT_data_member_location[DW_OP_plus_uconst 0x0]
    4778                      .dwattr $C$DW$686, DW_AT_accessibility(DW_ACCESS_public)
    4779              $C$DW$687       .dwtag  DW_TAG_member
    4780                      .dwattr $C$DW$687, DW_AT_type(*$C$DW$T$22)
    4781                      .dwattr $C$DW$687, DW_AT_name("NACKMOD")
    4782                      .dwattr $C$DW$687, DW_AT_TI_symbol_name("_NACKMOD")
    4783                      .dwattr $C$DW$687, DW_AT_bit_offset(0x00), DW_AT_bit_size(0x01)
    4784                      .dwattr $C$DW$687, DW_AT_data_member_location[DW_OP_plus_uconst 0x0]
    4785                      .dwattr $C$DW$687, DW_AT_accessibility(DW_ACCESS_public)
    4786                      .dwendtag $C$DW$T$33
    4787              
    4788              
    4789              $C$DW$T$34      .dwtag  DW_TAG_union_type
    4790                      .dwattr $C$DW$T$34, DW_AT_name("I2CMDR_REG")
    4791                      .dwattr $C$DW$T$34, DW_AT_byte_size(0x01)
    4792              $C$DW$688       .dwtag  DW_TAG_member
    4793                      .dwattr $C$DW$688, DW_AT_type(*$C$DW$T$22)
    4794                      .dwattr $C$DW$688, DW_AT_name("all")
    4795                      .dwattr $C$DW$688, DW_AT_TI_symbol_name("_all")
TMS320C2000 Assembler PC v6.4.10 Mon Jul 11 12:58:57 2016

Tools Copyright (c) 1996-2015 Texas Instruments Incorporated
C:\Users\bee25\AppData\Local\Temp\0350410                            PAGE   97

    4796                      .dwattr $C$DW$688, DW_AT_data_member_location[DW_OP_plus_uconst 0x0]
    4797                      .dwattr $C$DW$688, DW_AT_accessibility(DW_ACCESS_public)
    4798              $C$DW$689       .dwtag  DW_TAG_member
    4799                      .dwattr $C$DW$689, DW_AT_type(*$C$DW$T$33)
    4800                      .dwattr $C$DW$689, DW_AT_name("bit")
    4801                      .dwattr $C$DW$689, DW_AT_TI_symbol_name("_bit")
    4802                      .dwattr $C$DW$689, DW_AT_data_member_location[DW_OP_plus_uconst 0x0]
    4803                      .dwattr $C$DW$689, DW_AT_accessibility(DW_ACCESS_public)
    4804                      .dwendtag $C$DW$T$34
    4805              
    4806              
    4807              $C$DW$T$35      .dwtag  DW_TAG_structure_type
    4808                      .dwattr $C$DW$T$35, DW_AT_name("I2CPSC_BITS")
    4809                      .dwattr $C$DW$T$35, DW_AT_byte_size(0x01)
    4810              $C$DW$690       .dwtag  DW_TAG_member
    4811                      .dwattr $C$DW$690, DW_AT_type(*$C$DW$T$22)
    4812                      .dwattr $C$DW$690, DW_AT_name("IPSC")
    4813                      .dwattr $C$DW$690, DW_AT_TI_symbol_name("_IPSC")
    4814                      .dwattr $C$DW$690, DW_AT_bit_offset(0x08), DW_AT_bit_size(0x08)
    4815                      .dwattr $C$DW$690, DW_AT_data_member_location[DW_OP_plus_uconst 0x0]
    4816                      .dwattr $C$DW$690, DW_AT_accessibility(DW_ACCESS_public)
    4817              $C$DW$691       .dwtag  DW_TAG_member
    4818                      .dwattr $C$DW$691, DW_AT_type(*$C$DW$T$22)
    4819                      .dwattr $C$DW$691, DW_AT_name("rsvd1")
    4820                      .dwattr $C$DW$691, DW_AT_TI_symbol_name("_rsvd1")
    4821                      .dwattr $C$DW$691, DW_AT_bit_offset(0x00), DW_AT_bit_size(0x08)
    4822                      .dwattr $C$DW$691, DW_AT_data_member_location[DW_OP_plus_uconst 0x0]
    4823                      .dwattr $C$DW$691, DW_AT_accessibility(DW_ACCESS_public)
    4824                      .dwendtag $C$DW$T$35
    4825              
    4826              
    4827              $C$DW$T$36      .dwtag  DW_TAG_union_type
    4828                      .dwattr $C$DW$T$36, DW_AT_name("I2CPSC_REG")
    4829                      .dwattr $C$DW$T$36, DW_AT_byte_size(0x01)
    4830              $C$DW$692       .dwtag  DW_TAG_member
    4831                      .dwattr $C$DW$692, DW_AT_type(*$C$DW$T$22)
    4832                      .dwattr $C$DW$692, DW_AT_name("all")
    4833                      .dwattr $C$DW$692, DW_AT_TI_symbol_name("_all")
    4834                      .dwattr $C$DW$692, DW_AT_data_member_location[DW_OP_plus_uconst 0x0]
    4835                      .dwattr $C$DW$692, DW_AT_accessibility(DW_ACCESS_public)
    4836              $C$DW$693       .dwtag  DW_TAG_member
    4837                      .dwattr $C$DW$693, DW_AT_type(*$C$DW$T$35)
    4838                      .dwattr $C$DW$693, DW_AT_name("bit")
    4839                      .dwattr $C$DW$693, DW_AT_TI_symbol_name("_bit")
    4840                      .dwattr $C$DW$693, DW_AT_data_member_location[DW_OP_plus_uconst 0x0]
    4841                      .dwattr $C$DW$693, DW_AT_accessibility(DW_ACCESS_public)
    4842                      .dwendtag $C$DW$T$36
    4843              
    4844              
    4845              $C$DW$T$37      .dwtag  DW_TAG_structure_type
    4846                      .dwattr $C$DW$T$37, DW_AT_name("I2CSTR_BITS")
    4847                      .dwattr $C$DW$T$37, DW_AT_byte_size(0x01)
    4848              $C$DW$694       .dwtag  DW_TAG_member
    4849                      .dwattr $C$DW$694, DW_AT_type(*$C$DW$T$22)
    4850                      .dwattr $C$DW$694, DW_AT_name("ARBL")
TMS320C2000 Assembler PC v6.4.10 Mon Jul 11 12:58:57 2016

Tools Copyright (c) 1996-2015 Texas Instruments Incorporated
C:\Users\bee25\AppData\Local\Temp\0350410                            PAGE   98

    4851                      .dwattr $C$DW$694, DW_AT_TI_symbol_name("_ARBL")
    4852                      .dwattr $C$DW$694, DW_AT_bit_offset(0x0f), DW_AT_bit_size(0x01)
    4853                      .dwattr $C$DW$694, DW_AT_data_member_location[DW_OP_plus_uconst 0x0]
    4854                      .dwattr $C$DW$694, DW_AT_accessibility(DW_ACCESS_public)
    4855              $C$DW$695       .dwtag  DW_TAG_member
    4856                      .dwattr $C$DW$695, DW_AT_type(*$C$DW$T$22)
    4857                      .dwattr $C$DW$695, DW_AT_name("NACK")
    4858                      .dwattr $C$DW$695, DW_AT_TI_symbol_name("_NACK")
    4859                      .dwattr $C$DW$695, DW_AT_bit_offset(0x0e), DW_AT_bit_size(0x01)
    4860                      .dwattr $C$DW$695, DW_AT_data_member_location[DW_OP_plus_uconst 0x0]
    4861                      .dwattr $C$DW$695, DW_AT_accessibility(DW_ACCESS_public)
    4862              $C$DW$696       .dwtag  DW_TAG_member
    4863                      .dwattr $C$DW$696, DW_AT_type(*$C$DW$T$22)
    4864                      .dwattr $C$DW$696, DW_AT_name("ARDY")
    4865                      .dwattr $C$DW$696, DW_AT_TI_symbol_name("_ARDY")
    4866                      .dwattr $C$DW$696, DW_AT_bit_offset(0x0d), DW_AT_bit_size(0x01)
    4867                      .dwattr $C$DW$696, DW_AT_data_member_location[DW_OP_plus_uconst 0x0]
    4868                      .dwattr $C$DW$696, DW_AT_accessibility(DW_ACCESS_public)
    4869              $C$DW$697       .dwtag  DW_TAG_member
    4870                      .dwattr $C$DW$697, DW_AT_type(*$C$DW$T$22)
    4871                      .dwattr $C$DW$697, DW_AT_name("RRDY")
    4872                      .dwattr $C$DW$697, DW_AT_TI_symbol_name("_RRDY")
    4873                      .dwattr $C$DW$697, DW_AT_bit_offset(0x0c), DW_AT_bit_size(0x01)
    4874                      .dwattr $C$DW$697, DW_AT_data_member_location[DW_OP_plus_uconst 0x0]
    4875                      .dwattr $C$DW$697, DW_AT_accessibility(DW_ACCESS_public)
    4876              $C$DW$698       .dwtag  DW_TAG_member
    4877                      .dwattr $C$DW$698, DW_AT_type(*$C$DW$T$22)
    4878                      .dwattr $C$DW$698, DW_AT_name("XRDY")
    4879                      .dwattr $C$DW$698, DW_AT_TI_symbol_name("_XRDY")
    4880                      .dwattr $C$DW$698, DW_AT_bit_offset(0x0b), DW_AT_bit_size(0x01)
    4881                      .dwattr $C$DW$698, DW_AT_data_member_location[DW_OP_plus_uconst 0x0]
    4882                      .dwattr $C$DW$698, DW_AT_accessibility(DW_ACCESS_public)
    4883              $C$DW$699       .dwtag  DW_TAG_member
    4884                      .dwattr $C$DW$699, DW_AT_type(*$C$DW$T$22)
    4885                      .dwattr $C$DW$699, DW_AT_name("SCD")
    4886                      .dwattr $C$DW$699, DW_AT_TI_symbol_name("_SCD")
    4887                      .dwattr $C$DW$699, DW_AT_bit_offset(0x0a), DW_AT_bit_size(0x01)
    4888                      .dwattr $C$DW$699, DW_AT_data_member_location[DW_OP_plus_uconst 0x0]
    4889                      .dwattr $C$DW$699, DW_AT_accessibility(DW_ACCESS_public)
    4890              $C$DW$700       .dwtag  DW_TAG_member
    4891                      .dwattr $C$DW$700, DW_AT_type(*$C$DW$T$22)
    4892                      .dwattr $C$DW$700, DW_AT_name("rsvd1")
    4893                      .dwattr $C$DW$700, DW_AT_TI_symbol_name("_rsvd1")
    4894                      .dwattr $C$DW$700, DW_AT_bit_offset(0x08), DW_AT_bit_size(0x02)
    4895                      .dwattr $C$DW$700, DW_AT_data_member_location[DW_OP_plus_uconst 0x0]
    4896                      .dwattr $C$DW$700, DW_AT_accessibility(DW_ACCESS_public)
    4897              $C$DW$701       .dwtag  DW_TAG_member
    4898                      .dwattr $C$DW$701, DW_AT_type(*$C$DW$T$22)
    4899                      .dwattr $C$DW$701, DW_AT_name("AD0")
    4900                      .dwattr $C$DW$701, DW_AT_TI_symbol_name("_AD0")
    4901                      .dwattr $C$DW$701, DW_AT_bit_offset(0x07), DW_AT_bit_size(0x01)
    4902                      .dwattr $C$DW$701, DW_AT_data_member_location[DW_OP_plus_uconst 0x0]
    4903                      .dwattr $C$DW$701, DW_AT_accessibility(DW_ACCESS_public)
    4904              $C$DW$702       .dwtag  DW_TAG_member
    4905                      .dwattr $C$DW$702, DW_AT_type(*$C$DW$T$22)
TMS320C2000 Assembler PC v6.4.10 Mon Jul 11 12:58:57 2016

Tools Copyright (c) 1996-2015 Texas Instruments Incorporated
C:\Users\bee25\AppData\Local\Temp\0350410                            PAGE   99

    4906                      .dwattr $C$DW$702, DW_AT_name("AAS")
    4907                      .dwattr $C$DW$702, DW_AT_TI_symbol_name("_AAS")
    4908                      .dwattr $C$DW$702, DW_AT_bit_offset(0x06), DW_AT_bit_size(0x01)
    4909                      .dwattr $C$DW$702, DW_AT_data_member_location[DW_OP_plus_uconst 0x0]
    4910                      .dwattr $C$DW$702, DW_AT_accessibility(DW_ACCESS_public)
    4911              $C$DW$703       .dwtag  DW_TAG_member
    4912                      .dwattr $C$DW$703, DW_AT_type(*$C$DW$T$22)
    4913                      .dwattr $C$DW$703, DW_AT_name("XSMT")
    4914                      .dwattr $C$DW$703, DW_AT_TI_symbol_name("_XSMT")
    4915                      .dwattr $C$DW$703, DW_AT_bit_offset(0x05), DW_AT_bit_size(0x01)
    4916                      .dwattr $C$DW$703, DW_AT_data_member_location[DW_OP_plus_uconst 0x0]
    4917                      .dwattr $C$DW$703, DW_AT_accessibility(DW_ACCESS_public)
    4918              $C$DW$704       .dwtag  DW_TAG_member
    4919                      .dwattr $C$DW$704, DW_AT_type(*$C$DW$T$22)
    4920                      .dwattr $C$DW$704, DW_AT_name("RSFULL")
    4921                      .dwattr $C$DW$704, DW_AT_TI_symbol_name("_RSFULL")
    4922                      .dwattr $C$DW$704, DW_AT_bit_offset(0x04), DW_AT_bit_size(0x01)
    4923                      .dwattr $C$DW$704, DW_AT_data_member_location[DW_OP_plus_uconst 0x0]
    4924                      .dwattr $C$DW$704, DW_AT_accessibility(DW_ACCESS_public)
    4925              $C$DW$705       .dwtag  DW_TAG_member
    4926                      .dwattr $C$DW$705, DW_AT_type(*$C$DW$T$22)
    4927                      .dwattr $C$DW$705, DW_AT_name("BB")
    4928                      .dwattr $C$DW$705, DW_AT_TI_symbol_name("_BB")
    4929                      .dwattr $C$DW$705, DW_AT_bit_offset(0x03), DW_AT_bit_size(0x01)
    4930                      .dwattr $C$DW$705, DW_AT_data_member_location[DW_OP_plus_uconst 0x0]
    4931                      .dwattr $C$DW$705, DW_AT_accessibility(DW_ACCESS_public)
    4932              $C$DW$706       .dwtag  DW_TAG_member
    4933                      .dwattr $C$DW$706, DW_AT_type(*$C$DW$T$22)
    4934                      .dwattr $C$DW$706, DW_AT_name("NACKSNT")
    4935                      .dwattr $C$DW$706, DW_AT_TI_symbol_name("_NACKSNT")
    4936                      .dwattr $C$DW$706, DW_AT_bit_offset(0x02), DW_AT_bit_size(0x01)
    4937                      .dwattr $C$DW$706, DW_AT_data_member_location[DW_OP_plus_uconst 0x0]
    4938                      .dwattr $C$DW$706, DW_AT_accessibility(DW_ACCESS_public)
    4939              $C$DW$707       .dwtag  DW_TAG_member
    4940                      .dwattr $C$DW$707, DW_AT_type(*$C$DW$T$22)
    4941                      .dwattr $C$DW$707, DW_AT_name("SDIR")
    4942                      .dwattr $C$DW$707, DW_AT_TI_symbol_name("_SDIR")
    4943                      .dwattr $C$DW$707, DW_AT_bit_offset(0x01), DW_AT_bit_size(0x01)
    4944                      .dwattr $C$DW$707, DW_AT_data_member_location[DW_OP_plus_uconst 0x0]
    4945                      .dwattr $C$DW$707, DW_AT_accessibility(DW_ACCESS_public)
    4946              $C$DW$708       .dwtag  DW_TAG_member
    4947                      .dwattr $C$DW$708, DW_AT_type(*$C$DW$T$22)
    4948                      .dwattr $C$DW$708, DW_AT_name("rsvd2")
    4949                      .dwattr $C$DW$708, DW_AT_TI_symbol_name("_rsvd2")
    4950                      .dwattr $C$DW$708, DW_AT_bit_offset(0x00), DW_AT_bit_size(0x01)
    4951                      .dwattr $C$DW$708, DW_AT_data_member_location[DW_OP_plus_uconst 0x0]
    4952                      .dwattr $C$DW$708, DW_AT_accessibility(DW_ACCESS_public)
    4953                      .dwendtag $C$DW$T$37
    4954              
    4955              
    4956              $C$DW$T$38      .dwtag  DW_TAG_union_type
    4957                      .dwattr $C$DW$T$38, DW_AT_name("I2CSTR_REG")
    4958                      .dwattr $C$DW$T$38, DW_AT_byte_size(0x01)
    4959              $C$DW$709       .dwtag  DW_TAG_member
    4960                      .dwattr $C$DW$709, DW_AT_type(*$C$DW$T$22)
TMS320C2000 Assembler PC v6.4.10 Mon Jul 11 12:58:57 2016

Tools Copyright (c) 1996-2015 Texas Instruments Incorporated
C:\Users\bee25\AppData\Local\Temp\0350410                            PAGE  100

    4961                      .dwattr $C$DW$709, DW_AT_name("all")
    4962                      .dwattr $C$DW$709, DW_AT_TI_symbol_name("_all")
    4963                      .dwattr $C$DW$709, DW_AT_data_member_location[DW_OP_plus_uconst 0x0]
    4964                      .dwattr $C$DW$709, DW_AT_accessibility(DW_ACCESS_public)
    4965              $C$DW$710       .dwtag  DW_TAG_member
    4966                      .dwattr $C$DW$710, DW_AT_type(*$C$DW$T$37)
    4967                      .dwattr $C$DW$710, DW_AT_name("bit")
    4968                      .dwattr $C$DW$710, DW_AT_TI_symbol_name("_bit")
    4969                      .dwattr $C$DW$710, DW_AT_data_member_location[DW_OP_plus_uconst 0x0]
    4970                      .dwattr $C$DW$710, DW_AT_accessibility(DW_ACCESS_public)
    4971                      .dwendtag $C$DW$T$38
    4972              
    4973              
    4974              $C$DW$T$46      .dwtag  DW_TAG_structure_type
    4975                      .dwattr $C$DW$T$46, DW_AT_name("_ADC_Obj_")
    4976                      .dwattr $C$DW$T$46, DW_AT_byte_size(0x6650)
    4977              $C$DW$711       .dwtag  DW_TAG_member
    4978                      .dwattr $C$DW$711, DW_AT_type(*$C$DW$T$40)
    4979                      .dwattr $C$DW$711, DW_AT_name("ADCRESULT")
    4980                      .dwattr $C$DW$711, DW_AT_TI_symbol_name("_ADCRESULT")
    4981                      .dwattr $C$DW$711, DW_AT_data_member_location[DW_OP_plus_uconst 0x0]
    4982                      .dwattr $C$DW$711, DW_AT_accessibility(DW_ACCESS_public)
    4983              $C$DW$712       .dwtag  DW_TAG_member
    4984                      .dwattr $C$DW$712, DW_AT_type(*$C$DW$T$41)
    4985                      .dwattr $C$DW$712, DW_AT_name("resvd_1")
    4986                      .dwattr $C$DW$712, DW_AT_TI_symbol_name("_resvd_1")
    4987                      .dwattr $C$DW$712, DW_AT_data_member_location[DW_OP_plus_uconst 0x10]
    4988                      .dwattr $C$DW$712, DW_AT_accessibility(DW_ACCESS_public)
    4989              $C$DW$713       .dwtag  DW_TAG_member
    4990                      .dwattr $C$DW$713, DW_AT_type(*$C$DW$T$39)
    4991                      .dwattr $C$DW$713, DW_AT_name("ADCCTL1")
    4992                      .dwattr $C$DW$713, DW_AT_TI_symbol_name("_ADCCTL1")
    4993                      .dwattr $C$DW$713, DW_AT_data_member_location[DW_OP_plus_uconst 0x6600]
    4994                      .dwattr $C$DW$713, DW_AT_accessibility(DW_ACCESS_public)
    4995              $C$DW$714       .dwtag  DW_TAG_member
    4996                      .dwattr $C$DW$714, DW_AT_type(*$C$DW$T$39)
    4997                      .dwattr $C$DW$714, DW_AT_name("ADCCTL2")
    4998                      .dwattr $C$DW$714, DW_AT_TI_symbol_name("_ADCCTL2")
    4999                      .dwattr $C$DW$714, DW_AT_data_member_location[DW_OP_plus_uconst 0x6601]
    5000                      .dwattr $C$DW$714, DW_AT_accessibility(DW_ACCESS_public)
    5001              $C$DW$715       .dwtag  DW_TAG_member
    5002                      .dwattr $C$DW$715, DW_AT_type(*$C$DW$T$42)
    5003                      .dwattr $C$DW$715, DW_AT_name("rsvd_2")
    5004                      .dwattr $C$DW$715, DW_AT_TI_symbol_name("_rsvd_2")
    5005                      .dwattr $C$DW$715, DW_AT_data_member_location[DW_OP_plus_uconst 0x6602]
    5006                      .dwattr $C$DW$715, DW_AT_accessibility(DW_ACCESS_public)
    5007              $C$DW$716       .dwtag  DW_TAG_member
    5008                      .dwattr $C$DW$716, DW_AT_type(*$C$DW$T$39)
    5009                      .dwattr $C$DW$716, DW_AT_name("ADCINTFLG")
    5010                      .dwattr $C$DW$716, DW_AT_TI_symbol_name("_ADCINTFLG")
    5011                      .dwattr $C$DW$716, DW_AT_data_member_location[DW_OP_plus_uconst 0x6604]
    5012                      .dwattr $C$DW$716, DW_AT_accessibility(DW_ACCESS_public)
    5013              $C$DW$717       .dwtag  DW_TAG_member
    5014                      .dwattr $C$DW$717, DW_AT_type(*$C$DW$T$39)
    5015                      .dwattr $C$DW$717, DW_AT_name("ADCINTFLGCLR")
TMS320C2000 Assembler PC v6.4.10 Mon Jul 11 12:58:57 2016

Tools Copyright (c) 1996-2015 Texas Instruments Incorporated
C:\Users\bee25\AppData\Local\Temp\0350410                            PAGE  101

    5016                      .dwattr $C$DW$717, DW_AT_TI_symbol_name("_ADCINTFLGCLR")
    5017                      .dwattr $C$DW$717, DW_AT_data_member_location[DW_OP_plus_uconst 0x6605]
    5018                      .dwattr $C$DW$717, DW_AT_accessibility(DW_ACCESS_public)
    5019              $C$DW$718       .dwtag  DW_TAG_member
    5020                      .dwattr $C$DW$718, DW_AT_type(*$C$DW$T$39)
    5021                      .dwattr $C$DW$718, DW_AT_name("ADCINTOVF")
    5022                      .dwattr $C$DW$718, DW_AT_TI_symbol_name("_ADCINTOVF")
    5023                      .dwattr $C$DW$718, DW_AT_data_member_location[DW_OP_plus_uconst 0x6606]
    5024                      .dwattr $C$DW$718, DW_AT_accessibility(DW_ACCESS_public)
    5025              $C$DW$719       .dwtag  DW_TAG_member
    5026                      .dwattr $C$DW$719, DW_AT_type(*$C$DW$T$39)
    5027                      .dwattr $C$DW$719, DW_AT_name("ADCINTOVFCLR")
    5028                      .dwattr $C$DW$719, DW_AT_TI_symbol_name("_ADCINTOVFCLR")
    5029                      .dwattr $C$DW$719, DW_AT_data_member_location[DW_OP_plus_uconst 0x6607]
    5030                      .dwattr $C$DW$719, DW_AT_accessibility(DW_ACCESS_public)
    5031              $C$DW$720       .dwtag  DW_TAG_member
    5032                      .dwattr $C$DW$720, DW_AT_type(*$C$DW$T$43)
    5033                      .dwattr $C$DW$720, DW_AT_name("INTSELxNy")
    5034                      .dwattr $C$DW$720, DW_AT_TI_symbol_name("_INTSELxNy")
    5035                      .dwattr $C$DW$720, DW_AT_data_member_location[DW_OP_plus_uconst 0x6608]
    5036                      .dwattr $C$DW$720, DW_AT_accessibility(DW_ACCESS_public)
    5037              $C$DW$721       .dwtag  DW_TAG_member
    5038                      .dwattr $C$DW$721, DW_AT_type(*$C$DW$T$44)
    5039                      .dwattr $C$DW$721, DW_AT_name("rsvd_3")
    5040                      .dwattr $C$DW$721, DW_AT_TI_symbol_name("_rsvd_3")
    5041                      .dwattr $C$DW$721, DW_AT_data_member_location[DW_OP_plus_uconst 0x660d]
    5042                      .dwattr $C$DW$721, DW_AT_accessibility(DW_ACCESS_public)
    5043              $C$DW$722       .dwtag  DW_TAG_member
    5044                      .dwattr $C$DW$722, DW_AT_type(*$C$DW$T$39)
    5045                      .dwattr $C$DW$722, DW_AT_name("SOCPRICTRL")
    5046                      .dwattr $C$DW$722, DW_AT_TI_symbol_name("_SOCPRICTRL")
    5047                      .dwattr $C$DW$722, DW_AT_data_member_location[DW_OP_plus_uconst 0x6610]
    5048                      .dwattr $C$DW$722, DW_AT_accessibility(DW_ACCESS_public)
    5049              $C$DW$723       .dwtag  DW_TAG_member
    5050                      .dwattr $C$DW$723, DW_AT_type(*$C$DW$T$39)
    5051                      .dwattr $C$DW$723, DW_AT_name("rsvd_4")
    5052                      .dwattr $C$DW$723, DW_AT_TI_symbol_name("_rsvd_4")
    5053                      .dwattr $C$DW$723, DW_AT_data_member_location[DW_OP_plus_uconst 0x6611]
    5054                      .dwattr $C$DW$723, DW_AT_accessibility(DW_ACCESS_public)
    5055              $C$DW$724       .dwtag  DW_TAG_member
    5056                      .dwattr $C$DW$724, DW_AT_type(*$C$DW$T$39)
    5057                      .dwattr $C$DW$724, DW_AT_name("ADCSAMPLEMODE")
    5058                      .dwattr $C$DW$724, DW_AT_TI_symbol_name("_ADCSAMPLEMODE")
    5059                      .dwattr $C$DW$724, DW_AT_data_member_location[DW_OP_plus_uconst 0x6612]
    5060                      .dwattr $C$DW$724, DW_AT_accessibility(DW_ACCESS_public)
    5061              $C$DW$725       .dwtag  DW_TAG_member
    5062                      .dwattr $C$DW$725, DW_AT_type(*$C$DW$T$39)
    5063                      .dwattr $C$DW$725, DW_AT_name("rsvd_5")
    5064                      .dwattr $C$DW$725, DW_AT_TI_symbol_name("_rsvd_5")
    5065                      .dwattr $C$DW$725, DW_AT_data_member_location[DW_OP_plus_uconst 0x6613]
    5066                      .dwattr $C$DW$725, DW_AT_accessibility(DW_ACCESS_public)
    5067              $C$DW$726       .dwtag  DW_TAG_member
    5068                      .dwattr $C$DW$726, DW_AT_type(*$C$DW$T$39)
    5069                      .dwattr $C$DW$726, DW_AT_name("ADCINTSOCSEL1")
    5070                      .dwattr $C$DW$726, DW_AT_TI_symbol_name("_ADCINTSOCSEL1")
TMS320C2000 Assembler PC v6.4.10 Mon Jul 11 12:58:57 2016

Tools Copyright (c) 1996-2015 Texas Instruments Incorporated
C:\Users\bee25\AppData\Local\Temp\0350410                            PAGE  102

    5071                      .dwattr $C$DW$726, DW_AT_data_member_location[DW_OP_plus_uconst 0x6614]
    5072                      .dwattr $C$DW$726, DW_AT_accessibility(DW_ACCESS_public)
    5073              $C$DW$727       .dwtag  DW_TAG_member
    5074                      .dwattr $C$DW$727, DW_AT_type(*$C$DW$T$39)
    5075                      .dwattr $C$DW$727, DW_AT_name("ADCINTSOCSEL2")
    5076                      .dwattr $C$DW$727, DW_AT_TI_symbol_name("_ADCINTSOCSEL2")
    5077                      .dwattr $C$DW$727, DW_AT_data_member_location[DW_OP_plus_uconst 0x6615]
    5078                      .dwattr $C$DW$727, DW_AT_accessibility(DW_ACCESS_public)
    5079              $C$DW$728       .dwtag  DW_TAG_member
    5080                      .dwattr $C$DW$728, DW_AT_type(*$C$DW$T$42)
    5081                      .dwattr $C$DW$728, DW_AT_name("rsvd_6")
    5082                      .dwattr $C$DW$728, DW_AT_TI_symbol_name("_rsvd_6")
    5083                      .dwattr $C$DW$728, DW_AT_data_member_location[DW_OP_plus_uconst 0x6616]
    5084                      .dwattr $C$DW$728, DW_AT_accessibility(DW_ACCESS_public)
    5085              $C$DW$729       .dwtag  DW_TAG_member
    5086                      .dwattr $C$DW$729, DW_AT_type(*$C$DW$T$39)
    5087                      .dwattr $C$DW$729, DW_AT_name("ADCSOCFLG1")
    5088                      .dwattr $C$DW$729, DW_AT_TI_symbol_name("_ADCSOCFLG1")
    5089                      .dwattr $C$DW$729, DW_AT_data_member_location[DW_OP_plus_uconst 0x6618]
    5090                      .dwattr $C$DW$729, DW_AT_accessibility(DW_ACCESS_public)
    5091              $C$DW$730       .dwtag  DW_TAG_member
    5092                      .dwattr $C$DW$730, DW_AT_type(*$C$DW$T$39)
    5093                      .dwattr $C$DW$730, DW_AT_name("rsvd_7")
    5094                      .dwattr $C$DW$730, DW_AT_TI_symbol_name("_rsvd_7")
    5095                      .dwattr $C$DW$730, DW_AT_data_member_location[DW_OP_plus_uconst 0x6619]
    5096                      .dwattr $C$DW$730, DW_AT_accessibility(DW_ACCESS_public)
    5097              $C$DW$731       .dwtag  DW_TAG_member
    5098                      .dwattr $C$DW$731, DW_AT_type(*$C$DW$T$39)
    5099                      .dwattr $C$DW$731, DW_AT_name("ADCSOCFRC1")
    5100                      .dwattr $C$DW$731, DW_AT_TI_symbol_name("_ADCSOCFRC1")
    5101                      .dwattr $C$DW$731, DW_AT_data_member_location[DW_OP_plus_uconst 0x661a]
    5102                      .dwattr $C$DW$731, DW_AT_accessibility(DW_ACCESS_public)
    5103              $C$DW$732       .dwtag  DW_TAG_member
    5104                      .dwattr $C$DW$732, DW_AT_type(*$C$DW$T$39)
    5105                      .dwattr $C$DW$732, DW_AT_name("rsvd_8")
    5106                      .dwattr $C$DW$732, DW_AT_TI_symbol_name("_rsvd_8")
    5107                      .dwattr $C$DW$732, DW_AT_data_member_location[DW_OP_plus_uconst 0x661b]
    5108                      .dwattr $C$DW$732, DW_AT_accessibility(DW_ACCESS_public)
    5109              $C$DW$733       .dwtag  DW_TAG_member
    5110                      .dwattr $C$DW$733, DW_AT_type(*$C$DW$T$39)
    5111                      .dwattr $C$DW$733, DW_AT_name("ADCSOCOVF1")
    5112                      .dwattr $C$DW$733, DW_AT_TI_symbol_name("_ADCSOCOVF1")
    5113                      .dwattr $C$DW$733, DW_AT_data_member_location[DW_OP_plus_uconst 0x661c]
    5114                      .dwattr $C$DW$733, DW_AT_accessibility(DW_ACCESS_public)
    5115              $C$DW$734       .dwtag  DW_TAG_member
    5116                      .dwattr $C$DW$734, DW_AT_type(*$C$DW$T$39)
    5117                      .dwattr $C$DW$734, DW_AT_name("rsvd_9")
    5118                      .dwattr $C$DW$734, DW_AT_TI_symbol_name("_rsvd_9")
    5119                      .dwattr $C$DW$734, DW_AT_data_member_location[DW_OP_plus_uconst 0x661d]
    5120                      .dwattr $C$DW$734, DW_AT_accessibility(DW_ACCESS_public)
    5121              $C$DW$735       .dwtag  DW_TAG_member
    5122                      .dwattr $C$DW$735, DW_AT_type(*$C$DW$T$39)
    5123                      .dwattr $C$DW$735, DW_AT_name("ADCSOCOVFCLR1")
    5124                      .dwattr $C$DW$735, DW_AT_TI_symbol_name("_ADCSOCOVFCLR1")
    5125                      .dwattr $C$DW$735, DW_AT_data_member_location[DW_OP_plus_uconst 0x661e]
TMS320C2000 Assembler PC v6.4.10 Mon Jul 11 12:58:57 2016

Tools Copyright (c) 1996-2015 Texas Instruments Incorporated
C:\Users\bee25\AppData\Local\Temp\0350410                            PAGE  103

    5126                      .dwattr $C$DW$735, DW_AT_accessibility(DW_ACCESS_public)
    5127              $C$DW$736       .dwtag  DW_TAG_member
    5128                      .dwattr $C$DW$736, DW_AT_type(*$C$DW$T$39)
    5129                      .dwattr $C$DW$736, DW_AT_name("rsvd_10")
    5130                      .dwattr $C$DW$736, DW_AT_TI_symbol_name("_rsvd_10")
    5131                      .dwattr $C$DW$736, DW_AT_data_member_location[DW_OP_plus_uconst 0x661f]
    5132                      .dwattr $C$DW$736, DW_AT_accessibility(DW_ACCESS_public)
    5133              $C$DW$737       .dwtag  DW_TAG_member
    5134                      .dwattr $C$DW$737, DW_AT_type(*$C$DW$T$40)
    5135                      .dwattr $C$DW$737, DW_AT_name("ADCSOCxCTL")
    5136                      .dwattr $C$DW$737, DW_AT_TI_symbol_name("_ADCSOCxCTL")
    5137                      .dwattr $C$DW$737, DW_AT_data_member_location[DW_OP_plus_uconst 0x6620]
    5138                      .dwattr $C$DW$737, DW_AT_accessibility(DW_ACCESS_public)
    5139              $C$DW$738       .dwtag  DW_TAG_member
    5140                      .dwattr $C$DW$738, DW_AT_type(*$C$DW$T$40)
    5141                      .dwattr $C$DW$738, DW_AT_name("rsvd_11")
    5142                      .dwattr $C$DW$738, DW_AT_TI_symbol_name("_rsvd_11")
    5143                      .dwattr $C$DW$738, DW_AT_data_member_location[DW_OP_plus_uconst 0x6630]
    5144                      .dwattr $C$DW$738, DW_AT_accessibility(DW_ACCESS_public)
    5145              $C$DW$739       .dwtag  DW_TAG_member
    5146                      .dwattr $C$DW$739, DW_AT_type(*$C$DW$T$39)
    5147                      .dwattr $C$DW$739, DW_AT_name("ADCREFTRIM")
    5148                      .dwattr $C$DW$739, DW_AT_TI_symbol_name("_ADCREFTRIM")
    5149                      .dwattr $C$DW$739, DW_AT_data_member_location[DW_OP_plus_uconst 0x6640]
    5150                      .dwattr $C$DW$739, DW_AT_accessibility(DW_ACCESS_public)
    5151              $C$DW$740       .dwtag  DW_TAG_member
    5152                      .dwattr $C$DW$740, DW_AT_type(*$C$DW$T$39)
    5153                      .dwattr $C$DW$740, DW_AT_name("ADCOFFTRIM")
    5154                      .dwattr $C$DW$740, DW_AT_TI_symbol_name("_ADCOFFTRIM")
    5155                      .dwattr $C$DW$740, DW_AT_data_member_location[DW_OP_plus_uconst 0x6641]
    5156                      .dwattr $C$DW$740, DW_AT_accessibility(DW_ACCESS_public)
    5157              $C$DW$741       .dwtag  DW_TAG_member
    5158                      .dwattr $C$DW$741, DW_AT_type(*$C$DW$T$45)
    5159                      .dwattr $C$DW$741, DW_AT_name("resvd_12")
    5160                      .dwattr $C$DW$741, DW_AT_TI_symbol_name("_resvd_12")
    5161                      .dwattr $C$DW$741, DW_AT_data_member_location[DW_OP_plus_uconst 0x6642]
    5162                      .dwattr $C$DW$741, DW_AT_accessibility(DW_ACCESS_public)
    5163              $C$DW$742       .dwtag  DW_TAG_member
    5164                      .dwattr $C$DW$742, DW_AT_type(*$C$DW$T$39)
    5165                      .dwattr $C$DW$742, DW_AT_name("ADCREV")
    5166                      .dwattr $C$DW$742, DW_AT_TI_symbol_name("_ADCREV")
    5167                      .dwattr $C$DW$742, DW_AT_data_member_location[DW_OP_plus_uconst 0x664f]
    5168                      .dwattr $C$DW$742, DW_AT_accessibility(DW_ACCESS_public)
    5169                      .dwendtag $C$DW$T$46
    5170              
    5171              $C$DW$T$208     .dwtag  DW_TAG_typedef, DW_AT_name("ADC_Obj")
    5172                      .dwattr $C$DW$T$208, DW_AT_type(*$C$DW$T$46)
    5173                      .dwattr $C$DW$T$208, DW_AT_language(DW_LANG_C)
    5174              $C$DW$T$100     .dwtag  DW_TAG_pointer_type
    5175                      .dwattr $C$DW$T$100, DW_AT_type(*$C$DW$T$46)
    5176                      .dwattr $C$DW$T$100, DW_AT_address_class(0x20)
    5177              $C$DW$T$101     .dwtag  DW_TAG_typedef, DW_AT_name("ADC_Handle")
    5178                      .dwattr $C$DW$T$101, DW_AT_type(*$C$DW$T$100)
    5179                      .dwattr $C$DW$T$101, DW_AT_language(DW_LANG_C)
    5180              
TMS320C2000 Assembler PC v6.4.10 Mon Jul 11 12:58:57 2016

Tools Copyright (c) 1996-2015 Texas Instruments Incorporated
C:\Users\bee25\AppData\Local\Temp\0350410                            PAGE  104

    5181              $C$DW$T$49      .dwtag  DW_TAG_structure_type
    5182                      .dwattr $C$DW$T$49, DW_AT_name("_CLARKE_Obj_")
    5183                      .dwattr $C$DW$T$49, DW_AT_byte_size(0x06)
    5184              $C$DW$743       .dwtag  DW_TAG_member
    5185                      .dwattr $C$DW$743, DW_AT_type(*$C$DW$T$47)
    5186                      .dwattr $C$DW$743, DW_AT_name("alpha_sf")
    5187                      .dwattr $C$DW$743, DW_AT_TI_symbol_name("_alpha_sf")
    5188                      .dwattr $C$DW$743, DW_AT_data_member_location[DW_OP_plus_uconst 0x0]
    5189                      .dwattr $C$DW$743, DW_AT_accessibility(DW_ACCESS_public)
    5190              $C$DW$744       .dwtag  DW_TAG_member
    5191                      .dwattr $C$DW$744, DW_AT_type(*$C$DW$T$47)
    5192                      .dwattr $C$DW$744, DW_AT_name("beta_sf")
    5193                      .dwattr $C$DW$744, DW_AT_TI_symbol_name("_beta_sf")
    5194                      .dwattr $C$DW$744, DW_AT_data_member_location[DW_OP_plus_uconst 0x2]
    5195                      .dwattr $C$DW$744, DW_AT_accessibility(DW_ACCESS_public)
    5196              $C$DW$745       .dwtag  DW_TAG_member
    5197                      .dwattr $C$DW$745, DW_AT_type(*$C$DW$T$48)
    5198                      .dwattr $C$DW$745, DW_AT_name("numSensors")
    5199                      .dwattr $C$DW$745, DW_AT_TI_symbol_name("_numSensors")
    5200                      .dwattr $C$DW$745, DW_AT_data_member_location[DW_OP_plus_uconst 0x4]
    5201                      .dwattr $C$DW$745, DW_AT_accessibility(DW_ACCESS_public)
    5202                      .dwendtag $C$DW$T$49
    5203              
    5204              $C$DW$T$209     .dwtag  DW_TAG_typedef, DW_AT_name("CLARKE_Obj")
    5205                      .dwattr $C$DW$T$209, DW_AT_type(*$C$DW$T$49)
    5206                      .dwattr $C$DW$T$209, DW_AT_language(DW_LANG_C)
    5207              $C$DW$T$210     .dwtag  DW_TAG_pointer_type
    5208                      .dwattr $C$DW$T$210, DW_AT_type(*$C$DW$T$49)
    5209                      .dwattr $C$DW$T$210, DW_AT_address_class(0x20)
    5210              $C$DW$T$211     .dwtag  DW_TAG_typedef, DW_AT_name("CLARKE_Handle")
    5211                      .dwattr $C$DW$T$211, DW_AT_type(*$C$DW$T$210)
    5212                      .dwattr $C$DW$T$211, DW_AT_language(DW_LANG_C)
    5213              $C$DW$746       .dwtag  DW_TAG_TI_far_type
    5214                      .dwattr $C$DW$746, DW_AT_type(*$C$DW$T$211)
    5215              $C$DW$T$212     .dwtag  DW_TAG_const_type
    5216                      .dwattr $C$DW$T$212, DW_AT_type(*$C$DW$746)
    5217              
    5218              $C$DW$T$51      .dwtag  DW_TAG_structure_type
    5219                      .dwattr $C$DW$T$51, DW_AT_name("_CLK_Obj_")
    5220                      .dwattr $C$DW$T$51, DW_AT_byte_size(0x11)
    5221              $C$DW$747       .dwtag  DW_TAG_member
    5222                      .dwattr $C$DW$747, DW_AT_type(*$C$DW$T$39)
    5223                      .dwattr $C$DW$747, DW_AT_name("XCLK")
    5224                      .dwattr $C$DW$747, DW_AT_TI_symbol_name("_XCLK")
    5225                      .dwattr $C$DW$747, DW_AT_data_member_location[DW_OP_plus_uconst 0x0]
    5226                      .dwattr $C$DW$747, DW_AT_accessibility(DW_ACCESS_public)
    5227              $C$DW$748       .dwtag  DW_TAG_member
    5228                      .dwattr $C$DW$748, DW_AT_type(*$C$DW$T$39)
    5229                      .dwattr $C$DW$748, DW_AT_name("rsvd_1")
    5230                      .dwattr $C$DW$748, DW_AT_TI_symbol_name("_rsvd_1")
    5231                      .dwattr $C$DW$748, DW_AT_data_member_location[DW_OP_plus_uconst 0x1]
    5232                      .dwattr $C$DW$748, DW_AT_accessibility(DW_ACCESS_public)
    5233              $C$DW$749       .dwtag  DW_TAG_member
    5234                      .dwattr $C$DW$749, DW_AT_type(*$C$DW$T$39)
    5235                      .dwattr $C$DW$749, DW_AT_name("CLKCTL")
TMS320C2000 Assembler PC v6.4.10 Mon Jul 11 12:58:57 2016

Tools Copyright (c) 1996-2015 Texas Instruments Incorporated
C:\Users\bee25\AppData\Local\Temp\0350410                            PAGE  105

    5236                      .dwattr $C$DW$749, DW_AT_TI_symbol_name("_CLKCTL")
    5237                      .dwattr $C$DW$749, DW_AT_data_member_location[DW_OP_plus_uconst 0x2]
    5238                      .dwattr $C$DW$749, DW_AT_accessibility(DW_ACCESS_public)
    5239              $C$DW$750       .dwtag  DW_TAG_member
    5240                      .dwattr $C$DW$750, DW_AT_type(*$C$DW$T$50)
    5241                      .dwattr $C$DW$750, DW_AT_name("rsvd_2")
    5242                      .dwattr $C$DW$750, DW_AT_TI_symbol_name("_rsvd_2")
    5243                      .dwattr $C$DW$750, DW_AT_data_member_location[DW_OP_plus_uconst 0x3]
    5244                      .dwattr $C$DW$750, DW_AT_accessibility(DW_ACCESS_public)
    5245              $C$DW$751       .dwtag  DW_TAG_member
    5246                      .dwattr $C$DW$751, DW_AT_type(*$C$DW$T$39)
    5247                      .dwattr $C$DW$751, DW_AT_name("LOSPCP")
    5248                      .dwattr $C$DW$751, DW_AT_TI_symbol_name("_LOSPCP")
    5249                      .dwattr $C$DW$751, DW_AT_data_member_location[DW_OP_plus_uconst 0xb]
    5250                      .dwattr $C$DW$751, DW_AT_accessibility(DW_ACCESS_public)
    5251              $C$DW$752       .dwtag  DW_TAG_member
    5252                      .dwattr $C$DW$752, DW_AT_type(*$C$DW$T$39)
    5253                      .dwattr $C$DW$752, DW_AT_name("PCLKCR0")
    5254                      .dwattr $C$DW$752, DW_AT_TI_symbol_name("_PCLKCR0")
    5255                      .dwattr $C$DW$752, DW_AT_data_member_location[DW_OP_plus_uconst 0xc]
    5256                      .dwattr $C$DW$752, DW_AT_accessibility(DW_ACCESS_public)
    5257              $C$DW$753       .dwtag  DW_TAG_member
    5258                      .dwattr $C$DW$753, DW_AT_type(*$C$DW$T$39)
    5259                      .dwattr $C$DW$753, DW_AT_name("PCLKCR1")
    5260                      .dwattr $C$DW$753, DW_AT_TI_symbol_name("_PCLKCR1")
    5261                      .dwattr $C$DW$753, DW_AT_data_member_location[DW_OP_plus_uconst 0xd]
    5262                      .dwattr $C$DW$753, DW_AT_accessibility(DW_ACCESS_public)
    5263              $C$DW$754       .dwtag  DW_TAG_member
    5264                      .dwattr $C$DW$754, DW_AT_type(*$C$DW$T$42)
    5265                      .dwattr $C$DW$754, DW_AT_name("rsvd_3")
    5266                      .dwattr $C$DW$754, DW_AT_TI_symbol_name("_rsvd_3")
    5267                      .dwattr $C$DW$754, DW_AT_data_member_location[DW_OP_plus_uconst 0xe]
    5268                      .dwattr $C$DW$754, DW_AT_accessibility(DW_ACCESS_public)
    5269              $C$DW$755       .dwtag  DW_TAG_member
    5270                      .dwattr $C$DW$755, DW_AT_type(*$C$DW$T$39)
    5271                      .dwattr $C$DW$755, DW_AT_name("PCLKCR3")
    5272                      .dwattr $C$DW$755, DW_AT_TI_symbol_name("_PCLKCR3")
    5273                      .dwattr $C$DW$755, DW_AT_data_member_location[DW_OP_plus_uconst 0x10]
    5274                      .dwattr $C$DW$755, DW_AT_accessibility(DW_ACCESS_public)
    5275                      .dwendtag $C$DW$T$51
    5276              
    5277              $C$DW$T$102     .dwtag  DW_TAG_pointer_type
    5278                      .dwattr $C$DW$T$102, DW_AT_type(*$C$DW$T$51)
    5279                      .dwattr $C$DW$T$102, DW_AT_address_class(0x20)
    5280              $C$DW$T$103     .dwtag  DW_TAG_typedef, DW_AT_name("CLK_Handle")
    5281                      .dwattr $C$DW$T$103, DW_AT_type(*$C$DW$T$102)
    5282                      .dwattr $C$DW$T$103, DW_AT_language(DW_LANG_C)
    5283              
    5284              $C$DW$T$52      .dwtag  DW_TAG_structure_type
    5285                      .dwattr $C$DW$T$52, DW_AT_name("_CPU_Obj_")
    5286                      .dwattr $C$DW$T$52, DW_AT_byte_size(0x01)
    5287              $C$DW$756       .dwtag  DW_TAG_member
    5288                      .dwattr $C$DW$756, DW_AT_type(*$C$DW$T$48)
    5289                      .dwattr $C$DW$756, DW_AT_name("tmp")
    5290                      .dwattr $C$DW$756, DW_AT_TI_symbol_name("_tmp")
TMS320C2000 Assembler PC v6.4.10 Mon Jul 11 12:58:57 2016

Tools Copyright (c) 1996-2015 Texas Instruments Incorporated
C:\Users\bee25\AppData\Local\Temp\0350410                            PAGE  106

    5291                      .dwattr $C$DW$756, DW_AT_data_member_location[DW_OP_plus_uconst 0x0]
    5292                      .dwattr $C$DW$756, DW_AT_accessibility(DW_ACCESS_public)
    5293                      .dwendtag $C$DW$T$52
    5294              
    5295              $C$DW$T$104     .dwtag  DW_TAG_pointer_type
    5296                      .dwattr $C$DW$T$104, DW_AT_type(*$C$DW$T$52)
    5297                      .dwattr $C$DW$T$104, DW_AT_address_class(0x20)
    5298              $C$DW$T$105     .dwtag  DW_TAG_typedef, DW_AT_name("CPU_Handle")
    5299                      .dwattr $C$DW$T$105, DW_AT_type(*$C$DW$T$104)
    5300                      .dwattr $C$DW$T$105, DW_AT_language(DW_LANG_C)
    5301              
    5302              $C$DW$T$55      .dwtag  DW_TAG_structure_type
    5303                      .dwattr $C$DW$T$55, DW_AT_name("_CTRL_Version_")
    5304                      .dwattr $C$DW$T$55, DW_AT_byte_size(0x04)
    5305              $C$DW$757       .dwtag  DW_TAG_member
    5306                      .dwattr $C$DW$757, DW_AT_type(*$C$DW$T$22)
    5307                      .dwattr $C$DW$757, DW_AT_name("rsvd")
    5308                      .dwattr $C$DW$757, DW_AT_TI_symbol_name("_rsvd")
    5309                      .dwattr $C$DW$757, DW_AT_data_member_location[DW_OP_plus_uconst 0x0]
    5310                      .dwattr $C$DW$757, DW_AT_accessibility(DW_ACCESS_public)
    5311              $C$DW$758       .dwtag  DW_TAG_member
    5312                      .dwattr $C$DW$758, DW_AT_type(*$C$DW$T$54)
    5313                      .dwattr $C$DW$758, DW_AT_name("targetProc")
    5314                      .dwattr $C$DW$758, DW_AT_TI_symbol_name("_targetProc")
    5315                      .dwattr $C$DW$758, DW_AT_data_member_location[DW_OP_plus_uconst 0x1]
    5316                      .dwattr $C$DW$758, DW_AT_accessibility(DW_ACCESS_public)
    5317              $C$DW$759       .dwtag  DW_TAG_member
    5318                      .dwattr $C$DW$759, DW_AT_type(*$C$DW$T$22)
    5319                      .dwattr $C$DW$759, DW_AT_name("major")
    5320                      .dwattr $C$DW$759, DW_AT_TI_symbol_name("_major")
    5321                      .dwattr $C$DW$759, DW_AT_data_member_location[DW_OP_plus_uconst 0x2]
    5322                      .dwattr $C$DW$759, DW_AT_accessibility(DW_ACCESS_public)
    5323              $C$DW$760       .dwtag  DW_TAG_member
    5324                      .dwattr $C$DW$760, DW_AT_type(*$C$DW$T$22)
    5325                      .dwattr $C$DW$760, DW_AT_name("minor")
    5326                      .dwattr $C$DW$760, DW_AT_TI_symbol_name("_minor")
    5327                      .dwattr $C$DW$760, DW_AT_data_member_location[DW_OP_plus_uconst 0x3]
    5328                      .dwattr $C$DW$760, DW_AT_accessibility(DW_ACCESS_public)
    5329                      .dwendtag $C$DW$T$55
    5330              
    5331              $C$DW$T$152     .dwtag  DW_TAG_typedef, DW_AT_name("CTRL_Version")
    5332                      .dwattr $C$DW$T$152, DW_AT_type(*$C$DW$T$55)
    5333                      .dwattr $C$DW$T$152, DW_AT_language(DW_LANG_C)
    5334              
    5335              $C$DW$T$63      .dwtag  DW_TAG_structure_type
    5336                      .dwattr $C$DW$T$63, DW_AT_name("_DRV8301_Obj_")
    5337                      .dwattr $C$DW$T$63, DW_AT_byte_size(0x08)
    5338              $C$DW$761       .dwtag  DW_TAG_member
    5339                      .dwattr $C$DW$761, DW_AT_type(*$C$DW$T$57)
    5340                      .dwattr $C$DW$761, DW_AT_name("spiHandle")
    5341                      .dwattr $C$DW$761, DW_AT_TI_symbol_name("_spiHandle")
    5342                      .dwattr $C$DW$761, DW_AT_data_member_location[DW_OP_plus_uconst 0x0]
    5343                      .dwattr $C$DW$761, DW_AT_accessibility(DW_ACCESS_public)
    5344              $C$DW$762       .dwtag  DW_TAG_member
    5345                      .dwattr $C$DW$762, DW_AT_type(*$C$DW$T$59)
TMS320C2000 Assembler PC v6.4.10 Mon Jul 11 12:58:57 2016

Tools Copyright (c) 1996-2015 Texas Instruments Incorporated
C:\Users\bee25\AppData\Local\Temp\0350410                            PAGE  107

    5346                      .dwattr $C$DW$762, DW_AT_name("gpioHandle")
    5347                      .dwattr $C$DW$762, DW_AT_TI_symbol_name("_gpioHandle")
    5348                      .dwattr $C$DW$762, DW_AT_data_member_location[DW_OP_plus_uconst 0x2]
    5349                      .dwattr $C$DW$762, DW_AT_accessibility(DW_ACCESS_public)
    5350              $C$DW$763       .dwtag  DW_TAG_member
    5351                      .dwattr $C$DW$763, DW_AT_type(*$C$DW$T$61)
    5352                      .dwattr $C$DW$763, DW_AT_name("gpioNumber")
    5353                      .dwattr $C$DW$763, DW_AT_TI_symbol_name("_gpioNumber")
    5354                      .dwattr $C$DW$763, DW_AT_data_member_location[DW_OP_plus_uconst 0x4]
    5355                      .dwattr $C$DW$763, DW_AT_accessibility(DW_ACCESS_public)
    5356              $C$DW$764       .dwtag  DW_TAG_member
    5357                      .dwattr $C$DW$764, DW_AT_type(*$C$DW$T$62)
    5358                      .dwattr $C$DW$764, DW_AT_name("RxTimeOut")
    5359                      .dwattr $C$DW$764, DW_AT_TI_symbol_name("_RxTimeOut")
    5360                      .dwattr $C$DW$764, DW_AT_data_member_location[DW_OP_plus_uconst 0x5]
    5361                      .dwattr $C$DW$764, DW_AT_accessibility(DW_ACCESS_public)
    5362              $C$DW$765       .dwtag  DW_TAG_member
    5363                      .dwattr $C$DW$765, DW_AT_type(*$C$DW$T$62)
    5364                      .dwattr $C$DW$765, DW_AT_name("enableTimeOut")
    5365                      .dwattr $C$DW$765, DW_AT_TI_symbol_name("_enableTimeOut")
    5366                      .dwattr $C$DW$765, DW_AT_data_member_location[DW_OP_plus_uconst 0x6]
    5367                      .dwattr $C$DW$765, DW_AT_accessibility(DW_ACCESS_public)
    5368                      .dwendtag $C$DW$T$63
    5369              
    5370              $C$DW$T$133     .dwtag  DW_TAG_typedef, DW_AT_name("DRV8301_Obj")
    5371                      .dwattr $C$DW$T$133, DW_AT_type(*$C$DW$T$63)
    5372                      .dwattr $C$DW$T$133, DW_AT_language(DW_LANG_C)
    5373              $C$DW$T$131     .dwtag  DW_TAG_pointer_type
    5374                      .dwattr $C$DW$T$131, DW_AT_type(*$C$DW$T$63)
    5375                      .dwattr $C$DW$T$131, DW_AT_address_class(0x20)
    5376              $C$DW$T$132     .dwtag  DW_TAG_typedef, DW_AT_name("DRV8301_Handle")
    5377                      .dwattr $C$DW$T$132, DW_AT_type(*$C$DW$T$131)
    5378                      .dwattr $C$DW$T$132, DW_AT_language(DW_LANG_C)
    5379              
    5380              $C$DW$T$74      .dwtag  DW_TAG_structure_type
    5381                      .dwattr $C$DW$T$74, DW_AT_name("_DRV_SPI_8301_CTRL1_t_")
    5382                      .dwattr $C$DW$T$74, DW_AT_byte_size(0x05)
    5383              $C$DW$766       .dwtag  DW_TAG_member
    5384                      .dwattr $C$DW$766, DW_AT_type(*$C$DW$T$65)
    5385                      .dwattr $C$DW$766, DW_AT_name("DRV8301_CURRENT")
    5386                      .dwattr $C$DW$766, DW_AT_TI_symbol_name("_DRV8301_CURRENT")
    5387                      .dwattr $C$DW$766, DW_AT_data_member_location[DW_OP_plus_uconst 0x0]
    5388                      .dwattr $C$DW$766, DW_AT_accessibility(DW_ACCESS_public)
    5389              $C$DW$767       .dwtag  DW_TAG_member
    5390                      .dwattr $C$DW$767, DW_AT_type(*$C$DW$T$67)
    5391                      .dwattr $C$DW$767, DW_AT_name("DRV8301_RESET")
    5392                      .dwattr $C$DW$767, DW_AT_TI_symbol_name("_DRV8301_RESET")
    5393                      .dwattr $C$DW$767, DW_AT_data_member_location[DW_OP_plus_uconst 0x1]
    5394                      .dwattr $C$DW$767, DW_AT_accessibility(DW_ACCESS_public)
    5395              $C$DW$768       .dwtag  DW_TAG_member
    5396                      .dwattr $C$DW$768, DW_AT_type(*$C$DW$T$69)
    5397                      .dwattr $C$DW$768, DW_AT_name("PWM_MODE")
    5398                      .dwattr $C$DW$768, DW_AT_TI_symbol_name("_PWM_MODE")
    5399                      .dwattr $C$DW$768, DW_AT_data_member_location[DW_OP_plus_uconst 0x2]
    5400                      .dwattr $C$DW$768, DW_AT_accessibility(DW_ACCESS_public)
TMS320C2000 Assembler PC v6.4.10 Mon Jul 11 12:58:57 2016

Tools Copyright (c) 1996-2015 Texas Instruments Incorporated
C:\Users\bee25\AppData\Local\Temp\0350410                            PAGE  108

    5401              $C$DW$769       .dwtag  DW_TAG_member
    5402                      .dwattr $C$DW$769, DW_AT_type(*$C$DW$T$71)
    5403                      .dwattr $C$DW$769, DW_AT_name("OC_MODE")
    5404                      .dwattr $C$DW$769, DW_AT_TI_symbol_name("_OC_MODE")
    5405                      .dwattr $C$DW$769, DW_AT_data_member_location[DW_OP_plus_uconst 0x3]
    5406                      .dwattr $C$DW$769, DW_AT_accessibility(DW_ACCESS_public)
    5407              $C$DW$770       .dwtag  DW_TAG_member
    5408                      .dwattr $C$DW$770, DW_AT_type(*$C$DW$T$73)
    5409                      .dwattr $C$DW$770, DW_AT_name("OC_ADJ_SET")
    5410                      .dwattr $C$DW$770, DW_AT_TI_symbol_name("_OC_ADJ_SET")
    5411                      .dwattr $C$DW$770, DW_AT_data_member_location[DW_OP_plus_uconst 0x4]
    5412                      .dwattr $C$DW$770, DW_AT_accessibility(DW_ACCESS_public)
    5413                      .dwendtag $C$DW$T$74
    5414              
    5415              $C$DW$T$88      .dwtag  DW_TAG_typedef, DW_AT_name("DRV_SPI_8301_CTRL1_t_")
    5416                      .dwattr $C$DW$T$88, DW_AT_type(*$C$DW$T$74)
    5417                      .dwattr $C$DW$T$88, DW_AT_language(DW_LANG_C)
    5418              
    5419              $C$DW$T$83      .dwtag  DW_TAG_structure_type
    5420                      .dwattr $C$DW$T$83, DW_AT_name("_DRV_SPI_8301_CTRL2_t_")
    5421                      .dwattr $C$DW$T$83, DW_AT_byte_size(0x04)
    5422              $C$DW$771       .dwtag  DW_TAG_member
    5423                      .dwattr $C$DW$771, DW_AT_type(*$C$DW$T$76)
    5424                      .dwattr $C$DW$771, DW_AT_name("OCTW_SET")
    5425                      .dwattr $C$DW$771, DW_AT_TI_symbol_name("_OCTW_SET")
    5426                      .dwattr $C$DW$771, DW_AT_data_member_location[DW_OP_plus_uconst 0x0]
    5427                      .dwattr $C$DW$771, DW_AT_accessibility(DW_ACCESS_public)
    5428              $C$DW$772       .dwtag  DW_TAG_member
    5429                      .dwattr $C$DW$772, DW_AT_type(*$C$DW$T$78)
    5430                      .dwattr $C$DW$772, DW_AT_name("GAIN")
    5431                      .dwattr $C$DW$772, DW_AT_TI_symbol_name("_GAIN")
    5432                      .dwattr $C$DW$772, DW_AT_data_member_location[DW_OP_plus_uconst 0x1]
    5433                      .dwattr $C$DW$772, DW_AT_accessibility(DW_ACCESS_public)
    5434              $C$DW$773       .dwtag  DW_TAG_member
    5435                      .dwattr $C$DW$773, DW_AT_type(*$C$DW$T$80)
    5436                      .dwattr $C$DW$773, DW_AT_name("DC_CAL_CH1p2")
    5437                      .dwattr $C$DW$773, DW_AT_TI_symbol_name("_DC_CAL_CH1p2")
    5438                      .dwattr $C$DW$773, DW_AT_data_member_location[DW_OP_plus_uconst 0x2]
    5439                      .dwattr $C$DW$773, DW_AT_accessibility(DW_ACCESS_public)
    5440              $C$DW$774       .dwtag  DW_TAG_member
    5441                      .dwattr $C$DW$774, DW_AT_type(*$C$DW$T$82)
    5442                      .dwattr $C$DW$774, DW_AT_name("OC_TOFF")
    5443                      .dwattr $C$DW$774, DW_AT_TI_symbol_name("_OC_TOFF")
    5444                      .dwattr $C$DW$774, DW_AT_data_member_location[DW_OP_plus_uconst 0x3]
    5445                      .dwattr $C$DW$774, DW_AT_accessibility(DW_ACCESS_public)
    5446                      .dwendtag $C$DW$T$83
    5447              
    5448              $C$DW$T$89      .dwtag  DW_TAG_typedef, DW_AT_name("DRV_SPI_8301_CTRL2_t_")
    5449                      .dwattr $C$DW$T$89, DW_AT_type(*$C$DW$T$83)
    5450                      .dwattr $C$DW$T$89, DW_AT_language(DW_LANG_C)
    5451              
    5452              $C$DW$T$84      .dwtag  DW_TAG_structure_type
    5453                      .dwattr $C$DW$T$84, DW_AT_name("_DRV_SPI_8301_Stat1_t_")
    5454                      .dwattr $C$DW$T$84, DW_AT_byte_size(0x0b)
    5455              $C$DW$775       .dwtag  DW_TAG_member
TMS320C2000 Assembler PC v6.4.10 Mon Jul 11 12:58:57 2016

Tools Copyright (c) 1996-2015 Texas Instruments Incorporated
C:\Users\bee25\AppData\Local\Temp\0350410                            PAGE  109

    5456                      .dwattr $C$DW$775, DW_AT_type(*$C$DW$T$62)
    5457                      .dwattr $C$DW$775, DW_AT_name("FAULT")
    5458                      .dwattr $C$DW$775, DW_AT_TI_symbol_name("_FAULT")
    5459                      .dwattr $C$DW$775, DW_AT_data_member_location[DW_OP_plus_uconst 0x0]
    5460                      .dwattr $C$DW$775, DW_AT_accessibility(DW_ACCESS_public)
    5461              $C$DW$776       .dwtag  DW_TAG_member
    5462                      .dwattr $C$DW$776, DW_AT_type(*$C$DW$T$62)
    5463                      .dwattr $C$DW$776, DW_AT_name("GVDD_UV")
    5464                      .dwattr $C$DW$776, DW_AT_TI_symbol_name("_GVDD_UV")
    5465                      .dwattr $C$DW$776, DW_AT_data_member_location[DW_OP_plus_uconst 0x1]
    5466                      .dwattr $C$DW$776, DW_AT_accessibility(DW_ACCESS_public)
    5467              $C$DW$777       .dwtag  DW_TAG_member
    5468                      .dwattr $C$DW$777, DW_AT_type(*$C$DW$T$62)
    5469                      .dwattr $C$DW$777, DW_AT_name("PVDD_UV")
    5470                      .dwattr $C$DW$777, DW_AT_TI_symbol_name("_PVDD_UV")
    5471                      .dwattr $C$DW$777, DW_AT_data_member_location[DW_OP_plus_uconst 0x2]
    5472                      .dwattr $C$DW$777, DW_AT_accessibility(DW_ACCESS_public)
    5473              $C$DW$778       .dwtag  DW_TAG_member
    5474                      .dwattr $C$DW$778, DW_AT_type(*$C$DW$T$62)
    5475                      .dwattr $C$DW$778, DW_AT_name("OTSD")
    5476                      .dwattr $C$DW$778, DW_AT_TI_symbol_name("_OTSD")
    5477                      .dwattr $C$DW$778, DW_AT_data_member_location[DW_OP_plus_uconst 0x3]
    5478                      .dwattr $C$DW$778, DW_AT_accessibility(DW_ACCESS_public)
    5479              $C$DW$779       .dwtag  DW_TAG_member
    5480                      .dwattr $C$DW$779, DW_AT_type(*$C$DW$T$62)
    5481                      .dwattr $C$DW$779, DW_AT_name("OTW")
    5482                      .dwattr $C$DW$779, DW_AT_TI_symbol_name("_OTW")
    5483                      .dwattr $C$DW$779, DW_AT_data_member_location[DW_OP_plus_uconst 0x4]
    5484                      .dwattr $C$DW$779, DW_AT_accessibility(DW_ACCESS_public)
    5485              $C$DW$780       .dwtag  DW_TAG_member
    5486                      .dwattr $C$DW$780, DW_AT_type(*$C$DW$T$62)
    5487                      .dwattr $C$DW$780, DW_AT_name("FETHA_OC")
    5488                      .dwattr $C$DW$780, DW_AT_TI_symbol_name("_FETHA_OC")
    5489                      .dwattr $C$DW$780, DW_AT_data_member_location[DW_OP_plus_uconst 0x5]
    5490                      .dwattr $C$DW$780, DW_AT_accessibility(DW_ACCESS_public)
    5491              $C$DW$781       .dwtag  DW_TAG_member
    5492                      .dwattr $C$DW$781, DW_AT_type(*$C$DW$T$62)
    5493                      .dwattr $C$DW$781, DW_AT_name("FETLA_OC")
    5494                      .dwattr $C$DW$781, DW_AT_TI_symbol_name("_FETLA_OC")
    5495                      .dwattr $C$DW$781, DW_AT_data_member_location[DW_OP_plus_uconst 0x6]
    5496                      .dwattr $C$DW$781, DW_AT_accessibility(DW_ACCESS_public)
    5497              $C$DW$782       .dwtag  DW_TAG_member
    5498                      .dwattr $C$DW$782, DW_AT_type(*$C$DW$T$62)
    5499                      .dwattr $C$DW$782, DW_AT_name("FETHB_OC")
    5500                      .dwattr $C$DW$782, DW_AT_TI_symbol_name("_FETHB_OC")
    5501                      .dwattr $C$DW$782, DW_AT_data_member_location[DW_OP_plus_uconst 0x7]
    5502                      .dwattr $C$DW$782, DW_AT_accessibility(DW_ACCESS_public)
    5503              $C$DW$783       .dwtag  DW_TAG_member
    5504                      .dwattr $C$DW$783, DW_AT_type(*$C$DW$T$62)
    5505                      .dwattr $C$DW$783, DW_AT_name("FETLB_OC")
    5506                      .dwattr $C$DW$783, DW_AT_TI_symbol_name("_FETLB_OC")
    5507                      .dwattr $C$DW$783, DW_AT_data_member_location[DW_OP_plus_uconst 0x8]
    5508                      .dwattr $C$DW$783, DW_AT_accessibility(DW_ACCESS_public)
    5509              $C$DW$784       .dwtag  DW_TAG_member
    5510                      .dwattr $C$DW$784, DW_AT_type(*$C$DW$T$62)
TMS320C2000 Assembler PC v6.4.10 Mon Jul 11 12:58:57 2016

Tools Copyright (c) 1996-2015 Texas Instruments Incorporated
C:\Users\bee25\AppData\Local\Temp\0350410                            PAGE  110

    5511                      .dwattr $C$DW$784, DW_AT_name("FETHC_OC")
    5512                      .dwattr $C$DW$784, DW_AT_TI_symbol_name("_FETHC_OC")
    5513                      .dwattr $C$DW$784, DW_AT_data_member_location[DW_OP_plus_uconst 0x9]
    5514                      .dwattr $C$DW$784, DW_AT_accessibility(DW_ACCESS_public)
    5515              $C$DW$785       .dwtag  DW_TAG_member
    5516                      .dwattr $C$DW$785, DW_AT_type(*$C$DW$T$62)
    5517                      .dwattr $C$DW$785, DW_AT_name("FETLC_OC")
    5518                      .dwattr $C$DW$785, DW_AT_TI_symbol_name("_FETLC_OC")
    5519                      .dwattr $C$DW$785, DW_AT_data_member_location[DW_OP_plus_uconst 0xa]
    5520                      .dwattr $C$DW$785, DW_AT_accessibility(DW_ACCESS_public)
    5521                      .dwendtag $C$DW$T$84
    5522              
    5523              $C$DW$T$86      .dwtag  DW_TAG_typedef, DW_AT_name("DRV_SPI_8301_Stat1_t_")
    5524                      .dwattr $C$DW$T$86, DW_AT_type(*$C$DW$T$84)
    5525                      .dwattr $C$DW$T$86, DW_AT_language(DW_LANG_C)
    5526              
    5527              $C$DW$T$85      .dwtag  DW_TAG_structure_type
    5528                      .dwattr $C$DW$T$85, DW_AT_name("_DRV_SPI_8301_Stat2_t_")
    5529                      .dwattr $C$DW$T$85, DW_AT_byte_size(0x02)
    5530              $C$DW$786       .dwtag  DW_TAG_member
    5531                      .dwattr $C$DW$786, DW_AT_type(*$C$DW$T$62)
    5532                      .dwattr $C$DW$786, DW_AT_name("GVDD_OV")
    5533                      .dwattr $C$DW$786, DW_AT_TI_symbol_name("_GVDD_OV")
    5534                      .dwattr $C$DW$786, DW_AT_data_member_location[DW_OP_plus_uconst 0x0]
    5535                      .dwattr $C$DW$786, DW_AT_accessibility(DW_ACCESS_public)
    5536              $C$DW$787       .dwtag  DW_TAG_member
    5537                      .dwattr $C$DW$787, DW_AT_type(*$C$DW$T$22)
    5538                      .dwattr $C$DW$787, DW_AT_name("DeviceID")
    5539                      .dwattr $C$DW$787, DW_AT_TI_symbol_name("_DeviceID")
    5540                      .dwattr $C$DW$787, DW_AT_data_member_location[DW_OP_plus_uconst 0x1]
    5541                      .dwattr $C$DW$787, DW_AT_accessibility(DW_ACCESS_public)
    5542                      .dwendtag $C$DW$T$85
    5543              
    5544              $C$DW$T$87      .dwtag  DW_TAG_typedef, DW_AT_name("DRV_SPI_8301_Stat2_t_")
    5545                      .dwattr $C$DW$T$87, DW_AT_type(*$C$DW$T$85)
    5546                      .dwattr $C$DW$T$87, DW_AT_language(DW_LANG_C)
    5547              
    5548              $C$DW$T$90      .dwtag  DW_TAG_structure_type
    5549                      .dwattr $C$DW$T$90, DW_AT_name("_DRV_SPI_8301_Vars_t_")
    5550                      .dwattr $C$DW$T$90, DW_AT_byte_size(0x18)
    5551              $C$DW$788       .dwtag  DW_TAG_member
    5552                      .dwattr $C$DW$788, DW_AT_type(*$C$DW$T$86)
    5553                      .dwattr $C$DW$788, DW_AT_name("Stat_Reg_1")
    5554                      .dwattr $C$DW$788, DW_AT_TI_symbol_name("_Stat_Reg_1")
    5555                      .dwattr $C$DW$788, DW_AT_data_member_location[DW_OP_plus_uconst 0x0]
    5556                      .dwattr $C$DW$788, DW_AT_accessibility(DW_ACCESS_public)
    5557              $C$DW$789       .dwtag  DW_TAG_member
    5558                      .dwattr $C$DW$789, DW_AT_type(*$C$DW$T$87)
    5559                      .dwattr $C$DW$789, DW_AT_name("Stat_Reg_2")
    5560                      .dwattr $C$DW$789, DW_AT_TI_symbol_name("_Stat_Reg_2")
    5561                      .dwattr $C$DW$789, DW_AT_data_member_location[DW_OP_plus_uconst 0xb]
    5562                      .dwattr $C$DW$789, DW_AT_accessibility(DW_ACCESS_public)
    5563              $C$DW$790       .dwtag  DW_TAG_member
    5564                      .dwattr $C$DW$790, DW_AT_type(*$C$DW$T$88)
    5565                      .dwattr $C$DW$790, DW_AT_name("Ctrl_Reg_1")
TMS320C2000 Assembler PC v6.4.10 Mon Jul 11 12:58:57 2016

Tools Copyright (c) 1996-2015 Texas Instruments Incorporated
C:\Users\bee25\AppData\Local\Temp\0350410                            PAGE  111

    5566                      .dwattr $C$DW$790, DW_AT_TI_symbol_name("_Ctrl_Reg_1")
    5567                      .dwattr $C$DW$790, DW_AT_data_member_location[DW_OP_plus_uconst 0xd]
    5568                      .dwattr $C$DW$790, DW_AT_accessibility(DW_ACCESS_public)
    5569              $C$DW$791       .dwtag  DW_TAG_member
    5570                      .dwattr $C$DW$791, DW_AT_type(*$C$DW$T$89)
    5571                      .dwattr $C$DW$791, DW_AT_name("Ctrl_Reg_2")
    5572                      .dwattr $C$DW$791, DW_AT_TI_symbol_name("_Ctrl_Reg_2")
    5573                      .dwattr $C$DW$791, DW_AT_data_member_location[DW_OP_plus_uconst 0x12]
    5574                      .dwattr $C$DW$791, DW_AT_accessibility(DW_ACCESS_public)
    5575              $C$DW$792       .dwtag  DW_TAG_member
    5576                      .dwattr $C$DW$792, DW_AT_type(*$C$DW$T$62)
    5577                      .dwattr $C$DW$792, DW_AT_name("SndCmd")
    5578                      .dwattr $C$DW$792, DW_AT_TI_symbol_name("_SndCmd")
    5579                      .dwattr $C$DW$792, DW_AT_data_member_location[DW_OP_plus_uconst 0x16]
    5580                      .dwattr $C$DW$792, DW_AT_accessibility(DW_ACCESS_public)
    5581              $C$DW$793       .dwtag  DW_TAG_member
    5582                      .dwattr $C$DW$793, DW_AT_type(*$C$DW$T$62)
    5583                      .dwattr $C$DW$793, DW_AT_name("RcvCmd")
    5584                      .dwattr $C$DW$793, DW_AT_TI_symbol_name("_RcvCmd")
    5585                      .dwattr $C$DW$793, DW_AT_data_member_location[DW_OP_plus_uconst 0x17]
    5586                      .dwattr $C$DW$793, DW_AT_accessibility(DW_ACCESS_public)
    5587                      .dwendtag $C$DW$T$90
    5588              
    5589              $C$DW$T$219     .dwtag  DW_TAG_typedef, DW_AT_name("DRV_SPI_8301_Vars_t")
    5590                      .dwattr $C$DW$T$219, DW_AT_type(*$C$DW$T$90)
    5591                      .dwattr $C$DW$T$219, DW_AT_language(DW_LANG_C)
    5592              $C$DW$T$220     .dwtag  DW_TAG_pointer_type
    5593                      .dwattr $C$DW$T$220, DW_AT_type(*$C$DW$T$219)
    5594                      .dwattr $C$DW$T$220, DW_AT_address_class(0x20)
    5595              
    5596              $C$DW$T$19      .dwtag  DW_TAG_structure_type
    5597                      .dwattr $C$DW$T$19, DW_AT_name("_EST_Obj_")
    5598                      .dwattr $C$DW$T$19, DW_AT_declaration
    5599                      .dwendtag $C$DW$T$19
    5600              
    5601              $C$DW$T$189     .dwtag  DW_TAG_pointer_type
    5602                      .dwattr $C$DW$T$189, DW_AT_type(*$C$DW$T$19)
    5603                      .dwattr $C$DW$T$189, DW_AT_address_class(0x20)
    5604              $C$DW$T$190     .dwtag  DW_TAG_typedef, DW_AT_name("EST_Handle")
    5605                      .dwattr $C$DW$T$190, DW_AT_type(*$C$DW$T$189)
    5606                      .dwattr $C$DW$T$190, DW_AT_language(DW_LANG_C)
    5607              $C$DW$794       .dwtag  DW_TAG_TI_far_type
    5608                      .dwattr $C$DW$794, DW_AT_type(*$C$DW$T$190)
    5609              $C$DW$T$222     .dwtag  DW_TAG_const_type
    5610                      .dwattr $C$DW$T$222, DW_AT_type(*$C$DW$794)
    5611              
    5612              $C$DW$T$91      .dwtag  DW_TAG_structure_type
    5613                      .dwattr $C$DW$T$91, DW_AT_name("_FILTER_FO_")
    5614                      .dwattr $C$DW$T$91, DW_AT_byte_size(0x0a)
    5615              $C$DW$795       .dwtag  DW_TAG_member
    5616                      .dwattr $C$DW$795, DW_AT_type(*$C$DW$T$47)
    5617                      .dwattr $C$DW$795, DW_AT_name("a1")
    5618                      .dwattr $C$DW$795, DW_AT_TI_symbol_name("_a1")
    5619                      .dwattr $C$DW$795, DW_AT_data_member_location[DW_OP_plus_uconst 0x0]
    5620                      .dwattr $C$DW$795, DW_AT_accessibility(DW_ACCESS_public)
TMS320C2000 Assembler PC v6.4.10 Mon Jul 11 12:58:57 2016

Tools Copyright (c) 1996-2015 Texas Instruments Incorporated
C:\Users\bee25\AppData\Local\Temp\0350410                            PAGE  112

    5621              $C$DW$796       .dwtag  DW_TAG_member
    5622                      .dwattr $C$DW$796, DW_AT_type(*$C$DW$T$47)
    5623                      .dwattr $C$DW$796, DW_AT_name("b0")
    5624                      .dwattr $C$DW$796, DW_AT_TI_symbol_name("_b0")
    5625                      .dwattr $C$DW$796, DW_AT_data_member_location[DW_OP_plus_uconst 0x2]
    5626                      .dwattr $C$DW$796, DW_AT_accessibility(DW_ACCESS_public)
    5627              $C$DW$797       .dwtag  DW_TAG_member
    5628                      .dwattr $C$DW$797, DW_AT_type(*$C$DW$T$47)
    5629                      .dwattr $C$DW$797, DW_AT_name("b1")
    5630                      .dwattr $C$DW$797, DW_AT_TI_symbol_name("_b1")
    5631                      .dwattr $C$DW$797, DW_AT_data_member_location[DW_OP_plus_uconst 0x4]
    5632                      .dwattr $C$DW$797, DW_AT_accessibility(DW_ACCESS_public)
    5633              $C$DW$798       .dwtag  DW_TAG_member
    5634                      .dwattr $C$DW$798, DW_AT_type(*$C$DW$T$47)
    5635                      .dwattr $C$DW$798, DW_AT_name("x1")
    5636                      .dwattr $C$DW$798, DW_AT_TI_symbol_name("_x1")
    5637                      .dwattr $C$DW$798, DW_AT_data_member_location[DW_OP_plus_uconst 0x6]
    5638                      .dwattr $C$DW$798, DW_AT_accessibility(DW_ACCESS_public)
    5639              $C$DW$799       .dwtag  DW_TAG_member
    5640                      .dwattr $C$DW$799, DW_AT_type(*$C$DW$T$47)
    5641                      .dwattr $C$DW$799, DW_AT_name("y1")
    5642                      .dwattr $C$DW$799, DW_AT_TI_symbol_name("_y1")
    5643                      .dwattr $C$DW$799, DW_AT_data_member_location[DW_OP_plus_uconst 0x8]
    5644                      .dwattr $C$DW$799, DW_AT_accessibility(DW_ACCESS_public)
    5645                      .dwendtag $C$DW$T$91
    5646              
    5647              $C$DW$T$155     .dwtag  DW_TAG_typedef, DW_AT_name("FILTER_FO_Obj")
    5648                      .dwattr $C$DW$T$155, DW_AT_type(*$C$DW$T$91)
    5649                      .dwattr $C$DW$T$155, DW_AT_language(DW_LANG_C)
    5650              
    5651              $C$DW$T$20      .dwtag  DW_TAG_structure_type
    5652                      .dwattr $C$DW$T$20, DW_AT_name("_FILTER_FO_Obj_")
    5653                      .dwattr $C$DW$T$20, DW_AT_declaration
    5654                      .dwendtag $C$DW$T$20
    5655              
    5656              $C$DW$T$156     .dwtag  DW_TAG_pointer_type
    5657                      .dwattr $C$DW$T$156, DW_AT_type(*$C$DW$T$20)
    5658                      .dwattr $C$DW$T$156, DW_AT_address_class(0x20)
    5659              $C$DW$T$157     .dwtag  DW_TAG_typedef, DW_AT_name("FILTER_FO_Handle")
    5660                      .dwattr $C$DW$T$157, DW_AT_type(*$C$DW$T$156)
    5661                      .dwattr $C$DW$T$157, DW_AT_language(DW_LANG_C)
    5662              
    5663              $C$DW$T$92      .dwtag  DW_TAG_structure_type
    5664                      .dwattr $C$DW$T$92, DW_AT_name("_FLASH_Obj_")
    5665                      .dwattr $C$DW$T$92, DW_AT_byte_size(0x08)
    5666              $C$DW$800       .dwtag  DW_TAG_member
    5667                      .dwattr $C$DW$800, DW_AT_type(*$C$DW$T$39)
    5668                      .dwattr $C$DW$800, DW_AT_name("FOPT")
    5669                      .dwattr $C$DW$800, DW_AT_TI_symbol_name("_FOPT")
    5670                      .dwattr $C$DW$800, DW_AT_data_member_location[DW_OP_plus_uconst 0x0]
    5671                      .dwattr $C$DW$800, DW_AT_accessibility(DW_ACCESS_public)
    5672              $C$DW$801       .dwtag  DW_TAG_member
    5673                      .dwattr $C$DW$801, DW_AT_type(*$C$DW$T$39)
    5674                      .dwattr $C$DW$801, DW_AT_name("rsvd_1")
    5675                      .dwattr $C$DW$801, DW_AT_TI_symbol_name("_rsvd_1")
TMS320C2000 Assembler PC v6.4.10 Mon Jul 11 12:58:57 2016

Tools Copyright (c) 1996-2015 Texas Instruments Incorporated
C:\Users\bee25\AppData\Local\Temp\0350410                            PAGE  113

    5676                      .dwattr $C$DW$801, DW_AT_data_member_location[DW_OP_plus_uconst 0x1]
    5677                      .dwattr $C$DW$801, DW_AT_accessibility(DW_ACCESS_public)
    5678              $C$DW$802       .dwtag  DW_TAG_member
    5679                      .dwattr $C$DW$802, DW_AT_type(*$C$DW$T$39)
    5680                      .dwattr $C$DW$802, DW_AT_name("FPWR")
    5681                      .dwattr $C$DW$802, DW_AT_TI_symbol_name("_FPWR")
    5682                      .dwattr $C$DW$802, DW_AT_data_member_location[DW_OP_plus_uconst 0x2]
    5683                      .dwattr $C$DW$802, DW_AT_accessibility(DW_ACCESS_public)
    5684              $C$DW$803       .dwtag  DW_TAG_member
    5685                      .dwattr $C$DW$803, DW_AT_type(*$C$DW$T$39)
    5686                      .dwattr $C$DW$803, DW_AT_name("FSTATUS")
    5687                      .dwattr $C$DW$803, DW_AT_TI_symbol_name("_FSTATUS")
    5688                      .dwattr $C$DW$803, DW_AT_data_member_location[DW_OP_plus_uconst 0x3]
    5689                      .dwattr $C$DW$803, DW_AT_accessibility(DW_ACCESS_public)
    5690              $C$DW$804       .dwtag  DW_TAG_member
    5691                      .dwattr $C$DW$804, DW_AT_type(*$C$DW$T$39)
    5692                      .dwattr $C$DW$804, DW_AT_name("FSTDBYWAIT")
    5693                      .dwattr $C$DW$804, DW_AT_TI_symbol_name("_FSTDBYWAIT")
    5694                      .dwattr $C$DW$804, DW_AT_data_member_location[DW_OP_plus_uconst 0x4]
    5695                      .dwattr $C$DW$804, DW_AT_accessibility(DW_ACCESS_public)
    5696              $C$DW$805       .dwtag  DW_TAG_member
    5697                      .dwattr $C$DW$805, DW_AT_type(*$C$DW$T$39)
    5698                      .dwattr $C$DW$805, DW_AT_name("FACTIVEWAIT")
    5699                      .dwattr $C$DW$805, DW_AT_TI_symbol_name("_FACTIVEWAIT")
    5700                      .dwattr $C$DW$805, DW_AT_data_member_location[DW_OP_plus_uconst 0x5]
    5701                      .dwattr $C$DW$805, DW_AT_accessibility(DW_ACCESS_public)
    5702              $C$DW$806       .dwtag  DW_TAG_member
    5703                      .dwattr $C$DW$806, DW_AT_type(*$C$DW$T$39)
    5704                      .dwattr $C$DW$806, DW_AT_name("FBANKWAIT")
    5705                      .dwattr $C$DW$806, DW_AT_TI_symbol_name("_FBANKWAIT")
    5706                      .dwattr $C$DW$806, DW_AT_data_member_location[DW_OP_plus_uconst 0x6]
    5707                      .dwattr $C$DW$806, DW_AT_accessibility(DW_ACCESS_public)
    5708              $C$DW$807       .dwtag  DW_TAG_member
    5709                      .dwattr $C$DW$807, DW_AT_type(*$C$DW$T$39)
    5710                      .dwattr $C$DW$807, DW_AT_name("FOTPWAIT")
    5711                      .dwattr $C$DW$807, DW_AT_TI_symbol_name("_FOTPWAIT")
    5712                      .dwattr $C$DW$807, DW_AT_data_member_location[DW_OP_plus_uconst 0x7]
    5713                      .dwattr $C$DW$807, DW_AT_accessibility(DW_ACCESS_public)
    5714                      .dwendtag $C$DW$T$92
    5715              
    5716              $C$DW$T$106     .dwtag  DW_TAG_pointer_type
    5717                      .dwattr $C$DW$T$106, DW_AT_type(*$C$DW$T$92)
    5718                      .dwattr $C$DW$T$106, DW_AT_address_class(0x20)
    5719              $C$DW$T$107     .dwtag  DW_TAG_typedef, DW_AT_name("FLASH_Handle")
    5720                      .dwattr $C$DW$T$107, DW_AT_type(*$C$DW$T$106)
    5721                      .dwattr $C$DW$T$107, DW_AT_language(DW_LANG_C)
    5722              
    5723              $C$DW$T$97      .dwtag  DW_TAG_structure_type
    5724                      .dwattr $C$DW$T$97, DW_AT_name("_GPIO_Obj_")
    5725                      .dwattr $C$DW$T$97, DW_AT_byte_size(0x6a)
    5726              $C$DW$808       .dwtag  DW_TAG_member
    5727                      .dwattr $C$DW$808, DW_AT_type(*$C$DW$T$94)
    5728                      .dwattr $C$DW$808, DW_AT_name("GPACTRL")
    5729                      .dwattr $C$DW$808, DW_AT_TI_symbol_name("_GPACTRL")
    5730                      .dwattr $C$DW$808, DW_AT_data_member_location[DW_OP_plus_uconst 0x0]
TMS320C2000 Assembler PC v6.4.10 Mon Jul 11 12:58:57 2016

Tools Copyright (c) 1996-2015 Texas Instruments Incorporated
C:\Users\bee25\AppData\Local\Temp\0350410                            PAGE  114

    5731                      .dwattr $C$DW$808, DW_AT_accessibility(DW_ACCESS_public)
    5732              $C$DW$809       .dwtag  DW_TAG_member
    5733                      .dwattr $C$DW$809, DW_AT_type(*$C$DW$T$94)
    5734                      .dwattr $C$DW$809, DW_AT_name("GPAQSEL1")
    5735                      .dwattr $C$DW$809, DW_AT_TI_symbol_name("_GPAQSEL1")
    5736                      .dwattr $C$DW$809, DW_AT_data_member_location[DW_OP_plus_uconst 0x2]
    5737                      .dwattr $C$DW$809, DW_AT_accessibility(DW_ACCESS_public)
    5738              $C$DW$810       .dwtag  DW_TAG_member
    5739                      .dwattr $C$DW$810, DW_AT_type(*$C$DW$T$94)
    5740                      .dwattr $C$DW$810, DW_AT_name("GPAQSEL2")
    5741                      .dwattr $C$DW$810, DW_AT_TI_symbol_name("_GPAQSEL2")
    5742                      .dwattr $C$DW$810, DW_AT_data_member_location[DW_OP_plus_uconst 0x4]
    5743                      .dwattr $C$DW$810, DW_AT_accessibility(DW_ACCESS_public)
    5744              $C$DW$811       .dwtag  DW_TAG_member
    5745                      .dwattr $C$DW$811, DW_AT_type(*$C$DW$T$94)
    5746                      .dwattr $C$DW$811, DW_AT_name("GPAMUX1")
    5747                      .dwattr $C$DW$811, DW_AT_TI_symbol_name("_GPAMUX1")
    5748                      .dwattr $C$DW$811, DW_AT_data_member_location[DW_OP_plus_uconst 0x6]
    5749                      .dwattr $C$DW$811, DW_AT_accessibility(DW_ACCESS_public)
    5750              $C$DW$812       .dwtag  DW_TAG_member
    5751                      .dwattr $C$DW$812, DW_AT_type(*$C$DW$T$94)
    5752                      .dwattr $C$DW$812, DW_AT_name("GPAMUX2")
    5753                      .dwattr $C$DW$812, DW_AT_TI_symbol_name("_GPAMUX2")
    5754                      .dwattr $C$DW$812, DW_AT_data_member_location[DW_OP_plus_uconst 0x8]
    5755                      .dwattr $C$DW$812, DW_AT_accessibility(DW_ACCESS_public)
    5756              $C$DW$813       .dwtag  DW_TAG_member
    5757                      .dwattr $C$DW$813, DW_AT_type(*$C$DW$T$94)
    5758                      .dwattr $C$DW$813, DW_AT_name("GPADIR")
    5759                      .dwattr $C$DW$813, DW_AT_TI_symbol_name("_GPADIR")
    5760                      .dwattr $C$DW$813, DW_AT_data_member_location[DW_OP_plus_uconst 0xa]
    5761                      .dwattr $C$DW$813, DW_AT_accessibility(DW_ACCESS_public)
    5762              $C$DW$814       .dwtag  DW_TAG_member
    5763                      .dwattr $C$DW$814, DW_AT_type(*$C$DW$T$94)
    5764                      .dwattr $C$DW$814, DW_AT_name("GPAPUD")
    5765                      .dwattr $C$DW$814, DW_AT_TI_symbol_name("_GPAPUD")
    5766                      .dwattr $C$DW$814, DW_AT_data_member_location[DW_OP_plus_uconst 0xc]
    5767                      .dwattr $C$DW$814, DW_AT_accessibility(DW_ACCESS_public)
    5768              $C$DW$815       .dwtag  DW_TAG_member
    5769                      .dwattr $C$DW$815, DW_AT_type(*$C$DW$T$42)
    5770                      .dwattr $C$DW$815, DW_AT_name("rsvd_1")
    5771                      .dwattr $C$DW$815, DW_AT_TI_symbol_name("_rsvd_1")
    5772                      .dwattr $C$DW$815, DW_AT_data_member_location[DW_OP_plus_uconst 0xe]
    5773                      .dwattr $C$DW$815, DW_AT_accessibility(DW_ACCESS_public)
    5774              $C$DW$816       .dwtag  DW_TAG_member
    5775                      .dwattr $C$DW$816, DW_AT_type(*$C$DW$T$94)
    5776                      .dwattr $C$DW$816, DW_AT_name("GPBCTRL")
    5777                      .dwattr $C$DW$816, DW_AT_TI_symbol_name("_GPBCTRL")
    5778                      .dwattr $C$DW$816, DW_AT_data_member_location[DW_OP_plus_uconst 0x10]
    5779                      .dwattr $C$DW$816, DW_AT_accessibility(DW_ACCESS_public)
    5780              $C$DW$817       .dwtag  DW_TAG_member
    5781                      .dwattr $C$DW$817, DW_AT_type(*$C$DW$T$94)
    5782                      .dwattr $C$DW$817, DW_AT_name("GPBQSEL1")
    5783                      .dwattr $C$DW$817, DW_AT_TI_symbol_name("_GPBQSEL1")
    5784                      .dwattr $C$DW$817, DW_AT_data_member_location[DW_OP_plus_uconst 0x12]
    5785                      .dwattr $C$DW$817, DW_AT_accessibility(DW_ACCESS_public)
TMS320C2000 Assembler PC v6.4.10 Mon Jul 11 12:58:57 2016

Tools Copyright (c) 1996-2015 Texas Instruments Incorporated
C:\Users\bee25\AppData\Local\Temp\0350410                            PAGE  115

    5786              $C$DW$818       .dwtag  DW_TAG_member
    5787                      .dwattr $C$DW$818, DW_AT_type(*$C$DW$T$42)
    5788                      .dwattr $C$DW$818, DW_AT_name("rsvd_2")
    5789                      .dwattr $C$DW$818, DW_AT_TI_symbol_name("_rsvd_2")
    5790                      .dwattr $C$DW$818, DW_AT_data_member_location[DW_OP_plus_uconst 0x14]
    5791                      .dwattr $C$DW$818, DW_AT_accessibility(DW_ACCESS_public)
    5792              $C$DW$819       .dwtag  DW_TAG_member
    5793                      .dwattr $C$DW$819, DW_AT_type(*$C$DW$T$94)
    5794                      .dwattr $C$DW$819, DW_AT_name("GPBMUX1")
    5795                      .dwattr $C$DW$819, DW_AT_TI_symbol_name("_GPBMUX1")
    5796                      .dwattr $C$DW$819, DW_AT_data_member_location[DW_OP_plus_uconst 0x16]
    5797                      .dwattr $C$DW$819, DW_AT_accessibility(DW_ACCESS_public)
    5798              $C$DW$820       .dwtag  DW_TAG_member
    5799                      .dwattr $C$DW$820, DW_AT_type(*$C$DW$T$42)
    5800                      .dwattr $C$DW$820, DW_AT_name("rsvd_3")
    5801                      .dwattr $C$DW$820, DW_AT_TI_symbol_name("_rsvd_3")
    5802                      .dwattr $C$DW$820, DW_AT_data_member_location[DW_OP_plus_uconst 0x18]
    5803                      .dwattr $C$DW$820, DW_AT_accessibility(DW_ACCESS_public)
    5804              $C$DW$821       .dwtag  DW_TAG_member
    5805                      .dwattr $C$DW$821, DW_AT_type(*$C$DW$T$94)
    5806                      .dwattr $C$DW$821, DW_AT_name("GPBDIR")
    5807                      .dwattr $C$DW$821, DW_AT_TI_symbol_name("_GPBDIR")
    5808                      .dwattr $C$DW$821, DW_AT_data_member_location[DW_OP_plus_uconst 0x1a]
    5809                      .dwattr $C$DW$821, DW_AT_accessibility(DW_ACCESS_public)
    5810              $C$DW$822       .dwtag  DW_TAG_member
    5811                      .dwattr $C$DW$822, DW_AT_type(*$C$DW$T$94)
    5812                      .dwattr $C$DW$822, DW_AT_name("GPBPUD")
    5813                      .dwattr $C$DW$822, DW_AT_TI_symbol_name("_GPBPUD")
    5814                      .dwattr $C$DW$822, DW_AT_data_member_location[DW_OP_plus_uconst 0x1c]
    5815                      .dwattr $C$DW$822, DW_AT_accessibility(DW_ACCESS_public)
    5816              $C$DW$823       .dwtag  DW_TAG_member
    5817                      .dwattr $C$DW$823, DW_AT_type(*$C$DW$T$95)
    5818                      .dwattr $C$DW$823, DW_AT_name("rsvd_4")
    5819                      .dwattr $C$DW$823, DW_AT_TI_symbol_name("_rsvd_4")
    5820                      .dwattr $C$DW$823, DW_AT_data_member_location[DW_OP_plus_uconst 0x1e]
    5821                      .dwattr $C$DW$823, DW_AT_accessibility(DW_ACCESS_public)
    5822              $C$DW$824       .dwtag  DW_TAG_member
    5823                      .dwattr $C$DW$824, DW_AT_type(*$C$DW$T$94)
    5824                      .dwattr $C$DW$824, DW_AT_name("AIOMUX1")
    5825                      .dwattr $C$DW$824, DW_AT_TI_symbol_name("_AIOMUX1")
    5826                      .dwattr $C$DW$824, DW_AT_data_member_location[DW_OP_plus_uconst 0x36]
    5827                      .dwattr $C$DW$824, DW_AT_accessibility(DW_ACCESS_public)
    5828              $C$DW$825       .dwtag  DW_TAG_member
    5829                      .dwattr $C$DW$825, DW_AT_type(*$C$DW$T$42)
    5830                      .dwattr $C$DW$825, DW_AT_name("rsvd_5")
    5831                      .dwattr $C$DW$825, DW_AT_TI_symbol_name("_rsvd_5")
    5832                      .dwattr $C$DW$825, DW_AT_data_member_location[DW_OP_plus_uconst 0x38]
    5833                      .dwattr $C$DW$825, DW_AT_accessibility(DW_ACCESS_public)
    5834              $C$DW$826       .dwtag  DW_TAG_member
    5835                      .dwattr $C$DW$826, DW_AT_type(*$C$DW$T$94)
    5836                      .dwattr $C$DW$826, DW_AT_name("AIODIR")
    5837                      .dwattr $C$DW$826, DW_AT_TI_symbol_name("_AIODIR")
    5838                      .dwattr $C$DW$826, DW_AT_data_member_location[DW_OP_plus_uconst 0x3a]
    5839                      .dwattr $C$DW$826, DW_AT_accessibility(DW_ACCESS_public)
    5840              $C$DW$827       .dwtag  DW_TAG_member
TMS320C2000 Assembler PC v6.4.10 Mon Jul 11 12:58:57 2016

Tools Copyright (c) 1996-2015 Texas Instruments Incorporated
C:\Users\bee25\AppData\Local\Temp\0350410                            PAGE  116

    5841                      .dwattr $C$DW$827, DW_AT_type(*$C$DW$T$96)
    5842                      .dwattr $C$DW$827, DW_AT_name("rsvd_6")
    5843                      .dwattr $C$DW$827, DW_AT_TI_symbol_name("_rsvd_6")
    5844                      .dwattr $C$DW$827, DW_AT_data_member_location[DW_OP_plus_uconst 0x3c]
    5845                      .dwattr $C$DW$827, DW_AT_accessibility(DW_ACCESS_public)
    5846              $C$DW$828       .dwtag  DW_TAG_member
    5847                      .dwattr $C$DW$828, DW_AT_type(*$C$DW$T$94)
    5848                      .dwattr $C$DW$828, DW_AT_name("GPADAT")
    5849                      .dwattr $C$DW$828, DW_AT_TI_symbol_name("_GPADAT")
    5850                      .dwattr $C$DW$828, DW_AT_data_member_location[DW_OP_plus_uconst 0x40]
    5851                      .dwattr $C$DW$828, DW_AT_accessibility(DW_ACCESS_public)
    5852              $C$DW$829       .dwtag  DW_TAG_member
    5853                      .dwattr $C$DW$829, DW_AT_type(*$C$DW$T$94)
    5854                      .dwattr $C$DW$829, DW_AT_name("GPASET")
    5855                      .dwattr $C$DW$829, DW_AT_TI_symbol_name("_GPASET")
    5856                      .dwattr $C$DW$829, DW_AT_data_member_location[DW_OP_plus_uconst 0x42]
    5857                      .dwattr $C$DW$829, DW_AT_accessibility(DW_ACCESS_public)
    5858              $C$DW$830       .dwtag  DW_TAG_member
    5859                      .dwattr $C$DW$830, DW_AT_type(*$C$DW$T$94)
    5860                      .dwattr $C$DW$830, DW_AT_name("GPACLEAR")
    5861                      .dwattr $C$DW$830, DW_AT_TI_symbol_name("_GPACLEAR")
    5862                      .dwattr $C$DW$830, DW_AT_data_member_location[DW_OP_plus_uconst 0x44]
    5863                      .dwattr $C$DW$830, DW_AT_accessibility(DW_ACCESS_public)
    5864              $C$DW$831       .dwtag  DW_TAG_member
    5865                      .dwattr $C$DW$831, DW_AT_type(*$C$DW$T$94)
    5866                      .dwattr $C$DW$831, DW_AT_name("GPATOGGLE")
    5867                      .dwattr $C$DW$831, DW_AT_TI_symbol_name("_GPATOGGLE")
    5868                      .dwattr $C$DW$831, DW_AT_data_member_location[DW_OP_plus_uconst 0x46]
    5869                      .dwattr $C$DW$831, DW_AT_accessibility(DW_ACCESS_public)
    5870              $C$DW$832       .dwtag  DW_TAG_member
    5871                      .dwattr $C$DW$832, DW_AT_type(*$C$DW$T$94)
    5872                      .dwattr $C$DW$832, DW_AT_name("GPBDAT")
    5873                      .dwattr $C$DW$832, DW_AT_TI_symbol_name("_GPBDAT")
    5874                      .dwattr $C$DW$832, DW_AT_data_member_location[DW_OP_plus_uconst 0x48]
    5875                      .dwattr $C$DW$832, DW_AT_accessibility(DW_ACCESS_public)
    5876              $C$DW$833       .dwtag  DW_TAG_member
    5877                      .dwattr $C$DW$833, DW_AT_type(*$C$DW$T$94)
    5878                      .dwattr $C$DW$833, DW_AT_name("GPBSET")
    5879                      .dwattr $C$DW$833, DW_AT_TI_symbol_name("_GPBSET")
    5880                      .dwattr $C$DW$833, DW_AT_data_member_location[DW_OP_plus_uconst 0x4a]
    5881                      .dwattr $C$DW$833, DW_AT_accessibility(DW_ACCESS_public)
    5882              $C$DW$834       .dwtag  DW_TAG_member
    5883                      .dwattr $C$DW$834, DW_AT_type(*$C$DW$T$94)
    5884                      .dwattr $C$DW$834, DW_AT_name("GPBCLEAR")
    5885                      .dwattr $C$DW$834, DW_AT_TI_symbol_name("_GPBCLEAR")
    5886                      .dwattr $C$DW$834, DW_AT_data_member_location[DW_OP_plus_uconst 0x4c]
    5887                      .dwattr $C$DW$834, DW_AT_accessibility(DW_ACCESS_public)
    5888              $C$DW$835       .dwtag  DW_TAG_member
    5889                      .dwattr $C$DW$835, DW_AT_type(*$C$DW$T$94)
    5890                      .dwattr $C$DW$835, DW_AT_name("GPBTOGGLE")
    5891                      .dwattr $C$DW$835, DW_AT_TI_symbol_name("_GPBTOGGLE")
    5892                      .dwattr $C$DW$835, DW_AT_data_member_location[DW_OP_plus_uconst 0x4e]
    5893                      .dwattr $C$DW$835, DW_AT_accessibility(DW_ACCESS_public)
    5894              $C$DW$836       .dwtag  DW_TAG_member
    5895                      .dwattr $C$DW$836, DW_AT_type(*$C$DW$T$50)
TMS320C2000 Assembler PC v6.4.10 Mon Jul 11 12:58:57 2016

Tools Copyright (c) 1996-2015 Texas Instruments Incorporated
C:\Users\bee25\AppData\Local\Temp\0350410                            PAGE  117

    5896                      .dwattr $C$DW$836, DW_AT_name("rsvd_7")
    5897                      .dwattr $C$DW$836, DW_AT_TI_symbol_name("_rsvd_7")
    5898                      .dwattr $C$DW$836, DW_AT_data_member_location[DW_OP_plus_uconst 0x50]
    5899                      .dwattr $C$DW$836, DW_AT_accessibility(DW_ACCESS_public)
    5900              $C$DW$837       .dwtag  DW_TAG_member
    5901                      .dwattr $C$DW$837, DW_AT_type(*$C$DW$T$94)
    5902                      .dwattr $C$DW$837, DW_AT_name("AIODAT")
    5903                      .dwattr $C$DW$837, DW_AT_TI_symbol_name("_AIODAT")
    5904                      .dwattr $C$DW$837, DW_AT_data_member_location[DW_OP_plus_uconst 0x58]
    5905                      .dwattr $C$DW$837, DW_AT_accessibility(DW_ACCESS_public)
    5906              $C$DW$838       .dwtag  DW_TAG_member
    5907                      .dwattr $C$DW$838, DW_AT_type(*$C$DW$T$94)
    5908                      .dwattr $C$DW$838, DW_AT_name("AIOSET")
    5909                      .dwattr $C$DW$838, DW_AT_TI_symbol_name("_AIOSET")
    5910                      .dwattr $C$DW$838, DW_AT_data_member_location[DW_OP_plus_uconst 0x5a]
    5911                      .dwattr $C$DW$838, DW_AT_accessibility(DW_ACCESS_public)
    5912              $C$DW$839       .dwtag  DW_TAG_member
    5913                      .dwattr $C$DW$839, DW_AT_type(*$C$DW$T$94)
    5914                      .dwattr $C$DW$839, DW_AT_name("AIOCLEAR")
    5915                      .dwattr $C$DW$839, DW_AT_TI_symbol_name("_AIOCLEAR")
    5916                      .dwattr $C$DW$839, DW_AT_data_member_location[DW_OP_plus_uconst 0x5c]
    5917                      .dwattr $C$DW$839, DW_AT_accessibility(DW_ACCESS_public)
    5918              $C$DW$840       .dwtag  DW_TAG_member
    5919                      .dwattr $C$DW$840, DW_AT_type(*$C$DW$T$94)
    5920                      .dwattr $C$DW$840, DW_AT_name("AIOTOGGLE")
    5921                      .dwattr $C$DW$840, DW_AT_TI_symbol_name("_AIOTOGGLE")
    5922                      .dwattr $C$DW$840, DW_AT_data_member_location[DW_OP_plus_uconst 0x5e]
    5923                      .dwattr $C$DW$840, DW_AT_accessibility(DW_ACCESS_public)
    5924              $C$DW$841       .dwtag  DW_TAG_member
    5925                      .dwattr $C$DW$841, DW_AT_type(*$C$DW$T$44)
    5926                      .dwattr $C$DW$841, DW_AT_name("GPIOXINTnSEL")
    5927                      .dwattr $C$DW$841, DW_AT_TI_symbol_name("_GPIOXINTnSEL")
    5928                      .dwattr $C$DW$841, DW_AT_data_member_location[DW_OP_plus_uconst 0x60]
    5929                      .dwattr $C$DW$841, DW_AT_accessibility(DW_ACCESS_public)
    5930              $C$DW$842       .dwtag  DW_TAG_member
    5931                      .dwattr $C$DW$842, DW_AT_type(*$C$DW$T$43)
    5932                      .dwattr $C$DW$842, DW_AT_name("rsvd_8")
    5933                      .dwattr $C$DW$842, DW_AT_TI_symbol_name("_rsvd_8")
    5934                      .dwattr $C$DW$842, DW_AT_data_member_location[DW_OP_plus_uconst 0x63]
    5935                      .dwattr $C$DW$842, DW_AT_accessibility(DW_ACCESS_public)
    5936              $C$DW$843       .dwtag  DW_TAG_member
    5937                      .dwattr $C$DW$843, DW_AT_type(*$C$DW$T$94)
    5938                      .dwattr $C$DW$843, DW_AT_name("GPIOLPMSEL")
    5939                      .dwattr $C$DW$843, DW_AT_TI_symbol_name("_GPIOLPMSEL")
    5940                      .dwattr $C$DW$843, DW_AT_data_member_location[DW_OP_plus_uconst 0x68]
    5941                      .dwattr $C$DW$843, DW_AT_accessibility(DW_ACCESS_public)
    5942                      .dwendtag $C$DW$T$97
    5943              
    5944              $C$DW$T$58      .dwtag  DW_TAG_pointer_type
    5945                      .dwattr $C$DW$T$58, DW_AT_type(*$C$DW$T$97)
    5946                      .dwattr $C$DW$T$58, DW_AT_address_class(0x20)
    5947              $C$DW$T$59      .dwtag  DW_TAG_typedef, DW_AT_name("GPIO_Handle")
    5948                      .dwattr $C$DW$T$59, DW_AT_type(*$C$DW$T$58)
    5949                      .dwattr $C$DW$T$59, DW_AT_language(DW_LANG_C)
    5950              
TMS320C2000 Assembler PC v6.4.10 Mon Jul 11 12:58:57 2016

Tools Copyright (c) 1996-2015 Texas Instruments Incorporated
C:\Users\bee25\AppData\Local\Temp\0350410                            PAGE  118

    5951              $C$DW$T$99      .dwtag  DW_TAG_structure_type
    5952                      .dwattr $C$DW$T$99, DW_AT_name("_HAL_AdcData_t_")
    5953                      .dwattr $C$DW$T$99, DW_AT_byte_size(0x10)
    5954              $C$DW$844       .dwtag  DW_TAG_member
    5955                      .dwattr $C$DW$844, DW_AT_type(*$C$DW$T$98)
    5956                      .dwattr $C$DW$844, DW_AT_name("I")
    5957                      .dwattr $C$DW$844, DW_AT_TI_symbol_name("_I")
    5958                      .dwattr $C$DW$844, DW_AT_data_member_location[DW_OP_plus_uconst 0x0]
    5959                      .dwattr $C$DW$844, DW_AT_accessibility(DW_ACCESS_public)
    5960              $C$DW$845       .dwtag  DW_TAG_member
    5961                      .dwattr $C$DW$845, DW_AT_type(*$C$DW$T$98)
    5962                      .dwattr $C$DW$845, DW_AT_name("V")
    5963                      .dwattr $C$DW$845, DW_AT_TI_symbol_name("_V")
    5964                      .dwattr $C$DW$845, DW_AT_data_member_location[DW_OP_plus_uconst 0x6]
    5965                      .dwattr $C$DW$845, DW_AT_accessibility(DW_ACCESS_public)
    5966              $C$DW$846       .dwtag  DW_TAG_member
    5967                      .dwattr $C$DW$846, DW_AT_type(*$C$DW$T$47)
    5968                      .dwattr $C$DW$846, DW_AT_name("dcBus")
    5969                      .dwattr $C$DW$846, DW_AT_TI_symbol_name("_dcBus")
    5970                      .dwattr $C$DW$846, DW_AT_data_member_location[DW_OP_plus_uconst 0xc]
    5971                      .dwattr $C$DW$846, DW_AT_accessibility(DW_ACCESS_public)
    5972              $C$DW$847       .dwtag  DW_TAG_member
    5973                      .dwattr $C$DW$847, DW_AT_type(*$C$DW$T$47)
    5974                      .dwattr $C$DW$847, DW_AT_name("throttle")
    5975                      .dwattr $C$DW$847, DW_AT_TI_symbol_name("_throttle")
    5976                      .dwattr $C$DW$847, DW_AT_data_member_location[DW_OP_plus_uconst 0xe]
    5977                      .dwattr $C$DW$847, DW_AT_accessibility(DW_ACCESS_public)
    5978                      .dwendtag $C$DW$T$99
    5979              
    5980              $C$DW$T$129     .dwtag  DW_TAG_typedef, DW_AT_name("HAL_AdcData_t")
    5981                      .dwattr $C$DW$T$129, DW_AT_type(*$C$DW$T$99)
    5982                      .dwattr $C$DW$T$129, DW_AT_language(DW_LANG_C)
    5983              
    5984              $C$DW$T$137     .dwtag  DW_TAG_structure_type
    5985                      .dwattr $C$DW$T$137, DW_AT_name("_HAL_Obj_")
    5986                      .dwattr $C$DW$T$137, DW_AT_byte_size(0xea)
    5987              $C$DW$848       .dwtag  DW_TAG_member
    5988                      .dwattr $C$DW$848, DW_AT_type(*$C$DW$T$101)
    5989                      .dwattr $C$DW$848, DW_AT_name("adcHandle")
    5990                      .dwattr $C$DW$848, DW_AT_TI_symbol_name("_adcHandle")
    5991                      .dwattr $C$DW$848, DW_AT_data_member_location[DW_OP_plus_uconst 0x0]
    5992                      .dwattr $C$DW$848, DW_AT_accessibility(DW_ACCESS_public)
    5993              $C$DW$849       .dwtag  DW_TAG_member
    5994                      .dwattr $C$DW$849, DW_AT_type(*$C$DW$T$103)
    5995                      .dwattr $C$DW$849, DW_AT_name("clkHandle")
    5996                      .dwattr $C$DW$849, DW_AT_TI_symbol_name("_clkHandle")
    5997                      .dwattr $C$DW$849, DW_AT_data_member_location[DW_OP_plus_uconst 0x2]
    5998                      .dwattr $C$DW$849, DW_AT_accessibility(DW_ACCESS_public)
    5999              $C$DW$850       .dwtag  DW_TAG_member
    6000                      .dwattr $C$DW$850, DW_AT_type(*$C$DW$T$105)
    6001                      .dwattr $C$DW$850, DW_AT_name("cpuHandle")
    6002                      .dwattr $C$DW$850, DW_AT_TI_symbol_name("_cpuHandle")
    6003                      .dwattr $C$DW$850, DW_AT_data_member_location[DW_OP_plus_uconst 0x4]
    6004                      .dwattr $C$DW$850, DW_AT_accessibility(DW_ACCESS_public)
    6005              $C$DW$851       .dwtag  DW_TAG_member
TMS320C2000 Assembler PC v6.4.10 Mon Jul 11 12:58:57 2016

Tools Copyright (c) 1996-2015 Texas Instruments Incorporated
C:\Users\bee25\AppData\Local\Temp\0350410                            PAGE  119

    6006                      .dwattr $C$DW$851, DW_AT_type(*$C$DW$T$107)
    6007                      .dwattr $C$DW$851, DW_AT_name("flashHandle")
    6008                      .dwattr $C$DW$851, DW_AT_TI_symbol_name("_flashHandle")
    6009                      .dwattr $C$DW$851, DW_AT_data_member_location[DW_OP_plus_uconst 0x6]
    6010                      .dwattr $C$DW$851, DW_AT_accessibility(DW_ACCESS_public)
    6011              $C$DW$852       .dwtag  DW_TAG_member
    6012                      .dwattr $C$DW$852, DW_AT_type(*$C$DW$T$59)
    6013                      .dwattr $C$DW$852, DW_AT_name("gpioHandle")
    6014                      .dwattr $C$DW$852, DW_AT_TI_symbol_name("_gpioHandle")
    6015                      .dwattr $C$DW$852, DW_AT_data_member_location[DW_OP_plus_uconst 0x8]
    6016                      .dwattr $C$DW$852, DW_AT_accessibility(DW_ACCESS_public)
    6017              $C$DW$853       .dwtag  DW_TAG_member
    6018                      .dwattr $C$DW$853, DW_AT_type(*$C$DW$T$110)
    6019                      .dwattr $C$DW$853, DW_AT_name("offsetHandle_I")
    6020                      .dwattr $C$DW$853, DW_AT_TI_symbol_name("_offsetHandle_I")
    6021                      .dwattr $C$DW$853, DW_AT_data_member_location[DW_OP_plus_uconst 0xa]
    6022                      .dwattr $C$DW$853, DW_AT_accessibility(DW_ACCESS_public)
    6023              $C$DW$854       .dwtag  DW_TAG_member
    6024                      .dwattr $C$DW$854, DW_AT_type(*$C$DW$T$112)
    6025                      .dwattr $C$DW$854, DW_AT_name("offset_I")
    6026                      .dwattr $C$DW$854, DW_AT_TI_symbol_name("_offset_I")
    6027                      .dwattr $C$DW$854, DW_AT_data_member_location[DW_OP_plus_uconst 0x10]
    6028                      .dwattr $C$DW$854, DW_AT_accessibility(DW_ACCESS_public)
    6029              $C$DW$855       .dwtag  DW_TAG_member
    6030                      .dwattr $C$DW$855, DW_AT_type(*$C$DW$T$110)
    6031                      .dwattr $C$DW$855, DW_AT_name("offsetHandle_V")
    6032                      .dwattr $C$DW$855, DW_AT_TI_symbol_name("_offsetHandle_V")
    6033                      .dwattr $C$DW$855, DW_AT_data_member_location[DW_OP_plus_uconst 0x40]
    6034                      .dwattr $C$DW$855, DW_AT_accessibility(DW_ACCESS_public)
    6035              $C$DW$856       .dwtag  DW_TAG_member
    6036                      .dwattr $C$DW$856, DW_AT_type(*$C$DW$T$112)
    6037                      .dwattr $C$DW$856, DW_AT_name("offset_V")
    6038                      .dwattr $C$DW$856, DW_AT_TI_symbol_name("_offset_V")
    6039                      .dwattr $C$DW$856, DW_AT_data_member_location[DW_OP_plus_uconst 0x46]
    6040                      .dwattr $C$DW$856, DW_AT_accessibility(DW_ACCESS_public)
    6041              $C$DW$857       .dwtag  DW_TAG_member
    6042                      .dwattr $C$DW$857, DW_AT_type(*$C$DW$T$114)
    6043                      .dwattr $C$DW$857, DW_AT_name("oscHandle")
    6044                      .dwattr $C$DW$857, DW_AT_TI_symbol_name("_oscHandle")
    6045                      .dwattr $C$DW$857, DW_AT_data_member_location[DW_OP_plus_uconst 0x76]
    6046                      .dwattr $C$DW$857, DW_AT_accessibility(DW_ACCESS_public)
    6047              $C$DW$858       .dwtag  DW_TAG_member
    6048                      .dwattr $C$DW$858, DW_AT_type(*$C$DW$T$116)
    6049                      .dwattr $C$DW$858, DW_AT_name("pieHandle")
    6050                      .dwattr $C$DW$858, DW_AT_TI_symbol_name("_pieHandle")
    6051                      .dwattr $C$DW$858, DW_AT_data_member_location[DW_OP_plus_uconst 0x78]
    6052                      .dwattr $C$DW$858, DW_AT_accessibility(DW_ACCESS_public)
    6053              $C$DW$859       .dwtag  DW_TAG_member
    6054                      .dwattr $C$DW$859, DW_AT_type(*$C$DW$T$118)
    6055                      .dwattr $C$DW$859, DW_AT_name("pllHandle")
    6056                      .dwattr $C$DW$859, DW_AT_TI_symbol_name("_pllHandle")
    6057                      .dwattr $C$DW$859, DW_AT_data_member_location[DW_OP_plus_uconst 0x7a]
    6058                      .dwattr $C$DW$859, DW_AT_accessibility(DW_ACCESS_public)
    6059              $C$DW$860       .dwtag  DW_TAG_member
    6060                      .dwattr $C$DW$860, DW_AT_type(*$C$DW$T$121)
TMS320C2000 Assembler PC v6.4.10 Mon Jul 11 12:58:57 2016

Tools Copyright (c) 1996-2015 Texas Instruments Incorporated
C:\Users\bee25\AppData\Local\Temp\0350410                            PAGE  120

    6061                      .dwattr $C$DW$860, DW_AT_name("pwmHandle")
    6062                      .dwattr $C$DW$860, DW_AT_TI_symbol_name("_pwmHandle")
    6063                      .dwattr $C$DW$860, DW_AT_data_member_location[DW_OP_plus_uconst 0x7c]
    6064                      .dwattr $C$DW$860, DW_AT_accessibility(DW_ACCESS_public)
    6065              $C$DW$861       .dwtag  DW_TAG_member
    6066                      .dwattr $C$DW$861, DW_AT_type(*$C$DW$T$121)
    6067                      .dwattr $C$DW$861, DW_AT_name("pwmDacHandle")
    6068                      .dwattr $C$DW$861, DW_AT_TI_symbol_name("_pwmDacHandle")
    6069                      .dwattr $C$DW$861, DW_AT_data_member_location[DW_OP_plus_uconst 0x82]
    6070                      .dwattr $C$DW$861, DW_AT_accessibility(DW_ACCESS_public)
    6071              $C$DW$862       .dwtag  DW_TAG_member
    6072                      .dwattr $C$DW$862, DW_AT_type(*$C$DW$T$123)
    6073                      .dwattr $C$DW$862, DW_AT_name("pwrHandle")
    6074                      .dwattr $C$DW$862, DW_AT_TI_symbol_name("_pwrHandle")
    6075                      .dwattr $C$DW$862, DW_AT_data_member_location[DW_OP_plus_uconst 0x88]
    6076                      .dwattr $C$DW$862, DW_AT_accessibility(DW_ACCESS_public)
    6077              $C$DW$863       .dwtag  DW_TAG_member
    6078                      .dwattr $C$DW$863, DW_AT_type(*$C$DW$T$126)
    6079                      .dwattr $C$DW$863, DW_AT_name("timerHandle")
    6080                      .dwattr $C$DW$863, DW_AT_TI_symbol_name("_timerHandle")
    6081                      .dwattr $C$DW$863, DW_AT_data_member_location[DW_OP_plus_uconst 0x8a]
    6082                      .dwattr $C$DW$863, DW_AT_accessibility(DW_ACCESS_public)
    6083              $C$DW$864       .dwtag  DW_TAG_member
    6084                      .dwattr $C$DW$864, DW_AT_type(*$C$DW$T$128)
    6085                      .dwattr $C$DW$864, DW_AT_name("wdogHandle")
    6086                      .dwattr $C$DW$864, DW_AT_TI_symbol_name("_wdogHandle")
    6087                      .dwattr $C$DW$864, DW_AT_data_member_location[DW_OP_plus_uconst 0x90]
    6088                      .dwattr $C$DW$864, DW_AT_accessibility(DW_ACCESS_public)
    6089              $C$DW$865       .dwtag  DW_TAG_member
    6090                      .dwattr $C$DW$865, DW_AT_type(*$C$DW$T$129)
    6091                      .dwattr $C$DW$865, DW_AT_name("adcBias")
    6092                      .dwattr $C$DW$865, DW_AT_TI_symbol_name("_adcBias")
    6093                      .dwattr $C$DW$865, DW_AT_data_member_location[DW_OP_plus_uconst 0x92]
    6094                      .dwattr $C$DW$865, DW_AT_accessibility(DW_ACCESS_public)
    6095              $C$DW$866       .dwtag  DW_TAG_member
    6096                      .dwattr $C$DW$866, DW_AT_type(*$C$DW$T$47)
    6097                      .dwattr $C$DW$866, DW_AT_name("current_sf")
    6098                      .dwattr $C$DW$866, DW_AT_TI_symbol_name("_current_sf")
    6099                      .dwattr $C$DW$866, DW_AT_data_member_location[DW_OP_plus_uconst 0xa2]
    6100                      .dwattr $C$DW$866, DW_AT_accessibility(DW_ACCESS_public)
    6101              $C$DW$867       .dwtag  DW_TAG_member
    6102                      .dwattr $C$DW$867, DW_AT_type(*$C$DW$T$47)
    6103                      .dwattr $C$DW$867, DW_AT_name("voltage_sf")
    6104                      .dwattr $C$DW$867, DW_AT_TI_symbol_name("_voltage_sf")
    6105                      .dwattr $C$DW$867, DW_AT_data_member_location[DW_OP_plus_uconst 0xa4]
    6106                      .dwattr $C$DW$867, DW_AT_accessibility(DW_ACCESS_public)
    6107              $C$DW$868       .dwtag  DW_TAG_member
    6108                      .dwattr $C$DW$868, DW_AT_type(*$C$DW$T$48)
    6109                      .dwattr $C$DW$868, DW_AT_name("numCurrentSensors")
    6110                      .dwattr $C$DW$868, DW_AT_TI_symbol_name("_numCurrentSensors")
    6111                      .dwattr $C$DW$868, DW_AT_data_member_location[DW_OP_plus_uconst 0xa6]
    6112                      .dwattr $C$DW$868, DW_AT_accessibility(DW_ACCESS_public)
    6113              $C$DW$869       .dwtag  DW_TAG_member
    6114                      .dwattr $C$DW$869, DW_AT_type(*$C$DW$T$48)
    6115                      .dwattr $C$DW$869, DW_AT_name("numVoltageSensors")
TMS320C2000 Assembler PC v6.4.10 Mon Jul 11 12:58:57 2016

Tools Copyright (c) 1996-2015 Texas Instruments Incorporated
C:\Users\bee25\AppData\Local\Temp\0350410                            PAGE  121

    6116                      .dwattr $C$DW$869, DW_AT_TI_symbol_name("_numVoltageSensors")
    6117                      .dwattr $C$DW$869, DW_AT_data_member_location[DW_OP_plus_uconst 0xa7]
    6118                      .dwattr $C$DW$869, DW_AT_accessibility(DW_ACCESS_public)
    6119              $C$DW$870       .dwtag  DW_TAG_member
    6120                      .dwattr $C$DW$870, DW_AT_type(*$C$DW$T$57)
    6121                      .dwattr $C$DW$870, DW_AT_name("spiAHandle")
    6122                      .dwattr $C$DW$870, DW_AT_TI_symbol_name("_spiAHandle")
    6123                      .dwattr $C$DW$870, DW_AT_data_member_location[DW_OP_plus_uconst 0xa8]
    6124                      .dwattr $C$DW$870, DW_AT_accessibility(DW_ACCESS_public)
    6125              $C$DW$871       .dwtag  DW_TAG_member
    6126                      .dwattr $C$DW$871, DW_AT_type(*$C$DW$T$130)
    6127                      .dwattr $C$DW$871, DW_AT_name("spiA")
    6128                      .dwattr $C$DW$871, DW_AT_TI_symbol_name("_spiA")
    6129                      .dwattr $C$DW$871, DW_AT_data_member_location[DW_OP_plus_uconst 0xaa]
    6130                      .dwattr $C$DW$871, DW_AT_accessibility(DW_ACCESS_public)
    6131              $C$DW$872       .dwtag  DW_TAG_member
    6132                      .dwattr $C$DW$872, DW_AT_type(*$C$DW$T$132)
    6133                      .dwattr $C$DW$872, DW_AT_name("drv8301Handle")
    6134                      .dwattr $C$DW$872, DW_AT_TI_symbol_name("_drv8301Handle")
    6135                      .dwattr $C$DW$872, DW_AT_data_member_location[DW_OP_plus_uconst 0xba]
    6136                      .dwattr $C$DW$872, DW_AT_accessibility(DW_ACCESS_public)
    6137              $C$DW$873       .dwtag  DW_TAG_member
    6138                      .dwattr $C$DW$873, DW_AT_type(*$C$DW$T$133)
    6139                      .dwattr $C$DW$873, DW_AT_name("drv8301")
    6140                      .dwattr $C$DW$873, DW_AT_TI_symbol_name("_drv8301")
    6141                      .dwattr $C$DW$873, DW_AT_data_member_location[DW_OP_plus_uconst 0xbc]
    6142                      .dwattr $C$DW$873, DW_AT_accessibility(DW_ACCESS_public)
    6143              $C$DW$874       .dwtag  DW_TAG_member
    6144                      .dwattr $C$DW$874, DW_AT_type(*$C$DW$T$135)
    6145                      .dwattr $C$DW$874, DW_AT_name("i2cAHandle")
    6146                      .dwattr $C$DW$874, DW_AT_TI_symbol_name("_i2cAHandle")
    6147                      .dwattr $C$DW$874, DW_AT_data_member_location[DW_OP_plus_uconst 0xc4]
    6148                      .dwattr $C$DW$874, DW_AT_accessibility(DW_ACCESS_public)
    6149              $C$DW$875       .dwtag  DW_TAG_member
    6150                      .dwattr $C$DW$875, DW_AT_type(*$C$DW$T$136)
    6151                      .dwattr $C$DW$875, DW_AT_name("i2cA")
    6152                      .dwattr $C$DW$875, DW_AT_TI_symbol_name("_i2cA")
    6153                      .dwattr $C$DW$875, DW_AT_data_member_location[DW_OP_plus_uconst 0xc6]
    6154                      .dwattr $C$DW$875, DW_AT_accessibility(DW_ACCESS_public)
    6155                      .dwendtag $C$DW$T$137
    6156              
    6157              $C$DW$T$229     .dwtag  DW_TAG_typedef, DW_AT_name("HAL_Obj")
    6158                      .dwattr $C$DW$T$229, DW_AT_type(*$C$DW$T$137)
    6159                      .dwattr $C$DW$T$229, DW_AT_language(DW_LANG_C)
    6160              $C$DW$T$230     .dwtag  DW_TAG_pointer_type
    6161                      .dwattr $C$DW$T$230, DW_AT_type(*$C$DW$T$229)
    6162                      .dwattr $C$DW$T$230, DW_AT_address_class(0x20)
    6163              $C$DW$T$231     .dwtag  DW_TAG_pointer_type
    6164                      .dwattr $C$DW$T$231, DW_AT_type(*$C$DW$T$137)
    6165                      .dwattr $C$DW$T$231, DW_AT_address_class(0x20)
    6166              $C$DW$T$232     .dwtag  DW_TAG_typedef, DW_AT_name("HAL_Handle")
    6167                      .dwattr $C$DW$T$232, DW_AT_type(*$C$DW$T$231)
    6168                      .dwattr $C$DW$T$232, DW_AT_language(DW_LANG_C)
    6169              
    6170              $C$DW$T$138     .dwtag  DW_TAG_structure_type
TMS320C2000 Assembler PC v6.4.10 Mon Jul 11 12:58:57 2016

Tools Copyright (c) 1996-2015 Texas Instruments Incorporated
C:\Users\bee25\AppData\Local\Temp\0350410                            PAGE  122

    6171                      .dwattr $C$DW$T$138, DW_AT_name("_HAL_PwmData_t_")
    6172                      .dwattr $C$DW$T$138, DW_AT_byte_size(0x06)
    6173              $C$DW$876       .dwtag  DW_TAG_member
    6174                      .dwattr $C$DW$876, DW_AT_type(*$C$DW$T$98)
    6175                      .dwattr $C$DW$876, DW_AT_name("Tabc")
    6176                      .dwattr $C$DW$876, DW_AT_TI_symbol_name("_Tabc")
    6177                      .dwattr $C$DW$876, DW_AT_data_member_location[DW_OP_plus_uconst 0x0]
    6178                      .dwattr $C$DW$876, DW_AT_accessibility(DW_ACCESS_public)
    6179                      .dwendtag $C$DW$T$138
    6180              
    6181              $C$DW$T$236     .dwtag  DW_TAG_typedef, DW_AT_name("HAL_PwmData_t")
    6182                      .dwattr $C$DW$T$236, DW_AT_type(*$C$DW$T$138)
    6183                      .dwattr $C$DW$T$236, DW_AT_language(DW_LANG_C)
    6184              
    6185              $C$DW$T$140     .dwtag  DW_TAG_structure_type
    6186                      .dwattr $C$DW$T$140, DW_AT_name("_I2C_Obj_")
    6187                      .dwattr $C$DW$T$140, DW_AT_byte_size(0x24)
    6188              $C$DW$877       .dwtag  DW_TAG_member
    6189                      .dwattr $C$DW$877, DW_AT_type(*$C$DW$T$22)
    6190                      .dwattr $C$DW$877, DW_AT_name("I2COAR")
    6191                      .dwattr $C$DW$877, DW_AT_TI_symbol_name("_I2COAR")
    6192                      .dwattr $C$DW$877, DW_AT_data_member_location[DW_OP_plus_uconst 0x0]
    6193                      .dwattr $C$DW$877, DW_AT_accessibility(DW_ACCESS_public)
    6194              $C$DW$878       .dwtag  DW_TAG_member
    6195                      .dwattr $C$DW$878, DW_AT_type(*$C$DW$T$30)
    6196                      .dwattr $C$DW$878, DW_AT_name("I2CIER")
    6197                      .dwattr $C$DW$878, DW_AT_TI_symbol_name("_I2CIER")
    6198                      .dwattr $C$DW$878, DW_AT_data_member_location[DW_OP_plus_uconst 0x1]
    6199                      .dwattr $C$DW$878, DW_AT_accessibility(DW_ACCESS_public)
    6200              $C$DW$879       .dwtag  DW_TAG_member
    6201                      .dwattr $C$DW$879, DW_AT_type(*$C$DW$T$38)
    6202                      .dwattr $C$DW$879, DW_AT_name("I2CSTR")
    6203                      .dwattr $C$DW$879, DW_AT_TI_symbol_name("_I2CSTR")
    6204                      .dwattr $C$DW$879, DW_AT_data_member_location[DW_OP_plus_uconst 0x2]
    6205                      .dwattr $C$DW$879, DW_AT_accessibility(DW_ACCESS_public)
    6206              $C$DW$880       .dwtag  DW_TAG_member
    6207                      .dwattr $C$DW$880, DW_AT_type(*$C$DW$T$22)
    6208                      .dwattr $C$DW$880, DW_AT_name("I2CCLKL")
    6209                      .dwattr $C$DW$880, DW_AT_TI_symbol_name("_I2CCLKL")
    6210                      .dwattr $C$DW$880, DW_AT_data_member_location[DW_OP_plus_uconst 0x3]
    6211                      .dwattr $C$DW$880, DW_AT_accessibility(DW_ACCESS_public)
    6212              $C$DW$881       .dwtag  DW_TAG_member
    6213                      .dwattr $C$DW$881, DW_AT_type(*$C$DW$T$22)
    6214                      .dwattr $C$DW$881, DW_AT_name("I2CCLKH")
    6215                      .dwattr $C$DW$881, DW_AT_TI_symbol_name("_I2CCLKH")
    6216                      .dwattr $C$DW$881, DW_AT_data_member_location[DW_OP_plus_uconst 0x4]
    6217                      .dwattr $C$DW$881, DW_AT_accessibility(DW_ACCESS_public)
    6218              $C$DW$882       .dwtag  DW_TAG_member
    6219                      .dwattr $C$DW$882, DW_AT_type(*$C$DW$T$22)
    6220                      .dwattr $C$DW$882, DW_AT_name("I2CCNT")
    6221                      .dwattr $C$DW$882, DW_AT_TI_symbol_name("_I2CCNT")
    6222                      .dwattr $C$DW$882, DW_AT_data_member_location[DW_OP_plus_uconst 0x5]
    6223                      .dwattr $C$DW$882, DW_AT_accessibility(DW_ACCESS_public)
    6224              $C$DW$883       .dwtag  DW_TAG_member
    6225                      .dwattr $C$DW$883, DW_AT_type(*$C$DW$T$22)
TMS320C2000 Assembler PC v6.4.10 Mon Jul 11 12:58:57 2016

Tools Copyright (c) 1996-2015 Texas Instruments Incorporated
C:\Users\bee25\AppData\Local\Temp\0350410                            PAGE  123

    6226                      .dwattr $C$DW$883, DW_AT_name("I2CDRR")
    6227                      .dwattr $C$DW$883, DW_AT_TI_symbol_name("_I2CDRR")
    6228                      .dwattr $C$DW$883, DW_AT_data_member_location[DW_OP_plus_uconst 0x6]
    6229                      .dwattr $C$DW$883, DW_AT_accessibility(DW_ACCESS_public)
    6230              $C$DW$884       .dwtag  DW_TAG_member
    6231                      .dwattr $C$DW$884, DW_AT_type(*$C$DW$T$22)
    6232                      .dwattr $C$DW$884, DW_AT_name("I2CSAR")
    6233                      .dwattr $C$DW$884, DW_AT_TI_symbol_name("_I2CSAR")
    6234                      .dwattr $C$DW$884, DW_AT_data_member_location[DW_OP_plus_uconst 0x7]
    6235                      .dwattr $C$DW$884, DW_AT_accessibility(DW_ACCESS_public)
    6236              $C$DW$885       .dwtag  DW_TAG_member
    6237                      .dwattr $C$DW$885, DW_AT_type(*$C$DW$T$22)
    6238                      .dwattr $C$DW$885, DW_AT_name("I2CDXR")
    6239                      .dwattr $C$DW$885, DW_AT_TI_symbol_name("_I2CDXR")
    6240                      .dwattr $C$DW$885, DW_AT_data_member_location[DW_OP_plus_uconst 0x8]
    6241                      .dwattr $C$DW$885, DW_AT_accessibility(DW_ACCESS_public)
    6242              $C$DW$886       .dwtag  DW_TAG_member
    6243                      .dwattr $C$DW$886, DW_AT_type(*$C$DW$T$34)
    6244                      .dwattr $C$DW$886, DW_AT_name("I2CMDR")
    6245                      .dwattr $C$DW$886, DW_AT_TI_symbol_name("_I2CMDR")
    6246                      .dwattr $C$DW$886, DW_AT_data_member_location[DW_OP_plus_uconst 0x9]
    6247                      .dwattr $C$DW$886, DW_AT_accessibility(DW_ACCESS_public)
    6248              $C$DW$887       .dwtag  DW_TAG_member
    6249                      .dwattr $C$DW$887, DW_AT_type(*$C$DW$T$32)
    6250                      .dwattr $C$DW$887, DW_AT_name("I2CISRC")
    6251                      .dwattr $C$DW$887, DW_AT_TI_symbol_name("_I2CISRC")
    6252                      .dwattr $C$DW$887, DW_AT_data_member_location[DW_OP_plus_uconst 0xa]
    6253                      .dwattr $C$DW$887, DW_AT_accessibility(DW_ACCESS_public)
    6254              $C$DW$888       .dwtag  DW_TAG_member
    6255                      .dwattr $C$DW$888, DW_AT_type(*$C$DW$T$24)
    6256                      .dwattr $C$DW$888, DW_AT_name("I2CEMDR")
    6257                      .dwattr $C$DW$888, DW_AT_TI_symbol_name("_I2CEMDR")
    6258                      .dwattr $C$DW$888, DW_AT_data_member_location[DW_OP_plus_uconst 0xb]
    6259                      .dwattr $C$DW$888, DW_AT_accessibility(DW_ACCESS_public)
    6260              $C$DW$889       .dwtag  DW_TAG_member
    6261                      .dwattr $C$DW$889, DW_AT_type(*$C$DW$T$36)
    6262                      .dwattr $C$DW$889, DW_AT_name("I2CPSC")
    6263                      .dwattr $C$DW$889, DW_AT_TI_symbol_name("_I2CPSC")
    6264                      .dwattr $C$DW$889, DW_AT_data_member_location[DW_OP_plus_uconst 0xc]
    6265                      .dwattr $C$DW$889, DW_AT_accessibility(DW_ACCESS_public)
    6266              $C$DW$890       .dwtag  DW_TAG_member
    6267                      .dwattr $C$DW$890, DW_AT_type(*$C$DW$T$139)
    6268                      .dwattr $C$DW$890, DW_AT_name("rsvd2")
    6269                      .dwattr $C$DW$890, DW_AT_TI_symbol_name("_rsvd2")
    6270                      .dwattr $C$DW$890, DW_AT_data_member_location[DW_OP_plus_uconst 0xd]
    6271                      .dwattr $C$DW$890, DW_AT_accessibility(DW_ACCESS_public)
    6272              $C$DW$891       .dwtag  DW_TAG_member
    6273                      .dwattr $C$DW$891, DW_AT_type(*$C$DW$T$28)
    6274                      .dwattr $C$DW$891, DW_AT_name("I2CFFTX")
    6275                      .dwattr $C$DW$891, DW_AT_TI_symbol_name("_I2CFFTX")
    6276                      .dwattr $C$DW$891, DW_AT_data_member_location[DW_OP_plus_uconst 0x20]
    6277                      .dwattr $C$DW$891, DW_AT_accessibility(DW_ACCESS_public)
    6278              $C$DW$892       .dwtag  DW_TAG_member
    6279                      .dwattr $C$DW$892, DW_AT_type(*$C$DW$T$26)
    6280                      .dwattr $C$DW$892, DW_AT_name("I2CFFRX")
TMS320C2000 Assembler PC v6.4.10 Mon Jul 11 12:58:57 2016

Tools Copyright (c) 1996-2015 Texas Instruments Incorporated
C:\Users\bee25\AppData\Local\Temp\0350410                            PAGE  124

    6281                      .dwattr $C$DW$892, DW_AT_TI_symbol_name("_I2CFFRX")
    6282                      .dwattr $C$DW$892, DW_AT_data_member_location[DW_OP_plus_uconst 0x21]
    6283                      .dwattr $C$DW$892, DW_AT_accessibility(DW_ACCESS_public)
    6284              $C$DW$893       .dwtag  DW_TAG_member
    6285                      .dwattr $C$DW$893, DW_AT_type(*$C$DW$T$59)
    6286                      .dwattr $C$DW$893, DW_AT_name("gpioHandle")
    6287                      .dwattr $C$DW$893, DW_AT_TI_symbol_name("_gpioHandle")
    6288                      .dwattr $C$DW$893, DW_AT_data_member_location[DW_OP_plus_uconst 0x22]
    6289                      .dwattr $C$DW$893, DW_AT_accessibility(DW_ACCESS_public)
    6290                      .dwendtag $C$DW$T$140
    6291              
    6292              $C$DW$T$136     .dwtag  DW_TAG_typedef, DW_AT_name("I2C_Obj")
    6293                      .dwattr $C$DW$T$136, DW_AT_type(*$C$DW$T$140)
    6294                      .dwattr $C$DW$T$136, DW_AT_language(DW_LANG_C)
    6295              $C$DW$T$134     .dwtag  DW_TAG_pointer_type
    6296                      .dwattr $C$DW$T$134, DW_AT_type(*$C$DW$T$140)
    6297                      .dwattr $C$DW$T$134, DW_AT_address_class(0x20)
    6298              $C$DW$T$135     .dwtag  DW_TAG_typedef, DW_AT_name("I2C_Handle")
    6299                      .dwattr $C$DW$T$135, DW_AT_type(*$C$DW$T$134)
    6300                      .dwattr $C$DW$T$135, DW_AT_language(DW_LANG_C)
    6301              
    6302              $C$DW$T$141     .dwtag  DW_TAG_structure_type
    6303                      .dwattr $C$DW$T$141, DW_AT_name("_IPARK_Obj_")
    6304                      .dwattr $C$DW$T$141, DW_AT_byte_size(0x04)
    6305              $C$DW$894       .dwtag  DW_TAG_member
    6306                      .dwattr $C$DW$894, DW_AT_type(*$C$DW$T$47)
    6307                      .dwattr $C$DW$894, DW_AT_name("sinTh")
    6308                      .dwattr $C$DW$894, DW_AT_TI_symbol_name("_sinTh")
    6309                      .dwattr $C$DW$894, DW_AT_data_member_location[DW_OP_plus_uconst 0x0]
    6310                      .dwattr $C$DW$894, DW_AT_accessibility(DW_ACCESS_public)
    6311              $C$DW$895       .dwtag  DW_TAG_member
    6312                      .dwattr $C$DW$895, DW_AT_type(*$C$DW$T$47)
    6313                      .dwattr $C$DW$895, DW_AT_name("cosTh")
    6314                      .dwattr $C$DW$895, DW_AT_TI_symbol_name("_cosTh")
    6315                      .dwattr $C$DW$895, DW_AT_data_member_location[DW_OP_plus_uconst 0x2]
    6316                      .dwattr $C$DW$895, DW_AT_accessibility(DW_ACCESS_public)
    6317                      .dwendtag $C$DW$T$141
    6318              
    6319              $C$DW$T$239     .dwtag  DW_TAG_typedef, DW_AT_name("IPARK_Obj")
    6320                      .dwattr $C$DW$T$239, DW_AT_type(*$C$DW$T$141)
    6321                      .dwattr $C$DW$T$239, DW_AT_language(DW_LANG_C)
    6322              $C$DW$T$240     .dwtag  DW_TAG_pointer_type
    6323                      .dwattr $C$DW$T$240, DW_AT_type(*$C$DW$T$239)
    6324                      .dwattr $C$DW$T$240, DW_AT_address_class(0x20)
    6325              $C$DW$T$241     .dwtag  DW_TAG_pointer_type
    6326                      .dwattr $C$DW$T$241, DW_AT_type(*$C$DW$T$141)
    6327                      .dwattr $C$DW$T$241, DW_AT_address_class(0x20)
    6328              $C$DW$T$242     .dwtag  DW_TAG_typedef, DW_AT_name("IPARK_Handle")
    6329                      .dwattr $C$DW$T$242, DW_AT_type(*$C$DW$T$241)
    6330                      .dwattr $C$DW$T$242, DW_AT_language(DW_LANG_C)
    6331              
    6332              $C$DW$T$143     .dwtag  DW_TAG_structure_type
    6333                      .dwattr $C$DW$T$143, DW_AT_name("_MATH_vec2_")
    6334                      .dwattr $C$DW$T$143, DW_AT_byte_size(0x04)
    6335              $C$DW$896       .dwtag  DW_TAG_member
TMS320C2000 Assembler PC v6.4.10 Mon Jul 11 12:58:57 2016

Tools Copyright (c) 1996-2015 Texas Instruments Incorporated
C:\Users\bee25\AppData\Local\Temp\0350410                            PAGE  125

    6336                      .dwattr $C$DW$896, DW_AT_type(*$C$DW$T$142)
    6337                      .dwattr $C$DW$896, DW_AT_name("value")
    6338                      .dwattr $C$DW$896, DW_AT_TI_symbol_name("_value")
    6339                      .dwattr $C$DW$896, DW_AT_data_member_location[DW_OP_plus_uconst 0x0]
    6340                      .dwattr $C$DW$896, DW_AT_accessibility(DW_ACCESS_public)
    6341                      .dwendtag $C$DW$T$143
    6342              
    6343              $C$DW$T$246     .dwtag  DW_TAG_typedef, DW_AT_name("MATH_vec2")
    6344                      .dwattr $C$DW$T$246, DW_AT_type(*$C$DW$T$143)
    6345                      .dwattr $C$DW$T$246, DW_AT_language(DW_LANG_C)
    6346              $C$DW$897       .dwtag  DW_TAG_TI_far_type
    6347                      .dwattr $C$DW$897, DW_AT_type(*$C$DW$T$246)
    6348              $C$DW$T$247     .dwtag  DW_TAG_const_type
    6349                      .dwattr $C$DW$T$247, DW_AT_type(*$C$DW$897)
    6350              $C$DW$T$248     .dwtag  DW_TAG_pointer_type
    6351                      .dwattr $C$DW$T$248, DW_AT_type(*$C$DW$T$247)
    6352                      .dwattr $C$DW$T$248, DW_AT_address_class(0x20)
    6353              $C$DW$T$249     .dwtag  DW_TAG_pointer_type
    6354                      .dwattr $C$DW$T$249, DW_AT_type(*$C$DW$T$246)
    6355                      .dwattr $C$DW$T$249, DW_AT_address_class(0x20)
    6356              
    6357              $C$DW$T$145     .dwtag  DW_TAG_structure_type
    6358                      .dwattr $C$DW$T$145, DW_AT_name("_MATH_vec3_")
    6359                      .dwattr $C$DW$T$145, DW_AT_byte_size(0x06)
    6360              $C$DW$898       .dwtag  DW_TAG_member
    6361                      .dwattr $C$DW$898, DW_AT_type(*$C$DW$T$144)
    6362                      .dwattr $C$DW$898, DW_AT_name("value")
    6363                      .dwattr $C$DW$898, DW_AT_TI_symbol_name("_value")
    6364                      .dwattr $C$DW$898, DW_AT_data_member_location[DW_OP_plus_uconst 0x0]
    6365                      .dwattr $C$DW$898, DW_AT_accessibility(DW_ACCESS_public)
    6366                      .dwendtag $C$DW$T$145
    6367              
    6368              $C$DW$T$98      .dwtag  DW_TAG_typedef, DW_AT_name("MATH_vec3")
    6369                      .dwattr $C$DW$T$98, DW_AT_type(*$C$DW$T$145)
    6370                      .dwattr $C$DW$T$98, DW_AT_language(DW_LANG_C)
    6371              
    6372              $C$DW$T$154     .dwtag  DW_TAG_structure_type
    6373                      .dwattr $C$DW$T$154, DW_AT_name("_MOTOR_Vars_t_")
    6374                      .dwattr $C$DW$T$154, DW_AT_byte_size(0x68)
    6375              $C$DW$899       .dwtag  DW_TAG_member
    6376                      .dwattr $C$DW$899, DW_AT_type(*$C$DW$T$62)
    6377                      .dwattr $C$DW$899, DW_AT_name("Flag_enableSys")
    6378                      .dwattr $C$DW$899, DW_AT_TI_symbol_name("_Flag_enableSys")
    6379                      .dwattr $C$DW$899, DW_AT_data_member_location[DW_OP_plus_uconst 0x0]
    6380                      .dwattr $C$DW$899, DW_AT_accessibility(DW_ACCESS_public)
    6381              $C$DW$900       .dwtag  DW_TAG_member
    6382                      .dwattr $C$DW$900, DW_AT_type(*$C$DW$T$62)
    6383                      .dwattr $C$DW$900, DW_AT_name("Flag_Run_Identify")
    6384                      .dwattr $C$DW$900, DW_AT_TI_symbol_name("_Flag_Run_Identify")
    6385                      .dwattr $C$DW$900, DW_AT_data_member_location[DW_OP_plus_uconst 0x1]
    6386                      .dwattr $C$DW$900, DW_AT_accessibility(DW_ACCESS_public)
    6387              $C$DW$901       .dwtag  DW_TAG_member
    6388                      .dwattr $C$DW$901, DW_AT_type(*$C$DW$T$62)
    6389                      .dwattr $C$DW$901, DW_AT_name("Flag_MotorIdentified")
    6390                      .dwattr $C$DW$901, DW_AT_TI_symbol_name("_Flag_MotorIdentified")
TMS320C2000 Assembler PC v6.4.10 Mon Jul 11 12:58:57 2016

Tools Copyright (c) 1996-2015 Texas Instruments Incorporated
C:\Users\bee25\AppData\Local\Temp\0350410                            PAGE  126

    6391                      .dwattr $C$DW$901, DW_AT_data_member_location[DW_OP_plus_uconst 0x2]
    6392                      .dwattr $C$DW$901, DW_AT_accessibility(DW_ACCESS_public)
    6393              $C$DW$902       .dwtag  DW_TAG_member
    6394                      .dwattr $C$DW$902, DW_AT_type(*$C$DW$T$62)
    6395                      .dwattr $C$DW$902, DW_AT_name("Flag_enableForceAngle")
    6396                      .dwattr $C$DW$902, DW_AT_TI_symbol_name("_Flag_enableForceAngle")
    6397                      .dwattr $C$DW$902, DW_AT_data_member_location[DW_OP_plus_uconst 0x3]
    6398                      .dwattr $C$DW$902, DW_AT_accessibility(DW_ACCESS_public)
    6399              $C$DW$903       .dwtag  DW_TAG_member
    6400                      .dwattr $C$DW$903, DW_AT_type(*$C$DW$T$62)
    6401                      .dwattr $C$DW$903, DW_AT_name("Flag_enableFieldWeakening")
    6402                      .dwattr $C$DW$903, DW_AT_TI_symbol_name("_Flag_enableFieldWeakening")
    6403                      .dwattr $C$DW$903, DW_AT_data_member_location[DW_OP_plus_uconst 0x4]
    6404                      .dwattr $C$DW$903, DW_AT_accessibility(DW_ACCESS_public)
    6405              $C$DW$904       .dwtag  DW_TAG_member
    6406                      .dwattr $C$DW$904, DW_AT_type(*$C$DW$T$62)
    6407                      .dwattr $C$DW$904, DW_AT_name("Flag_enableRsRecalc")
    6408                      .dwattr $C$DW$904, DW_AT_TI_symbol_name("_Flag_enableRsRecalc")
    6409                      .dwattr $C$DW$904, DW_AT_data_member_location[DW_OP_plus_uconst 0x5]
    6410                      .dwattr $C$DW$904, DW_AT_accessibility(DW_ACCESS_public)
    6411              $C$DW$905       .dwtag  DW_TAG_member
    6412                      .dwattr $C$DW$905, DW_AT_type(*$C$DW$T$62)
    6413                      .dwattr $C$DW$905, DW_AT_name("Flag_enableUserParams")
    6414                      .dwattr $C$DW$905, DW_AT_TI_symbol_name("_Flag_enableUserParams")
    6415                      .dwattr $C$DW$905, DW_AT_data_member_location[DW_OP_plus_uconst 0x6]
    6416                      .dwattr $C$DW$905, DW_AT_accessibility(DW_ACCESS_public)
    6417              $C$DW$906       .dwtag  DW_TAG_member
    6418                      .dwattr $C$DW$906, DW_AT_type(*$C$DW$T$62)
    6419                      .dwattr $C$DW$906, DW_AT_name("Flag_enableOffsetcalc")
    6420                      .dwattr $C$DW$906, DW_AT_TI_symbol_name("_Flag_enableOffsetcalc")
    6421                      .dwattr $C$DW$906, DW_AT_data_member_location[DW_OP_plus_uconst 0x7]
    6422                      .dwattr $C$DW$906, DW_AT_accessibility(DW_ACCESS_public)
    6423              $C$DW$907       .dwtag  DW_TAG_member
    6424                      .dwattr $C$DW$907, DW_AT_type(*$C$DW$T$62)
    6425                      .dwattr $C$DW$907, DW_AT_name("Flag_enablePowerWarp")
    6426                      .dwattr $C$DW$907, DW_AT_TI_symbol_name("_Flag_enablePowerWarp")
    6427                      .dwattr $C$DW$907, DW_AT_data_member_location[DW_OP_plus_uconst 0x8]
    6428                      .dwattr $C$DW$907, DW_AT_accessibility(DW_ACCESS_public)
    6429              $C$DW$908       .dwtag  DW_TAG_member
    6430                      .dwattr $C$DW$908, DW_AT_type(*$C$DW$T$62)
    6431                      .dwattr $C$DW$908, DW_AT_name("Flag_enableSpeedCtrl")
    6432                      .dwattr $C$DW$908, DW_AT_TI_symbol_name("_Flag_enableSpeedCtrl")
    6433                      .dwattr $C$DW$908, DW_AT_data_member_location[DW_OP_plus_uconst 0x9]
    6434                      .dwattr $C$DW$908, DW_AT_accessibility(DW_ACCESS_public)
    6435              $C$DW$909       .dwtag  DW_TAG_member
    6436                      .dwattr $C$DW$909, DW_AT_type(*$C$DW$T$147)
    6437                      .dwattr $C$DW$909, DW_AT_name("CtrlState")
    6438                      .dwattr $C$DW$909, DW_AT_TI_symbol_name("_CtrlState")
    6439                      .dwattr $C$DW$909, DW_AT_data_member_location[DW_OP_plus_uconst 0xa]
    6440                      .dwattr $C$DW$909, DW_AT_accessibility(DW_ACCESS_public)
    6441              $C$DW$910       .dwtag  DW_TAG_member
    6442                      .dwattr $C$DW$910, DW_AT_type(*$C$DW$T$149)
    6443                      .dwattr $C$DW$910, DW_AT_name("EstState")
    6444                      .dwattr $C$DW$910, DW_AT_TI_symbol_name("_EstState")
    6445                      .dwattr $C$DW$910, DW_AT_data_member_location[DW_OP_plus_uconst 0xb]
TMS320C2000 Assembler PC v6.4.10 Mon Jul 11 12:58:57 2016

Tools Copyright (c) 1996-2015 Texas Instruments Incorporated
C:\Users\bee25\AppData\Local\Temp\0350410                            PAGE  127

    6446                      .dwattr $C$DW$910, DW_AT_accessibility(DW_ACCESS_public)
    6447              $C$DW$911       .dwtag  DW_TAG_member
    6448                      .dwattr $C$DW$911, DW_AT_type(*$C$DW$T$151)
    6449                      .dwattr $C$DW$911, DW_AT_name("UserErrorCode")
    6450                      .dwattr $C$DW$911, DW_AT_TI_symbol_name("_UserErrorCode")
    6451                      .dwattr $C$DW$911, DW_AT_data_member_location[DW_OP_plus_uconst 0xc]
    6452                      .dwattr $C$DW$911, DW_AT_accessibility(DW_ACCESS_public)
    6453              $C$DW$912       .dwtag  DW_TAG_member
    6454                      .dwattr $C$DW$912, DW_AT_type(*$C$DW$T$152)
    6455                      .dwattr $C$DW$912, DW_AT_name("CtrlVersion")
    6456                      .dwattr $C$DW$912, DW_AT_TI_symbol_name("_CtrlVersion")
    6457                      .dwattr $C$DW$912, DW_AT_data_member_location[DW_OP_plus_uconst 0xd]
    6458                      .dwattr $C$DW$912, DW_AT_accessibility(DW_ACCESS_public)
    6459              $C$DW$913       .dwtag  DW_TAG_member
    6460                      .dwattr $C$DW$913, DW_AT_type(*$C$DW$T$47)
    6461                      .dwattr $C$DW$913, DW_AT_name("IdRef_A")
    6462                      .dwattr $C$DW$913, DW_AT_TI_symbol_name("_IdRef_A")
    6463                      .dwattr $C$DW$913, DW_AT_data_member_location[DW_OP_plus_uconst 0x12]
    6464                      .dwattr $C$DW$913, DW_AT_accessibility(DW_ACCESS_public)
    6465              $C$DW$914       .dwtag  DW_TAG_member
    6466                      .dwattr $C$DW$914, DW_AT_type(*$C$DW$T$47)
    6467                      .dwattr $C$DW$914, DW_AT_name("IqRef_A")
    6468                      .dwattr $C$DW$914, DW_AT_TI_symbol_name("_IqRef_A")
    6469                      .dwattr $C$DW$914, DW_AT_data_member_location[DW_OP_plus_uconst 0x14]
    6470                      .dwattr $C$DW$914, DW_AT_accessibility(DW_ACCESS_public)
    6471              $C$DW$915       .dwtag  DW_TAG_member
    6472                      .dwattr $C$DW$915, DW_AT_type(*$C$DW$T$47)
    6473                      .dwattr $C$DW$915, DW_AT_name("SpeedRef_pu")
    6474                      .dwattr $C$DW$915, DW_AT_TI_symbol_name("_SpeedRef_pu")
    6475                      .dwattr $C$DW$915, DW_AT_data_member_location[DW_OP_plus_uconst 0x16]
    6476                      .dwattr $C$DW$915, DW_AT_accessibility(DW_ACCESS_public)
    6477              $C$DW$916       .dwtag  DW_TAG_member
    6478                      .dwattr $C$DW$916, DW_AT_type(*$C$DW$T$47)
    6479                      .dwattr $C$DW$916, DW_AT_name("SpeedRef_krpm")
    6480                      .dwattr $C$DW$916, DW_AT_TI_symbol_name("_SpeedRef_krpm")
    6481                      .dwattr $C$DW$916, DW_AT_data_member_location[DW_OP_plus_uconst 0x18]
    6482                      .dwattr $C$DW$916, DW_AT_accessibility(DW_ACCESS_public)
    6483              $C$DW$917       .dwtag  DW_TAG_member
    6484                      .dwattr $C$DW$917, DW_AT_type(*$C$DW$T$47)
    6485                      .dwattr $C$DW$917, DW_AT_name("SpeedTraj_krpm")
    6486                      .dwattr $C$DW$917, DW_AT_TI_symbol_name("_SpeedTraj_krpm")
    6487                      .dwattr $C$DW$917, DW_AT_data_member_location[DW_OP_plus_uconst 0x1a]
    6488                      .dwattr $C$DW$917, DW_AT_accessibility(DW_ACCESS_public)
    6489              $C$DW$918       .dwtag  DW_TAG_member
    6490                      .dwattr $C$DW$918, DW_AT_type(*$C$DW$T$47)
    6491                      .dwattr $C$DW$918, DW_AT_name("MaxAccel_krpmps")
    6492                      .dwattr $C$DW$918, DW_AT_TI_symbol_name("_MaxAccel_krpmps")
    6493                      .dwattr $C$DW$918, DW_AT_data_member_location[DW_OP_plus_uconst 0x1c]
    6494                      .dwattr $C$DW$918, DW_AT_accessibility(DW_ACCESS_public)
    6495              $C$DW$919       .dwtag  DW_TAG_member
    6496                      .dwattr $C$DW$919, DW_AT_type(*$C$DW$T$47)
    6497                      .dwattr $C$DW$919, DW_AT_name("Speed_krpm")
    6498                      .dwattr $C$DW$919, DW_AT_TI_symbol_name("_Speed_krpm")
    6499                      .dwattr $C$DW$919, DW_AT_data_member_location[DW_OP_plus_uconst 0x1e]
    6500                      .dwattr $C$DW$919, DW_AT_accessibility(DW_ACCESS_public)
TMS320C2000 Assembler PC v6.4.10 Mon Jul 11 12:58:57 2016

Tools Copyright (c) 1996-2015 Texas Instruments Incorporated
C:\Users\bee25\AppData\Local\Temp\0350410                            PAGE  128

    6501              $C$DW$920       .dwtag  DW_TAG_member
    6502                      .dwattr $C$DW$920, DW_AT_type(*$C$DW$T$47)
    6503                      .dwattr $C$DW$920, DW_AT_name("OverModulation")
    6504                      .dwattr $C$DW$920, DW_AT_TI_symbol_name("_OverModulation")
    6505                      .dwattr $C$DW$920, DW_AT_data_member_location[DW_OP_plus_uconst 0x20]
    6506                      .dwattr $C$DW$920, DW_AT_accessibility(DW_ACCESS_public)
    6507              $C$DW$921       .dwtag  DW_TAG_member
    6508                      .dwattr $C$DW$921, DW_AT_type(*$C$DW$T$47)
    6509                      .dwattr $C$DW$921, DW_AT_name("RsOnLineCurrent_A")
    6510                      .dwattr $C$DW$921, DW_AT_TI_symbol_name("_RsOnLineCurrent_A")
    6511                      .dwattr $C$DW$921, DW_AT_data_member_location[DW_OP_plus_uconst 0x22]
    6512                      .dwattr $C$DW$921, DW_AT_accessibility(DW_ACCESS_public)
    6513              $C$DW$922       .dwtag  DW_TAG_member
    6514                      .dwattr $C$DW$922, DW_AT_type(*$C$DW$T$47)
    6515                      .dwattr $C$DW$922, DW_AT_name("SvgenMaxModulation_ticks")
    6516                      .dwattr $C$DW$922, DW_AT_TI_symbol_name("_SvgenMaxModulation_ticks")
    6517                      .dwattr $C$DW$922, DW_AT_data_member_location[DW_OP_plus_uconst 0x24]
    6518                      .dwattr $C$DW$922, DW_AT_accessibility(DW_ACCESS_public)
    6519              $C$DW$923       .dwtag  DW_TAG_member
    6520                      .dwattr $C$DW$923, DW_AT_type(*$C$DW$T$47)
    6521                      .dwattr $C$DW$923, DW_AT_name("Flux_Wb")
    6522                      .dwattr $C$DW$923, DW_AT_TI_symbol_name("_Flux_Wb")
    6523                      .dwattr $C$DW$923, DW_AT_data_member_location[DW_OP_plus_uconst 0x26]
    6524                      .dwattr $C$DW$923, DW_AT_accessibility(DW_ACCESS_public)
    6525              $C$DW$924       .dwtag  DW_TAG_member
    6526                      .dwattr $C$DW$924, DW_AT_type(*$C$DW$T$47)
    6527                      .dwattr $C$DW$924, DW_AT_name("Torque_Nm")
    6528                      .dwattr $C$DW$924, DW_AT_TI_symbol_name("_Torque_Nm")
    6529                      .dwattr $C$DW$924, DW_AT_data_member_location[DW_OP_plus_uconst 0x28]
    6530                      .dwattr $C$DW$924, DW_AT_accessibility(DW_ACCESS_public)
    6531              $C$DW$925       .dwtag  DW_TAG_member
    6532                      .dwattr $C$DW$925, DW_AT_type(*$C$DW$T$153)
    6533                      .dwattr $C$DW$925, DW_AT_name("MagnCurr_A")
    6534                      .dwattr $C$DW$925, DW_AT_TI_symbol_name("_MagnCurr_A")
    6535                      .dwattr $C$DW$925, DW_AT_data_member_location[DW_OP_plus_uconst 0x2a]
    6536                      .dwattr $C$DW$925, DW_AT_accessibility(DW_ACCESS_public)
    6537              $C$DW$926       .dwtag  DW_TAG_member
    6538                      .dwattr $C$DW$926, DW_AT_type(*$C$DW$T$153)
    6539                      .dwattr $C$DW$926, DW_AT_name("Rr_Ohm")
    6540                      .dwattr $C$DW$926, DW_AT_TI_symbol_name("_Rr_Ohm")
    6541                      .dwattr $C$DW$926, DW_AT_data_member_location[DW_OP_plus_uconst 0x2c]
    6542                      .dwattr $C$DW$926, DW_AT_accessibility(DW_ACCESS_public)
    6543              $C$DW$927       .dwtag  DW_TAG_member
    6544                      .dwattr $C$DW$927, DW_AT_type(*$C$DW$T$153)
    6545                      .dwattr $C$DW$927, DW_AT_name("Rs_Ohm")
    6546                      .dwattr $C$DW$927, DW_AT_TI_symbol_name("_Rs_Ohm")
    6547                      .dwattr $C$DW$927, DW_AT_data_member_location[DW_OP_plus_uconst 0x2e]
    6548                      .dwattr $C$DW$927, DW_AT_accessibility(DW_ACCESS_public)
    6549              $C$DW$928       .dwtag  DW_TAG_member
    6550                      .dwattr $C$DW$928, DW_AT_type(*$C$DW$T$153)
    6551                      .dwattr $C$DW$928, DW_AT_name("RsOnLine_Ohm")
    6552                      .dwattr $C$DW$928, DW_AT_TI_symbol_name("_RsOnLine_Ohm")
    6553                      .dwattr $C$DW$928, DW_AT_data_member_location[DW_OP_plus_uconst 0x30]
    6554                      .dwattr $C$DW$928, DW_AT_accessibility(DW_ACCESS_public)
    6555              $C$DW$929       .dwtag  DW_TAG_member
TMS320C2000 Assembler PC v6.4.10 Mon Jul 11 12:58:57 2016

Tools Copyright (c) 1996-2015 Texas Instruments Incorporated
C:\Users\bee25\AppData\Local\Temp\0350410                            PAGE  129

    6556                      .dwattr $C$DW$929, DW_AT_type(*$C$DW$T$153)
    6557                      .dwattr $C$DW$929, DW_AT_name("Lsd_H")
    6558                      .dwattr $C$DW$929, DW_AT_TI_symbol_name("_Lsd_H")
    6559                      .dwattr $C$DW$929, DW_AT_data_member_location[DW_OP_plus_uconst 0x32]
    6560                      .dwattr $C$DW$929, DW_AT_accessibility(DW_ACCESS_public)
    6561              $C$DW$930       .dwtag  DW_TAG_member
    6562                      .dwattr $C$DW$930, DW_AT_type(*$C$DW$T$153)
    6563                      .dwattr $C$DW$930, DW_AT_name("Lsq_H")
    6564                      .dwattr $C$DW$930, DW_AT_TI_symbol_name("_Lsq_H")
    6565                      .dwattr $C$DW$930, DW_AT_data_member_location[DW_OP_plus_uconst 0x34]
    6566                      .dwattr $C$DW$930, DW_AT_accessibility(DW_ACCESS_public)
    6567              $C$DW$931       .dwtag  DW_TAG_member
    6568                      .dwattr $C$DW$931, DW_AT_type(*$C$DW$T$153)
    6569                      .dwattr $C$DW$931, DW_AT_name("Flux_VpHz")
    6570                      .dwattr $C$DW$931, DW_AT_TI_symbol_name("_Flux_VpHz")
    6571                      .dwattr $C$DW$931, DW_AT_data_member_location[DW_OP_plus_uconst 0x36]
    6572                      .dwattr $C$DW$931, DW_AT_accessibility(DW_ACCESS_public)
    6573              $C$DW$932       .dwtag  DW_TAG_member
    6574                      .dwattr $C$DW$932, DW_AT_type(*$C$DW$T$153)
    6575                      .dwattr $C$DW$932, DW_AT_name("ipd_excFreq_Hz")
    6576                      .dwattr $C$DW$932, DW_AT_TI_symbol_name("_ipd_excFreq_Hz")
    6577                      .dwattr $C$DW$932, DW_AT_data_member_location[DW_OP_plus_uconst 0x38]
    6578                      .dwattr $C$DW$932, DW_AT_accessibility(DW_ACCESS_public)
    6579              $C$DW$933       .dwtag  DW_TAG_member
    6580                      .dwattr $C$DW$933, DW_AT_type(*$C$DW$T$47)
    6581                      .dwattr $C$DW$933, DW_AT_name("ipd_Kspd")
    6582                      .dwattr $C$DW$933, DW_AT_TI_symbol_name("_ipd_Kspd")
    6583                      .dwattr $C$DW$933, DW_AT_data_member_location[DW_OP_plus_uconst 0x3a]
    6584                      .dwattr $C$DW$933, DW_AT_accessibility(DW_ACCESS_public)
    6585              $C$DW$934       .dwtag  DW_TAG_member
    6586                      .dwattr $C$DW$934, DW_AT_type(*$C$DW$T$47)
    6587                      .dwattr $C$DW$934, DW_AT_name("ipd_excMag_coarse_pu")
    6588                      .dwattr $C$DW$934, DW_AT_TI_symbol_name("_ipd_excMag_coarse_pu")
    6589                      .dwattr $C$DW$934, DW_AT_data_member_location[DW_OP_plus_uconst 0x3c]
    6590                      .dwattr $C$DW$934, DW_AT_accessibility(DW_ACCESS_public)
    6591              $C$DW$935       .dwtag  DW_TAG_member
    6592                      .dwattr $C$DW$935, DW_AT_type(*$C$DW$T$47)
    6593                      .dwattr $C$DW$935, DW_AT_name("ipd_excMag_fine_pu")
    6594                      .dwattr $C$DW$935, DW_AT_TI_symbol_name("_ipd_excMag_fine_pu")
    6595                      .dwattr $C$DW$935, DW_AT_data_member_location[DW_OP_plus_uconst 0x3e]
    6596                      .dwattr $C$DW$935, DW_AT_accessibility(DW_ACCESS_public)
    6597              $C$DW$936       .dwtag  DW_TAG_member
    6598                      .dwattr $C$DW$936, DW_AT_type(*$C$DW$T$16)
    6599                      .dwattr $C$DW$936, DW_AT_name("ipd_waitTime_coarse_sec")
    6600                      .dwattr $C$DW$936, DW_AT_TI_symbol_name("_ipd_waitTime_coarse_sec")
    6601                      .dwattr $C$DW$936, DW_AT_data_member_location[DW_OP_plus_uconst 0x40]
    6602                      .dwattr $C$DW$936, DW_AT_accessibility(DW_ACCESS_public)
    6603              $C$DW$937       .dwtag  DW_TAG_member
    6604                      .dwattr $C$DW$937, DW_AT_type(*$C$DW$T$16)
    6605                      .dwattr $C$DW$937, DW_AT_name("ipd_waitTime_fine_sec")
    6606                      .dwattr $C$DW$937, DW_AT_TI_symbol_name("_ipd_waitTime_fine_sec")
    6607                      .dwattr $C$DW$937, DW_AT_data_member_location[DW_OP_plus_uconst 0x42]
    6608                      .dwattr $C$DW$937, DW_AT_accessibility(DW_ACCESS_public)
    6609              $C$DW$938       .dwtag  DW_TAG_member
    6610                      .dwattr $C$DW$938, DW_AT_type(*$C$DW$T$47)
TMS320C2000 Assembler PC v6.4.10 Mon Jul 11 12:58:57 2016

Tools Copyright (c) 1996-2015 Texas Instruments Incorporated
C:\Users\bee25\AppData\Local\Temp\0350410                            PAGE  130

    6611                      .dwattr $C$DW$938, DW_AT_name("Kp_spd")
    6612                      .dwattr $C$DW$938, DW_AT_TI_symbol_name("_Kp_spd")
    6613                      .dwattr $C$DW$938, DW_AT_data_member_location[DW_OP_plus_uconst 0x44]
    6614                      .dwattr $C$DW$938, DW_AT_accessibility(DW_ACCESS_public)
    6615              $C$DW$939       .dwtag  DW_TAG_member
    6616                      .dwattr $C$DW$939, DW_AT_type(*$C$DW$T$47)
    6617                      .dwattr $C$DW$939, DW_AT_name("Ki_spd")
    6618                      .dwattr $C$DW$939, DW_AT_TI_symbol_name("_Ki_spd")
    6619                      .dwattr $C$DW$939, DW_AT_data_member_location[DW_OP_plus_uconst 0x46]
    6620                      .dwattr $C$DW$939, DW_AT_accessibility(DW_ACCESS_public)
    6621              $C$DW$940       .dwtag  DW_TAG_member
    6622                      .dwattr $C$DW$940, DW_AT_type(*$C$DW$T$47)
    6623                      .dwattr $C$DW$940, DW_AT_name("Kp_Idq")
    6624                      .dwattr $C$DW$940, DW_AT_TI_symbol_name("_Kp_Idq")
    6625                      .dwattr $C$DW$940, DW_AT_data_member_location[DW_OP_plus_uconst 0x48]
    6626                      .dwattr $C$DW$940, DW_AT_accessibility(DW_ACCESS_public)
    6627              $C$DW$941       .dwtag  DW_TAG_member
    6628                      .dwattr $C$DW$941, DW_AT_type(*$C$DW$T$47)
    6629                      .dwattr $C$DW$941, DW_AT_name("Ki_Idq")
    6630                      .dwattr $C$DW$941, DW_AT_TI_symbol_name("_Ki_Idq")
    6631                      .dwattr $C$DW$941, DW_AT_data_member_location[DW_OP_plus_uconst 0x4a]
    6632                      .dwattr $C$DW$941, DW_AT_accessibility(DW_ACCESS_public)
    6633              $C$DW$942       .dwtag  DW_TAG_member
    6634                      .dwattr $C$DW$942, DW_AT_type(*$C$DW$T$47)
    6635                      .dwattr $C$DW$942, DW_AT_name("Vd")
    6636                      .dwattr $C$DW$942, DW_AT_TI_symbol_name("_Vd")
    6637                      .dwattr $C$DW$942, DW_AT_data_member_location[DW_OP_plus_uconst 0x4c]
    6638                      .dwattr $C$DW$942, DW_AT_accessibility(DW_ACCESS_public)
    6639              $C$DW$943       .dwtag  DW_TAG_member
    6640                      .dwattr $C$DW$943, DW_AT_type(*$C$DW$T$47)
    6641                      .dwattr $C$DW$943, DW_AT_name("Vq")
    6642                      .dwattr $C$DW$943, DW_AT_TI_symbol_name("_Vq")
    6643                      .dwattr $C$DW$943, DW_AT_data_member_location[DW_OP_plus_uconst 0x4e]
    6644                      .dwattr $C$DW$943, DW_AT_accessibility(DW_ACCESS_public)
    6645              $C$DW$944       .dwtag  DW_TAG_member
    6646                      .dwattr $C$DW$944, DW_AT_type(*$C$DW$T$47)
    6647                      .dwattr $C$DW$944, DW_AT_name("Vs")
    6648                      .dwattr $C$DW$944, DW_AT_TI_symbol_name("_Vs")
    6649                      .dwattr $C$DW$944, DW_AT_data_member_location[DW_OP_plus_uconst 0x50]
    6650                      .dwattr $C$DW$944, DW_AT_accessibility(DW_ACCESS_public)
    6651              $C$DW$945       .dwtag  DW_TAG_member
    6652                      .dwattr $C$DW$945, DW_AT_type(*$C$DW$T$47)
    6653                      .dwattr $C$DW$945, DW_AT_name("VsRef")
    6654                      .dwattr $C$DW$945, DW_AT_TI_symbol_name("_VsRef")
    6655                      .dwattr $C$DW$945, DW_AT_data_member_location[DW_OP_plus_uconst 0x52]
    6656                      .dwattr $C$DW$945, DW_AT_accessibility(DW_ACCESS_public)
    6657              $C$DW$946       .dwtag  DW_TAG_member
    6658                      .dwattr $C$DW$946, DW_AT_type(*$C$DW$T$47)
    6659                      .dwattr $C$DW$946, DW_AT_name("VdcBus_kV")
    6660                      .dwattr $C$DW$946, DW_AT_TI_symbol_name("_VdcBus_kV")
    6661                      .dwattr $C$DW$946, DW_AT_data_member_location[DW_OP_plus_uconst 0x54]
    6662                      .dwattr $C$DW$946, DW_AT_accessibility(DW_ACCESS_public)
    6663              $C$DW$947       .dwtag  DW_TAG_member
    6664                      .dwattr $C$DW$947, DW_AT_type(*$C$DW$T$47)
    6665                      .dwattr $C$DW$947, DW_AT_name("Id_A")
TMS320C2000 Assembler PC v6.4.10 Mon Jul 11 12:58:57 2016

Tools Copyright (c) 1996-2015 Texas Instruments Incorporated
C:\Users\bee25\AppData\Local\Temp\0350410                            PAGE  131

    6666                      .dwattr $C$DW$947, DW_AT_TI_symbol_name("_Id_A")
    6667                      .dwattr $C$DW$947, DW_AT_data_member_location[DW_OP_plus_uconst 0x56]
    6668                      .dwattr $C$DW$947, DW_AT_accessibility(DW_ACCESS_public)
    6669              $C$DW$948       .dwtag  DW_TAG_member
    6670                      .dwattr $C$DW$948, DW_AT_type(*$C$DW$T$47)
    6671                      .dwattr $C$DW$948, DW_AT_name("Iq_A")
    6672                      .dwattr $C$DW$948, DW_AT_TI_symbol_name("_Iq_A")
    6673                      .dwattr $C$DW$948, DW_AT_data_member_location[DW_OP_plus_uconst 0x58]
    6674                      .dwattr $C$DW$948, DW_AT_accessibility(DW_ACCESS_public)
    6675              $C$DW$949       .dwtag  DW_TAG_member
    6676                      .dwattr $C$DW$949, DW_AT_type(*$C$DW$T$47)
    6677                      .dwattr $C$DW$949, DW_AT_name("Is_A")
    6678                      .dwattr $C$DW$949, DW_AT_TI_symbol_name("_Is_A")
    6679                      .dwattr $C$DW$949, DW_AT_data_member_location[DW_OP_plus_uconst 0x5a]
    6680                      .dwattr $C$DW$949, DW_AT_accessibility(DW_ACCESS_public)
    6681              $C$DW$950       .dwtag  DW_TAG_member
    6682                      .dwattr $C$DW$950, DW_AT_type(*$C$DW$T$98)
    6683                      .dwattr $C$DW$950, DW_AT_name("I_bias")
    6684                      .dwattr $C$DW$950, DW_AT_TI_symbol_name("_I_bias")
    6685                      .dwattr $C$DW$950, DW_AT_data_member_location[DW_OP_plus_uconst 0x5c]
    6686                      .dwattr $C$DW$950, DW_AT_accessibility(DW_ACCESS_public)
    6687              $C$DW$951       .dwtag  DW_TAG_member
    6688                      .dwattr $C$DW$951, DW_AT_type(*$C$DW$T$98)
    6689                      .dwattr $C$DW$951, DW_AT_name("V_bias")
    6690                      .dwattr $C$DW$951, DW_AT_TI_symbol_name("_V_bias")
    6691                      .dwattr $C$DW$951, DW_AT_data_member_location[DW_OP_plus_uconst 0x62]
    6692                      .dwattr $C$DW$951, DW_AT_accessibility(DW_ACCESS_public)
    6693                      .dwendtag $C$DW$T$154
    6694              
    6695              $C$DW$T$255     .dwtag  DW_TAG_typedef, DW_AT_name("MOTOR_Vars_t")
    6696                      .dwattr $C$DW$T$255, DW_AT_type(*$C$DW$T$154)
    6697                      .dwattr $C$DW$T$255, DW_AT_language(DW_LANG_C)
    6698              $C$DW$952       .dwtag  DW_TAG_TI_far_type
    6699                      .dwattr $C$DW$952, DW_AT_type(*$C$DW$T$255)
    6700              $C$DW$T$256     .dwtag  DW_TAG_volatile_type
    6701                      .dwattr $C$DW$T$256, DW_AT_type(*$C$DW$952)
    6702              
    6703              $C$DW$T$158     .dwtag  DW_TAG_structure_type
    6704                      .dwattr $C$DW$T$158, DW_AT_name("_OFFSET_")
    6705                      .dwattr $C$DW$T$158, DW_AT_byte_size(0x10)
    6706              $C$DW$953       .dwtag  DW_TAG_member
    6707                      .dwattr $C$DW$953, DW_AT_type(*$C$DW$T$47)
    6708                      .dwattr $C$DW$953, DW_AT_name("value")
    6709                      .dwattr $C$DW$953, DW_AT_TI_symbol_name("_value")
    6710                      .dwattr $C$DW$953, DW_AT_data_member_location[DW_OP_plus_uconst 0x0]
    6711                      .dwattr $C$DW$953, DW_AT_accessibility(DW_ACCESS_public)
    6712              $C$DW$954       .dwtag  DW_TAG_member
    6713                      .dwattr $C$DW$954, DW_AT_type(*$C$DW$T$47)
    6714                      .dwattr $C$DW$954, DW_AT_name("bias")
    6715                      .dwattr $C$DW$954, DW_AT_TI_symbol_name("_bias")
    6716                      .dwattr $C$DW$954, DW_AT_data_member_location[DW_OP_plus_uconst 0x2]
    6717                      .dwattr $C$DW$954, DW_AT_accessibility(DW_ACCESS_public)
    6718              $C$DW$955       .dwtag  DW_TAG_member
    6719                      .dwattr $C$DW$955, DW_AT_type(*$C$DW$T$155)
    6720                      .dwattr $C$DW$955, DW_AT_name("filter")
TMS320C2000 Assembler PC v6.4.10 Mon Jul 11 12:58:57 2016

Tools Copyright (c) 1996-2015 Texas Instruments Incorporated
C:\Users\bee25\AppData\Local\Temp\0350410                            PAGE  132

    6721                      .dwattr $C$DW$955, DW_AT_TI_symbol_name("_filter")
    6722                      .dwattr $C$DW$955, DW_AT_data_member_location[DW_OP_plus_uconst 0x4]
    6723                      .dwattr $C$DW$955, DW_AT_accessibility(DW_ACCESS_public)
    6724              $C$DW$956       .dwtag  DW_TAG_member
    6725                      .dwattr $C$DW$956, DW_AT_type(*$C$DW$T$157)
    6726                      .dwattr $C$DW$956, DW_AT_name("filterHandle")
    6727                      .dwattr $C$DW$956, DW_AT_TI_symbol_name("_filterHandle")
    6728                      .dwattr $C$DW$956, DW_AT_data_member_location[DW_OP_plus_uconst 0xe]
    6729                      .dwattr $C$DW$956, DW_AT_accessibility(DW_ACCESS_public)
    6730                      .dwendtag $C$DW$T$158
    6731              
    6732              $C$DW$T$111     .dwtag  DW_TAG_typedef, DW_AT_name("OFFSET_Obj")
    6733                      .dwattr $C$DW$T$111, DW_AT_type(*$C$DW$T$158)
    6734                      .dwattr $C$DW$T$111, DW_AT_language(DW_LANG_C)
    6735              
    6736              $C$DW$T$112     .dwtag  DW_TAG_array_type
    6737                      .dwattr $C$DW$T$112, DW_AT_type(*$C$DW$T$111)
    6738                      .dwattr $C$DW$T$112, DW_AT_language(DW_LANG_C)
    6739                      .dwattr $C$DW$T$112, DW_AT_byte_size(0x30)
    6740              $C$DW$957       .dwtag  DW_TAG_subrange_type
    6741                      .dwattr $C$DW$957, DW_AT_upper_bound(0x02)
    6742                      .dwendtag $C$DW$T$112
    6743              
    6744              
    6745              $C$DW$T$21      .dwtag  DW_TAG_structure_type
    6746                      .dwattr $C$DW$T$21, DW_AT_name("_OFFSET_Obj_")
    6747                      .dwattr $C$DW$T$21, DW_AT_declaration
    6748                      .dwendtag $C$DW$T$21
    6749              
    6750              $C$DW$T$108     .dwtag  DW_TAG_pointer_type
    6751                      .dwattr $C$DW$T$108, DW_AT_type(*$C$DW$T$21)
    6752                      .dwattr $C$DW$T$108, DW_AT_address_class(0x20)
    6753              $C$DW$T$109     .dwtag  DW_TAG_typedef, DW_AT_name("OFFSET_Handle")
    6754                      .dwattr $C$DW$T$109, DW_AT_type(*$C$DW$T$108)
    6755                      .dwattr $C$DW$T$109, DW_AT_language(DW_LANG_C)
    6756              
    6757              $C$DW$T$110     .dwtag  DW_TAG_array_type
    6758                      .dwattr $C$DW$T$110, DW_AT_type(*$C$DW$T$109)
    6759                      .dwattr $C$DW$T$110, DW_AT_language(DW_LANG_C)
    6760                      .dwattr $C$DW$T$110, DW_AT_byte_size(0x06)
    6761              $C$DW$958       .dwtag  DW_TAG_subrange_type
    6762                      .dwattr $C$DW$958, DW_AT_upper_bound(0x02)
    6763                      .dwendtag $C$DW$T$110
    6764              
    6765              
    6766              $C$DW$T$159     .dwtag  DW_TAG_structure_type
    6767                      .dwattr $C$DW$T$159, DW_AT_name("_OSC_Obj_")
    6768                      .dwattr $C$DW$T$159, DW_AT_byte_size(0x03)
    6769              $C$DW$959       .dwtag  DW_TAG_member
    6770                      .dwattr $C$DW$959, DW_AT_type(*$C$DW$T$39)
    6771                      .dwattr $C$DW$959, DW_AT_name("INTOSC1TRIM")
    6772                      .dwattr $C$DW$959, DW_AT_TI_symbol_name("_INTOSC1TRIM")
    6773                      .dwattr $C$DW$959, DW_AT_data_member_location[DW_OP_plus_uconst 0x0]
    6774                      .dwattr $C$DW$959, DW_AT_accessibility(DW_ACCESS_public)
    6775              $C$DW$960       .dwtag  DW_TAG_member
TMS320C2000 Assembler PC v6.4.10 Mon Jul 11 12:58:57 2016

Tools Copyright (c) 1996-2015 Texas Instruments Incorporated
C:\Users\bee25\AppData\Local\Temp\0350410                            PAGE  133

    6776                      .dwattr $C$DW$960, DW_AT_type(*$C$DW$T$39)
    6777                      .dwattr $C$DW$960, DW_AT_name("rsvd_1")
    6778                      .dwattr $C$DW$960, DW_AT_TI_symbol_name("_rsvd_1")
    6779                      .dwattr $C$DW$960, DW_AT_data_member_location[DW_OP_plus_uconst 0x1]
    6780                      .dwattr $C$DW$960, DW_AT_accessibility(DW_ACCESS_public)
    6781              $C$DW$961       .dwtag  DW_TAG_member
    6782                      .dwattr $C$DW$961, DW_AT_type(*$C$DW$T$39)
    6783                      .dwattr $C$DW$961, DW_AT_name("INTOSC2TRIM")
    6784                      .dwattr $C$DW$961, DW_AT_TI_symbol_name("_INTOSC2TRIM")
    6785                      .dwattr $C$DW$961, DW_AT_data_member_location[DW_OP_plus_uconst 0x2]
    6786                      .dwattr $C$DW$961, DW_AT_accessibility(DW_ACCESS_public)
    6787                      .dwendtag $C$DW$T$159
    6788              
    6789              $C$DW$T$113     .dwtag  DW_TAG_pointer_type
    6790                      .dwattr $C$DW$T$113, DW_AT_type(*$C$DW$T$159)
    6791                      .dwattr $C$DW$T$113, DW_AT_address_class(0x20)
    6792              $C$DW$T$114     .dwtag  DW_TAG_typedef, DW_AT_name("OSC_Handle")
    6793                      .dwattr $C$DW$T$114, DW_AT_type(*$C$DW$T$113)
    6794                      .dwattr $C$DW$T$114, DW_AT_language(DW_LANG_C)
    6795              
    6796              $C$DW$T$160     .dwtag  DW_TAG_structure_type
    6797                      .dwattr $C$DW$T$160, DW_AT_name("_PID_Obj_")
    6798                      .dwattr $C$DW$T$160, DW_AT_byte_size(0x10)
    6799              $C$DW$962       .dwtag  DW_TAG_member
    6800                      .dwattr $C$DW$962, DW_AT_type(*$C$DW$T$47)
    6801                      .dwattr $C$DW$962, DW_AT_name("Kp")
    6802                      .dwattr $C$DW$962, DW_AT_TI_symbol_name("_Kp")
    6803                      .dwattr $C$DW$962, DW_AT_data_member_location[DW_OP_plus_uconst 0x0]
    6804                      .dwattr $C$DW$962, DW_AT_accessibility(DW_ACCESS_public)
    6805              $C$DW$963       .dwtag  DW_TAG_member
    6806                      .dwattr $C$DW$963, DW_AT_type(*$C$DW$T$47)
    6807                      .dwattr $C$DW$963, DW_AT_name("Ki")
    6808                      .dwattr $C$DW$963, DW_AT_TI_symbol_name("_Ki")
    6809                      .dwattr $C$DW$963, DW_AT_data_member_location[DW_OP_plus_uconst 0x2]
    6810                      .dwattr $C$DW$963, DW_AT_accessibility(DW_ACCESS_public)
    6811              $C$DW$964       .dwtag  DW_TAG_member
    6812                      .dwattr $C$DW$964, DW_AT_type(*$C$DW$T$47)
    6813                      .dwattr $C$DW$964, DW_AT_name("Kd")
    6814                      .dwattr $C$DW$964, DW_AT_TI_symbol_name("_Kd")
    6815                      .dwattr $C$DW$964, DW_AT_data_member_location[DW_OP_plus_uconst 0x4]
    6816                      .dwattr $C$DW$964, DW_AT_accessibility(DW_ACCESS_public)
    6817              $C$DW$965       .dwtag  DW_TAG_member
    6818                      .dwattr $C$DW$965, DW_AT_type(*$C$DW$T$47)
    6819                      .dwattr $C$DW$965, DW_AT_name("Ui")
    6820                      .dwattr $C$DW$965, DW_AT_TI_symbol_name("_Ui")
    6821                      .dwattr $C$DW$965, DW_AT_data_member_location[DW_OP_plus_uconst 0x6]
    6822                      .dwattr $C$DW$965, DW_AT_accessibility(DW_ACCESS_public)
    6823              $C$DW$966       .dwtag  DW_TAG_member
    6824                      .dwattr $C$DW$966, DW_AT_type(*$C$DW$T$47)
    6825                      .dwattr $C$DW$966, DW_AT_name("refValue")
    6826                      .dwattr $C$DW$966, DW_AT_TI_symbol_name("_refValue")
    6827                      .dwattr $C$DW$966, DW_AT_data_member_location[DW_OP_plus_uconst 0x8]
    6828                      .dwattr $C$DW$966, DW_AT_accessibility(DW_ACCESS_public)
    6829              $C$DW$967       .dwtag  DW_TAG_member
    6830                      .dwattr $C$DW$967, DW_AT_type(*$C$DW$T$47)
TMS320C2000 Assembler PC v6.4.10 Mon Jul 11 12:58:57 2016

Tools Copyright (c) 1996-2015 Texas Instruments Incorporated
C:\Users\bee25\AppData\Local\Temp\0350410                            PAGE  134

    6831                      .dwattr $C$DW$967, DW_AT_name("fbackValue")
    6832                      .dwattr $C$DW$967, DW_AT_TI_symbol_name("_fbackValue")
    6833                      .dwattr $C$DW$967, DW_AT_data_member_location[DW_OP_plus_uconst 0xa]
    6834                      .dwattr $C$DW$967, DW_AT_accessibility(DW_ACCESS_public)
    6835              $C$DW$968       .dwtag  DW_TAG_member
    6836                      .dwattr $C$DW$968, DW_AT_type(*$C$DW$T$47)
    6837                      .dwattr $C$DW$968, DW_AT_name("outMin")
    6838                      .dwattr $C$DW$968, DW_AT_TI_symbol_name("_outMin")
    6839                      .dwattr $C$DW$968, DW_AT_data_member_location[DW_OP_plus_uconst 0xc]
    6840                      .dwattr $C$DW$968, DW_AT_accessibility(DW_ACCESS_public)
    6841              $C$DW$969       .dwtag  DW_TAG_member
    6842                      .dwattr $C$DW$969, DW_AT_type(*$C$DW$T$47)
    6843                      .dwattr $C$DW$969, DW_AT_name("outMax")
    6844                      .dwattr $C$DW$969, DW_AT_TI_symbol_name("_outMax")
    6845                      .dwattr $C$DW$969, DW_AT_data_member_location[DW_OP_plus_uconst 0xe]
    6846                      .dwattr $C$DW$969, DW_AT_accessibility(DW_ACCESS_public)
    6847                      .dwendtag $C$DW$T$160
    6848              
    6849              $C$DW$T$259     .dwtag  DW_TAG_typedef, DW_AT_name("PID_Obj")
    6850                      .dwattr $C$DW$T$259, DW_AT_type(*$C$DW$T$160)
    6851                      .dwattr $C$DW$T$259, DW_AT_language(DW_LANG_C)
    6852              
    6853              $C$DW$T$260     .dwtag  DW_TAG_array_type
    6854                      .dwattr $C$DW$T$260, DW_AT_type(*$C$DW$T$259)
    6855                      .dwattr $C$DW$T$260, DW_AT_language(DW_LANG_C)
    6856                      .dwattr $C$DW$T$260, DW_AT_byte_size(0x30)
    6857              $C$DW$970       .dwtag  DW_TAG_subrange_type
    6858                      .dwattr $C$DW$970, DW_AT_upper_bound(0x02)
    6859                      .dwendtag $C$DW$T$260
    6860              
    6861              $C$DW$T$261     .dwtag  DW_TAG_pointer_type
    6862                      .dwattr $C$DW$T$261, DW_AT_type(*$C$DW$T$259)
    6863                      .dwattr $C$DW$T$261, DW_AT_address_class(0x20)
    6864              $C$DW$T$262     .dwtag  DW_TAG_pointer_type
    6865                      .dwattr $C$DW$T$262, DW_AT_type(*$C$DW$T$160)
    6866                      .dwattr $C$DW$T$262, DW_AT_address_class(0x20)
    6867              $C$DW$T$263     .dwtag  DW_TAG_typedef, DW_AT_name("PID_Handle")
    6868                      .dwattr $C$DW$T$263, DW_AT_type(*$C$DW$T$262)
    6869                      .dwattr $C$DW$T$263, DW_AT_language(DW_LANG_C)
    6870              
    6871              $C$DW$T$265     .dwtag  DW_TAG_array_type
    6872                      .dwattr $C$DW$T$265, DW_AT_type(*$C$DW$T$263)
    6873                      .dwattr $C$DW$T$265, DW_AT_language(DW_LANG_C)
    6874                      .dwattr $C$DW$T$265, DW_AT_byte_size(0x06)
    6875              $C$DW$971       .dwtag  DW_TAG_subrange_type
    6876                      .dwattr $C$DW$971, DW_AT_upper_bound(0x02)
    6877                      .dwendtag $C$DW$T$265
    6878              
    6879              
    6880              $C$DW$T$161     .dwtag  DW_TAG_structure_type
    6881                      .dwattr $C$DW$T$161, DW_AT_name("_PIE_IERIFR_t")
    6882                      .dwattr $C$DW$T$161, DW_AT_byte_size(0x02)
    6883              $C$DW$972       .dwtag  DW_TAG_member
    6884                      .dwattr $C$DW$972, DW_AT_type(*$C$DW$T$39)
    6885                      .dwattr $C$DW$972, DW_AT_name("IER")
TMS320C2000 Assembler PC v6.4.10 Mon Jul 11 12:58:57 2016

Tools Copyright (c) 1996-2015 Texas Instruments Incorporated
C:\Users\bee25\AppData\Local\Temp\0350410                            PAGE  135

    6886                      .dwattr $C$DW$972, DW_AT_TI_symbol_name("_IER")
    6887                      .dwattr $C$DW$972, DW_AT_data_member_location[DW_OP_plus_uconst 0x0]
    6888                      .dwattr $C$DW$972, DW_AT_accessibility(DW_ACCESS_public)
    6889              $C$DW$973       .dwtag  DW_TAG_member
    6890                      .dwattr $C$DW$973, DW_AT_type(*$C$DW$T$39)
    6891                      .dwattr $C$DW$973, DW_AT_name("IFR")
    6892                      .dwattr $C$DW$973, DW_AT_TI_symbol_name("_IFR")
    6893                      .dwattr $C$DW$973, DW_AT_data_member_location[DW_OP_plus_uconst 0x1]
    6894                      .dwattr $C$DW$973, DW_AT_accessibility(DW_ACCESS_public)
    6895                      .dwendtag $C$DW$T$161
    6896              
    6897              $C$DW$T$162     .dwtag  DW_TAG_typedef, DW_AT_name("PIE_IERIFR_t")
    6898                      .dwattr $C$DW$T$162, DW_AT_type(*$C$DW$T$161)
    6899                      .dwattr $C$DW$T$162, DW_AT_language(DW_LANG_C)
    6900              $C$DW$974       .dwtag  DW_TAG_TI_far_type
    6901                      .dwattr $C$DW$974, DW_AT_type(*$C$DW$T$162)
    6902              $C$DW$T$163     .dwtag  DW_TAG_volatile_type
    6903                      .dwattr $C$DW$T$163, DW_AT_type(*$C$DW$974)
    6904              
    6905              $C$DW$T$164     .dwtag  DW_TAG_array_type
    6906                      .dwattr $C$DW$T$164, DW_AT_type(*$C$DW$T$163)
    6907                      .dwattr $C$DW$T$164, DW_AT_language(DW_LANG_C)
    6908                      .dwattr $C$DW$T$164, DW_AT_byte_size(0x18)
    6909              $C$DW$975       .dwtag  DW_TAG_subrange_type
    6910                      .dwattr $C$DW$975, DW_AT_upper_bound(0x0b)
    6911                      .dwendtag $C$DW$T$164
    6912              
    6913              
    6914              $C$DW$T$171     .dwtag  DW_TAG_structure_type
    6915                      .dwattr $C$DW$T$171, DW_AT_name("_PIE_Obj_")
    6916                      .dwattr $C$DW$T$171, DW_AT_byte_size(0x639c)
    6917              $C$DW$976       .dwtag  DW_TAG_member
    6918                      .dwattr $C$DW$976, DW_AT_type(*$C$DW$T$39)
    6919                      .dwattr $C$DW$976, DW_AT_name("PIECTRL")
    6920                      .dwattr $C$DW$976, DW_AT_TI_symbol_name("_PIECTRL")
    6921                      .dwattr $C$DW$976, DW_AT_data_member_location[DW_OP_plus_uconst 0x0]
    6922                      .dwattr $C$DW$976, DW_AT_accessibility(DW_ACCESS_public)
    6923              $C$DW$977       .dwtag  DW_TAG_member
    6924                      .dwattr $C$DW$977, DW_AT_type(*$C$DW$T$39)
    6925                      .dwattr $C$DW$977, DW_AT_name("PIEACK")
    6926                      .dwattr $C$DW$977, DW_AT_TI_symbol_name("_PIEACK")
    6927                      .dwattr $C$DW$977, DW_AT_data_member_location[DW_OP_plus_uconst 0x1]
    6928                      .dwattr $C$DW$977, DW_AT_accessibility(DW_ACCESS_public)
    6929              $C$DW$978       .dwtag  DW_TAG_member
    6930                      .dwattr $C$DW$978, DW_AT_type(*$C$DW$T$164)
    6931                      .dwattr $C$DW$978, DW_AT_name("PIEIER_PIEIFR")
    6932                      .dwattr $C$DW$978, DW_AT_TI_symbol_name("_PIEIER_PIEIFR")
    6933                      .dwattr $C$DW$978, DW_AT_data_member_location[DW_OP_plus_uconst 0x2]
    6934                      .dwattr $C$DW$978, DW_AT_accessibility(DW_ACCESS_public)
    6935              $C$DW$979       .dwtag  DW_TAG_member
    6936                      .dwattr $C$DW$979, DW_AT_type(*$C$DW$T$165)
    6937                      .dwattr $C$DW$979, DW_AT_name("rsvd_1")
    6938                      .dwattr $C$DW$979, DW_AT_TI_symbol_name("_rsvd_1")
    6939                      .dwattr $C$DW$979, DW_AT_data_member_location[DW_OP_plus_uconst 0x1a]
    6940                      .dwattr $C$DW$979, DW_AT_accessibility(DW_ACCESS_public)
TMS320C2000 Assembler PC v6.4.10 Mon Jul 11 12:58:57 2016

Tools Copyright (c) 1996-2015 Texas Instruments Incorporated
C:\Users\bee25\AppData\Local\Temp\0350410                            PAGE  136

    6941              $C$DW$980       .dwtag  DW_TAG_member
    6942                      .dwattr $C$DW$980, DW_AT_type(*$C$DW$T$169)
    6943                      .dwattr $C$DW$980, DW_AT_name("Reset")
    6944                      .dwattr $C$DW$980, DW_AT_TI_symbol_name("_Reset")
    6945                      .dwattr $C$DW$980, DW_AT_data_member_location[DW_OP_plus_uconst 0x20]
    6946                      .dwattr $C$DW$980, DW_AT_accessibility(DW_ACCESS_public)
    6947              $C$DW$981       .dwtag  DW_TAG_member
    6948                      .dwattr $C$DW$981, DW_AT_type(*$C$DW$T$169)
    6949                      .dwattr $C$DW$981, DW_AT_name("INT1")
    6950                      .dwattr $C$DW$981, DW_AT_TI_symbol_name("_INT1")
    6951                      .dwattr $C$DW$981, DW_AT_data_member_location[DW_OP_plus_uconst 0x22]
    6952                      .dwattr $C$DW$981, DW_AT_accessibility(DW_ACCESS_public)
    6953              $C$DW$982       .dwtag  DW_TAG_member
    6954                      .dwattr $C$DW$982, DW_AT_type(*$C$DW$T$169)
    6955                      .dwattr $C$DW$982, DW_AT_name("INT2")
    6956                      .dwattr $C$DW$982, DW_AT_TI_symbol_name("_INT2")
    6957                      .dwattr $C$DW$982, DW_AT_data_member_location[DW_OP_plus_uconst 0x24]
    6958                      .dwattr $C$DW$982, DW_AT_accessibility(DW_ACCESS_public)
    6959              $C$DW$983       .dwtag  DW_TAG_member
    6960                      .dwattr $C$DW$983, DW_AT_type(*$C$DW$T$169)
    6961                      .dwattr $C$DW$983, DW_AT_name("INT3")
    6962                      .dwattr $C$DW$983, DW_AT_TI_symbol_name("_INT3")
    6963                      .dwattr $C$DW$983, DW_AT_data_member_location[DW_OP_plus_uconst 0x26]
    6964                      .dwattr $C$DW$983, DW_AT_accessibility(DW_ACCESS_public)
    6965              $C$DW$984       .dwtag  DW_TAG_member
    6966                      .dwattr $C$DW$984, DW_AT_type(*$C$DW$T$169)
    6967                      .dwattr $C$DW$984, DW_AT_name("INT4")
    6968                      .dwattr $C$DW$984, DW_AT_TI_symbol_name("_INT4")
    6969                      .dwattr $C$DW$984, DW_AT_data_member_location[DW_OP_plus_uconst 0x28]
    6970                      .dwattr $C$DW$984, DW_AT_accessibility(DW_ACCESS_public)
    6971              $C$DW$985       .dwtag  DW_TAG_member
    6972                      .dwattr $C$DW$985, DW_AT_type(*$C$DW$T$169)
    6973                      .dwattr $C$DW$985, DW_AT_name("INT5")
    6974                      .dwattr $C$DW$985, DW_AT_TI_symbol_name("_INT5")
    6975                      .dwattr $C$DW$985, DW_AT_data_member_location[DW_OP_plus_uconst 0x2a]
    6976                      .dwattr $C$DW$985, DW_AT_accessibility(DW_ACCESS_public)
    6977              $C$DW$986       .dwtag  DW_TAG_member
    6978                      .dwattr $C$DW$986, DW_AT_type(*$C$DW$T$169)
    6979                      .dwattr $C$DW$986, DW_AT_name("INT6")
    6980                      .dwattr $C$DW$986, DW_AT_TI_symbol_name("_INT6")
    6981                      .dwattr $C$DW$986, DW_AT_data_member_location[DW_OP_plus_uconst 0x2c]
    6982                      .dwattr $C$DW$986, DW_AT_accessibility(DW_ACCESS_public)
    6983              $C$DW$987       .dwtag  DW_TAG_member
    6984                      .dwattr $C$DW$987, DW_AT_type(*$C$DW$T$169)
    6985                      .dwattr $C$DW$987, DW_AT_name("INT7")
    6986                      .dwattr $C$DW$987, DW_AT_TI_symbol_name("_INT7")
    6987                      .dwattr $C$DW$987, DW_AT_data_member_location[DW_OP_plus_uconst 0x2e]
    6988                      .dwattr $C$DW$987, DW_AT_accessibility(DW_ACCESS_public)
    6989              $C$DW$988       .dwtag  DW_TAG_member
    6990                      .dwattr $C$DW$988, DW_AT_type(*$C$DW$T$169)
    6991                      .dwattr $C$DW$988, DW_AT_name("INT8")
    6992                      .dwattr $C$DW$988, DW_AT_TI_symbol_name("_INT8")
    6993                      .dwattr $C$DW$988, DW_AT_data_member_location[DW_OP_plus_uconst 0x30]
    6994                      .dwattr $C$DW$988, DW_AT_accessibility(DW_ACCESS_public)
    6995              $C$DW$989       .dwtag  DW_TAG_member
TMS320C2000 Assembler PC v6.4.10 Mon Jul 11 12:58:57 2016

Tools Copyright (c) 1996-2015 Texas Instruments Incorporated
C:\Users\bee25\AppData\Local\Temp\0350410                            PAGE  137

    6996                      .dwattr $C$DW$989, DW_AT_type(*$C$DW$T$169)
    6997                      .dwattr $C$DW$989, DW_AT_name("INT9")
    6998                      .dwattr $C$DW$989, DW_AT_TI_symbol_name("_INT9")
    6999                      .dwattr $C$DW$989, DW_AT_data_member_location[DW_OP_plus_uconst 0x32]
    7000                      .dwattr $C$DW$989, DW_AT_accessibility(DW_ACCESS_public)
    7001              $C$DW$990       .dwtag  DW_TAG_member
    7002                      .dwattr $C$DW$990, DW_AT_type(*$C$DW$T$169)
    7003                      .dwattr $C$DW$990, DW_AT_name("INT10")
    7004                      .dwattr $C$DW$990, DW_AT_TI_symbol_name("_INT10")
    7005                      .dwattr $C$DW$990, DW_AT_data_member_location[DW_OP_plus_uconst 0x34]
    7006                      .dwattr $C$DW$990, DW_AT_accessibility(DW_ACCESS_public)
    7007              $C$DW$991       .dwtag  DW_TAG_member
    7008                      .dwattr $C$DW$991, DW_AT_type(*$C$DW$T$169)
    7009                      .dwattr $C$DW$991, DW_AT_name("INT11")
    7010                      .dwattr $C$DW$991, DW_AT_TI_symbol_name("_INT11")
    7011                      .dwattr $C$DW$991, DW_AT_data_member_location[DW_OP_plus_uconst 0x36]
    7012                      .dwattr $C$DW$991, DW_AT_accessibility(DW_ACCESS_public)
    7013              $C$DW$992       .dwtag  DW_TAG_member
    7014                      .dwattr $C$DW$992, DW_AT_type(*$C$DW$T$169)
    7015                      .dwattr $C$DW$992, DW_AT_name("INT12")
    7016                      .dwattr $C$DW$992, DW_AT_TI_symbol_name("_INT12")
    7017                      .dwattr $C$DW$992, DW_AT_data_member_location[DW_OP_plus_uconst 0x38]
    7018                      .dwattr $C$DW$992, DW_AT_accessibility(DW_ACCESS_public)
    7019              $C$DW$993       .dwtag  DW_TAG_member
    7020                      .dwattr $C$DW$993, DW_AT_type(*$C$DW$T$169)
    7021                      .dwattr $C$DW$993, DW_AT_name("TINT1")
    7022                      .dwattr $C$DW$993, DW_AT_TI_symbol_name("_TINT1")
    7023                      .dwattr $C$DW$993, DW_AT_data_member_location[DW_OP_plus_uconst 0x3a]
    7024                      .dwattr $C$DW$993, DW_AT_accessibility(DW_ACCESS_public)
    7025              $C$DW$994       .dwtag  DW_TAG_member
    7026                      .dwattr $C$DW$994, DW_AT_type(*$C$DW$T$169)
    7027                      .dwattr $C$DW$994, DW_AT_name("TINT2")
    7028                      .dwattr $C$DW$994, DW_AT_TI_symbol_name("_TINT2")
    7029                      .dwattr $C$DW$994, DW_AT_data_member_location[DW_OP_plus_uconst 0x3c]
    7030                      .dwattr $C$DW$994, DW_AT_accessibility(DW_ACCESS_public)
    7031              $C$DW$995       .dwtag  DW_TAG_member
    7032                      .dwattr $C$DW$995, DW_AT_type(*$C$DW$T$169)
    7033                      .dwattr $C$DW$995, DW_AT_name("DATALOG")
    7034                      .dwattr $C$DW$995, DW_AT_TI_symbol_name("_DATALOG")
    7035                      .dwattr $C$DW$995, DW_AT_data_member_location[DW_OP_plus_uconst 0x3e]
    7036                      .dwattr $C$DW$995, DW_AT_accessibility(DW_ACCESS_public)
    7037              $C$DW$996       .dwtag  DW_TAG_member
    7038                      .dwattr $C$DW$996, DW_AT_type(*$C$DW$T$169)
    7039                      .dwattr $C$DW$996, DW_AT_name("RTOSINT")
    7040                      .dwattr $C$DW$996, DW_AT_TI_symbol_name("_RTOSINT")
    7041                      .dwattr $C$DW$996, DW_AT_data_member_location[DW_OP_plus_uconst 0x40]
    7042                      .dwattr $C$DW$996, DW_AT_accessibility(DW_ACCESS_public)
    7043              $C$DW$997       .dwtag  DW_TAG_member
    7044                      .dwattr $C$DW$997, DW_AT_type(*$C$DW$T$169)
    7045                      .dwattr $C$DW$997, DW_AT_name("EMUINT")
    7046                      .dwattr $C$DW$997, DW_AT_TI_symbol_name("_EMUINT")
    7047                      .dwattr $C$DW$997, DW_AT_data_member_location[DW_OP_plus_uconst 0x42]
    7048                      .dwattr $C$DW$997, DW_AT_accessibility(DW_ACCESS_public)
    7049              $C$DW$998       .dwtag  DW_TAG_member
    7050                      .dwattr $C$DW$998, DW_AT_type(*$C$DW$T$169)
TMS320C2000 Assembler PC v6.4.10 Mon Jul 11 12:58:57 2016

Tools Copyright (c) 1996-2015 Texas Instruments Incorporated
C:\Users\bee25\AppData\Local\Temp\0350410                            PAGE  138

    7051                      .dwattr $C$DW$998, DW_AT_name("NMI")
    7052                      .dwattr $C$DW$998, DW_AT_TI_symbol_name("_NMI")
    7053                      .dwattr $C$DW$998, DW_AT_data_member_location[DW_OP_plus_uconst 0x44]
    7054                      .dwattr $C$DW$998, DW_AT_accessibility(DW_ACCESS_public)
    7055              $C$DW$999       .dwtag  DW_TAG_member
    7056                      .dwattr $C$DW$999, DW_AT_type(*$C$DW$T$169)
    7057                      .dwattr $C$DW$999, DW_AT_name("ILLEGAL")
    7058                      .dwattr $C$DW$999, DW_AT_TI_symbol_name("_ILLEGAL")
    7059                      .dwattr $C$DW$999, DW_AT_data_member_location[DW_OP_plus_uconst 0x46]
    7060                      .dwattr $C$DW$999, DW_AT_accessibility(DW_ACCESS_public)
    7061              $C$DW$1000      .dwtag  DW_TAG_member
    7062                      .dwattr $C$DW$1000, DW_AT_type(*$C$DW$T$169)
    7063                      .dwattr $C$DW$1000, DW_AT_name("USER1")
    7064                      .dwattr $C$DW$1000, DW_AT_TI_symbol_name("_USER1")
    7065                      .dwattr $C$DW$1000, DW_AT_data_member_location[DW_OP_plus_uconst 0x48]
    7066                      .dwattr $C$DW$1000, DW_AT_accessibility(DW_ACCESS_public)
    7067              $C$DW$1001      .dwtag  DW_TAG_member
    7068                      .dwattr $C$DW$1001, DW_AT_type(*$C$DW$T$169)
    7069                      .dwattr $C$DW$1001, DW_AT_name("USER2")
    7070                      .dwattr $C$DW$1001, DW_AT_TI_symbol_name("_USER2")
    7071                      .dwattr $C$DW$1001, DW_AT_data_member_location[DW_OP_plus_uconst 0x4a]
    7072                      .dwattr $C$DW$1001, DW_AT_accessibility(DW_ACCESS_public)
    7073              $C$DW$1002      .dwtag  DW_TAG_member
    7074                      .dwattr $C$DW$1002, DW_AT_type(*$C$DW$T$169)
    7075                      .dwattr $C$DW$1002, DW_AT_name("USER3")
    7076                      .dwattr $C$DW$1002, DW_AT_TI_symbol_name("_USER3")
    7077                      .dwattr $C$DW$1002, DW_AT_data_member_location[DW_OP_plus_uconst 0x4c]
    7078                      .dwattr $C$DW$1002, DW_AT_accessibility(DW_ACCESS_public)
    7079              $C$DW$1003      .dwtag  DW_TAG_member
    7080                      .dwattr $C$DW$1003, DW_AT_type(*$C$DW$T$169)
    7081                      .dwattr $C$DW$1003, DW_AT_name("USER4")
    7082                      .dwattr $C$DW$1003, DW_AT_TI_symbol_name("_USER4")
    7083                      .dwattr $C$DW$1003, DW_AT_data_member_location[DW_OP_plus_uconst 0x4e]
    7084                      .dwattr $C$DW$1003, DW_AT_accessibility(DW_ACCESS_public)
    7085              $C$DW$1004      .dwtag  DW_TAG_member
    7086                      .dwattr $C$DW$1004, DW_AT_type(*$C$DW$T$169)
    7087                      .dwattr $C$DW$1004, DW_AT_name("USER5")
    7088                      .dwattr $C$DW$1004, DW_AT_TI_symbol_name("_USER5")
    7089                      .dwattr $C$DW$1004, DW_AT_data_member_location[DW_OP_plus_uconst 0x50]
    7090                      .dwattr $C$DW$1004, DW_AT_accessibility(DW_ACCESS_public)
    7091              $C$DW$1005      .dwtag  DW_TAG_member
    7092                      .dwattr $C$DW$1005, DW_AT_type(*$C$DW$T$169)
    7093                      .dwattr $C$DW$1005, DW_AT_name("USER6")
    7094                      .dwattr $C$DW$1005, DW_AT_TI_symbol_name("_USER6")
    7095                      .dwattr $C$DW$1005, DW_AT_data_member_location[DW_OP_plus_uconst 0x52]
    7096                      .dwattr $C$DW$1005, DW_AT_accessibility(DW_ACCESS_public)
    7097              $C$DW$1006      .dwtag  DW_TAG_member
    7098                      .dwattr $C$DW$1006, DW_AT_type(*$C$DW$T$169)
    7099                      .dwattr $C$DW$1006, DW_AT_name("USER7")
    7100                      .dwattr $C$DW$1006, DW_AT_TI_symbol_name("_USER7")
    7101                      .dwattr $C$DW$1006, DW_AT_data_member_location[DW_OP_plus_uconst 0x54]
    7102                      .dwattr $C$DW$1006, DW_AT_accessibility(DW_ACCESS_public)
    7103              $C$DW$1007      .dwtag  DW_TAG_member
    7104                      .dwattr $C$DW$1007, DW_AT_type(*$C$DW$T$169)
    7105                      .dwattr $C$DW$1007, DW_AT_name("USER8")
TMS320C2000 Assembler PC v6.4.10 Mon Jul 11 12:58:57 2016

Tools Copyright (c) 1996-2015 Texas Instruments Incorporated
C:\Users\bee25\AppData\Local\Temp\0350410                            PAGE  139

    7106                      .dwattr $C$DW$1007, DW_AT_TI_symbol_name("_USER8")
    7107                      .dwattr $C$DW$1007, DW_AT_data_member_location[DW_OP_plus_uconst 0x56]
    7108                      .dwattr $C$DW$1007, DW_AT_accessibility(DW_ACCESS_public)
    7109              $C$DW$1008      .dwtag  DW_TAG_member
    7110                      .dwattr $C$DW$1008, DW_AT_type(*$C$DW$T$169)
    7111                      .dwattr $C$DW$1008, DW_AT_name("USER9")
    7112                      .dwattr $C$DW$1008, DW_AT_TI_symbol_name("_USER9")
    7113                      .dwattr $C$DW$1008, DW_AT_data_member_location[DW_OP_plus_uconst 0x58]
    7114                      .dwattr $C$DW$1008, DW_AT_accessibility(DW_ACCESS_public)
    7115              $C$DW$1009      .dwtag  DW_TAG_member
    7116                      .dwattr $C$DW$1009, DW_AT_type(*$C$DW$T$169)
    7117                      .dwattr $C$DW$1009, DW_AT_name("USER10")
    7118                      .dwattr $C$DW$1009, DW_AT_TI_symbol_name("_USER10")
    7119                      .dwattr $C$DW$1009, DW_AT_data_member_location[DW_OP_plus_uconst 0x5a]
    7120                      .dwattr $C$DW$1009, DW_AT_accessibility(DW_ACCESS_public)
    7121              $C$DW$1010      .dwtag  DW_TAG_member
    7122                      .dwattr $C$DW$1010, DW_AT_type(*$C$DW$T$169)
    7123                      .dwattr $C$DW$1010, DW_AT_name("USER11")
    7124                      .dwattr $C$DW$1010, DW_AT_TI_symbol_name("_USER11")
    7125                      .dwattr $C$DW$1010, DW_AT_data_member_location[DW_OP_plus_uconst 0x5c]
    7126                      .dwattr $C$DW$1010, DW_AT_accessibility(DW_ACCESS_public)
    7127              $C$DW$1011      .dwtag  DW_TAG_member
    7128                      .dwattr $C$DW$1011, DW_AT_type(*$C$DW$T$169)
    7129                      .dwattr $C$DW$1011, DW_AT_name("USER12")
    7130                      .dwattr $C$DW$1011, DW_AT_TI_symbol_name("_USER12")
    7131                      .dwattr $C$DW$1011, DW_AT_data_member_location[DW_OP_plus_uconst 0x5e]
    7132                      .dwattr $C$DW$1011, DW_AT_accessibility(DW_ACCESS_public)
    7133              $C$DW$1012      .dwtag  DW_TAG_member
    7134                      .dwattr $C$DW$1012, DW_AT_type(*$C$DW$T$169)
    7135                      .dwattr $C$DW$1012, DW_AT_name("ADCINT1_HP")
    7136                      .dwattr $C$DW$1012, DW_AT_TI_symbol_name("_ADCINT1_HP")
    7137                      .dwattr $C$DW$1012, DW_AT_data_member_location[DW_OP_plus_uconst 0x60]
    7138                      .dwattr $C$DW$1012, DW_AT_accessibility(DW_ACCESS_public)
    7139              $C$DW$1013      .dwtag  DW_TAG_member
    7140                      .dwattr $C$DW$1013, DW_AT_type(*$C$DW$T$169)
    7141                      .dwattr $C$DW$1013, DW_AT_name("ADCINT2_HP")
    7142                      .dwattr $C$DW$1013, DW_AT_TI_symbol_name("_ADCINT2_HP")
    7143                      .dwattr $C$DW$1013, DW_AT_data_member_location[DW_OP_plus_uconst 0x62]
    7144                      .dwattr $C$DW$1013, DW_AT_accessibility(DW_ACCESS_public)
    7145              $C$DW$1014      .dwtag  DW_TAG_member
    7146                      .dwattr $C$DW$1014, DW_AT_type(*$C$DW$T$169)
    7147                      .dwattr $C$DW$1014, DW_AT_name("rsvd1_3")
    7148                      .dwattr $C$DW$1014, DW_AT_TI_symbol_name("_rsvd1_3")
    7149                      .dwattr $C$DW$1014, DW_AT_data_member_location[DW_OP_plus_uconst 0x64]
    7150                      .dwattr $C$DW$1014, DW_AT_accessibility(DW_ACCESS_public)
    7151              $C$DW$1015      .dwtag  DW_TAG_member
    7152                      .dwattr $C$DW$1015, DW_AT_type(*$C$DW$T$169)
    7153                      .dwattr $C$DW$1015, DW_AT_name("XINT1")
    7154                      .dwattr $C$DW$1015, DW_AT_TI_symbol_name("_XINT1")
    7155                      .dwattr $C$DW$1015, DW_AT_data_member_location[DW_OP_plus_uconst 0x66]
    7156                      .dwattr $C$DW$1015, DW_AT_accessibility(DW_ACCESS_public)
    7157              $C$DW$1016      .dwtag  DW_TAG_member
    7158                      .dwattr $C$DW$1016, DW_AT_type(*$C$DW$T$169)
    7159                      .dwattr $C$DW$1016, DW_AT_name("XINT2")
    7160                      .dwattr $C$DW$1016, DW_AT_TI_symbol_name("_XINT2")
TMS320C2000 Assembler PC v6.4.10 Mon Jul 11 12:58:57 2016

Tools Copyright (c) 1996-2015 Texas Instruments Incorporated
C:\Users\bee25\AppData\Local\Temp\0350410                            PAGE  140

    7161                      .dwattr $C$DW$1016, DW_AT_data_member_location[DW_OP_plus_uconst 0x68]
    7162                      .dwattr $C$DW$1016, DW_AT_accessibility(DW_ACCESS_public)
    7163              $C$DW$1017      .dwtag  DW_TAG_member
    7164                      .dwattr $C$DW$1017, DW_AT_type(*$C$DW$T$169)
    7165                      .dwattr $C$DW$1017, DW_AT_name("ADCINT9")
    7166                      .dwattr $C$DW$1017, DW_AT_TI_symbol_name("_ADCINT9")
    7167                      .dwattr $C$DW$1017, DW_AT_data_member_location[DW_OP_plus_uconst 0x6a]
    7168                      .dwattr $C$DW$1017, DW_AT_accessibility(DW_ACCESS_public)
    7169              $C$DW$1018      .dwtag  DW_TAG_member
    7170                      .dwattr $C$DW$1018, DW_AT_type(*$C$DW$T$169)
    7171                      .dwattr $C$DW$1018, DW_AT_name("TINT0")
    7172                      .dwattr $C$DW$1018, DW_AT_TI_symbol_name("_TINT0")
    7173                      .dwattr $C$DW$1018, DW_AT_data_member_location[DW_OP_plus_uconst 0x6c]
    7174                      .dwattr $C$DW$1018, DW_AT_accessibility(DW_ACCESS_public)
    7175              $C$DW$1019      .dwtag  DW_TAG_member
    7176                      .dwattr $C$DW$1019, DW_AT_type(*$C$DW$T$169)
    7177                      .dwattr $C$DW$1019, DW_AT_name("WAKEINT")
    7178                      .dwattr $C$DW$1019, DW_AT_TI_symbol_name("_WAKEINT")
    7179                      .dwattr $C$DW$1019, DW_AT_data_member_location[DW_OP_plus_uconst 0x6e]
    7180                      .dwattr $C$DW$1019, DW_AT_accessibility(DW_ACCESS_public)
    7181              $C$DW$1020      .dwtag  DW_TAG_member
    7182                      .dwattr $C$DW$1020, DW_AT_type(*$C$DW$T$169)
    7183                      .dwattr $C$DW$1020, DW_AT_name("EPWM1_TZINT")
    7184                      .dwattr $C$DW$1020, DW_AT_TI_symbol_name("_EPWM1_TZINT")
    7185                      .dwattr $C$DW$1020, DW_AT_data_member_location[DW_OP_plus_uconst 0x70]
    7186                      .dwattr $C$DW$1020, DW_AT_accessibility(DW_ACCESS_public)
    7187              $C$DW$1021      .dwtag  DW_TAG_member
    7188                      .dwattr $C$DW$1021, DW_AT_type(*$C$DW$T$169)
    7189                      .dwattr $C$DW$1021, DW_AT_name("EPWM2_TZINT")
    7190                      .dwattr $C$DW$1021, DW_AT_TI_symbol_name("_EPWM2_TZINT")
    7191                      .dwattr $C$DW$1021, DW_AT_data_member_location[DW_OP_plus_uconst 0x72]
    7192                      .dwattr $C$DW$1021, DW_AT_accessibility(DW_ACCESS_public)
    7193              $C$DW$1022      .dwtag  DW_TAG_member
    7194                      .dwattr $C$DW$1022, DW_AT_type(*$C$DW$T$169)
    7195                      .dwattr $C$DW$1022, DW_AT_name("EPWM3_TZINT")
    7196                      .dwattr $C$DW$1022, DW_AT_TI_symbol_name("_EPWM3_TZINT")
    7197                      .dwattr $C$DW$1022, DW_AT_data_member_location[DW_OP_plus_uconst 0x74]
    7198                      .dwattr $C$DW$1022, DW_AT_accessibility(DW_ACCESS_public)
    7199              $C$DW$1023      .dwtag  DW_TAG_member
    7200                      .dwattr $C$DW$1023, DW_AT_type(*$C$DW$T$169)
    7201                      .dwattr $C$DW$1023, DW_AT_name("EPWM4_TZINT")
    7202                      .dwattr $C$DW$1023, DW_AT_TI_symbol_name("_EPWM4_TZINT")
    7203                      .dwattr $C$DW$1023, DW_AT_data_member_location[DW_OP_plus_uconst 0x76]
    7204                      .dwattr $C$DW$1023, DW_AT_accessibility(DW_ACCESS_public)
    7205              $C$DW$1024      .dwtag  DW_TAG_member
    7206                      .dwattr $C$DW$1024, DW_AT_type(*$C$DW$T$169)
    7207                      .dwattr $C$DW$1024, DW_AT_name("rsvd2_5")
    7208                      .dwattr $C$DW$1024, DW_AT_TI_symbol_name("_rsvd2_5")
    7209                      .dwattr $C$DW$1024, DW_AT_data_member_location[DW_OP_plus_uconst 0x78]
    7210                      .dwattr $C$DW$1024, DW_AT_accessibility(DW_ACCESS_public)
    7211              $C$DW$1025      .dwtag  DW_TAG_member
    7212                      .dwattr $C$DW$1025, DW_AT_type(*$C$DW$T$169)
    7213                      .dwattr $C$DW$1025, DW_AT_name("rsvd2_6")
    7214                      .dwattr $C$DW$1025, DW_AT_TI_symbol_name("_rsvd2_6")
    7215                      .dwattr $C$DW$1025, DW_AT_data_member_location[DW_OP_plus_uconst 0x7a]
TMS320C2000 Assembler PC v6.4.10 Mon Jul 11 12:58:57 2016

Tools Copyright (c) 1996-2015 Texas Instruments Incorporated
C:\Users\bee25\AppData\Local\Temp\0350410                            PAGE  141

    7216                      .dwattr $C$DW$1025, DW_AT_accessibility(DW_ACCESS_public)
    7217              $C$DW$1026      .dwtag  DW_TAG_member
    7218                      .dwattr $C$DW$1026, DW_AT_type(*$C$DW$T$169)
    7219                      .dwattr $C$DW$1026, DW_AT_name("rsvd2_7")
    7220                      .dwattr $C$DW$1026, DW_AT_TI_symbol_name("_rsvd2_7")
    7221                      .dwattr $C$DW$1026, DW_AT_data_member_location[DW_OP_plus_uconst 0x7c]
    7222                      .dwattr $C$DW$1026, DW_AT_accessibility(DW_ACCESS_public)
    7223              $C$DW$1027      .dwtag  DW_TAG_member
    7224                      .dwattr $C$DW$1027, DW_AT_type(*$C$DW$T$169)
    7225                      .dwattr $C$DW$1027, DW_AT_name("rsvd2_8")
    7226                      .dwattr $C$DW$1027, DW_AT_TI_symbol_name("_rsvd2_8")
    7227                      .dwattr $C$DW$1027, DW_AT_data_member_location[DW_OP_plus_uconst 0x7e]
    7228                      .dwattr $C$DW$1027, DW_AT_accessibility(DW_ACCESS_public)
    7229              $C$DW$1028      .dwtag  DW_TAG_member
    7230                      .dwattr $C$DW$1028, DW_AT_type(*$C$DW$T$169)
    7231                      .dwattr $C$DW$1028, DW_AT_name("EPWM1_INT")
    7232                      .dwattr $C$DW$1028, DW_AT_TI_symbol_name("_EPWM1_INT")
    7233                      .dwattr $C$DW$1028, DW_AT_data_member_location[DW_OP_plus_uconst 0x80]
    7234                      .dwattr $C$DW$1028, DW_AT_accessibility(DW_ACCESS_public)
    7235              $C$DW$1029      .dwtag  DW_TAG_member
    7236                      .dwattr $C$DW$1029, DW_AT_type(*$C$DW$T$169)
    7237                      .dwattr $C$DW$1029, DW_AT_name("EPWM2_INT")
    7238                      .dwattr $C$DW$1029, DW_AT_TI_symbol_name("_EPWM2_INT")
    7239                      .dwattr $C$DW$1029, DW_AT_data_member_location[DW_OP_plus_uconst 0x82]
    7240                      .dwattr $C$DW$1029, DW_AT_accessibility(DW_ACCESS_public)
    7241              $C$DW$1030      .dwtag  DW_TAG_member
    7242                      .dwattr $C$DW$1030, DW_AT_type(*$C$DW$T$169)
    7243                      .dwattr $C$DW$1030, DW_AT_name("EPWM3_INT")
    7244                      .dwattr $C$DW$1030, DW_AT_TI_symbol_name("_EPWM3_INT")
    7245                      .dwattr $C$DW$1030, DW_AT_data_member_location[DW_OP_plus_uconst 0x84]
    7246                      .dwattr $C$DW$1030, DW_AT_accessibility(DW_ACCESS_public)
    7247              $C$DW$1031      .dwtag  DW_TAG_member
    7248                      .dwattr $C$DW$1031, DW_AT_type(*$C$DW$T$169)
    7249                      .dwattr $C$DW$1031, DW_AT_name("EPWM4_INT")
    7250                      .dwattr $C$DW$1031, DW_AT_TI_symbol_name("_EPWM4_INT")
    7251                      .dwattr $C$DW$1031, DW_AT_data_member_location[DW_OP_plus_uconst 0x86]
    7252                      .dwattr $C$DW$1031, DW_AT_accessibility(DW_ACCESS_public)
    7253              $C$DW$1032      .dwtag  DW_TAG_member
    7254                      .dwattr $C$DW$1032, DW_AT_type(*$C$DW$T$169)
    7255                      .dwattr $C$DW$1032, DW_AT_name("rsvd3_5")
    7256                      .dwattr $C$DW$1032, DW_AT_TI_symbol_name("_rsvd3_5")
    7257                      .dwattr $C$DW$1032, DW_AT_data_member_location[DW_OP_plus_uconst 0x88]
    7258                      .dwattr $C$DW$1032, DW_AT_accessibility(DW_ACCESS_public)
    7259              $C$DW$1033      .dwtag  DW_TAG_member
    7260                      .dwattr $C$DW$1033, DW_AT_type(*$C$DW$T$169)
    7261                      .dwattr $C$DW$1033, DW_AT_name("rsvd3_6")
    7262                      .dwattr $C$DW$1033, DW_AT_TI_symbol_name("_rsvd3_6")
    7263                      .dwattr $C$DW$1033, DW_AT_data_member_location[DW_OP_plus_uconst 0x8a]
    7264                      .dwattr $C$DW$1033, DW_AT_accessibility(DW_ACCESS_public)
    7265              $C$DW$1034      .dwtag  DW_TAG_member
    7266                      .dwattr $C$DW$1034, DW_AT_type(*$C$DW$T$169)
    7267                      .dwattr $C$DW$1034, DW_AT_name("rsvd3_7")
    7268                      .dwattr $C$DW$1034, DW_AT_TI_symbol_name("_rsvd3_7")
    7269                      .dwattr $C$DW$1034, DW_AT_data_member_location[DW_OP_plus_uconst 0x8c]
    7270                      .dwattr $C$DW$1034, DW_AT_accessibility(DW_ACCESS_public)
TMS320C2000 Assembler PC v6.4.10 Mon Jul 11 12:58:57 2016

Tools Copyright (c) 1996-2015 Texas Instruments Incorporated
C:\Users\bee25\AppData\Local\Temp\0350410                            PAGE  142

    7271              $C$DW$1035      .dwtag  DW_TAG_member
    7272                      .dwattr $C$DW$1035, DW_AT_type(*$C$DW$T$169)
    7273                      .dwattr $C$DW$1035, DW_AT_name("rsvd3_8")
    7274                      .dwattr $C$DW$1035, DW_AT_TI_symbol_name("_rsvd3_8")
    7275                      .dwattr $C$DW$1035, DW_AT_data_member_location[DW_OP_plus_uconst 0x8e]
    7276                      .dwattr $C$DW$1035, DW_AT_accessibility(DW_ACCESS_public)
    7277              $C$DW$1036      .dwtag  DW_TAG_member
    7278                      .dwattr $C$DW$1036, DW_AT_type(*$C$DW$T$169)
    7279                      .dwattr $C$DW$1036, DW_AT_name("ECAP1_INT")
    7280                      .dwattr $C$DW$1036, DW_AT_TI_symbol_name("_ECAP1_INT")
    7281                      .dwattr $C$DW$1036, DW_AT_data_member_location[DW_OP_plus_uconst 0x90]
    7282                      .dwattr $C$DW$1036, DW_AT_accessibility(DW_ACCESS_public)
    7283              $C$DW$1037      .dwtag  DW_TAG_member
    7284                      .dwattr $C$DW$1037, DW_AT_type(*$C$DW$T$169)
    7285                      .dwattr $C$DW$1037, DW_AT_name("rsvd4_2")
    7286                      .dwattr $C$DW$1037, DW_AT_TI_symbol_name("_rsvd4_2")
    7287                      .dwattr $C$DW$1037, DW_AT_data_member_location[DW_OP_plus_uconst 0x92]
    7288                      .dwattr $C$DW$1037, DW_AT_accessibility(DW_ACCESS_public)
    7289              $C$DW$1038      .dwtag  DW_TAG_member
    7290                      .dwattr $C$DW$1038, DW_AT_type(*$C$DW$T$169)
    7291                      .dwattr $C$DW$1038, DW_AT_name("rsvd4_3")
    7292                      .dwattr $C$DW$1038, DW_AT_TI_symbol_name("_rsvd4_3")
    7293                      .dwattr $C$DW$1038, DW_AT_data_member_location[DW_OP_plus_uconst 0x94]
    7294                      .dwattr $C$DW$1038, DW_AT_accessibility(DW_ACCESS_public)
    7295              $C$DW$1039      .dwtag  DW_TAG_member
    7296                      .dwattr $C$DW$1039, DW_AT_type(*$C$DW$T$169)
    7297                      .dwattr $C$DW$1039, DW_AT_name("rsvd4_4")
    7298                      .dwattr $C$DW$1039, DW_AT_TI_symbol_name("_rsvd4_4")
    7299                      .dwattr $C$DW$1039, DW_AT_data_member_location[DW_OP_plus_uconst 0x96]
    7300                      .dwattr $C$DW$1039, DW_AT_accessibility(DW_ACCESS_public)
    7301              $C$DW$1040      .dwtag  DW_TAG_member
    7302                      .dwattr $C$DW$1040, DW_AT_type(*$C$DW$T$169)
    7303                      .dwattr $C$DW$1040, DW_AT_name("rsvd4_5")
    7304                      .dwattr $C$DW$1040, DW_AT_TI_symbol_name("_rsvd4_5")
    7305                      .dwattr $C$DW$1040, DW_AT_data_member_location[DW_OP_plus_uconst 0x98]
    7306                      .dwattr $C$DW$1040, DW_AT_accessibility(DW_ACCESS_public)
    7307              $C$DW$1041      .dwtag  DW_TAG_member
    7308                      .dwattr $C$DW$1041, DW_AT_type(*$C$DW$T$169)
    7309                      .dwattr $C$DW$1041, DW_AT_name("rsvd4_6")
    7310                      .dwattr $C$DW$1041, DW_AT_TI_symbol_name("_rsvd4_6")
    7311                      .dwattr $C$DW$1041, DW_AT_data_member_location[DW_OP_plus_uconst 0x9a]
    7312                      .dwattr $C$DW$1041, DW_AT_accessibility(DW_ACCESS_public)
    7313              $C$DW$1042      .dwtag  DW_TAG_member
    7314                      .dwattr $C$DW$1042, DW_AT_type(*$C$DW$T$169)
    7315                      .dwattr $C$DW$1042, DW_AT_name("rsvd4_7")
    7316                      .dwattr $C$DW$1042, DW_AT_TI_symbol_name("_rsvd4_7")
    7317                      .dwattr $C$DW$1042, DW_AT_data_member_location[DW_OP_plus_uconst 0x9c]
    7318                      .dwattr $C$DW$1042, DW_AT_accessibility(DW_ACCESS_public)
    7319              $C$DW$1043      .dwtag  DW_TAG_member
    7320                      .dwattr $C$DW$1043, DW_AT_type(*$C$DW$T$169)
    7321                      .dwattr $C$DW$1043, DW_AT_name("rsvd4_8")
    7322                      .dwattr $C$DW$1043, DW_AT_TI_symbol_name("_rsvd4_8")
    7323                      .dwattr $C$DW$1043, DW_AT_data_member_location[DW_OP_plus_uconst 0x9e]
    7324                      .dwattr $C$DW$1043, DW_AT_accessibility(DW_ACCESS_public)
    7325              $C$DW$1044      .dwtag  DW_TAG_member
TMS320C2000 Assembler PC v6.4.10 Mon Jul 11 12:58:57 2016

Tools Copyright (c) 1996-2015 Texas Instruments Incorporated
C:\Users\bee25\AppData\Local\Temp\0350410                            PAGE  143

    7326                      .dwattr $C$DW$1044, DW_AT_type(*$C$DW$T$169)
    7327                      .dwattr $C$DW$1044, DW_AT_name("rsvd5_1")
    7328                      .dwattr $C$DW$1044, DW_AT_TI_symbol_name("_rsvd5_1")
    7329                      .dwattr $C$DW$1044, DW_AT_data_member_location[DW_OP_plus_uconst 0xa0]
    7330                      .dwattr $C$DW$1044, DW_AT_accessibility(DW_ACCESS_public)
    7331              $C$DW$1045      .dwtag  DW_TAG_member
    7332                      .dwattr $C$DW$1045, DW_AT_type(*$C$DW$T$169)
    7333                      .dwattr $C$DW$1045, DW_AT_name("rsvd5_2")
    7334                      .dwattr $C$DW$1045, DW_AT_TI_symbol_name("_rsvd5_2")
    7335                      .dwattr $C$DW$1045, DW_AT_data_member_location[DW_OP_plus_uconst 0xa2]
    7336                      .dwattr $C$DW$1045, DW_AT_accessibility(DW_ACCESS_public)
    7337              $C$DW$1046      .dwtag  DW_TAG_member
    7338                      .dwattr $C$DW$1046, DW_AT_type(*$C$DW$T$169)
    7339                      .dwattr $C$DW$1046, DW_AT_name("rsvd5_3")
    7340                      .dwattr $C$DW$1046, DW_AT_TI_symbol_name("_rsvd5_3")
    7341                      .dwattr $C$DW$1046, DW_AT_data_member_location[DW_OP_plus_uconst 0xa4]
    7342                      .dwattr $C$DW$1046, DW_AT_accessibility(DW_ACCESS_public)
    7343              $C$DW$1047      .dwtag  DW_TAG_member
    7344                      .dwattr $C$DW$1047, DW_AT_type(*$C$DW$T$169)
    7345                      .dwattr $C$DW$1047, DW_AT_name("rsvd5_4")
    7346                      .dwattr $C$DW$1047, DW_AT_TI_symbol_name("_rsvd5_4")
    7347                      .dwattr $C$DW$1047, DW_AT_data_member_location[DW_OP_plus_uconst 0xa6]
    7348                      .dwattr $C$DW$1047, DW_AT_accessibility(DW_ACCESS_public)
    7349              $C$DW$1048      .dwtag  DW_TAG_member
    7350                      .dwattr $C$DW$1048, DW_AT_type(*$C$DW$T$169)
    7351                      .dwattr $C$DW$1048, DW_AT_name("rsvd5_5")
    7352                      .dwattr $C$DW$1048, DW_AT_TI_symbol_name("_rsvd5_5")
    7353                      .dwattr $C$DW$1048, DW_AT_data_member_location[DW_OP_plus_uconst 0xa8]
    7354                      .dwattr $C$DW$1048, DW_AT_accessibility(DW_ACCESS_public)
    7355              $C$DW$1049      .dwtag  DW_TAG_member
    7356                      .dwattr $C$DW$1049, DW_AT_type(*$C$DW$T$169)
    7357                      .dwattr $C$DW$1049, DW_AT_name("rsvd5_6")
    7358                      .dwattr $C$DW$1049, DW_AT_TI_symbol_name("_rsvd5_6")
    7359                      .dwattr $C$DW$1049, DW_AT_data_member_location[DW_OP_plus_uconst 0xaa]
    7360                      .dwattr $C$DW$1049, DW_AT_accessibility(DW_ACCESS_public)
    7361              $C$DW$1050      .dwtag  DW_TAG_member
    7362                      .dwattr $C$DW$1050, DW_AT_type(*$C$DW$T$169)
    7363                      .dwattr $C$DW$1050, DW_AT_name("rsvd5_7")
    7364                      .dwattr $C$DW$1050, DW_AT_TI_symbol_name("_rsvd5_7")
    7365                      .dwattr $C$DW$1050, DW_AT_data_member_location[DW_OP_plus_uconst 0xac]
    7366                      .dwattr $C$DW$1050, DW_AT_accessibility(DW_ACCESS_public)
    7367              $C$DW$1051      .dwtag  DW_TAG_member
    7368                      .dwattr $C$DW$1051, DW_AT_type(*$C$DW$T$169)
    7369                      .dwattr $C$DW$1051, DW_AT_name("rsvd5_8")
    7370                      .dwattr $C$DW$1051, DW_AT_TI_symbol_name("_rsvd5_8")
    7371                      .dwattr $C$DW$1051, DW_AT_data_member_location[DW_OP_plus_uconst 0xae]
    7372                      .dwattr $C$DW$1051, DW_AT_accessibility(DW_ACCESS_public)
    7373              $C$DW$1052      .dwtag  DW_TAG_member
    7374                      .dwattr $C$DW$1052, DW_AT_type(*$C$DW$T$169)
    7375                      .dwattr $C$DW$1052, DW_AT_name("SPIRXINTA")
    7376                      .dwattr $C$DW$1052, DW_AT_TI_symbol_name("_SPIRXINTA")
    7377                      .dwattr $C$DW$1052, DW_AT_data_member_location[DW_OP_plus_uconst 0xb0]
    7378                      .dwattr $C$DW$1052, DW_AT_accessibility(DW_ACCESS_public)
    7379              $C$DW$1053      .dwtag  DW_TAG_member
    7380                      .dwattr $C$DW$1053, DW_AT_type(*$C$DW$T$169)
TMS320C2000 Assembler PC v6.4.10 Mon Jul 11 12:58:57 2016

Tools Copyright (c) 1996-2015 Texas Instruments Incorporated
C:\Users\bee25\AppData\Local\Temp\0350410                            PAGE  144

    7381                      .dwattr $C$DW$1053, DW_AT_name("SPITXINTA")
    7382                      .dwattr $C$DW$1053, DW_AT_TI_symbol_name("_SPITXINTA")
    7383                      .dwattr $C$DW$1053, DW_AT_data_member_location[DW_OP_plus_uconst 0xb2]
    7384                      .dwattr $C$DW$1053, DW_AT_accessibility(DW_ACCESS_public)
    7385              $C$DW$1054      .dwtag  DW_TAG_member
    7386                      .dwattr $C$DW$1054, DW_AT_type(*$C$DW$T$169)
    7387                      .dwattr $C$DW$1054, DW_AT_name("rsvd6_3")
    7388                      .dwattr $C$DW$1054, DW_AT_TI_symbol_name("_rsvd6_3")
    7389                      .dwattr $C$DW$1054, DW_AT_data_member_location[DW_OP_plus_uconst 0xb4]
    7390                      .dwattr $C$DW$1054, DW_AT_accessibility(DW_ACCESS_public)
    7391              $C$DW$1055      .dwtag  DW_TAG_member
    7392                      .dwattr $C$DW$1055, DW_AT_type(*$C$DW$T$169)
    7393                      .dwattr $C$DW$1055, DW_AT_name("rsvd6_4")
    7394                      .dwattr $C$DW$1055, DW_AT_TI_symbol_name("_rsvd6_4")
    7395                      .dwattr $C$DW$1055, DW_AT_data_member_location[DW_OP_plus_uconst 0xb6]
    7396                      .dwattr $C$DW$1055, DW_AT_accessibility(DW_ACCESS_public)
    7397              $C$DW$1056      .dwtag  DW_TAG_member
    7398                      .dwattr $C$DW$1056, DW_AT_type(*$C$DW$T$169)
    7399                      .dwattr $C$DW$1056, DW_AT_name("rsvd6_5")
    7400                      .dwattr $C$DW$1056, DW_AT_TI_symbol_name("_rsvd6_5")
    7401                      .dwattr $C$DW$1056, DW_AT_data_member_location[DW_OP_plus_uconst 0xb8]
    7402                      .dwattr $C$DW$1056, DW_AT_accessibility(DW_ACCESS_public)
    7403              $C$DW$1057      .dwtag  DW_TAG_member
    7404                      .dwattr $C$DW$1057, DW_AT_type(*$C$DW$T$169)
    7405                      .dwattr $C$DW$1057, DW_AT_name("rsvd6_6")
    7406                      .dwattr $C$DW$1057, DW_AT_TI_symbol_name("_rsvd6_6")
    7407                      .dwattr $C$DW$1057, DW_AT_data_member_location[DW_OP_plus_uconst 0xba]
    7408                      .dwattr $C$DW$1057, DW_AT_accessibility(DW_ACCESS_public)
    7409              $C$DW$1058      .dwtag  DW_TAG_member
    7410                      .dwattr $C$DW$1058, DW_AT_type(*$C$DW$T$169)
    7411                      .dwattr $C$DW$1058, DW_AT_name("rsvd6_7")
    7412                      .dwattr $C$DW$1058, DW_AT_TI_symbol_name("_rsvd6_7")
    7413                      .dwattr $C$DW$1058, DW_AT_data_member_location[DW_OP_plus_uconst 0xbc]
    7414                      .dwattr $C$DW$1058, DW_AT_accessibility(DW_ACCESS_public)
    7415              $C$DW$1059      .dwtag  DW_TAG_member
    7416                      .dwattr $C$DW$1059, DW_AT_type(*$C$DW$T$169)
    7417                      .dwattr $C$DW$1059, DW_AT_name("rsvd6_8")
    7418                      .dwattr $C$DW$1059, DW_AT_TI_symbol_name("_rsvd6_8")
    7419                      .dwattr $C$DW$1059, DW_AT_data_member_location[DW_OP_plus_uconst 0xbe]
    7420                      .dwattr $C$DW$1059, DW_AT_accessibility(DW_ACCESS_public)
    7421              $C$DW$1060      .dwtag  DW_TAG_member
    7422                      .dwattr $C$DW$1060, DW_AT_type(*$C$DW$T$169)
    7423                      .dwattr $C$DW$1060, DW_AT_name("rsvd7_1")
    7424                      .dwattr $C$DW$1060, DW_AT_TI_symbol_name("_rsvd7_1")
    7425                      .dwattr $C$DW$1060, DW_AT_data_member_location[DW_OP_plus_uconst 0xc0]
    7426                      .dwattr $C$DW$1060, DW_AT_accessibility(DW_ACCESS_public)
    7427              $C$DW$1061      .dwtag  DW_TAG_member
    7428                      .dwattr $C$DW$1061, DW_AT_type(*$C$DW$T$169)
    7429                      .dwattr $C$DW$1061, DW_AT_name("rsvd7_2")
    7430                      .dwattr $C$DW$1061, DW_AT_TI_symbol_name("_rsvd7_2")
    7431                      .dwattr $C$DW$1061, DW_AT_data_member_location[DW_OP_plus_uconst 0xc2]
    7432                      .dwattr $C$DW$1061, DW_AT_accessibility(DW_ACCESS_public)
    7433              $C$DW$1062      .dwtag  DW_TAG_member
    7434                      .dwattr $C$DW$1062, DW_AT_type(*$C$DW$T$169)
    7435                      .dwattr $C$DW$1062, DW_AT_name("rsvd7_3")
TMS320C2000 Assembler PC v6.4.10 Mon Jul 11 12:58:57 2016

Tools Copyright (c) 1996-2015 Texas Instruments Incorporated
C:\Users\bee25\AppData\Local\Temp\0350410                            PAGE  145

    7436                      .dwattr $C$DW$1062, DW_AT_TI_symbol_name("_rsvd7_3")
    7437                      .dwattr $C$DW$1062, DW_AT_data_member_location[DW_OP_plus_uconst 0xc4]
    7438                      .dwattr $C$DW$1062, DW_AT_accessibility(DW_ACCESS_public)
    7439              $C$DW$1063      .dwtag  DW_TAG_member
    7440                      .dwattr $C$DW$1063, DW_AT_type(*$C$DW$T$169)
    7441                      .dwattr $C$DW$1063, DW_AT_name("rsvd7_4")
    7442                      .dwattr $C$DW$1063, DW_AT_TI_symbol_name("_rsvd7_4")
    7443                      .dwattr $C$DW$1063, DW_AT_data_member_location[DW_OP_plus_uconst 0xc6]
    7444                      .dwattr $C$DW$1063, DW_AT_accessibility(DW_ACCESS_public)
    7445              $C$DW$1064      .dwtag  DW_TAG_member
    7446                      .dwattr $C$DW$1064, DW_AT_type(*$C$DW$T$169)
    7447                      .dwattr $C$DW$1064, DW_AT_name("rsvd7_5")
    7448                      .dwattr $C$DW$1064, DW_AT_TI_symbol_name("_rsvd7_5")
    7449                      .dwattr $C$DW$1064, DW_AT_data_member_location[DW_OP_plus_uconst 0xc8]
    7450                      .dwattr $C$DW$1064, DW_AT_accessibility(DW_ACCESS_public)
    7451              $C$DW$1065      .dwtag  DW_TAG_member
    7452                      .dwattr $C$DW$1065, DW_AT_type(*$C$DW$T$169)
    7453                      .dwattr $C$DW$1065, DW_AT_name("rsvd7_6")
    7454                      .dwattr $C$DW$1065, DW_AT_TI_symbol_name("_rsvd7_6")
    7455                      .dwattr $C$DW$1065, DW_AT_data_member_location[DW_OP_plus_uconst 0xca]
    7456                      .dwattr $C$DW$1065, DW_AT_accessibility(DW_ACCESS_public)
    7457              $C$DW$1066      .dwtag  DW_TAG_member
    7458                      .dwattr $C$DW$1066, DW_AT_type(*$C$DW$T$169)
    7459                      .dwattr $C$DW$1066, DW_AT_name("rsvd7_7")
    7460                      .dwattr $C$DW$1066, DW_AT_TI_symbol_name("_rsvd7_7")
    7461                      .dwattr $C$DW$1066, DW_AT_data_member_location[DW_OP_plus_uconst 0xcc]
    7462                      .dwattr $C$DW$1066, DW_AT_accessibility(DW_ACCESS_public)
    7463              $C$DW$1067      .dwtag  DW_TAG_member
    7464                      .dwattr $C$DW$1067, DW_AT_type(*$C$DW$T$169)
    7465                      .dwattr $C$DW$1067, DW_AT_name("rsvd7_8")
    7466                      .dwattr $C$DW$1067, DW_AT_TI_symbol_name("_rsvd7_8")
    7467                      .dwattr $C$DW$1067, DW_AT_data_member_location[DW_OP_plus_uconst 0xce]
    7468                      .dwattr $C$DW$1067, DW_AT_accessibility(DW_ACCESS_public)
    7469              $C$DW$1068      .dwtag  DW_TAG_member
    7470                      .dwattr $C$DW$1068, DW_AT_type(*$C$DW$T$169)
    7471                      .dwattr $C$DW$1068, DW_AT_name("I2CINT1A")
    7472                      .dwattr $C$DW$1068, DW_AT_TI_symbol_name("_I2CINT1A")
    7473                      .dwattr $C$DW$1068, DW_AT_data_member_location[DW_OP_plus_uconst 0xd0]
    7474                      .dwattr $C$DW$1068, DW_AT_accessibility(DW_ACCESS_public)
    7475              $C$DW$1069      .dwtag  DW_TAG_member
    7476                      .dwattr $C$DW$1069, DW_AT_type(*$C$DW$T$169)
    7477                      .dwattr $C$DW$1069, DW_AT_name("I2CINT2A")
    7478                      .dwattr $C$DW$1069, DW_AT_TI_symbol_name("_I2CINT2A")
    7479                      .dwattr $C$DW$1069, DW_AT_data_member_location[DW_OP_plus_uconst 0xd2]
    7480                      .dwattr $C$DW$1069, DW_AT_accessibility(DW_ACCESS_public)
    7481              $C$DW$1070      .dwtag  DW_TAG_member
    7482                      .dwattr $C$DW$1070, DW_AT_type(*$C$DW$T$169)
    7483                      .dwattr $C$DW$1070, DW_AT_name("rsvd8_3")
    7484                      .dwattr $C$DW$1070, DW_AT_TI_symbol_name("_rsvd8_3")
    7485                      .dwattr $C$DW$1070, DW_AT_data_member_location[DW_OP_plus_uconst 0xd4]
    7486                      .dwattr $C$DW$1070, DW_AT_accessibility(DW_ACCESS_public)
    7487              $C$DW$1071      .dwtag  DW_TAG_member
    7488                      .dwattr $C$DW$1071, DW_AT_type(*$C$DW$T$169)
    7489                      .dwattr $C$DW$1071, DW_AT_name("rsvd8_4")
    7490                      .dwattr $C$DW$1071, DW_AT_TI_symbol_name("_rsvd8_4")
TMS320C2000 Assembler PC v6.4.10 Mon Jul 11 12:58:57 2016

Tools Copyright (c) 1996-2015 Texas Instruments Incorporated
C:\Users\bee25\AppData\Local\Temp\0350410                            PAGE  146

    7491                      .dwattr $C$DW$1071, DW_AT_data_member_location[DW_OP_plus_uconst 0xd6]
    7492                      .dwattr $C$DW$1071, DW_AT_accessibility(DW_ACCESS_public)
    7493              $C$DW$1072      .dwtag  DW_TAG_member
    7494                      .dwattr $C$DW$1072, DW_AT_type(*$C$DW$T$169)
    7495                      .dwattr $C$DW$1072, DW_AT_name("rsvd8_5")
    7496                      .dwattr $C$DW$1072, DW_AT_TI_symbol_name("_rsvd8_5")
    7497                      .dwattr $C$DW$1072, DW_AT_data_member_location[DW_OP_plus_uconst 0xd8]
    7498                      .dwattr $C$DW$1072, DW_AT_accessibility(DW_ACCESS_public)
    7499              $C$DW$1073      .dwtag  DW_TAG_member
    7500                      .dwattr $C$DW$1073, DW_AT_type(*$C$DW$T$169)
    7501                      .dwattr $C$DW$1073, DW_AT_name("rsvd8_6")
    7502                      .dwattr $C$DW$1073, DW_AT_TI_symbol_name("_rsvd8_6")
    7503                      .dwattr $C$DW$1073, DW_AT_data_member_location[DW_OP_plus_uconst 0xda]
    7504                      .dwattr $C$DW$1073, DW_AT_accessibility(DW_ACCESS_public)
    7505              $C$DW$1074      .dwtag  DW_TAG_member
    7506                      .dwattr $C$DW$1074, DW_AT_type(*$C$DW$T$169)
    7507                      .dwattr $C$DW$1074, DW_AT_name("rsvd8_7")
    7508                      .dwattr $C$DW$1074, DW_AT_TI_symbol_name("_rsvd8_7")
    7509                      .dwattr $C$DW$1074, DW_AT_data_member_location[DW_OP_plus_uconst 0xdc]
    7510                      .dwattr $C$DW$1074, DW_AT_accessibility(DW_ACCESS_public)
    7511              $C$DW$1075      .dwtag  DW_TAG_member
    7512                      .dwattr $C$DW$1075, DW_AT_type(*$C$DW$T$169)
    7513                      .dwattr $C$DW$1075, DW_AT_name("rsvd8_8")
    7514                      .dwattr $C$DW$1075, DW_AT_TI_symbol_name("_rsvd8_8")
    7515                      .dwattr $C$DW$1075, DW_AT_data_member_location[DW_OP_plus_uconst 0xde]
    7516                      .dwattr $C$DW$1075, DW_AT_accessibility(DW_ACCESS_public)
    7517              $C$DW$1076      .dwtag  DW_TAG_member
    7518                      .dwattr $C$DW$1076, DW_AT_type(*$C$DW$T$169)
    7519                      .dwattr $C$DW$1076, DW_AT_name("SCIRXINTA")
    7520                      .dwattr $C$DW$1076, DW_AT_TI_symbol_name("_SCIRXINTA")
    7521                      .dwattr $C$DW$1076, DW_AT_data_member_location[DW_OP_plus_uconst 0xe0]
    7522                      .dwattr $C$DW$1076, DW_AT_accessibility(DW_ACCESS_public)
    7523              $C$DW$1077      .dwtag  DW_TAG_member
    7524                      .dwattr $C$DW$1077, DW_AT_type(*$C$DW$T$169)
    7525                      .dwattr $C$DW$1077, DW_AT_name("SCITXINTA")
    7526                      .dwattr $C$DW$1077, DW_AT_TI_symbol_name("_SCITXINTA")
    7527                      .dwattr $C$DW$1077, DW_AT_data_member_location[DW_OP_plus_uconst 0xe2]
    7528                      .dwattr $C$DW$1077, DW_AT_accessibility(DW_ACCESS_public)
    7529              $C$DW$1078      .dwtag  DW_TAG_member
    7530                      .dwattr $C$DW$1078, DW_AT_type(*$C$DW$T$169)
    7531                      .dwattr $C$DW$1078, DW_AT_name("rsvd9_3")
    7532                      .dwattr $C$DW$1078, DW_AT_TI_symbol_name("_rsvd9_3")
    7533                      .dwattr $C$DW$1078, DW_AT_data_member_location[DW_OP_plus_uconst 0xe4]
    7534                      .dwattr $C$DW$1078, DW_AT_accessibility(DW_ACCESS_public)
    7535              $C$DW$1079      .dwtag  DW_TAG_member
    7536                      .dwattr $C$DW$1079, DW_AT_type(*$C$DW$T$169)
    7537                      .dwattr $C$DW$1079, DW_AT_name("rsvd9_4")
    7538                      .dwattr $C$DW$1079, DW_AT_TI_symbol_name("_rsvd9_4")
    7539                      .dwattr $C$DW$1079, DW_AT_data_member_location[DW_OP_plus_uconst 0xe6]
    7540                      .dwattr $C$DW$1079, DW_AT_accessibility(DW_ACCESS_public)
    7541              $C$DW$1080      .dwtag  DW_TAG_member
    7542                      .dwattr $C$DW$1080, DW_AT_type(*$C$DW$T$169)
    7543                      .dwattr $C$DW$1080, DW_AT_name("rsvd9_5")
    7544                      .dwattr $C$DW$1080, DW_AT_TI_symbol_name("_rsvd9_5")
    7545                      .dwattr $C$DW$1080, DW_AT_data_member_location[DW_OP_plus_uconst 0xe8]
TMS320C2000 Assembler PC v6.4.10 Mon Jul 11 12:58:57 2016

Tools Copyright (c) 1996-2015 Texas Instruments Incorporated
C:\Users\bee25\AppData\Local\Temp\0350410                            PAGE  147

    7546                      .dwattr $C$DW$1080, DW_AT_accessibility(DW_ACCESS_public)
    7547              $C$DW$1081      .dwtag  DW_TAG_member
    7548                      .dwattr $C$DW$1081, DW_AT_type(*$C$DW$T$169)
    7549                      .dwattr $C$DW$1081, DW_AT_name("rsvd9_6")
    7550                      .dwattr $C$DW$1081, DW_AT_TI_symbol_name("_rsvd9_6")
    7551                      .dwattr $C$DW$1081, DW_AT_data_member_location[DW_OP_plus_uconst 0xea]
    7552                      .dwattr $C$DW$1081, DW_AT_accessibility(DW_ACCESS_public)
    7553              $C$DW$1082      .dwtag  DW_TAG_member
    7554                      .dwattr $C$DW$1082, DW_AT_type(*$C$DW$T$169)
    7555                      .dwattr $C$DW$1082, DW_AT_name("rsvd9_7")
    7556                      .dwattr $C$DW$1082, DW_AT_TI_symbol_name("_rsvd9_7")
    7557                      .dwattr $C$DW$1082, DW_AT_data_member_location[DW_OP_plus_uconst 0xec]
    7558                      .dwattr $C$DW$1082, DW_AT_accessibility(DW_ACCESS_public)
    7559              $C$DW$1083      .dwtag  DW_TAG_member
    7560                      .dwattr $C$DW$1083, DW_AT_type(*$C$DW$T$169)
    7561                      .dwattr $C$DW$1083, DW_AT_name("rsvd9_8")
    7562                      .dwattr $C$DW$1083, DW_AT_TI_symbol_name("_rsvd9_8")
    7563                      .dwattr $C$DW$1083, DW_AT_data_member_location[DW_OP_plus_uconst 0xee]
    7564                      .dwattr $C$DW$1083, DW_AT_accessibility(DW_ACCESS_public)
    7565              $C$DW$1084      .dwtag  DW_TAG_member
    7566                      .dwattr $C$DW$1084, DW_AT_type(*$C$DW$T$169)
    7567                      .dwattr $C$DW$1084, DW_AT_name("ADCINT1")
    7568                      .dwattr $C$DW$1084, DW_AT_TI_symbol_name("_ADCINT1")
    7569                      .dwattr $C$DW$1084, DW_AT_data_member_location[DW_OP_plus_uconst 0xf0]
    7570                      .dwattr $C$DW$1084, DW_AT_accessibility(DW_ACCESS_public)
    7571              $C$DW$1085      .dwtag  DW_TAG_member
    7572                      .dwattr $C$DW$1085, DW_AT_type(*$C$DW$T$169)
    7573                      .dwattr $C$DW$1085, DW_AT_name("ADCINT2")
    7574                      .dwattr $C$DW$1085, DW_AT_TI_symbol_name("_ADCINT2")
    7575                      .dwattr $C$DW$1085, DW_AT_data_member_location[DW_OP_plus_uconst 0xf2]
    7576                      .dwattr $C$DW$1085, DW_AT_accessibility(DW_ACCESS_public)
    7577              $C$DW$1086      .dwtag  DW_TAG_member
    7578                      .dwattr $C$DW$1086, DW_AT_type(*$C$DW$T$169)
    7579                      .dwattr $C$DW$1086, DW_AT_name("ADCINT3")
    7580                      .dwattr $C$DW$1086, DW_AT_TI_symbol_name("_ADCINT3")
    7581                      .dwattr $C$DW$1086, DW_AT_data_member_location[DW_OP_plus_uconst 0xf4]
    7582                      .dwattr $C$DW$1086, DW_AT_accessibility(DW_ACCESS_public)
    7583              $C$DW$1087      .dwtag  DW_TAG_member
    7584                      .dwattr $C$DW$1087, DW_AT_type(*$C$DW$T$169)
    7585                      .dwattr $C$DW$1087, DW_AT_name("ADCINT4")
    7586                      .dwattr $C$DW$1087, DW_AT_TI_symbol_name("_ADCINT4")
    7587                      .dwattr $C$DW$1087, DW_AT_data_member_location[DW_OP_plus_uconst 0xf6]
    7588                      .dwattr $C$DW$1087, DW_AT_accessibility(DW_ACCESS_public)
    7589              $C$DW$1088      .dwtag  DW_TAG_member
    7590                      .dwattr $C$DW$1088, DW_AT_type(*$C$DW$T$169)
    7591                      .dwattr $C$DW$1088, DW_AT_name("ADCINT5")
    7592                      .dwattr $C$DW$1088, DW_AT_TI_symbol_name("_ADCINT5")
    7593                      .dwattr $C$DW$1088, DW_AT_data_member_location[DW_OP_plus_uconst 0xf8]
    7594                      .dwattr $C$DW$1088, DW_AT_accessibility(DW_ACCESS_public)
    7595              $C$DW$1089      .dwtag  DW_TAG_member
    7596                      .dwattr $C$DW$1089, DW_AT_type(*$C$DW$T$169)
    7597                      .dwattr $C$DW$1089, DW_AT_name("ADCINT6")
    7598                      .dwattr $C$DW$1089, DW_AT_TI_symbol_name("_ADCINT6")
    7599                      .dwattr $C$DW$1089, DW_AT_data_member_location[DW_OP_plus_uconst 0xfa]
    7600                      .dwattr $C$DW$1089, DW_AT_accessibility(DW_ACCESS_public)
TMS320C2000 Assembler PC v6.4.10 Mon Jul 11 12:58:57 2016

Tools Copyright (c) 1996-2015 Texas Instruments Incorporated
C:\Users\bee25\AppData\Local\Temp\0350410                            PAGE  148

    7601              $C$DW$1090      .dwtag  DW_TAG_member
    7602                      .dwattr $C$DW$1090, DW_AT_type(*$C$DW$T$169)
    7603                      .dwattr $C$DW$1090, DW_AT_name("ADCINT7")
    7604                      .dwattr $C$DW$1090, DW_AT_TI_symbol_name("_ADCINT7")
    7605                      .dwattr $C$DW$1090, DW_AT_data_member_location[DW_OP_plus_uconst 0xfc]
    7606                      .dwattr $C$DW$1090, DW_AT_accessibility(DW_ACCESS_public)
    7607              $C$DW$1091      .dwtag  DW_TAG_member
    7608                      .dwattr $C$DW$1091, DW_AT_type(*$C$DW$T$169)
    7609                      .dwattr $C$DW$1091, DW_AT_name("ADCINT8")
    7610                      .dwattr $C$DW$1091, DW_AT_TI_symbol_name("_ADCINT8")
    7611                      .dwattr $C$DW$1091, DW_AT_data_member_location[DW_OP_plus_uconst 0xfe]
    7612                      .dwattr $C$DW$1091, DW_AT_accessibility(DW_ACCESS_public)
    7613              $C$DW$1092      .dwtag  DW_TAG_member
    7614                      .dwattr $C$DW$1092, DW_AT_type(*$C$DW$T$169)
    7615                      .dwattr $C$DW$1092, DW_AT_name("rsvd11_1")
    7616                      .dwattr $C$DW$1092, DW_AT_TI_symbol_name("_rsvd11_1")
    7617                      .dwattr $C$DW$1092, DW_AT_data_member_location[DW_OP_plus_uconst 0x100]
    7618                      .dwattr $C$DW$1092, DW_AT_accessibility(DW_ACCESS_public)
    7619              $C$DW$1093      .dwtag  DW_TAG_member
    7620                      .dwattr $C$DW$1093, DW_AT_type(*$C$DW$T$169)
    7621                      .dwattr $C$DW$1093, DW_AT_name("rsvd11_2")
    7622                      .dwattr $C$DW$1093, DW_AT_TI_symbol_name("_rsvd11_2")
    7623                      .dwattr $C$DW$1093, DW_AT_data_member_location[DW_OP_plus_uconst 0x102]
    7624                      .dwattr $C$DW$1093, DW_AT_accessibility(DW_ACCESS_public)
    7625              $C$DW$1094      .dwtag  DW_TAG_member
    7626                      .dwattr $C$DW$1094, DW_AT_type(*$C$DW$T$169)
    7627                      .dwattr $C$DW$1094, DW_AT_name("rsvd11_3")
    7628                      .dwattr $C$DW$1094, DW_AT_TI_symbol_name("_rsvd11_3")
    7629                      .dwattr $C$DW$1094, DW_AT_data_member_location[DW_OP_plus_uconst 0x104]
    7630                      .dwattr $C$DW$1094, DW_AT_accessibility(DW_ACCESS_public)
    7631              $C$DW$1095      .dwtag  DW_TAG_member
    7632                      .dwattr $C$DW$1095, DW_AT_type(*$C$DW$T$169)
    7633                      .dwattr $C$DW$1095, DW_AT_name("rsvd11_4")
    7634                      .dwattr $C$DW$1095, DW_AT_TI_symbol_name("_rsvd11_4")
    7635                      .dwattr $C$DW$1095, DW_AT_data_member_location[DW_OP_plus_uconst 0x106]
    7636                      .dwattr $C$DW$1095, DW_AT_accessibility(DW_ACCESS_public)
    7637              $C$DW$1096      .dwtag  DW_TAG_member
    7638                      .dwattr $C$DW$1096, DW_AT_type(*$C$DW$T$169)
    7639                      .dwattr $C$DW$1096, DW_AT_name("rsvd11_5")
    7640                      .dwattr $C$DW$1096, DW_AT_TI_symbol_name("_rsvd11_5")
    7641                      .dwattr $C$DW$1096, DW_AT_data_member_location[DW_OP_plus_uconst 0x108]
    7642                      .dwattr $C$DW$1096, DW_AT_accessibility(DW_ACCESS_public)
    7643              $C$DW$1097      .dwtag  DW_TAG_member
    7644                      .dwattr $C$DW$1097, DW_AT_type(*$C$DW$T$169)
    7645                      .dwattr $C$DW$1097, DW_AT_name("rsvd11_6")
    7646                      .dwattr $C$DW$1097, DW_AT_TI_symbol_name("_rsvd11_6")
    7647                      .dwattr $C$DW$1097, DW_AT_data_member_location[DW_OP_plus_uconst 0x10a]
    7648                      .dwattr $C$DW$1097, DW_AT_accessibility(DW_ACCESS_public)
    7649              $C$DW$1098      .dwtag  DW_TAG_member
    7650                      .dwattr $C$DW$1098, DW_AT_type(*$C$DW$T$169)
    7651                      .dwattr $C$DW$1098, DW_AT_name("rsvd11_7")
    7652                      .dwattr $C$DW$1098, DW_AT_TI_symbol_name("_rsvd11_7")
    7653                      .dwattr $C$DW$1098, DW_AT_data_member_location[DW_OP_plus_uconst 0x10c]
    7654                      .dwattr $C$DW$1098, DW_AT_accessibility(DW_ACCESS_public)
    7655              $C$DW$1099      .dwtag  DW_TAG_member
TMS320C2000 Assembler PC v6.4.10 Mon Jul 11 12:58:57 2016

Tools Copyright (c) 1996-2015 Texas Instruments Incorporated
C:\Users\bee25\AppData\Local\Temp\0350410                            PAGE  149

    7656                      .dwattr $C$DW$1099, DW_AT_type(*$C$DW$T$169)
    7657                      .dwattr $C$DW$1099, DW_AT_name("rsvd11_8")
    7658                      .dwattr $C$DW$1099, DW_AT_TI_symbol_name("_rsvd11_8")
    7659                      .dwattr $C$DW$1099, DW_AT_data_member_location[DW_OP_plus_uconst 0x10e]
    7660                      .dwattr $C$DW$1099, DW_AT_accessibility(DW_ACCESS_public)
    7661              $C$DW$1100      .dwtag  DW_TAG_member
    7662                      .dwattr $C$DW$1100, DW_AT_type(*$C$DW$T$169)
    7663                      .dwattr $C$DW$1100, DW_AT_name("XINT3")
    7664                      .dwattr $C$DW$1100, DW_AT_TI_symbol_name("_XINT3")
    7665                      .dwattr $C$DW$1100, DW_AT_data_member_location[DW_OP_plus_uconst 0x110]
    7666                      .dwattr $C$DW$1100, DW_AT_accessibility(DW_ACCESS_public)
    7667              $C$DW$1101      .dwtag  DW_TAG_member
    7668                      .dwattr $C$DW$1101, DW_AT_type(*$C$DW$T$169)
    7669                      .dwattr $C$DW$1101, DW_AT_name("rsvd12_2")
    7670                      .dwattr $C$DW$1101, DW_AT_TI_symbol_name("_rsvd12_2")
    7671                      .dwattr $C$DW$1101, DW_AT_data_member_location[DW_OP_plus_uconst 0x112]
    7672                      .dwattr $C$DW$1101, DW_AT_accessibility(DW_ACCESS_public)
    7673              $C$DW$1102      .dwtag  DW_TAG_member
    7674                      .dwattr $C$DW$1102, DW_AT_type(*$C$DW$T$169)
    7675                      .dwattr $C$DW$1102, DW_AT_name("rsvd12_3")
    7676                      .dwattr $C$DW$1102, DW_AT_TI_symbol_name("_rsvd12_3")
    7677                      .dwattr $C$DW$1102, DW_AT_data_member_location[DW_OP_plus_uconst 0x114]
    7678                      .dwattr $C$DW$1102, DW_AT_accessibility(DW_ACCESS_public)
    7679              $C$DW$1103      .dwtag  DW_TAG_member
    7680                      .dwattr $C$DW$1103, DW_AT_type(*$C$DW$T$169)
    7681                      .dwattr $C$DW$1103, DW_AT_name("rsvd12_4")
    7682                      .dwattr $C$DW$1103, DW_AT_TI_symbol_name("_rsvd12_4")
    7683                      .dwattr $C$DW$1103, DW_AT_data_member_location[DW_OP_plus_uconst 0x116]
    7684                      .dwattr $C$DW$1103, DW_AT_accessibility(DW_ACCESS_public)
    7685              $C$DW$1104      .dwtag  DW_TAG_member
    7686                      .dwattr $C$DW$1104, DW_AT_type(*$C$DW$T$169)
    7687                      .dwattr $C$DW$1104, DW_AT_name("rsvd12_5")
    7688                      .dwattr $C$DW$1104, DW_AT_TI_symbol_name("_rsvd12_5")
    7689                      .dwattr $C$DW$1104, DW_AT_data_member_location[DW_OP_plus_uconst 0x118]
    7690                      .dwattr $C$DW$1104, DW_AT_accessibility(DW_ACCESS_public)
    7691              $C$DW$1105      .dwtag  DW_TAG_member
    7692                      .dwattr $C$DW$1105, DW_AT_type(*$C$DW$T$169)
    7693                      .dwattr $C$DW$1105, DW_AT_name("rsvd12_6")
    7694                      .dwattr $C$DW$1105, DW_AT_TI_symbol_name("_rsvd12_6")
    7695                      .dwattr $C$DW$1105, DW_AT_data_member_location[DW_OP_plus_uconst 0x11a]
    7696                      .dwattr $C$DW$1105, DW_AT_accessibility(DW_ACCESS_public)
    7697              $C$DW$1106      .dwtag  DW_TAG_member
    7698                      .dwattr $C$DW$1106, DW_AT_type(*$C$DW$T$169)
    7699                      .dwattr $C$DW$1106, DW_AT_name("rsvd12_7")
    7700                      .dwattr $C$DW$1106, DW_AT_TI_symbol_name("_rsvd12_7")
    7701                      .dwattr $C$DW$1106, DW_AT_data_member_location[DW_OP_plus_uconst 0x11c]
    7702                      .dwattr $C$DW$1106, DW_AT_accessibility(DW_ACCESS_public)
    7703              $C$DW$1107      .dwtag  DW_TAG_member
    7704                      .dwattr $C$DW$1107, DW_AT_type(*$C$DW$T$169)
    7705                      .dwattr $C$DW$1107, DW_AT_name("rsvd12_8")
    7706                      .dwattr $C$DW$1107, DW_AT_TI_symbol_name("_rsvd12_8")
    7707                      .dwattr $C$DW$1107, DW_AT_data_member_location[DW_OP_plus_uconst 0x11e]
    7708                      .dwattr $C$DW$1107, DW_AT_accessibility(DW_ACCESS_public)
    7709              $C$DW$1108      .dwtag  DW_TAG_member
    7710                      .dwattr $C$DW$1108, DW_AT_type(*$C$DW$T$170)
TMS320C2000 Assembler PC v6.4.10 Mon Jul 11 12:58:57 2016

Tools Copyright (c) 1996-2015 Texas Instruments Incorporated
C:\Users\bee25\AppData\Local\Temp\0350410                            PAGE  150

    7711                      .dwattr $C$DW$1108, DW_AT_name("rsvd13")
    7712                      .dwattr $C$DW$1108, DW_AT_TI_symbol_name("_rsvd13")
    7713                      .dwattr $C$DW$1108, DW_AT_data_member_location[DW_OP_plus_uconst 0x120]
    7714                      .dwattr $C$DW$1108, DW_AT_accessibility(DW_ACCESS_public)
    7715              $C$DW$1109      .dwtag  DW_TAG_member
    7716                      .dwattr $C$DW$1109, DW_AT_type(*$C$DW$T$44)
    7717                      .dwattr $C$DW$1109, DW_AT_name("XINTnCR")
    7718                      .dwattr $C$DW$1109, DW_AT_TI_symbol_name("_XINTnCR")
    7719                      .dwattr $C$DW$1109, DW_AT_data_member_location[DW_OP_plus_uconst 0x6390]
    7720                      .dwattr $C$DW$1109, DW_AT_accessibility(DW_ACCESS_public)
    7721              $C$DW$1110      .dwtag  DW_TAG_member
    7722                      .dwattr $C$DW$1110, DW_AT_type(*$C$DW$T$43)
    7723                      .dwattr $C$DW$1110, DW_AT_name("rsvd14")
    7724                      .dwattr $C$DW$1110, DW_AT_TI_symbol_name("_rsvd14")
    7725                      .dwattr $C$DW$1110, DW_AT_data_member_location[DW_OP_plus_uconst 0x6393]
    7726                      .dwattr $C$DW$1110, DW_AT_accessibility(DW_ACCESS_public)
    7727              $C$DW$1111      .dwtag  DW_TAG_member
    7728                      .dwattr $C$DW$1111, DW_AT_type(*$C$DW$T$44)
    7729                      .dwattr $C$DW$1111, DW_AT_name("XINTnCTR")
    7730                      .dwattr $C$DW$1111, DW_AT_TI_symbol_name("_XINTnCTR")
    7731                      .dwattr $C$DW$1111, DW_AT_data_member_location[DW_OP_plus_uconst 0x6398]
    7732                      .dwattr $C$DW$1111, DW_AT_accessibility(DW_ACCESS_public)
    7733                      .dwendtag $C$DW$T$171
    7734              
    7735              $C$DW$T$271     .dwtag  DW_TAG_typedef, DW_AT_name("PIE_Obj")
    7736                      .dwattr $C$DW$T$271, DW_AT_type(*$C$DW$T$171)
    7737                      .dwattr $C$DW$T$271, DW_AT_language(DW_LANG_C)
    7738              $C$DW$T$115     .dwtag  DW_TAG_pointer_type
    7739                      .dwattr $C$DW$T$115, DW_AT_type(*$C$DW$T$171)
    7740                      .dwattr $C$DW$T$115, DW_AT_address_class(0x20)
    7741              $C$DW$T$116     .dwtag  DW_TAG_typedef, DW_AT_name("PIE_Handle")
    7742                      .dwattr $C$DW$T$116, DW_AT_type(*$C$DW$T$115)
    7743                      .dwattr $C$DW$T$116, DW_AT_language(DW_LANG_C)
    7744              
    7745              $C$DW$T$172     .dwtag  DW_TAG_structure_type
    7746                      .dwattr $C$DW$T$172, DW_AT_name("_PLL_Obj_")
    7747                      .dwattr $C$DW$T$172, DW_AT_byte_size(0x11)
    7748              $C$DW$1112      .dwtag  DW_TAG_member
    7749                      .dwattr $C$DW$1112, DW_AT_type(*$C$DW$T$39)
    7750                      .dwattr $C$DW$1112, DW_AT_name("PLLSTS")
    7751                      .dwattr $C$DW$1112, DW_AT_TI_symbol_name("_PLLSTS")
    7752                      .dwattr $C$DW$1112, DW_AT_data_member_location[DW_OP_plus_uconst 0x0]
    7753                      .dwattr $C$DW$1112, DW_AT_accessibility(DW_ACCESS_public)
    7754              $C$DW$1113      .dwtag  DW_TAG_member
    7755                      .dwattr $C$DW$1113, DW_AT_type(*$C$DW$T$39)
    7756                      .dwattr $C$DW$1113, DW_AT_name("rsvd_1")
    7757                      .dwattr $C$DW$1113, DW_AT_TI_symbol_name("_rsvd_1")
    7758                      .dwattr $C$DW$1113, DW_AT_data_member_location[DW_OP_plus_uconst 0x1]
    7759                      .dwattr $C$DW$1113, DW_AT_accessibility(DW_ACCESS_public)
    7760              $C$DW$1114      .dwtag  DW_TAG_member
    7761                      .dwattr $C$DW$1114, DW_AT_type(*$C$DW$T$39)
    7762                      .dwattr $C$DW$1114, DW_AT_name("PLLLOCKPRD")
    7763                      .dwattr $C$DW$1114, DW_AT_TI_symbol_name("_PLLLOCKPRD")
    7764                      .dwattr $C$DW$1114, DW_AT_data_member_location[DW_OP_plus_uconst 0x2]
    7765                      .dwattr $C$DW$1114, DW_AT_accessibility(DW_ACCESS_public)
TMS320C2000 Assembler PC v6.4.10 Mon Jul 11 12:58:57 2016

Tools Copyright (c) 1996-2015 Texas Instruments Incorporated
C:\Users\bee25\AppData\Local\Temp\0350410                            PAGE  151

    7766              $C$DW$1115      .dwtag  DW_TAG_member
    7767                      .dwattr $C$DW$1115, DW_AT_type(*$C$DW$T$45)
    7768                      .dwattr $C$DW$1115, DW_AT_name("rsvd_2")
    7769                      .dwattr $C$DW$1115, DW_AT_TI_symbol_name("_rsvd_2")
    7770                      .dwattr $C$DW$1115, DW_AT_data_member_location[DW_OP_plus_uconst 0x3]
    7771                      .dwattr $C$DW$1115, DW_AT_accessibility(DW_ACCESS_public)
    7772              $C$DW$1116      .dwtag  DW_TAG_member
    7773                      .dwattr $C$DW$1116, DW_AT_type(*$C$DW$T$39)
    7774                      .dwattr $C$DW$1116, DW_AT_name("PLLCR")
    7775                      .dwattr $C$DW$1116, DW_AT_TI_symbol_name("_PLLCR")
    7776                      .dwattr $C$DW$1116, DW_AT_data_member_location[DW_OP_plus_uconst 0x10]
    7777                      .dwattr $C$DW$1116, DW_AT_accessibility(DW_ACCESS_public)
    7778                      .dwendtag $C$DW$T$172
    7779              
    7780              $C$DW$T$117     .dwtag  DW_TAG_pointer_type
    7781                      .dwattr $C$DW$T$117, DW_AT_type(*$C$DW$T$172)
    7782                      .dwattr $C$DW$T$117, DW_AT_address_class(0x20)
    7783              $C$DW$T$118     .dwtag  DW_TAG_typedef, DW_AT_name("PLL_Handle")
    7784                      .dwattr $C$DW$T$118, DW_AT_type(*$C$DW$T$117)
    7785                      .dwattr $C$DW$T$118, DW_AT_language(DW_LANG_C)
    7786              
    7787              $C$DW$T$173     .dwtag  DW_TAG_structure_type
    7788                      .dwattr $C$DW$T$173, DW_AT_name("_PWM_Obj_")
    7789                      .dwattr $C$DW$T$173, DW_AT_byte_size(0x3a)
    7790              $C$DW$1117      .dwtag  DW_TAG_member
    7791                      .dwattr $C$DW$1117, DW_AT_type(*$C$DW$T$39)
    7792                      .dwattr $C$DW$1117, DW_AT_name("TBCTL")
    7793                      .dwattr $C$DW$1117, DW_AT_TI_symbol_name("_TBCTL")
    7794                      .dwattr $C$DW$1117, DW_AT_data_member_location[DW_OP_plus_uconst 0x0]
    7795                      .dwattr $C$DW$1117, DW_AT_accessibility(DW_ACCESS_public)
    7796              $C$DW$1118      .dwtag  DW_TAG_member
    7797                      .dwattr $C$DW$1118, DW_AT_type(*$C$DW$T$39)
    7798                      .dwattr $C$DW$1118, DW_AT_name("TBSTS")
    7799                      .dwattr $C$DW$1118, DW_AT_TI_symbol_name("_TBSTS")
    7800                      .dwattr $C$DW$1118, DW_AT_data_member_location[DW_OP_plus_uconst 0x1]
    7801                      .dwattr $C$DW$1118, DW_AT_accessibility(DW_ACCESS_public)
    7802              $C$DW$1119      .dwtag  DW_TAG_member
    7803                      .dwattr $C$DW$1119, DW_AT_type(*$C$DW$T$39)
    7804                      .dwattr $C$DW$1119, DW_AT_name("TBPHSHR")
    7805                      .dwattr $C$DW$1119, DW_AT_TI_symbol_name("_TBPHSHR")
    7806                      .dwattr $C$DW$1119, DW_AT_data_member_location[DW_OP_plus_uconst 0x2]
    7807                      .dwattr $C$DW$1119, DW_AT_accessibility(DW_ACCESS_public)
    7808              $C$DW$1120      .dwtag  DW_TAG_member
    7809                      .dwattr $C$DW$1120, DW_AT_type(*$C$DW$T$39)
    7810                      .dwattr $C$DW$1120, DW_AT_name("TBPHS")
    7811                      .dwattr $C$DW$1120, DW_AT_TI_symbol_name("_TBPHS")
    7812                      .dwattr $C$DW$1120, DW_AT_data_member_location[DW_OP_plus_uconst 0x3]
    7813                      .dwattr $C$DW$1120, DW_AT_accessibility(DW_ACCESS_public)
    7814              $C$DW$1121      .dwtag  DW_TAG_member
    7815                      .dwattr $C$DW$1121, DW_AT_type(*$C$DW$T$39)
    7816                      .dwattr $C$DW$1121, DW_AT_name("TBCTR")
    7817                      .dwattr $C$DW$1121, DW_AT_TI_symbol_name("_TBCTR")
    7818                      .dwattr $C$DW$1121, DW_AT_data_member_location[DW_OP_plus_uconst 0x4]
    7819                      .dwattr $C$DW$1121, DW_AT_accessibility(DW_ACCESS_public)
    7820              $C$DW$1122      .dwtag  DW_TAG_member
TMS320C2000 Assembler PC v6.4.10 Mon Jul 11 12:58:57 2016

Tools Copyright (c) 1996-2015 Texas Instruments Incorporated
C:\Users\bee25\AppData\Local\Temp\0350410                            PAGE  152

    7821                      .dwattr $C$DW$1122, DW_AT_type(*$C$DW$T$39)
    7822                      .dwattr $C$DW$1122, DW_AT_name("TBPRD")
    7823                      .dwattr $C$DW$1122, DW_AT_TI_symbol_name("_TBPRD")
    7824                      .dwattr $C$DW$1122, DW_AT_data_member_location[DW_OP_plus_uconst 0x5]
    7825                      .dwattr $C$DW$1122, DW_AT_accessibility(DW_ACCESS_public)
    7826              $C$DW$1123      .dwtag  DW_TAG_member
    7827                      .dwattr $C$DW$1123, DW_AT_type(*$C$DW$T$39)
    7828                      .dwattr $C$DW$1123, DW_AT_name("TBPRDHR")
    7829                      .dwattr $C$DW$1123, DW_AT_TI_symbol_name("_TBPRDHR")
    7830                      .dwattr $C$DW$1123, DW_AT_data_member_location[DW_OP_plus_uconst 0x6]
    7831                      .dwattr $C$DW$1123, DW_AT_accessibility(DW_ACCESS_public)
    7832              $C$DW$1124      .dwtag  DW_TAG_member
    7833                      .dwattr $C$DW$1124, DW_AT_type(*$C$DW$T$39)
    7834                      .dwattr $C$DW$1124, DW_AT_name("CMPCTL")
    7835                      .dwattr $C$DW$1124, DW_AT_TI_symbol_name("_CMPCTL")
    7836                      .dwattr $C$DW$1124, DW_AT_data_member_location[DW_OP_plus_uconst 0x7]
    7837                      .dwattr $C$DW$1124, DW_AT_accessibility(DW_ACCESS_public)
    7838              $C$DW$1125      .dwtag  DW_TAG_member
    7839                      .dwattr $C$DW$1125, DW_AT_type(*$C$DW$T$39)
    7840                      .dwattr $C$DW$1125, DW_AT_name("CMPAHR")
    7841                      .dwattr $C$DW$1125, DW_AT_TI_symbol_name("_CMPAHR")
    7842                      .dwattr $C$DW$1125, DW_AT_data_member_location[DW_OP_plus_uconst 0x8]
    7843                      .dwattr $C$DW$1125, DW_AT_accessibility(DW_ACCESS_public)
    7844              $C$DW$1126      .dwtag  DW_TAG_member
    7845                      .dwattr $C$DW$1126, DW_AT_type(*$C$DW$T$39)
    7846                      .dwattr $C$DW$1126, DW_AT_name("CMPA")
    7847                      .dwattr $C$DW$1126, DW_AT_TI_symbol_name("_CMPA")
    7848                      .dwattr $C$DW$1126, DW_AT_data_member_location[DW_OP_plus_uconst 0x9]
    7849                      .dwattr $C$DW$1126, DW_AT_accessibility(DW_ACCESS_public)
    7850              $C$DW$1127      .dwtag  DW_TAG_member
    7851                      .dwattr $C$DW$1127, DW_AT_type(*$C$DW$T$39)
    7852                      .dwattr $C$DW$1127, DW_AT_name("CMPB")
    7853                      .dwattr $C$DW$1127, DW_AT_TI_symbol_name("_CMPB")
    7854                      .dwattr $C$DW$1127, DW_AT_data_member_location[DW_OP_plus_uconst 0xa]
    7855                      .dwattr $C$DW$1127, DW_AT_accessibility(DW_ACCESS_public)
    7856              $C$DW$1128      .dwtag  DW_TAG_member
    7857                      .dwattr $C$DW$1128, DW_AT_type(*$C$DW$T$39)
    7858                      .dwattr $C$DW$1128, DW_AT_name("AQCTLA")
    7859                      .dwattr $C$DW$1128, DW_AT_TI_symbol_name("_AQCTLA")
    7860                      .dwattr $C$DW$1128, DW_AT_data_member_location[DW_OP_plus_uconst 0xb]
    7861                      .dwattr $C$DW$1128, DW_AT_accessibility(DW_ACCESS_public)
    7862              $C$DW$1129      .dwtag  DW_TAG_member
    7863                      .dwattr $C$DW$1129, DW_AT_type(*$C$DW$T$39)
    7864                      .dwattr $C$DW$1129, DW_AT_name("AQCTLB")
    7865                      .dwattr $C$DW$1129, DW_AT_TI_symbol_name("_AQCTLB")
    7866                      .dwattr $C$DW$1129, DW_AT_data_member_location[DW_OP_plus_uconst 0xc]
    7867                      .dwattr $C$DW$1129, DW_AT_accessibility(DW_ACCESS_public)
    7868              $C$DW$1130      .dwtag  DW_TAG_member
    7869                      .dwattr $C$DW$1130, DW_AT_type(*$C$DW$T$39)
    7870                      .dwattr $C$DW$1130, DW_AT_name("AQSFRC")
    7871                      .dwattr $C$DW$1130, DW_AT_TI_symbol_name("_AQSFRC")
    7872                      .dwattr $C$DW$1130, DW_AT_data_member_location[DW_OP_plus_uconst 0xd]
    7873                      .dwattr $C$DW$1130, DW_AT_accessibility(DW_ACCESS_public)
    7874              $C$DW$1131      .dwtag  DW_TAG_member
    7875                      .dwattr $C$DW$1131, DW_AT_type(*$C$DW$T$39)
TMS320C2000 Assembler PC v6.4.10 Mon Jul 11 12:58:57 2016

Tools Copyright (c) 1996-2015 Texas Instruments Incorporated
C:\Users\bee25\AppData\Local\Temp\0350410                            PAGE  153

    7876                      .dwattr $C$DW$1131, DW_AT_name("AQCSFRC")
    7877                      .dwattr $C$DW$1131, DW_AT_TI_symbol_name("_AQCSFRC")
    7878                      .dwattr $C$DW$1131, DW_AT_data_member_location[DW_OP_plus_uconst 0xe]
    7879                      .dwattr $C$DW$1131, DW_AT_accessibility(DW_ACCESS_public)
    7880              $C$DW$1132      .dwtag  DW_TAG_member
    7881                      .dwattr $C$DW$1132, DW_AT_type(*$C$DW$T$39)
    7882                      .dwattr $C$DW$1132, DW_AT_name("DBCTL")
    7883                      .dwattr $C$DW$1132, DW_AT_TI_symbol_name("_DBCTL")
    7884                      .dwattr $C$DW$1132, DW_AT_data_member_location[DW_OP_plus_uconst 0xf]
    7885                      .dwattr $C$DW$1132, DW_AT_accessibility(DW_ACCESS_public)
    7886              $C$DW$1133      .dwtag  DW_TAG_member
    7887                      .dwattr $C$DW$1133, DW_AT_type(*$C$DW$T$39)
    7888                      .dwattr $C$DW$1133, DW_AT_name("DBRED")
    7889                      .dwattr $C$DW$1133, DW_AT_TI_symbol_name("_DBRED")
    7890                      .dwattr $C$DW$1133, DW_AT_data_member_location[DW_OP_plus_uconst 0x10]
    7891                      .dwattr $C$DW$1133, DW_AT_accessibility(DW_ACCESS_public)
    7892              $C$DW$1134      .dwtag  DW_TAG_member
    7893                      .dwattr $C$DW$1134, DW_AT_type(*$C$DW$T$39)
    7894                      .dwattr $C$DW$1134, DW_AT_name("DBFED")
    7895                      .dwattr $C$DW$1134, DW_AT_TI_symbol_name("_DBFED")
    7896                      .dwattr $C$DW$1134, DW_AT_data_member_location[DW_OP_plus_uconst 0x11]
    7897                      .dwattr $C$DW$1134, DW_AT_accessibility(DW_ACCESS_public)
    7898              $C$DW$1135      .dwtag  DW_TAG_member
    7899                      .dwattr $C$DW$1135, DW_AT_type(*$C$DW$T$39)
    7900                      .dwattr $C$DW$1135, DW_AT_name("TZSEL")
    7901                      .dwattr $C$DW$1135, DW_AT_TI_symbol_name("_TZSEL")
    7902                      .dwattr $C$DW$1135, DW_AT_data_member_location[DW_OP_plus_uconst 0x12]
    7903                      .dwattr $C$DW$1135, DW_AT_accessibility(DW_ACCESS_public)
    7904              $C$DW$1136      .dwtag  DW_TAG_member
    7905                      .dwattr $C$DW$1136, DW_AT_type(*$C$DW$T$39)
    7906                      .dwattr $C$DW$1136, DW_AT_name("TZDCSEL")
    7907                      .dwattr $C$DW$1136, DW_AT_TI_symbol_name("_TZDCSEL")
    7908                      .dwattr $C$DW$1136, DW_AT_data_member_location[DW_OP_plus_uconst 0x13]
    7909                      .dwattr $C$DW$1136, DW_AT_accessibility(DW_ACCESS_public)
    7910              $C$DW$1137      .dwtag  DW_TAG_member
    7911                      .dwattr $C$DW$1137, DW_AT_type(*$C$DW$T$39)
    7912                      .dwattr $C$DW$1137, DW_AT_name("TZCTL")
    7913                      .dwattr $C$DW$1137, DW_AT_TI_symbol_name("_TZCTL")
    7914                      .dwattr $C$DW$1137, DW_AT_data_member_location[DW_OP_plus_uconst 0x14]
    7915                      .dwattr $C$DW$1137, DW_AT_accessibility(DW_ACCESS_public)
    7916              $C$DW$1138      .dwtag  DW_TAG_member
    7917                      .dwattr $C$DW$1138, DW_AT_type(*$C$DW$T$39)
    7918                      .dwattr $C$DW$1138, DW_AT_name("TZEINT")
    7919                      .dwattr $C$DW$1138, DW_AT_TI_symbol_name("_TZEINT")
    7920                      .dwattr $C$DW$1138, DW_AT_data_member_location[DW_OP_plus_uconst 0x15]
    7921                      .dwattr $C$DW$1138, DW_AT_accessibility(DW_ACCESS_public)
    7922              $C$DW$1139      .dwtag  DW_TAG_member
    7923                      .dwattr $C$DW$1139, DW_AT_type(*$C$DW$T$39)
    7924                      .dwattr $C$DW$1139, DW_AT_name("TZFLG")
    7925                      .dwattr $C$DW$1139, DW_AT_TI_symbol_name("_TZFLG")
    7926                      .dwattr $C$DW$1139, DW_AT_data_member_location[DW_OP_plus_uconst 0x16]
    7927                      .dwattr $C$DW$1139, DW_AT_accessibility(DW_ACCESS_public)
    7928              $C$DW$1140      .dwtag  DW_TAG_member
    7929                      .dwattr $C$DW$1140, DW_AT_type(*$C$DW$T$39)
    7930                      .dwattr $C$DW$1140, DW_AT_name("TZCLR")
TMS320C2000 Assembler PC v6.4.10 Mon Jul 11 12:58:57 2016

Tools Copyright (c) 1996-2015 Texas Instruments Incorporated
C:\Users\bee25\AppData\Local\Temp\0350410                            PAGE  154

    7931                      .dwattr $C$DW$1140, DW_AT_TI_symbol_name("_TZCLR")
    7932                      .dwattr $C$DW$1140, DW_AT_data_member_location[DW_OP_plus_uconst 0x17]
    7933                      .dwattr $C$DW$1140, DW_AT_accessibility(DW_ACCESS_public)
    7934              $C$DW$1141      .dwtag  DW_TAG_member
    7935                      .dwattr $C$DW$1141, DW_AT_type(*$C$DW$T$39)
    7936                      .dwattr $C$DW$1141, DW_AT_name("TZFRC")
    7937                      .dwattr $C$DW$1141, DW_AT_TI_symbol_name("_TZFRC")
    7938                      .dwattr $C$DW$1141, DW_AT_data_member_location[DW_OP_plus_uconst 0x18]
    7939                      .dwattr $C$DW$1141, DW_AT_accessibility(DW_ACCESS_public)
    7940              $C$DW$1142      .dwtag  DW_TAG_member
    7941                      .dwattr $C$DW$1142, DW_AT_type(*$C$DW$T$39)
    7942                      .dwattr $C$DW$1142, DW_AT_name("ETSEL")
    7943                      .dwattr $C$DW$1142, DW_AT_TI_symbol_name("_ETSEL")
    7944                      .dwattr $C$DW$1142, DW_AT_data_member_location[DW_OP_plus_uconst 0x19]
    7945                      .dwattr $C$DW$1142, DW_AT_accessibility(DW_ACCESS_public)
    7946              $C$DW$1143      .dwtag  DW_TAG_member
    7947                      .dwattr $C$DW$1143, DW_AT_type(*$C$DW$T$39)
    7948                      .dwattr $C$DW$1143, DW_AT_name("ETPS")
    7949                      .dwattr $C$DW$1143, DW_AT_TI_symbol_name("_ETPS")
    7950                      .dwattr $C$DW$1143, DW_AT_data_member_location[DW_OP_plus_uconst 0x1a]
    7951                      .dwattr $C$DW$1143, DW_AT_accessibility(DW_ACCESS_public)
    7952              $C$DW$1144      .dwtag  DW_TAG_member
    7953                      .dwattr $C$DW$1144, DW_AT_type(*$C$DW$T$39)
    7954                      .dwattr $C$DW$1144, DW_AT_name("ETFLG")
    7955                      .dwattr $C$DW$1144, DW_AT_TI_symbol_name("_ETFLG")
    7956                      .dwattr $C$DW$1144, DW_AT_data_member_location[DW_OP_plus_uconst 0x1b]
    7957                      .dwattr $C$DW$1144, DW_AT_accessibility(DW_ACCESS_public)
    7958              $C$DW$1145      .dwtag  DW_TAG_member
    7959                      .dwattr $C$DW$1145, DW_AT_type(*$C$DW$T$39)
    7960                      .dwattr $C$DW$1145, DW_AT_name("ETCLR")
    7961                      .dwattr $C$DW$1145, DW_AT_TI_symbol_name("_ETCLR")
    7962                      .dwattr $C$DW$1145, DW_AT_data_member_location[DW_OP_plus_uconst 0x1c]
    7963                      .dwattr $C$DW$1145, DW_AT_accessibility(DW_ACCESS_public)
    7964              $C$DW$1146      .dwtag  DW_TAG_member
    7965                      .dwattr $C$DW$1146, DW_AT_type(*$C$DW$T$39)
    7966                      .dwattr $C$DW$1146, DW_AT_name("ETFRC")
    7967                      .dwattr $C$DW$1146, DW_AT_TI_symbol_name("_ETFRC")
    7968                      .dwattr $C$DW$1146, DW_AT_data_member_location[DW_OP_plus_uconst 0x1d]
    7969                      .dwattr $C$DW$1146, DW_AT_accessibility(DW_ACCESS_public)
    7970              $C$DW$1147      .dwtag  DW_TAG_member
    7971                      .dwattr $C$DW$1147, DW_AT_type(*$C$DW$T$39)
    7972                      .dwattr $C$DW$1147, DW_AT_name("PCCTL")
    7973                      .dwattr $C$DW$1147, DW_AT_TI_symbol_name("_PCCTL")
    7974                      .dwattr $C$DW$1147, DW_AT_data_member_location[DW_OP_plus_uconst 0x1e]
    7975                      .dwattr $C$DW$1147, DW_AT_accessibility(DW_ACCESS_public)
    7976              $C$DW$1148      .dwtag  DW_TAG_member
    7977                      .dwattr $C$DW$1148, DW_AT_type(*$C$DW$T$39)
    7978                      .dwattr $C$DW$1148, DW_AT_name("rsvd_1")
    7979                      .dwattr $C$DW$1148, DW_AT_TI_symbol_name("_rsvd_1")
    7980                      .dwattr $C$DW$1148, DW_AT_data_member_location[DW_OP_plus_uconst 0x1f]
    7981                      .dwattr $C$DW$1148, DW_AT_accessibility(DW_ACCESS_public)
    7982              $C$DW$1149      .dwtag  DW_TAG_member
    7983                      .dwattr $C$DW$1149, DW_AT_type(*$C$DW$T$39)
    7984                      .dwattr $C$DW$1149, DW_AT_name("HRCNFG")
    7985                      .dwattr $C$DW$1149, DW_AT_TI_symbol_name("_HRCNFG")
TMS320C2000 Assembler PC v6.4.10 Mon Jul 11 12:58:57 2016

Tools Copyright (c) 1996-2015 Texas Instruments Incorporated
C:\Users\bee25\AppData\Local\Temp\0350410                            PAGE  155

    7986                      .dwattr $C$DW$1149, DW_AT_data_member_location[DW_OP_plus_uconst 0x20]
    7987                      .dwattr $C$DW$1149, DW_AT_accessibility(DW_ACCESS_public)
    7988              $C$DW$1150      .dwtag  DW_TAG_member
    7989                      .dwattr $C$DW$1150, DW_AT_type(*$C$DW$T$39)
    7990                      .dwattr $C$DW$1150, DW_AT_name("HRPWR")
    7991                      .dwattr $C$DW$1150, DW_AT_TI_symbol_name("_HRPWR")
    7992                      .dwattr $C$DW$1150, DW_AT_data_member_location[DW_OP_plus_uconst 0x21]
    7993                      .dwattr $C$DW$1150, DW_AT_accessibility(DW_ACCESS_public)
    7994              $C$DW$1151      .dwtag  DW_TAG_member
    7995                      .dwattr $C$DW$1151, DW_AT_type(*$C$DW$T$96)
    7996                      .dwattr $C$DW$1151, DW_AT_name("rsvd_2")
    7997                      .dwattr $C$DW$1151, DW_AT_TI_symbol_name("_rsvd_2")
    7998                      .dwattr $C$DW$1151, DW_AT_data_member_location[DW_OP_plus_uconst 0x22]
    7999                      .dwattr $C$DW$1151, DW_AT_accessibility(DW_ACCESS_public)
    8000              $C$DW$1152      .dwtag  DW_TAG_member
    8001                      .dwattr $C$DW$1152, DW_AT_type(*$C$DW$T$39)
    8002                      .dwattr $C$DW$1152, DW_AT_name("HRMSTEP")
    8003                      .dwattr $C$DW$1152, DW_AT_TI_symbol_name("_HRMSTEP")
    8004                      .dwattr $C$DW$1152, DW_AT_data_member_location[DW_OP_plus_uconst 0x26]
    8005                      .dwattr $C$DW$1152, DW_AT_accessibility(DW_ACCESS_public)
    8006              $C$DW$1153      .dwtag  DW_TAG_member
    8007                      .dwattr $C$DW$1153, DW_AT_type(*$C$DW$T$39)
    8008                      .dwattr $C$DW$1153, DW_AT_name("rsvd_3")
    8009                      .dwattr $C$DW$1153, DW_AT_TI_symbol_name("_rsvd_3")
    8010                      .dwattr $C$DW$1153, DW_AT_data_member_location[DW_OP_plus_uconst 0x27]
    8011                      .dwattr $C$DW$1153, DW_AT_accessibility(DW_ACCESS_public)
    8012              $C$DW$1154      .dwtag  DW_TAG_member
    8013                      .dwattr $C$DW$1154, DW_AT_type(*$C$DW$T$39)
    8014                      .dwattr $C$DW$1154, DW_AT_name("HRPCTL")
    8015                      .dwattr $C$DW$1154, DW_AT_TI_symbol_name("_HRPCTL")
    8016                      .dwattr $C$DW$1154, DW_AT_data_member_location[DW_OP_plus_uconst 0x28]
    8017                      .dwattr $C$DW$1154, DW_AT_accessibility(DW_ACCESS_public)
    8018              $C$DW$1155      .dwtag  DW_TAG_member
    8019                      .dwattr $C$DW$1155, DW_AT_type(*$C$DW$T$39)
    8020                      .dwattr $C$DW$1155, DW_AT_name("rsvd_4")
    8021                      .dwattr $C$DW$1155, DW_AT_TI_symbol_name("_rsvd_4")
    8022                      .dwattr $C$DW$1155, DW_AT_data_member_location[DW_OP_plus_uconst 0x29]
    8023                      .dwattr $C$DW$1155, DW_AT_accessibility(DW_ACCESS_public)
    8024              $C$DW$1156      .dwtag  DW_TAG_member
    8025                      .dwattr $C$DW$1156, DW_AT_type(*$C$DW$T$39)
    8026                      .dwattr $C$DW$1156, DW_AT_name("TBPRDHRM")
    8027                      .dwattr $C$DW$1156, DW_AT_TI_symbol_name("_TBPRDHRM")
    8028                      .dwattr $C$DW$1156, DW_AT_data_member_location[DW_OP_plus_uconst 0x2a]
    8029                      .dwattr $C$DW$1156, DW_AT_accessibility(DW_ACCESS_public)
    8030              $C$DW$1157      .dwtag  DW_TAG_member
    8031                      .dwattr $C$DW$1157, DW_AT_type(*$C$DW$T$39)
    8032                      .dwattr $C$DW$1157, DW_AT_name("TBPRDM")
    8033                      .dwattr $C$DW$1157, DW_AT_TI_symbol_name("_TBPRDM")
    8034                      .dwattr $C$DW$1157, DW_AT_data_member_location[DW_OP_plus_uconst 0x2b]
    8035                      .dwattr $C$DW$1157, DW_AT_accessibility(DW_ACCESS_public)
    8036              $C$DW$1158      .dwtag  DW_TAG_member
    8037                      .dwattr $C$DW$1158, DW_AT_type(*$C$DW$T$39)
    8038                      .dwattr $C$DW$1158, DW_AT_name("CMPAHRM")
    8039                      .dwattr $C$DW$1158, DW_AT_TI_symbol_name("_CMPAHRM")
    8040                      .dwattr $C$DW$1158, DW_AT_data_member_location[DW_OP_plus_uconst 0x2c]
TMS320C2000 Assembler PC v6.4.10 Mon Jul 11 12:58:57 2016

Tools Copyright (c) 1996-2015 Texas Instruments Incorporated
C:\Users\bee25\AppData\Local\Temp\0350410                            PAGE  156

    8041                      .dwattr $C$DW$1158, DW_AT_accessibility(DW_ACCESS_public)
    8042              $C$DW$1159      .dwtag  DW_TAG_member
    8043                      .dwattr $C$DW$1159, DW_AT_type(*$C$DW$T$39)
    8044                      .dwattr $C$DW$1159, DW_AT_name("CMPAM")
    8045                      .dwattr $C$DW$1159, DW_AT_TI_symbol_name("_CMPAM")
    8046                      .dwattr $C$DW$1159, DW_AT_data_member_location[DW_OP_plus_uconst 0x2d]
    8047                      .dwattr $C$DW$1159, DW_AT_accessibility(DW_ACCESS_public)
    8048              $C$DW$1160      .dwtag  DW_TAG_member
    8049                      .dwattr $C$DW$1160, DW_AT_type(*$C$DW$T$42)
    8050                      .dwattr $C$DW$1160, DW_AT_name("rsvd_5")
    8051                      .dwattr $C$DW$1160, DW_AT_TI_symbol_name("_rsvd_5")
    8052                      .dwattr $C$DW$1160, DW_AT_data_member_location[DW_OP_plus_uconst 0x2e]
    8053                      .dwattr $C$DW$1160, DW_AT_accessibility(DW_ACCESS_public)
    8054              $C$DW$1161      .dwtag  DW_TAG_member
    8055                      .dwattr $C$DW$1161, DW_AT_type(*$C$DW$T$39)
    8056                      .dwattr $C$DW$1161, DW_AT_name("DCTRIPSEL")
    8057                      .dwattr $C$DW$1161, DW_AT_TI_symbol_name("_DCTRIPSEL")
    8058                      .dwattr $C$DW$1161, DW_AT_data_member_location[DW_OP_plus_uconst 0x30]
    8059                      .dwattr $C$DW$1161, DW_AT_accessibility(DW_ACCESS_public)
    8060              $C$DW$1162      .dwtag  DW_TAG_member
    8061                      .dwattr $C$DW$1162, DW_AT_type(*$C$DW$T$39)
    8062                      .dwattr $C$DW$1162, DW_AT_name("DCACTL")
    8063                      .dwattr $C$DW$1162, DW_AT_TI_symbol_name("_DCACTL")
    8064                      .dwattr $C$DW$1162, DW_AT_data_member_location[DW_OP_plus_uconst 0x31]
    8065                      .dwattr $C$DW$1162, DW_AT_accessibility(DW_ACCESS_public)
    8066              $C$DW$1163      .dwtag  DW_TAG_member
    8067                      .dwattr $C$DW$1163, DW_AT_type(*$C$DW$T$39)
    8068                      .dwattr $C$DW$1163, DW_AT_name("DCBCTL")
    8069                      .dwattr $C$DW$1163, DW_AT_TI_symbol_name("_DCBCTL")
    8070                      .dwattr $C$DW$1163, DW_AT_data_member_location[DW_OP_plus_uconst 0x32]
    8071                      .dwattr $C$DW$1163, DW_AT_accessibility(DW_ACCESS_public)
    8072              $C$DW$1164      .dwtag  DW_TAG_member
    8073                      .dwattr $C$DW$1164, DW_AT_type(*$C$DW$T$39)
    8074                      .dwattr $C$DW$1164, DW_AT_name("DCFCTL")
    8075                      .dwattr $C$DW$1164, DW_AT_TI_symbol_name("_DCFCTL")
    8076                      .dwattr $C$DW$1164, DW_AT_data_member_location[DW_OP_plus_uconst 0x33]
    8077                      .dwattr $C$DW$1164, DW_AT_accessibility(DW_ACCESS_public)
    8078              $C$DW$1165      .dwtag  DW_TAG_member
    8079                      .dwattr $C$DW$1165, DW_AT_type(*$C$DW$T$39)
    8080                      .dwattr $C$DW$1165, DW_AT_name("DCCAPCTL")
    8081                      .dwattr $C$DW$1165, DW_AT_TI_symbol_name("_DCCAPCTL")
    8082                      .dwattr $C$DW$1165, DW_AT_data_member_location[DW_OP_plus_uconst 0x34]
    8083                      .dwattr $C$DW$1165, DW_AT_accessibility(DW_ACCESS_public)
    8084              $C$DW$1166      .dwtag  DW_TAG_member
    8085                      .dwattr $C$DW$1166, DW_AT_type(*$C$DW$T$39)
    8086                      .dwattr $C$DW$1166, DW_AT_name("DCFOFFSET")
    8087                      .dwattr $C$DW$1166, DW_AT_TI_symbol_name("_DCFOFFSET")
    8088                      .dwattr $C$DW$1166, DW_AT_data_member_location[DW_OP_plus_uconst 0x35]
    8089                      .dwattr $C$DW$1166, DW_AT_accessibility(DW_ACCESS_public)
    8090              $C$DW$1167      .dwtag  DW_TAG_member
    8091                      .dwattr $C$DW$1167, DW_AT_type(*$C$DW$T$39)
    8092                      .dwattr $C$DW$1167, DW_AT_name("DCFOFFSETCNT")
    8093                      .dwattr $C$DW$1167, DW_AT_TI_symbol_name("_DCFOFFSETCNT")
    8094                      .dwattr $C$DW$1167, DW_AT_data_member_location[DW_OP_plus_uconst 0x36]
    8095                      .dwattr $C$DW$1167, DW_AT_accessibility(DW_ACCESS_public)
TMS320C2000 Assembler PC v6.4.10 Mon Jul 11 12:58:57 2016

Tools Copyright (c) 1996-2015 Texas Instruments Incorporated
C:\Users\bee25\AppData\Local\Temp\0350410                            PAGE  157

    8096              $C$DW$1168      .dwtag  DW_TAG_member
    8097                      .dwattr $C$DW$1168, DW_AT_type(*$C$DW$T$39)
    8098                      .dwattr $C$DW$1168, DW_AT_name("DCFWINDOW")
    8099                      .dwattr $C$DW$1168, DW_AT_TI_symbol_name("_DCFWINDOW")
    8100                      .dwattr $C$DW$1168, DW_AT_data_member_location[DW_OP_plus_uconst 0x37]
    8101                      .dwattr $C$DW$1168, DW_AT_accessibility(DW_ACCESS_public)
    8102              $C$DW$1169      .dwtag  DW_TAG_member
    8103                      .dwattr $C$DW$1169, DW_AT_type(*$C$DW$T$39)
    8104                      .dwattr $C$DW$1169, DW_AT_name("DCFWINDOWCNT")
    8105                      .dwattr $C$DW$1169, DW_AT_TI_symbol_name("_DCFWINDOWCNT")
    8106                      .dwattr $C$DW$1169, DW_AT_data_member_location[DW_OP_plus_uconst 0x38]
    8107                      .dwattr $C$DW$1169, DW_AT_accessibility(DW_ACCESS_public)
    8108              $C$DW$1170      .dwtag  DW_TAG_member
    8109                      .dwattr $C$DW$1170, DW_AT_type(*$C$DW$T$39)
    8110                      .dwattr $C$DW$1170, DW_AT_name("DCCAP")
    8111                      .dwattr $C$DW$1170, DW_AT_TI_symbol_name("_DCCAP")
    8112                      .dwattr $C$DW$1170, DW_AT_data_member_location[DW_OP_plus_uconst 0x39]
    8113                      .dwattr $C$DW$1170, DW_AT_accessibility(DW_ACCESS_public)
    8114                      .dwendtag $C$DW$T$173
    8115              
    8116              $C$DW$T$272     .dwtag  DW_TAG_typedef, DW_AT_name("PWM_Obj")
    8117                      .dwattr $C$DW$T$272, DW_AT_type(*$C$DW$T$173)
    8118                      .dwattr $C$DW$T$272, DW_AT_language(DW_LANG_C)
    8119              $C$DW$T$119     .dwtag  DW_TAG_pointer_type
    8120                      .dwattr $C$DW$T$119, DW_AT_type(*$C$DW$T$173)
    8121                      .dwattr $C$DW$T$119, DW_AT_address_class(0x20)
    8122              $C$DW$T$120     .dwtag  DW_TAG_typedef, DW_AT_name("PWM_Handle")
    8123                      .dwattr $C$DW$T$120, DW_AT_type(*$C$DW$T$119)
    8124                      .dwattr $C$DW$T$120, DW_AT_language(DW_LANG_C)
    8125              
    8126              $C$DW$T$121     .dwtag  DW_TAG_array_type
    8127                      .dwattr $C$DW$T$121, DW_AT_type(*$C$DW$T$120)
    8128                      .dwattr $C$DW$T$121, DW_AT_language(DW_LANG_C)
    8129                      .dwattr $C$DW$T$121, DW_AT_byte_size(0x06)
    8130              $C$DW$1171      .dwtag  DW_TAG_subrange_type
    8131                      .dwattr $C$DW$1171, DW_AT_upper_bound(0x02)
    8132                      .dwendtag $C$DW$T$121
    8133              
    8134              
    8135              $C$DW$T$175     .dwtag  DW_TAG_structure_type
    8136                      .dwattr $C$DW$T$175, DW_AT_name("_PWR_Obj_")
    8137                      .dwattr $C$DW$T$175, DW_AT_byte_size(0x669a)
    8138              $C$DW$1172      .dwtag  DW_TAG_member
    8139                      .dwattr $C$DW$1172, DW_AT_type(*$C$DW$T$39)
    8140                      .dwattr $C$DW$1172, DW_AT_name("BORCFG")
    8141                      .dwattr $C$DW$1172, DW_AT_TI_symbol_name("_BORCFG")
    8142                      .dwattr $C$DW$1172, DW_AT_data_member_location[DW_OP_plus_uconst 0x0]
    8143                      .dwattr $C$DW$1172, DW_AT_accessibility(DW_ACCESS_public)
    8144              $C$DW$1173      .dwtag  DW_TAG_member
    8145                      .dwattr $C$DW$1173, DW_AT_type(*$C$DW$T$174)
    8146                      .dwattr $C$DW$1173, DW_AT_name("rsvd_1")
    8147                      .dwattr $C$DW$1173, DW_AT_TI_symbol_name("_rsvd_1")
    8148                      .dwattr $C$DW$1173, DW_AT_data_member_location[DW_OP_plus_uconst 0x1]
    8149                      .dwattr $C$DW$1173, DW_AT_accessibility(DW_ACCESS_public)
    8150              $C$DW$1174      .dwtag  DW_TAG_member
TMS320C2000 Assembler PC v6.4.10 Mon Jul 11 12:58:57 2016

Tools Copyright (c) 1996-2015 Texas Instruments Incorporated
C:\Users\bee25\AppData\Local\Temp\0350410                            PAGE  158

    8151                      .dwattr $C$DW$1174, DW_AT_type(*$C$DW$T$39)
    8152                      .dwattr $C$DW$1174, DW_AT_name("LPMCR0")
    8153                      .dwattr $C$DW$1174, DW_AT_TI_symbol_name("_LPMCR0")
    8154                      .dwattr $C$DW$1174, DW_AT_data_member_location[DW_OP_plus_uconst 0x6699]
    8155                      .dwattr $C$DW$1174, DW_AT_accessibility(DW_ACCESS_public)
    8156                      .dwendtag $C$DW$T$175
    8157              
    8158              $C$DW$T$122     .dwtag  DW_TAG_pointer_type
    8159                      .dwattr $C$DW$T$122, DW_AT_type(*$C$DW$T$175)
    8160                      .dwattr $C$DW$T$122, DW_AT_address_class(0x20)
    8161              $C$DW$T$123     .dwtag  DW_TAG_typedef, DW_AT_name("PWR_Handle")
    8162                      .dwattr $C$DW$T$123, DW_AT_type(*$C$DW$T$122)
    8163                      .dwattr $C$DW$T$123, DW_AT_language(DW_LANG_C)
    8164              
    8165              $C$DW$T$176     .dwtag  DW_TAG_structure_type
    8166                      .dwattr $C$DW$T$176, DW_AT_name("_SPI_Obj_")
    8167                      .dwattr $C$DW$T$176, DW_AT_byte_size(0x10)
    8168              $C$DW$1175      .dwtag  DW_TAG_member
    8169                      .dwattr $C$DW$1175, DW_AT_type(*$C$DW$T$39)
    8170                      .dwattr $C$DW$1175, DW_AT_name("SPICCR")
    8171                      .dwattr $C$DW$1175, DW_AT_TI_symbol_name("_SPICCR")
    8172                      .dwattr $C$DW$1175, DW_AT_data_member_location[DW_OP_plus_uconst 0x0]
    8173                      .dwattr $C$DW$1175, DW_AT_accessibility(DW_ACCESS_public)
    8174              $C$DW$1176      .dwtag  DW_TAG_member
    8175                      .dwattr $C$DW$1176, DW_AT_type(*$C$DW$T$39)
    8176                      .dwattr $C$DW$1176, DW_AT_name("SPICTL")
    8177                      .dwattr $C$DW$1176, DW_AT_TI_symbol_name("_SPICTL")
    8178                      .dwattr $C$DW$1176, DW_AT_data_member_location[DW_OP_plus_uconst 0x1]
    8179                      .dwattr $C$DW$1176, DW_AT_accessibility(DW_ACCESS_public)
    8180              $C$DW$1177      .dwtag  DW_TAG_member
    8181                      .dwattr $C$DW$1177, DW_AT_type(*$C$DW$T$39)
    8182                      .dwattr $C$DW$1177, DW_AT_name("SPIST")
    8183                      .dwattr $C$DW$1177, DW_AT_TI_symbol_name("_SPIST")
    8184                      .dwattr $C$DW$1177, DW_AT_data_member_location[DW_OP_plus_uconst 0x2]
    8185                      .dwattr $C$DW$1177, DW_AT_accessibility(DW_ACCESS_public)
    8186              $C$DW$1178      .dwtag  DW_TAG_member
    8187                      .dwattr $C$DW$1178, DW_AT_type(*$C$DW$T$39)
    8188                      .dwattr $C$DW$1178, DW_AT_name("rsvd_1")
    8189                      .dwattr $C$DW$1178, DW_AT_TI_symbol_name("_rsvd_1")
    8190                      .dwattr $C$DW$1178, DW_AT_data_member_location[DW_OP_plus_uconst 0x3]
    8191                      .dwattr $C$DW$1178, DW_AT_accessibility(DW_ACCESS_public)
    8192              $C$DW$1179      .dwtag  DW_TAG_member
    8193                      .dwattr $C$DW$1179, DW_AT_type(*$C$DW$T$39)
    8194                      .dwattr $C$DW$1179, DW_AT_name("SPIBRR")
    8195                      .dwattr $C$DW$1179, DW_AT_TI_symbol_name("_SPIBRR")
    8196                      .dwattr $C$DW$1179, DW_AT_data_member_location[DW_OP_plus_uconst 0x4]
    8197                      .dwattr $C$DW$1179, DW_AT_accessibility(DW_ACCESS_public)
    8198              $C$DW$1180      .dwtag  DW_TAG_member
    8199                      .dwattr $C$DW$1180, DW_AT_type(*$C$DW$T$39)
    8200                      .dwattr $C$DW$1180, DW_AT_name("rsvd_2")
    8201                      .dwattr $C$DW$1180, DW_AT_TI_symbol_name("_rsvd_2")
    8202                      .dwattr $C$DW$1180, DW_AT_data_member_location[DW_OP_plus_uconst 0x5]
    8203                      .dwattr $C$DW$1180, DW_AT_accessibility(DW_ACCESS_public)
    8204              $C$DW$1181      .dwtag  DW_TAG_member
    8205                      .dwattr $C$DW$1181, DW_AT_type(*$C$DW$T$39)
TMS320C2000 Assembler PC v6.4.10 Mon Jul 11 12:58:57 2016

Tools Copyright (c) 1996-2015 Texas Instruments Incorporated
C:\Users\bee25\AppData\Local\Temp\0350410                            PAGE  159

    8206                      .dwattr $C$DW$1181, DW_AT_name("SPIEMU")
    8207                      .dwattr $C$DW$1181, DW_AT_TI_symbol_name("_SPIEMU")
    8208                      .dwattr $C$DW$1181, DW_AT_data_member_location[DW_OP_plus_uconst 0x6]
    8209                      .dwattr $C$DW$1181, DW_AT_accessibility(DW_ACCESS_public)
    8210              $C$DW$1182      .dwtag  DW_TAG_member
    8211                      .dwattr $C$DW$1182, DW_AT_type(*$C$DW$T$39)
    8212                      .dwattr $C$DW$1182, DW_AT_name("SPIRXBUF")
    8213                      .dwattr $C$DW$1182, DW_AT_TI_symbol_name("_SPIRXBUF")
    8214                      .dwattr $C$DW$1182, DW_AT_data_member_location[DW_OP_plus_uconst 0x7]
    8215                      .dwattr $C$DW$1182, DW_AT_accessibility(DW_ACCESS_public)
    8216              $C$DW$1183      .dwtag  DW_TAG_member
    8217                      .dwattr $C$DW$1183, DW_AT_type(*$C$DW$T$39)
    8218                      .dwattr $C$DW$1183, DW_AT_name("SPITXBUF")
    8219                      .dwattr $C$DW$1183, DW_AT_TI_symbol_name("_SPITXBUF")
    8220                      .dwattr $C$DW$1183, DW_AT_data_member_location[DW_OP_plus_uconst 0x8]
    8221                      .dwattr $C$DW$1183, DW_AT_accessibility(DW_ACCESS_public)
    8222              $C$DW$1184      .dwtag  DW_TAG_member
    8223                      .dwattr $C$DW$1184, DW_AT_type(*$C$DW$T$39)
    8224                      .dwattr $C$DW$1184, DW_AT_name("SPIDAT")
    8225                      .dwattr $C$DW$1184, DW_AT_TI_symbol_name("_SPIDAT")
    8226                      .dwattr $C$DW$1184, DW_AT_data_member_location[DW_OP_plus_uconst 0x9]
    8227                      .dwattr $C$DW$1184, DW_AT_accessibility(DW_ACCESS_public)
    8228              $C$DW$1185      .dwtag  DW_TAG_member
    8229                      .dwattr $C$DW$1185, DW_AT_type(*$C$DW$T$39)
    8230                      .dwattr $C$DW$1185, DW_AT_name("SPIFFTX")
    8231                      .dwattr $C$DW$1185, DW_AT_TI_symbol_name("_SPIFFTX")
    8232                      .dwattr $C$DW$1185, DW_AT_data_member_location[DW_OP_plus_uconst 0xa]
    8233                      .dwattr $C$DW$1185, DW_AT_accessibility(DW_ACCESS_public)
    8234              $C$DW$1186      .dwtag  DW_TAG_member
    8235                      .dwattr $C$DW$1186, DW_AT_type(*$C$DW$T$39)
    8236                      .dwattr $C$DW$1186, DW_AT_name("SPIFFRX")
    8237                      .dwattr $C$DW$1186, DW_AT_TI_symbol_name("_SPIFFRX")
    8238                      .dwattr $C$DW$1186, DW_AT_data_member_location[DW_OP_plus_uconst 0xb]
    8239                      .dwattr $C$DW$1186, DW_AT_accessibility(DW_ACCESS_public)
    8240              $C$DW$1187      .dwtag  DW_TAG_member
    8241                      .dwattr $C$DW$1187, DW_AT_type(*$C$DW$T$39)
    8242                      .dwattr $C$DW$1187, DW_AT_name("SPIFFCT")
    8243                      .dwattr $C$DW$1187, DW_AT_TI_symbol_name("_SPIFFCT")
    8244                      .dwattr $C$DW$1187, DW_AT_data_member_location[DW_OP_plus_uconst 0xc]
    8245                      .dwattr $C$DW$1187, DW_AT_accessibility(DW_ACCESS_public)
    8246              $C$DW$1188      .dwtag  DW_TAG_member
    8247                      .dwattr $C$DW$1188, DW_AT_type(*$C$DW$T$42)
    8248                      .dwattr $C$DW$1188, DW_AT_name("rsvd_3")
    8249                      .dwattr $C$DW$1188, DW_AT_TI_symbol_name("_rsvd_3")
    8250                      .dwattr $C$DW$1188, DW_AT_data_member_location[DW_OP_plus_uconst 0xd]
    8251                      .dwattr $C$DW$1188, DW_AT_accessibility(DW_ACCESS_public)
    8252              $C$DW$1189      .dwtag  DW_TAG_member
    8253                      .dwattr $C$DW$1189, DW_AT_type(*$C$DW$T$39)
    8254                      .dwattr $C$DW$1189, DW_AT_name("SPIPRI")
    8255                      .dwattr $C$DW$1189, DW_AT_TI_symbol_name("_SPIPRI")
    8256                      .dwattr $C$DW$1189, DW_AT_data_member_location[DW_OP_plus_uconst 0xf]
    8257                      .dwattr $C$DW$1189, DW_AT_accessibility(DW_ACCESS_public)
    8258                      .dwendtag $C$DW$T$176
    8259              
    8260              $C$DW$T$130     .dwtag  DW_TAG_typedef, DW_AT_name("SPI_Obj")
TMS320C2000 Assembler PC v6.4.10 Mon Jul 11 12:58:57 2016

Tools Copyright (c) 1996-2015 Texas Instruments Incorporated
C:\Users\bee25\AppData\Local\Temp\0350410                            PAGE  160

    8261                      .dwattr $C$DW$T$130, DW_AT_type(*$C$DW$T$176)
    8262                      .dwattr $C$DW$T$130, DW_AT_language(DW_LANG_C)
    8263              $C$DW$T$56      .dwtag  DW_TAG_pointer_type
    8264                      .dwattr $C$DW$T$56, DW_AT_type(*$C$DW$T$176)
    8265                      .dwattr $C$DW$T$56, DW_AT_address_class(0x20)
    8266              $C$DW$T$57      .dwtag  DW_TAG_typedef, DW_AT_name("SPI_Handle")
    8267                      .dwattr $C$DW$T$57, DW_AT_type(*$C$DW$T$56)
    8268                      .dwattr $C$DW$T$57, DW_AT_language(DW_LANG_C)
    8269              
    8270              $C$DW$T$177     .dwtag  DW_TAG_structure_type
    8271                      .dwattr $C$DW$T$177, DW_AT_name("_SVGEN_Obj_")
    8272                      .dwattr $C$DW$T$177, DW_AT_byte_size(0x02)
    8273              $C$DW$1190      .dwtag  DW_TAG_member
    8274                      .dwattr $C$DW$1190, DW_AT_type(*$C$DW$T$47)
    8275                      .dwattr $C$DW$1190, DW_AT_name("maxModulation")
    8276                      .dwattr $C$DW$1190, DW_AT_TI_symbol_name("_maxModulation")
    8277                      .dwattr $C$DW$1190, DW_AT_data_member_location[DW_OP_plus_uconst 0x0]
    8278                      .dwattr $C$DW$1190, DW_AT_accessibility(DW_ACCESS_public)
    8279                      .dwendtag $C$DW$T$177
    8280              
    8281              $C$DW$T$274     .dwtag  DW_TAG_typedef, DW_AT_name("SVGEN_Obj")
    8282                      .dwattr $C$DW$T$274, DW_AT_type(*$C$DW$T$177)
    8283                      .dwattr $C$DW$T$274, DW_AT_language(DW_LANG_C)
    8284              $C$DW$T$275     .dwtag  DW_TAG_pointer_type
    8285                      .dwattr $C$DW$T$275, DW_AT_type(*$C$DW$T$177)
    8286                      .dwattr $C$DW$T$275, DW_AT_address_class(0x20)
    8287              $C$DW$T$276     .dwtag  DW_TAG_typedef, DW_AT_name("SVGEN_Handle")
    8288                      .dwattr $C$DW$T$276, DW_AT_type(*$C$DW$T$275)
    8289                      .dwattr $C$DW$T$276, DW_AT_language(DW_LANG_C)
    8290              
    8291              $C$DW$T$178     .dwtag  DW_TAG_structure_type
    8292                      .dwattr $C$DW$T$178, DW_AT_name("_TIMER_Obj_")
    8293                      .dwattr $C$DW$T$178, DW_AT_byte_size(0x08)
    8294              $C$DW$1191      .dwtag  DW_TAG_member
    8295                      .dwattr $C$DW$1191, DW_AT_type(*$C$DW$T$94)
    8296                      .dwattr $C$DW$1191, DW_AT_name("TIM")
    8297                      .dwattr $C$DW$1191, DW_AT_TI_symbol_name("_TIM")
    8298                      .dwattr $C$DW$1191, DW_AT_data_member_location[DW_OP_plus_uconst 0x0]
    8299                      .dwattr $C$DW$1191, DW_AT_accessibility(DW_ACCESS_public)
    8300              $C$DW$1192      .dwtag  DW_TAG_member
    8301                      .dwattr $C$DW$1192, DW_AT_type(*$C$DW$T$94)
    8302                      .dwattr $C$DW$1192, DW_AT_name("PRD")
    8303                      .dwattr $C$DW$1192, DW_AT_TI_symbol_name("_PRD")
    8304                      .dwattr $C$DW$1192, DW_AT_data_member_location[DW_OP_plus_uconst 0x2]
    8305                      .dwattr $C$DW$1192, DW_AT_accessibility(DW_ACCESS_public)
    8306              $C$DW$1193      .dwtag  DW_TAG_member
    8307                      .dwattr $C$DW$1193, DW_AT_type(*$C$DW$T$39)
    8308                      .dwattr $C$DW$1193, DW_AT_name("TCR")
    8309                      .dwattr $C$DW$1193, DW_AT_TI_symbol_name("_TCR")
    8310                      .dwattr $C$DW$1193, DW_AT_data_member_location[DW_OP_plus_uconst 0x4]
    8311                      .dwattr $C$DW$1193, DW_AT_accessibility(DW_ACCESS_public)
    8312              $C$DW$1194      .dwtag  DW_TAG_member
    8313                      .dwattr $C$DW$1194, DW_AT_type(*$C$DW$T$39)
    8314                      .dwattr $C$DW$1194, DW_AT_name("resvd_1")
    8315                      .dwattr $C$DW$1194, DW_AT_TI_symbol_name("_resvd_1")
TMS320C2000 Assembler PC v6.4.10 Mon Jul 11 12:58:57 2016

Tools Copyright (c) 1996-2015 Texas Instruments Incorporated
C:\Users\bee25\AppData\Local\Temp\0350410                            PAGE  161

    8316                      .dwattr $C$DW$1194, DW_AT_data_member_location[DW_OP_plus_uconst 0x5]
    8317                      .dwattr $C$DW$1194, DW_AT_accessibility(DW_ACCESS_public)
    8318              $C$DW$1195      .dwtag  DW_TAG_member
    8319                      .dwattr $C$DW$1195, DW_AT_type(*$C$DW$T$94)
    8320                      .dwattr $C$DW$1195, DW_AT_name("TPR")
    8321                      .dwattr $C$DW$1195, DW_AT_TI_symbol_name("_TPR")
    8322                      .dwattr $C$DW$1195, DW_AT_data_member_location[DW_OP_plus_uconst 0x6]
    8323                      .dwattr $C$DW$1195, DW_AT_accessibility(DW_ACCESS_public)
    8324                      .dwendtag $C$DW$T$178
    8325              
    8326              $C$DW$T$124     .dwtag  DW_TAG_pointer_type
    8327                      .dwattr $C$DW$T$124, DW_AT_type(*$C$DW$T$178)
    8328                      .dwattr $C$DW$T$124, DW_AT_address_class(0x20)
    8329              $C$DW$T$125     .dwtag  DW_TAG_typedef, DW_AT_name("TIMER_Handle")
    8330                      .dwattr $C$DW$T$125, DW_AT_type(*$C$DW$T$124)
    8331                      .dwattr $C$DW$T$125, DW_AT_language(DW_LANG_C)
    8332              
    8333              $C$DW$T$126     .dwtag  DW_TAG_array_type
    8334                      .dwattr $C$DW$T$126, DW_AT_type(*$C$DW$T$125)
    8335                      .dwattr $C$DW$T$126, DW_AT_language(DW_LANG_C)
    8336                      .dwattr $C$DW$T$126, DW_AT_byte_size(0x06)
    8337              $C$DW$1196      .dwtag  DW_TAG_subrange_type
    8338                      .dwattr $C$DW$1196, DW_AT_upper_bound(0x02)
    8339                      .dwendtag $C$DW$T$126
    8340              
    8341              
    8342              $C$DW$T$187     .dwtag  DW_TAG_structure_type
    8343                      .dwattr $C$DW$T$187, DW_AT_name("_USER_Params_")
    8344                      .dwattr $C$DW$T$187, DW_AT_byte_size(0xac)
    8345              $C$DW$1197      .dwtag  DW_TAG_member
    8346                      .dwattr $C$DW$1197, DW_AT_type(*$C$DW$T$153)
    8347                      .dwattr $C$DW$1197, DW_AT_name("iqFullScaleCurrent_A")
    8348                      .dwattr $C$DW$1197, DW_AT_TI_symbol_name("_iqFullScaleCurrent_A")
    8349                      .dwattr $C$DW$1197, DW_AT_data_member_location[DW_OP_plus_uconst 0x0]
    8350                      .dwattr $C$DW$1197, DW_AT_accessibility(DW_ACCESS_public)
    8351              $C$DW$1198      .dwtag  DW_TAG_member
    8352                      .dwattr $C$DW$1198, DW_AT_type(*$C$DW$T$153)
    8353                      .dwattr $C$DW$1198, DW_AT_name("iqFullScaleVoltage_V")
    8354                      .dwattr $C$DW$1198, DW_AT_TI_symbol_name("_iqFullScaleVoltage_V")
    8355                      .dwattr $C$DW$1198, DW_AT_data_member_location[DW_OP_plus_uconst 0x2]
    8356                      .dwattr $C$DW$1198, DW_AT_accessibility(DW_ACCESS_public)
    8357              $C$DW$1199      .dwtag  DW_TAG_member
    8358                      .dwattr $C$DW$1199, DW_AT_type(*$C$DW$T$153)
    8359                      .dwattr $C$DW$1199, DW_AT_name("iqFullScaleFreq_Hz")
    8360                      .dwattr $C$DW$1199, DW_AT_TI_symbol_name("_iqFullScaleFreq_Hz")
    8361                      .dwattr $C$DW$1199, DW_AT_data_member_location[DW_OP_plus_uconst 0x4]
    8362                      .dwattr $C$DW$1199, DW_AT_accessibility(DW_ACCESS_public)
    8363              $C$DW$1200      .dwtag  DW_TAG_member
    8364                      .dwattr $C$DW$1200, DW_AT_type(*$C$DW$T$179)
    8365                      .dwattr $C$DW$1200, DW_AT_name("numIsrTicksPerCtrlTick")
    8366                      .dwattr $C$DW$1200, DW_AT_TI_symbol_name("_numIsrTicksPerCtrlTick")
    8367                      .dwattr $C$DW$1200, DW_AT_data_member_location[DW_OP_plus_uconst 0x6]
    8368                      .dwattr $C$DW$1200, DW_AT_accessibility(DW_ACCESS_public)
    8369              $C$DW$1201      .dwtag  DW_TAG_member
    8370                      .dwattr $C$DW$1201, DW_AT_type(*$C$DW$T$179)
TMS320C2000 Assembler PC v6.4.10 Mon Jul 11 12:58:57 2016

Tools Copyright (c) 1996-2015 Texas Instruments Incorporated
C:\Users\bee25\AppData\Local\Temp\0350410                            PAGE  162

    8371                      .dwattr $C$DW$1201, DW_AT_name("numCtrlTicksPerCurrentTick")
    8372                      .dwattr $C$DW$1201, DW_AT_TI_symbol_name("_numCtrlTicksPerCurrentTick")
    8373                      .dwattr $C$DW$1201, DW_AT_data_member_location[DW_OP_plus_uconst 0x7]
    8374                      .dwattr $C$DW$1201, DW_AT_accessibility(DW_ACCESS_public)
    8375              $C$DW$1202      .dwtag  DW_TAG_member
    8376                      .dwattr $C$DW$1202, DW_AT_type(*$C$DW$T$179)
    8377                      .dwattr $C$DW$1202, DW_AT_name("numCtrlTicksPerEstTick")
    8378                      .dwattr $C$DW$1202, DW_AT_TI_symbol_name("_numCtrlTicksPerEstTick")
    8379                      .dwattr $C$DW$1202, DW_AT_data_member_location[DW_OP_plus_uconst 0x8]
    8380                      .dwattr $C$DW$1202, DW_AT_accessibility(DW_ACCESS_public)
    8381              $C$DW$1203      .dwtag  DW_TAG_member
    8382                      .dwattr $C$DW$1203, DW_AT_type(*$C$DW$T$179)
    8383                      .dwattr $C$DW$1203, DW_AT_name("numCtrlTicksPerSpeedTick")
    8384                      .dwattr $C$DW$1203, DW_AT_TI_symbol_name("_numCtrlTicksPerSpeedTick")
    8385                      .dwattr $C$DW$1203, DW_AT_data_member_location[DW_OP_plus_uconst 0x9]
    8386                      .dwattr $C$DW$1203, DW_AT_accessibility(DW_ACCESS_public)
    8387              $C$DW$1204      .dwtag  DW_TAG_member
    8388                      .dwattr $C$DW$1204, DW_AT_type(*$C$DW$T$179)
    8389                      .dwattr $C$DW$1204, DW_AT_name("numCtrlTicksPerTrajTick")
    8390                      .dwattr $C$DW$1204, DW_AT_TI_symbol_name("_numCtrlTicksPerTrajTick")
    8391                      .dwattr $C$DW$1204, DW_AT_data_member_location[DW_OP_plus_uconst 0xa]
    8392                      .dwattr $C$DW$1204, DW_AT_accessibility(DW_ACCESS_public)
    8393              $C$DW$1205      .dwtag  DW_TAG_member
    8394                      .dwattr $C$DW$1205, DW_AT_type(*$C$DW$T$48)
    8395                      .dwattr $C$DW$1205, DW_AT_name("numCurrentSensors")
    8396                      .dwattr $C$DW$1205, DW_AT_TI_symbol_name("_numCurrentSensors")
    8397                      .dwattr $C$DW$1205, DW_AT_data_member_location[DW_OP_plus_uconst 0xb]
    8398                      .dwattr $C$DW$1205, DW_AT_accessibility(DW_ACCESS_public)
    8399              $C$DW$1206      .dwtag  DW_TAG_member
    8400                      .dwattr $C$DW$1206, DW_AT_type(*$C$DW$T$48)
    8401                      .dwattr $C$DW$1206, DW_AT_name("numVoltageSensors")
    8402                      .dwattr $C$DW$1206, DW_AT_TI_symbol_name("_numVoltageSensors")
    8403                      .dwattr $C$DW$1206, DW_AT_data_member_location[DW_OP_plus_uconst 0xc]
    8404                      .dwattr $C$DW$1206, DW_AT_accessibility(DW_ACCESS_public)
    8405              $C$DW$1207      .dwtag  DW_TAG_member
    8406                      .dwattr $C$DW$1207, DW_AT_type(*$C$DW$T$153)
    8407                      .dwattr $C$DW$1207, DW_AT_name("offsetPole_rps")
    8408                      .dwattr $C$DW$1207, DW_AT_TI_symbol_name("_offsetPole_rps")
    8409                      .dwattr $C$DW$1207, DW_AT_data_member_location[DW_OP_plus_uconst 0xe]
    8410                      .dwattr $C$DW$1207, DW_AT_accessibility(DW_ACCESS_public)
    8411              $C$DW$1208      .dwtag  DW_TAG_member
    8412                      .dwattr $C$DW$1208, DW_AT_type(*$C$DW$T$153)
    8413                      .dwattr $C$DW$1208, DW_AT_name("fluxPole_rps")
    8414                      .dwattr $C$DW$1208, DW_AT_TI_symbol_name("_fluxPole_rps")
    8415                      .dwattr $C$DW$1208, DW_AT_data_member_location[DW_OP_plus_uconst 0x10]
    8416                      .dwattr $C$DW$1208, DW_AT_accessibility(DW_ACCESS_public)
    8417              $C$DW$1209      .dwtag  DW_TAG_member
    8418                      .dwattr $C$DW$1209, DW_AT_type(*$C$DW$T$153)
    8419                      .dwattr $C$DW$1209, DW_AT_name("zeroSpeedLimit")
    8420                      .dwattr $C$DW$1209, DW_AT_TI_symbol_name("_zeroSpeedLimit")
    8421                      .dwattr $C$DW$1209, DW_AT_data_member_location[DW_OP_plus_uconst 0x12]
    8422                      .dwattr $C$DW$1209, DW_AT_accessibility(DW_ACCESS_public)
    8423              $C$DW$1210      .dwtag  DW_TAG_member
    8424                      .dwattr $C$DW$1210, DW_AT_type(*$C$DW$T$153)
    8425                      .dwattr $C$DW$1210, DW_AT_name("forceAngleFreq_Hz")
TMS320C2000 Assembler PC v6.4.10 Mon Jul 11 12:58:57 2016

Tools Copyright (c) 1996-2015 Texas Instruments Incorporated
C:\Users\bee25\AppData\Local\Temp\0350410                            PAGE  163

    8426                      .dwattr $C$DW$1210, DW_AT_TI_symbol_name("_forceAngleFreq_Hz")
    8427                      .dwattr $C$DW$1210, DW_AT_data_member_location[DW_OP_plus_uconst 0x14]
    8428                      .dwattr $C$DW$1210, DW_AT_accessibility(DW_ACCESS_public)
    8429              $C$DW$1211      .dwtag  DW_TAG_member
    8430                      .dwattr $C$DW$1211, DW_AT_type(*$C$DW$T$153)
    8431                      .dwattr $C$DW$1211, DW_AT_name("maxAccel_Hzps")
    8432                      .dwattr $C$DW$1211, DW_AT_TI_symbol_name("_maxAccel_Hzps")
    8433                      .dwattr $C$DW$1211, DW_AT_data_member_location[DW_OP_plus_uconst 0x16]
    8434                      .dwattr $C$DW$1211, DW_AT_accessibility(DW_ACCESS_public)
    8435              $C$DW$1212      .dwtag  DW_TAG_member
    8436                      .dwattr $C$DW$1212, DW_AT_type(*$C$DW$T$153)
    8437                      .dwattr $C$DW$1212, DW_AT_name("maxAccel_est_Hzps")
    8438                      .dwattr $C$DW$1212, DW_AT_TI_symbol_name("_maxAccel_est_Hzps")
    8439                      .dwattr $C$DW$1212, DW_AT_data_member_location[DW_OP_plus_uconst 0x18]
    8440                      .dwattr $C$DW$1212, DW_AT_accessibility(DW_ACCESS_public)
    8441              $C$DW$1213      .dwtag  DW_TAG_member
    8442                      .dwattr $C$DW$1213, DW_AT_type(*$C$DW$T$153)
    8443                      .dwattr $C$DW$1213, DW_AT_name("directionPole_rps")
    8444                      .dwattr $C$DW$1213, DW_AT_TI_symbol_name("_directionPole_rps")
    8445                      .dwattr $C$DW$1213, DW_AT_data_member_location[DW_OP_plus_uconst 0x1a]
    8446                      .dwattr $C$DW$1213, DW_AT_accessibility(DW_ACCESS_public)
    8447              $C$DW$1214      .dwtag  DW_TAG_member
    8448                      .dwattr $C$DW$1214, DW_AT_type(*$C$DW$T$153)
    8449                      .dwattr $C$DW$1214, DW_AT_name("speedPole_rps")
    8450                      .dwattr $C$DW$1214, DW_AT_TI_symbol_name("_speedPole_rps")
    8451                      .dwattr $C$DW$1214, DW_AT_data_member_location[DW_OP_plus_uconst 0x1c]
    8452                      .dwattr $C$DW$1214, DW_AT_accessibility(DW_ACCESS_public)
    8453              $C$DW$1215      .dwtag  DW_TAG_member
    8454                      .dwattr $C$DW$1215, DW_AT_type(*$C$DW$T$153)
    8455                      .dwattr $C$DW$1215, DW_AT_name("dcBusPole_rps")
    8456                      .dwattr $C$DW$1215, DW_AT_TI_symbol_name("_dcBusPole_rps")
    8457                      .dwattr $C$DW$1215, DW_AT_data_member_location[DW_OP_plus_uconst 0x1e]
    8458                      .dwattr $C$DW$1215, DW_AT_accessibility(DW_ACCESS_public)
    8459              $C$DW$1216      .dwtag  DW_TAG_member
    8460                      .dwattr $C$DW$1216, DW_AT_type(*$C$DW$T$153)
    8461                      .dwattr $C$DW$1216, DW_AT_name("fluxFraction")
    8462                      .dwattr $C$DW$1216, DW_AT_TI_symbol_name("_fluxFraction")
    8463                      .dwattr $C$DW$1216, DW_AT_data_member_location[DW_OP_plus_uconst 0x20]
    8464                      .dwattr $C$DW$1216, DW_AT_accessibility(DW_ACCESS_public)
    8465              $C$DW$1217      .dwtag  DW_TAG_member
    8466                      .dwattr $C$DW$1217, DW_AT_type(*$C$DW$T$153)
    8467                      .dwattr $C$DW$1217, DW_AT_name("indEst_speedMaxFraction")
    8468                      .dwattr $C$DW$1217, DW_AT_TI_symbol_name("_indEst_speedMaxFraction")
    8469                      .dwattr $C$DW$1217, DW_AT_data_member_location[DW_OP_plus_uconst 0x22]
    8470                      .dwattr $C$DW$1217, DW_AT_accessibility(DW_ACCESS_public)
    8471              $C$DW$1218      .dwtag  DW_TAG_member
    8472                      .dwattr $C$DW$1218, DW_AT_type(*$C$DW$T$153)
    8473                      .dwattr $C$DW$1218, DW_AT_name("powerWarpGain")
    8474                      .dwattr $C$DW$1218, DW_AT_TI_symbol_name("_powerWarpGain")
    8475                      .dwattr $C$DW$1218, DW_AT_data_member_location[DW_OP_plus_uconst 0x24]
    8476                      .dwattr $C$DW$1218, DW_AT_accessibility(DW_ACCESS_public)
    8477              $C$DW$1219      .dwtag  DW_TAG_member
    8478                      .dwattr $C$DW$1219, DW_AT_type(*$C$DW$T$179)
    8479                      .dwattr $C$DW$1219, DW_AT_name("systemFreq_MHz")
    8480                      .dwattr $C$DW$1219, DW_AT_TI_symbol_name("_systemFreq_MHz")
TMS320C2000 Assembler PC v6.4.10 Mon Jul 11 12:58:57 2016

Tools Copyright (c) 1996-2015 Texas Instruments Incorporated
C:\Users\bee25\AppData\Local\Temp\0350410                            PAGE  164

    8481                      .dwattr $C$DW$1219, DW_AT_data_member_location[DW_OP_plus_uconst 0x26]
    8482                      .dwattr $C$DW$1219, DW_AT_accessibility(DW_ACCESS_public)
    8483              $C$DW$1220      .dwtag  DW_TAG_member
    8484                      .dwattr $C$DW$1220, DW_AT_type(*$C$DW$T$153)
    8485                      .dwattr $C$DW$1220, DW_AT_name("pwmPeriod_usec")
    8486                      .dwattr $C$DW$1220, DW_AT_TI_symbol_name("_pwmPeriod_usec")
    8487                      .dwattr $C$DW$1220, DW_AT_data_member_location[DW_OP_plus_uconst 0x28]
    8488                      .dwattr $C$DW$1220, DW_AT_accessibility(DW_ACCESS_public)
    8489              $C$DW$1221      .dwtag  DW_TAG_member
    8490                      .dwattr $C$DW$1221, DW_AT_type(*$C$DW$T$153)
    8491                      .dwattr $C$DW$1221, DW_AT_name("voltage_sf")
    8492                      .dwattr $C$DW$1221, DW_AT_TI_symbol_name("_voltage_sf")
    8493                      .dwattr $C$DW$1221, DW_AT_data_member_location[DW_OP_plus_uconst 0x2a]
    8494                      .dwattr $C$DW$1221, DW_AT_accessibility(DW_ACCESS_public)
    8495              $C$DW$1222      .dwtag  DW_TAG_member
    8496                      .dwattr $C$DW$1222, DW_AT_type(*$C$DW$T$153)
    8497                      .dwattr $C$DW$1222, DW_AT_name("current_sf")
    8498                      .dwattr $C$DW$1222, DW_AT_TI_symbol_name("_current_sf")
    8499                      .dwattr $C$DW$1222, DW_AT_data_member_location[DW_OP_plus_uconst 0x2c]
    8500                      .dwattr $C$DW$1222, DW_AT_accessibility(DW_ACCESS_public)
    8501              $C$DW$1223      .dwtag  DW_TAG_member
    8502                      .dwattr $C$DW$1223, DW_AT_type(*$C$DW$T$153)
    8503                      .dwattr $C$DW$1223, DW_AT_name("voltageFilterPole_rps")
    8504                      .dwattr $C$DW$1223, DW_AT_TI_symbol_name("_voltageFilterPole_rps")
    8505                      .dwattr $C$DW$1223, DW_AT_data_member_location[DW_OP_plus_uconst 0x2e]
    8506                      .dwattr $C$DW$1223, DW_AT_accessibility(DW_ACCESS_public)
    8507              $C$DW$1224      .dwtag  DW_TAG_member
    8508                      .dwattr $C$DW$1224, DW_AT_type(*$C$DW$T$153)
    8509                      .dwattr $C$DW$1224, DW_AT_name("maxVsMag_pu")
    8510                      .dwattr $C$DW$1224, DW_AT_TI_symbol_name("_maxVsMag_pu")
    8511                      .dwattr $C$DW$1224, DW_AT_data_member_location[DW_OP_plus_uconst 0x30]
    8512                      .dwattr $C$DW$1224, DW_AT_accessibility(DW_ACCESS_public)
    8513              $C$DW$1225      .dwtag  DW_TAG_member
    8514                      .dwattr $C$DW$1225, DW_AT_type(*$C$DW$T$153)
    8515                      .dwattr $C$DW$1225, DW_AT_name("estKappa")
    8516                      .dwattr $C$DW$1225, DW_AT_TI_symbol_name("_estKappa")
    8517                      .dwattr $C$DW$1225, DW_AT_data_member_location[DW_OP_plus_uconst 0x32]
    8518                      .dwattr $C$DW$1225, DW_AT_accessibility(DW_ACCESS_public)
    8519              $C$DW$1226      .dwtag  DW_TAG_member
    8520                      .dwattr $C$DW$1226, DW_AT_type(*$C$DW$T$181)
    8521                      .dwattr $C$DW$1226, DW_AT_name("motor_type")
    8522                      .dwattr $C$DW$1226, DW_AT_TI_symbol_name("_motor_type")
    8523                      .dwattr $C$DW$1226, DW_AT_data_member_location[DW_OP_plus_uconst 0x34]
    8524                      .dwattr $C$DW$1226, DW_AT_accessibility(DW_ACCESS_public)
    8525              $C$DW$1227      .dwtag  DW_TAG_member
    8526                      .dwattr $C$DW$1227, DW_AT_type(*$C$DW$T$179)
    8527                      .dwattr $C$DW$1227, DW_AT_name("motor_numPolePairs")
    8528                      .dwattr $C$DW$1227, DW_AT_TI_symbol_name("_motor_numPolePairs")
    8529                      .dwattr $C$DW$1227, DW_AT_data_member_location[DW_OP_plus_uconst 0x35]
    8530                      .dwattr $C$DW$1227, DW_AT_accessibility(DW_ACCESS_public)
    8531              $C$DW$1228      .dwtag  DW_TAG_member
    8532                      .dwattr $C$DW$1228, DW_AT_type(*$C$DW$T$153)
    8533                      .dwattr $C$DW$1228, DW_AT_name("motor_ratedFlux")
    8534                      .dwattr $C$DW$1228, DW_AT_TI_symbol_name("_motor_ratedFlux")
    8535                      .dwattr $C$DW$1228, DW_AT_data_member_location[DW_OP_plus_uconst 0x36]
TMS320C2000 Assembler PC v6.4.10 Mon Jul 11 12:58:57 2016

Tools Copyright (c) 1996-2015 Texas Instruments Incorporated
C:\Users\bee25\AppData\Local\Temp\0350410                            PAGE  165

    8536                      .dwattr $C$DW$1228, DW_AT_accessibility(DW_ACCESS_public)
    8537              $C$DW$1229      .dwtag  DW_TAG_member
    8538                      .dwattr $C$DW$1229, DW_AT_type(*$C$DW$T$153)
    8539                      .dwattr $C$DW$1229, DW_AT_name("motor_Rr")
    8540                      .dwattr $C$DW$1229, DW_AT_TI_symbol_name("_motor_Rr")
    8541                      .dwattr $C$DW$1229, DW_AT_data_member_location[DW_OP_plus_uconst 0x38]
    8542                      .dwattr $C$DW$1229, DW_AT_accessibility(DW_ACCESS_public)
    8543              $C$DW$1230      .dwtag  DW_TAG_member
    8544                      .dwattr $C$DW$1230, DW_AT_type(*$C$DW$T$153)
    8545                      .dwattr $C$DW$1230, DW_AT_name("motor_Rs")
    8546                      .dwattr $C$DW$1230, DW_AT_TI_symbol_name("_motor_Rs")
    8547                      .dwattr $C$DW$1230, DW_AT_data_member_location[DW_OP_plus_uconst 0x3a]
    8548                      .dwattr $C$DW$1230, DW_AT_accessibility(DW_ACCESS_public)
    8549              $C$DW$1231      .dwtag  DW_TAG_member
    8550                      .dwattr $C$DW$1231, DW_AT_type(*$C$DW$T$153)
    8551                      .dwattr $C$DW$1231, DW_AT_name("motor_Ls_d")
    8552                      .dwattr $C$DW$1231, DW_AT_TI_symbol_name("_motor_Ls_d")
    8553                      .dwattr $C$DW$1231, DW_AT_data_member_location[DW_OP_plus_uconst 0x3c]
    8554                      .dwattr $C$DW$1231, DW_AT_accessibility(DW_ACCESS_public)
    8555              $C$DW$1232      .dwtag  DW_TAG_member
    8556                      .dwattr $C$DW$1232, DW_AT_type(*$C$DW$T$153)
    8557                      .dwattr $C$DW$1232, DW_AT_name("motor_Ls_q")
    8558                      .dwattr $C$DW$1232, DW_AT_TI_symbol_name("_motor_Ls_q")
    8559                      .dwattr $C$DW$1232, DW_AT_data_member_location[DW_OP_plus_uconst 0x3e]
    8560                      .dwattr $C$DW$1232, DW_AT_accessibility(DW_ACCESS_public)
    8561              $C$DW$1233      .dwtag  DW_TAG_member
    8562                      .dwattr $C$DW$1233, DW_AT_type(*$C$DW$T$153)
    8563                      .dwattr $C$DW$1233, DW_AT_name("maxCurrent")
    8564                      .dwattr $C$DW$1233, DW_AT_TI_symbol_name("_maxCurrent")
    8565                      .dwattr $C$DW$1233, DW_AT_data_member_location[DW_OP_plus_uconst 0x40]
    8566                      .dwattr $C$DW$1233, DW_AT_accessibility(DW_ACCESS_public)
    8567              $C$DW$1234      .dwtag  DW_TAG_member
    8568                      .dwattr $C$DW$1234, DW_AT_type(*$C$DW$T$153)
    8569                      .dwattr $C$DW$1234, DW_AT_name("maxCurrent_resEst")
    8570                      .dwattr $C$DW$1234, DW_AT_TI_symbol_name("_maxCurrent_resEst")
    8571                      .dwattr $C$DW$1234, DW_AT_data_member_location[DW_OP_plus_uconst 0x42]
    8572                      .dwattr $C$DW$1234, DW_AT_accessibility(DW_ACCESS_public)
    8573              $C$DW$1235      .dwtag  DW_TAG_member
    8574                      .dwattr $C$DW$1235, DW_AT_type(*$C$DW$T$153)
    8575                      .dwattr $C$DW$1235, DW_AT_name("maxCurrent_indEst")
    8576                      .dwattr $C$DW$1235, DW_AT_TI_symbol_name("_maxCurrent_indEst")
    8577                      .dwattr $C$DW$1235, DW_AT_data_member_location[DW_OP_plus_uconst 0x44]
    8578                      .dwattr $C$DW$1235, DW_AT_accessibility(DW_ACCESS_public)
    8579              $C$DW$1236      .dwtag  DW_TAG_member
    8580                      .dwattr $C$DW$1236, DW_AT_type(*$C$DW$T$153)
    8581                      .dwattr $C$DW$1236, DW_AT_name("maxCurrentSlope")
    8582                      .dwattr $C$DW$1236, DW_AT_TI_symbol_name("_maxCurrentSlope")
    8583                      .dwattr $C$DW$1236, DW_AT_data_member_location[DW_OP_plus_uconst 0x46]
    8584                      .dwattr $C$DW$1236, DW_AT_accessibility(DW_ACCESS_public)
    8585              $C$DW$1237      .dwtag  DW_TAG_member
    8586                      .dwattr $C$DW$1237, DW_AT_type(*$C$DW$T$153)
    8587                      .dwattr $C$DW$1237, DW_AT_name("maxCurrentSlope_powerWarp")
    8588                      .dwattr $C$DW$1237, DW_AT_TI_symbol_name("_maxCurrentSlope_powerWarp")
    8589                      .dwattr $C$DW$1237, DW_AT_data_member_location[DW_OP_plus_uconst 0x48]
    8590                      .dwattr $C$DW$1237, DW_AT_accessibility(DW_ACCESS_public)
TMS320C2000 Assembler PC v6.4.10 Mon Jul 11 12:58:57 2016

Tools Copyright (c) 1996-2015 Texas Instruments Incorporated
C:\Users\bee25\AppData\Local\Temp\0350410                            PAGE  166

    8591              $C$DW$1238      .dwtag  DW_TAG_member
    8592                      .dwattr $C$DW$1238, DW_AT_type(*$C$DW$T$153)
    8593                      .dwattr $C$DW$1238, DW_AT_name("IdRated")
    8594                      .dwattr $C$DW$1238, DW_AT_TI_symbol_name("_IdRated")
    8595                      .dwattr $C$DW$1238, DW_AT_data_member_location[DW_OP_plus_uconst 0x4a]
    8596                      .dwattr $C$DW$1238, DW_AT_accessibility(DW_ACCESS_public)
    8597              $C$DW$1239      .dwtag  DW_TAG_member
    8598                      .dwattr $C$DW$1239, DW_AT_type(*$C$DW$T$153)
    8599                      .dwattr $C$DW$1239, DW_AT_name("IdRatedFraction_indEst")
    8600                      .dwattr $C$DW$1239, DW_AT_TI_symbol_name("_IdRatedFraction_indEst")
    8601                      .dwattr $C$DW$1239, DW_AT_data_member_location[DW_OP_plus_uconst 0x4c]
    8602                      .dwattr $C$DW$1239, DW_AT_accessibility(DW_ACCESS_public)
    8603              $C$DW$1240      .dwtag  DW_TAG_member
    8604                      .dwattr $C$DW$1240, DW_AT_type(*$C$DW$T$153)
    8605                      .dwattr $C$DW$1240, DW_AT_name("IdRatedFraction_ratedFlux")
    8606                      .dwattr $C$DW$1240, DW_AT_TI_symbol_name("_IdRatedFraction_ratedFlux")
    8607                      .dwattr $C$DW$1240, DW_AT_data_member_location[DW_OP_plus_uconst 0x4e]
    8608                      .dwattr $C$DW$1240, DW_AT_accessibility(DW_ACCESS_public)
    8609              $C$DW$1241      .dwtag  DW_TAG_member
    8610                      .dwattr $C$DW$1241, DW_AT_type(*$C$DW$T$153)
    8611                      .dwattr $C$DW$1241, DW_AT_name("IdRated_delta")
    8612                      .dwattr $C$DW$1241, DW_AT_TI_symbol_name("_IdRated_delta")
    8613                      .dwattr $C$DW$1241, DW_AT_data_member_location[DW_OP_plus_uconst 0x50]
    8614                      .dwattr $C$DW$1241, DW_AT_accessibility(DW_ACCESS_public)
    8615              $C$DW$1242      .dwtag  DW_TAG_member
    8616                      .dwattr $C$DW$1242, DW_AT_type(*$C$DW$T$153)
    8617                      .dwattr $C$DW$1242, DW_AT_name("fluxEstFreq_Hz")
    8618                      .dwattr $C$DW$1242, DW_AT_TI_symbol_name("_fluxEstFreq_Hz")
    8619                      .dwattr $C$DW$1242, DW_AT_data_member_location[DW_OP_plus_uconst 0x52]
    8620                      .dwattr $C$DW$1242, DW_AT_accessibility(DW_ACCESS_public)
    8621              $C$DW$1243      .dwtag  DW_TAG_member
    8622                      .dwattr $C$DW$1243, DW_AT_type(*$C$DW$T$183)
    8623                      .dwattr $C$DW$1243, DW_AT_name("ctrlWaitTime")
    8624                      .dwattr $C$DW$1243, DW_AT_TI_symbol_name("_ctrlWaitTime")
    8625                      .dwattr $C$DW$1243, DW_AT_data_member_location[DW_OP_plus_uconst 0x54]
    8626                      .dwattr $C$DW$1243, DW_AT_accessibility(DW_ACCESS_public)
    8627              $C$DW$1244      .dwtag  DW_TAG_member
    8628                      .dwattr $C$DW$1244, DW_AT_type(*$C$DW$T$184)
    8629                      .dwattr $C$DW$1244, DW_AT_name("estWaitTime")
    8630                      .dwattr $C$DW$1244, DW_AT_TI_symbol_name("_estWaitTime")
    8631                      .dwattr $C$DW$1244, DW_AT_data_member_location[DW_OP_plus_uconst 0x5c]
    8632                      .dwattr $C$DW$1244, DW_AT_accessibility(DW_ACCESS_public)
    8633              $C$DW$1245      .dwtag  DW_TAG_member
    8634                      .dwattr $C$DW$1245, DW_AT_type(*$C$DW$T$185)
    8635                      .dwattr $C$DW$1245, DW_AT_name("FluxWaitTime")
    8636                      .dwattr $C$DW$1245, DW_AT_TI_symbol_name("_FluxWaitTime")
    8637                      .dwattr $C$DW$1245, DW_AT_data_member_location[DW_OP_plus_uconst 0x78]
    8638                      .dwattr $C$DW$1245, DW_AT_accessibility(DW_ACCESS_public)
    8639              $C$DW$1246      .dwtag  DW_TAG_member
    8640                      .dwattr $C$DW$1246, DW_AT_type(*$C$DW$T$186)
    8641                      .dwattr $C$DW$1246, DW_AT_name("LsWaitTime")
    8642                      .dwattr $C$DW$1246, DW_AT_TI_symbol_name("_LsWaitTime")
    8643                      .dwattr $C$DW$1246, DW_AT_data_member_location[DW_OP_plus_uconst 0x84]
    8644                      .dwattr $C$DW$1246, DW_AT_accessibility(DW_ACCESS_public)
    8645              $C$DW$1247      .dwtag  DW_TAG_member
TMS320C2000 Assembler PC v6.4.10 Mon Jul 11 12:58:57 2016

Tools Copyright (c) 1996-2015 Texas Instruments Incorporated
C:\Users\bee25\AppData\Local\Temp\0350410                            PAGE  167

    8646                      .dwattr $C$DW$1247, DW_AT_type(*$C$DW$T$185)
    8647                      .dwattr $C$DW$1247, DW_AT_name("RsWaitTime")
    8648                      .dwattr $C$DW$1247, DW_AT_TI_symbol_name("_RsWaitTime")
    8649                      .dwattr $C$DW$1247, DW_AT_data_member_location[DW_OP_plus_uconst 0x92]
    8650                      .dwattr $C$DW$1247, DW_AT_accessibility(DW_ACCESS_public)
    8651              $C$DW$1248      .dwtag  DW_TAG_member
    8652                      .dwattr $C$DW$1248, DW_AT_type(*$C$DW$T$182)
    8653                      .dwattr $C$DW$1248, DW_AT_name("ctrlFreq_Hz")
    8654                      .dwattr $C$DW$1248, DW_AT_TI_symbol_name("_ctrlFreq_Hz")
    8655                      .dwattr $C$DW$1248, DW_AT_data_member_location[DW_OP_plus_uconst 0x9e]
    8656                      .dwattr $C$DW$1248, DW_AT_accessibility(DW_ACCESS_public)
    8657              $C$DW$1249      .dwtag  DW_TAG_member
    8658                      .dwattr $C$DW$1249, DW_AT_type(*$C$DW$T$182)
    8659                      .dwattr $C$DW$1249, DW_AT_name("estFreq_Hz")
    8660                      .dwattr $C$DW$1249, DW_AT_TI_symbol_name("_estFreq_Hz")
    8661                      .dwattr $C$DW$1249, DW_AT_data_member_location[DW_OP_plus_uconst 0xa0]
    8662                      .dwattr $C$DW$1249, DW_AT_accessibility(DW_ACCESS_public)
    8663              $C$DW$1250      .dwtag  DW_TAG_member
    8664                      .dwattr $C$DW$1250, DW_AT_type(*$C$DW$T$182)
    8665                      .dwattr $C$DW$1250, DW_AT_name("RoverL_estFreq_Hz")
    8666                      .dwattr $C$DW$1250, DW_AT_TI_symbol_name("_RoverL_estFreq_Hz")
    8667                      .dwattr $C$DW$1250, DW_AT_data_member_location[DW_OP_plus_uconst 0xa2]
    8668                      .dwattr $C$DW$1250, DW_AT_accessibility(DW_ACCESS_public)
    8669              $C$DW$1251      .dwtag  DW_TAG_member
    8670                      .dwattr $C$DW$1251, DW_AT_type(*$C$DW$T$182)
    8671                      .dwattr $C$DW$1251, DW_AT_name("trajFreq_Hz")
    8672                      .dwattr $C$DW$1251, DW_AT_TI_symbol_name("_trajFreq_Hz")
    8673                      .dwattr $C$DW$1251, DW_AT_data_member_location[DW_OP_plus_uconst 0xa4]
    8674                      .dwattr $C$DW$1251, DW_AT_accessibility(DW_ACCESS_public)
    8675              $C$DW$1252      .dwtag  DW_TAG_member
    8676                      .dwattr $C$DW$1252, DW_AT_type(*$C$DW$T$153)
    8677                      .dwattr $C$DW$1252, DW_AT_name("ctrlPeriod_sec")
    8678                      .dwattr $C$DW$1252, DW_AT_TI_symbol_name("_ctrlPeriod_sec")
    8679                      .dwattr $C$DW$1252, DW_AT_data_member_location[DW_OP_plus_uconst 0xa6]
    8680                      .dwattr $C$DW$1252, DW_AT_accessibility(DW_ACCESS_public)
    8681              $C$DW$1253      .dwtag  DW_TAG_member
    8682                      .dwattr $C$DW$1253, DW_AT_type(*$C$DW$T$153)
    8683                      .dwattr $C$DW$1253, DW_AT_name("maxNegativeIdCurrent_a")
    8684                      .dwattr $C$DW$1253, DW_AT_TI_symbol_name("_maxNegativeIdCurrent_a")
    8685                      .dwattr $C$DW$1253, DW_AT_data_member_location[DW_OP_plus_uconst 0xa8]
    8686                      .dwattr $C$DW$1253, DW_AT_accessibility(DW_ACCESS_public)
    8687              $C$DW$1254      .dwtag  DW_TAG_member
    8688                      .dwattr $C$DW$1254, DW_AT_type(*$C$DW$T$151)
    8689                      .dwattr $C$DW$1254, DW_AT_name("errorCode")
    8690                      .dwattr $C$DW$1254, DW_AT_TI_symbol_name("_errorCode")
    8691                      .dwattr $C$DW$1254, DW_AT_data_member_location[DW_OP_plus_uconst 0xaa]
    8692                      .dwattr $C$DW$1254, DW_AT_accessibility(DW_ACCESS_public)
    8693                      .dwendtag $C$DW$T$187
    8694              
    8695              $C$DW$T$194     .dwtag  DW_TAG_typedef, DW_AT_name("USER_Params")
    8696                      .dwattr $C$DW$T$194, DW_AT_type(*$C$DW$T$187)
    8697                      .dwattr $C$DW$T$194, DW_AT_language(DW_LANG_C)
    8698              $C$DW$1255      .dwtag  DW_TAG_TI_far_type
    8699                      .dwattr $C$DW$1255, DW_AT_type(*$C$DW$T$194)
    8700              $C$DW$T$280     .dwtag  DW_TAG_const_type
TMS320C2000 Assembler PC v6.4.10 Mon Jul 11 12:58:57 2016

Tools Copyright (c) 1996-2015 Texas Instruments Incorporated
C:\Users\bee25\AppData\Local\Temp\0350410                            PAGE  168

    8701                      .dwattr $C$DW$T$280, DW_AT_type(*$C$DW$1255)
    8702              $C$DW$T$281     .dwtag  DW_TAG_pointer_type
    8703                      .dwattr $C$DW$T$281, DW_AT_type(*$C$DW$T$280)
    8704                      .dwattr $C$DW$T$281, DW_AT_address_class(0x20)
    8705              $C$DW$T$195     .dwtag  DW_TAG_pointer_type
    8706                      .dwattr $C$DW$T$195, DW_AT_type(*$C$DW$T$194)
    8707                      .dwattr $C$DW$T$195, DW_AT_address_class(0x20)
    8708              
    8709              $C$DW$T$188     .dwtag  DW_TAG_structure_type
    8710                      .dwattr $C$DW$T$188, DW_AT_name("_WDOG_Obj_")
    8711                      .dwattr $C$DW$T$188, DW_AT_byte_size(0x08)
    8712              $C$DW$1256      .dwtag  DW_TAG_member
    8713                      .dwattr $C$DW$1256, DW_AT_type(*$C$DW$T$39)
    8714                      .dwattr $C$DW$1256, DW_AT_name("SCSR")
    8715                      .dwattr $C$DW$1256, DW_AT_TI_symbol_name("_SCSR")
    8716                      .dwattr $C$DW$1256, DW_AT_data_member_location[DW_OP_plus_uconst 0x0]
    8717                      .dwattr $C$DW$1256, DW_AT_accessibility(DW_ACCESS_public)
    8718              $C$DW$1257      .dwtag  DW_TAG_member
    8719                      .dwattr $C$DW$1257, DW_AT_type(*$C$DW$T$39)
    8720                      .dwattr $C$DW$1257, DW_AT_name("WDCNTR")
    8721                      .dwattr $C$DW$1257, DW_AT_TI_symbol_name("_WDCNTR")
    8722                      .dwattr $C$DW$1257, DW_AT_data_member_location[DW_OP_plus_uconst 0x1]
    8723                      .dwattr $C$DW$1257, DW_AT_accessibility(DW_ACCESS_public)
    8724              $C$DW$1258      .dwtag  DW_TAG_member
    8725                      .dwattr $C$DW$1258, DW_AT_type(*$C$DW$T$39)
    8726                      .dwattr $C$DW$1258, DW_AT_name("rsvd_1")
    8727                      .dwattr $C$DW$1258, DW_AT_TI_symbol_name("_rsvd_1")
    8728                      .dwattr $C$DW$1258, DW_AT_data_member_location[DW_OP_plus_uconst 0x2]
    8729                      .dwattr $C$DW$1258, DW_AT_accessibility(DW_ACCESS_public)
    8730              $C$DW$1259      .dwtag  DW_TAG_member
    8731                      .dwattr $C$DW$1259, DW_AT_type(*$C$DW$T$39)
    8732                      .dwattr $C$DW$1259, DW_AT_name("WDKEY")
    8733                      .dwattr $C$DW$1259, DW_AT_TI_symbol_name("_WDKEY")
    8734                      .dwattr $C$DW$1259, DW_AT_data_member_location[DW_OP_plus_uconst 0x3]
    8735                      .dwattr $C$DW$1259, DW_AT_accessibility(DW_ACCESS_public)
    8736              $C$DW$1260      .dwtag  DW_TAG_member
    8737                      .dwattr $C$DW$1260, DW_AT_type(*$C$DW$T$44)
    8738                      .dwattr $C$DW$1260, DW_AT_name("rsvd_2")
    8739                      .dwattr $C$DW$1260, DW_AT_TI_symbol_name("_rsvd_2")
    8740                      .dwattr $C$DW$1260, DW_AT_data_member_location[DW_OP_plus_uconst 0x4]
    8741                      .dwattr $C$DW$1260, DW_AT_accessibility(DW_ACCESS_public)
    8742              $C$DW$1261      .dwtag  DW_TAG_member
    8743                      .dwattr $C$DW$1261, DW_AT_type(*$C$DW$T$39)
    8744                      .dwattr $C$DW$1261, DW_AT_name("WDCR")
    8745                      .dwattr $C$DW$1261, DW_AT_TI_symbol_name("_WDCR")
    8746                      .dwattr $C$DW$1261, DW_AT_data_member_location[DW_OP_plus_uconst 0x7]
    8747                      .dwattr $C$DW$1261, DW_AT_accessibility(DW_ACCESS_public)
    8748                      .dwendtag $C$DW$T$188
    8749              
    8750              $C$DW$T$127     .dwtag  DW_TAG_pointer_type
    8751                      .dwattr $C$DW$T$127, DW_AT_type(*$C$DW$T$188)
    8752                      .dwattr $C$DW$T$127, DW_AT_address_class(0x20)
    8753              $C$DW$T$128     .dwtag  DW_TAG_typedef, DW_AT_name("WDOG_Handle")
    8754                      .dwattr $C$DW$T$128, DW_AT_type(*$C$DW$T$127)
    8755                      .dwattr $C$DW$T$128, DW_AT_language(DW_LANG_C)
TMS320C2000 Assembler PC v6.4.10 Mon Jul 11 12:58:57 2016

Tools Copyright (c) 1996-2015 Texas Instruments Incorporated
C:\Users\bee25\AppData\Local\Temp\0350410                            PAGE  169

    8756              $C$DW$T$2       .dwtag  DW_TAG_unspecified_type
    8757                      .dwattr $C$DW$T$2, DW_AT_name("void")
    8758              $C$DW$T$3       .dwtag  DW_TAG_pointer_type
    8759                      .dwattr $C$DW$T$3, DW_AT_type(*$C$DW$T$2)
    8760                      .dwattr $C$DW$T$3, DW_AT_address_class(0x20)
    8761              
    8762              $C$DW$T$166     .dwtag  DW_TAG_subroutine_type
    8763                      .dwattr $C$DW$T$166, DW_AT_language(DW_LANG_C)
    8764              $C$DW$T$167     .dwtag  DW_TAG_pointer_type
    8765                      .dwattr $C$DW$T$167, DW_AT_type(*$C$DW$T$166)
    8766                      .dwattr $C$DW$T$167, DW_AT_address_class(0x20)
    8767              $C$DW$T$168     .dwtag  DW_TAG_typedef, DW_AT_name("PIE_IntVec_t")
    8768                      .dwattr $C$DW$T$168, DW_AT_type(*$C$DW$T$167)
    8769                      .dwattr $C$DW$T$168, DW_AT_language(DW_LANG_C)
    8770              $C$DW$1262      .dwtag  DW_TAG_TI_far_type
    8771                      .dwattr $C$DW$1262, DW_AT_type(*$C$DW$T$168)
    8772              $C$DW$T$169     .dwtag  DW_TAG_volatile_type
    8773                      .dwattr $C$DW$T$169, DW_AT_type(*$C$DW$1262)
    8774              $C$DW$T$4       .dwtag  DW_TAG_base_type
    8775                      .dwattr $C$DW$T$4, DW_AT_encoding(DW_ATE_boolean)
    8776                      .dwattr $C$DW$T$4, DW_AT_name("bool")
    8777                      .dwattr $C$DW$T$4, DW_AT_byte_size(0x01)
    8778              $C$DW$T$5       .dwtag  DW_TAG_base_type
    8779                      .dwattr $C$DW$T$5, DW_AT_encoding(DW_ATE_signed_char)
    8780                      .dwattr $C$DW$T$5, DW_AT_name("signed char")
    8781                      .dwattr $C$DW$T$5, DW_AT_byte_size(0x01)
    8782              $C$DW$T$6       .dwtag  DW_TAG_base_type
    8783                      .dwattr $C$DW$T$6, DW_AT_encoding(DW_ATE_unsigned_char)
    8784                      .dwattr $C$DW$T$6, DW_AT_name("unsigned char")
    8785                      .dwattr $C$DW$T$6, DW_AT_byte_size(0x01)
    8786              $C$DW$T$7       .dwtag  DW_TAG_base_type
    8787                      .dwattr $C$DW$T$7, DW_AT_encoding(DW_ATE_signed_char)
    8788                      .dwattr $C$DW$T$7, DW_AT_name("wchar_t")
    8789                      .dwattr $C$DW$T$7, DW_AT_byte_size(0x01)
    8790              $C$DW$T$8       .dwtag  DW_TAG_base_type
    8791                      .dwattr $C$DW$T$8, DW_AT_encoding(DW_ATE_signed)
    8792                      .dwattr $C$DW$T$8, DW_AT_name("short")
    8793                      .dwattr $C$DW$T$8, DW_AT_byte_size(0x01)
    8794              $C$DW$T$9       .dwtag  DW_TAG_base_type
    8795                      .dwattr $C$DW$T$9, DW_AT_encoding(DW_ATE_unsigned)
    8796                      .dwattr $C$DW$T$9, DW_AT_name("unsigned short")
    8797                      .dwattr $C$DW$T$9, DW_AT_byte_size(0x01)
    8798              $C$DW$T$10      .dwtag  DW_TAG_base_type
    8799                      .dwattr $C$DW$T$10, DW_AT_encoding(DW_ATE_signed)
    8800                      .dwattr $C$DW$T$10, DW_AT_name("int")
    8801                      .dwattr $C$DW$T$10, DW_AT_byte_size(0x01)
    8802              $C$DW$T$332     .dwtag  DW_TAG_typedef, DW_AT_name("int16_t")
    8803                      .dwattr $C$DW$T$332, DW_AT_type(*$C$DW$T$10)
    8804                      .dwattr $C$DW$T$332, DW_AT_language(DW_LANG_C)
    8805              $C$DW$T$333     .dwtag  DW_TAG_typedef, DW_AT_name("int_least8_t")
    8806                      .dwattr $C$DW$T$333, DW_AT_type(*$C$DW$T$332)
    8807                      .dwattr $C$DW$T$333, DW_AT_language(DW_LANG_C)
    8808              $C$DW$T$11      .dwtag  DW_TAG_base_type
    8809                      .dwattr $C$DW$T$11, DW_AT_encoding(DW_ATE_unsigned)
    8810                      .dwattr $C$DW$T$11, DW_AT_name("unsigned int")
TMS320C2000 Assembler PC v6.4.10 Mon Jul 11 12:58:57 2016

Tools Copyright (c) 1996-2015 Texas Instruments Incorporated
C:\Users\bee25\AppData\Local\Temp\0350410                            PAGE  170

    8811                      .dwattr $C$DW$T$11, DW_AT_byte_size(0x01)
    8812              $C$DW$T$22      .dwtag  DW_TAG_typedef, DW_AT_name("uint16_t")
    8813                      .dwattr $C$DW$T$22, DW_AT_type(*$C$DW$T$11)
    8814                      .dwattr $C$DW$T$22, DW_AT_language(DW_LANG_C)
    8815              
    8816              $C$DW$T$139     .dwtag  DW_TAG_array_type
    8817                      .dwattr $C$DW$T$139, DW_AT_type(*$C$DW$T$22)
    8818                      .dwattr $C$DW$T$139, DW_AT_language(DW_LANG_C)
    8819                      .dwattr $C$DW$T$139, DW_AT_byte_size(0x13)
    8820              $C$DW$1263      .dwtag  DW_TAG_subrange_type
    8821                      .dwattr $C$DW$1263, DW_AT_upper_bound(0x12)
    8822                      .dwendtag $C$DW$T$139
    8823              
    8824              $C$DW$T$284     .dwtag  DW_TAG_pointer_type
    8825                      .dwattr $C$DW$T$284, DW_AT_type(*$C$DW$T$22)
    8826                      .dwattr $C$DW$T$284, DW_AT_address_class(0x20)
    8827              $C$DW$1264      .dwtag  DW_TAG_TI_far_type
    8828                      .dwattr $C$DW$1264, DW_AT_type(*$C$DW$T$22)
    8829              $C$DW$T$39      .dwtag  DW_TAG_volatile_type
    8830                      .dwattr $C$DW$T$39, DW_AT_type(*$C$DW$1264)
    8831              
    8832              $C$DW$T$40      .dwtag  DW_TAG_array_type
    8833                      .dwattr $C$DW$T$40, DW_AT_type(*$C$DW$T$39)
    8834                      .dwattr $C$DW$T$40, DW_AT_language(DW_LANG_C)
    8835                      .dwattr $C$DW$T$40, DW_AT_byte_size(0x10)
    8836              $C$DW$1265      .dwtag  DW_TAG_subrange_type
    8837                      .dwattr $C$DW$1265, DW_AT_upper_bound(0x0f)
    8838                      .dwendtag $C$DW$T$40
    8839              
    8840              
    8841              $C$DW$T$41      .dwtag  DW_TAG_array_type
    8842                      .dwattr $C$DW$T$41, DW_AT_type(*$C$DW$T$39)
    8843                      .dwattr $C$DW$T$41, DW_AT_language(DW_LANG_C)
    8844                      .dwattr $C$DW$T$41, DW_AT_byte_size(0x65f0)
    8845              $C$DW$1266      .dwtag  DW_TAG_subrange_type
    8846                      .dwattr $C$DW$1266, DW_AT_upper_bound(0x65ef)
    8847                      .dwendtag $C$DW$T$41
    8848              
    8849              
    8850              $C$DW$T$42      .dwtag  DW_TAG_array_type
    8851                      .dwattr $C$DW$T$42, DW_AT_type(*$C$DW$T$39)
    8852                      .dwattr $C$DW$T$42, DW_AT_language(DW_LANG_C)
    8853                      .dwattr $C$DW$T$42, DW_AT_byte_size(0x02)
    8854              $C$DW$1267      .dwtag  DW_TAG_subrange_type
    8855                      .dwattr $C$DW$1267, DW_AT_upper_bound(0x01)
    8856                      .dwendtag $C$DW$T$42
    8857              
    8858              
    8859              $C$DW$T$43      .dwtag  DW_TAG_array_type
    8860                      .dwattr $C$DW$T$43, DW_AT_type(*$C$DW$T$39)
    8861                      .dwattr $C$DW$T$43, DW_AT_language(DW_LANG_C)
    8862                      .dwattr $C$DW$T$43, DW_AT_byte_size(0x05)
    8863              $C$DW$1268      .dwtag  DW_TAG_subrange_type
    8864                      .dwattr $C$DW$1268, DW_AT_upper_bound(0x04)
    8865                      .dwendtag $C$DW$T$43
TMS320C2000 Assembler PC v6.4.10 Mon Jul 11 12:58:57 2016

Tools Copyright (c) 1996-2015 Texas Instruments Incorporated
C:\Users\bee25\AppData\Local\Temp\0350410                            PAGE  171

    8866              
    8867              
    8868              $C$DW$T$44      .dwtag  DW_TAG_array_type
    8869                      .dwattr $C$DW$T$44, DW_AT_type(*$C$DW$T$39)
    8870                      .dwattr $C$DW$T$44, DW_AT_language(DW_LANG_C)
    8871                      .dwattr $C$DW$T$44, DW_AT_byte_size(0x03)
    8872              $C$DW$1269      .dwtag  DW_TAG_subrange_type
    8873                      .dwattr $C$DW$1269, DW_AT_upper_bound(0x02)
    8874                      .dwendtag $C$DW$T$44
    8875              
    8876              
    8877              $C$DW$T$45      .dwtag  DW_TAG_array_type
    8878                      .dwattr $C$DW$T$45, DW_AT_type(*$C$DW$T$39)
    8879                      .dwattr $C$DW$T$45, DW_AT_language(DW_LANG_C)
    8880                      .dwattr $C$DW$T$45, DW_AT_byte_size(0x0d)
    8881              $C$DW$1270      .dwtag  DW_TAG_subrange_type
    8882                      .dwattr $C$DW$1270, DW_AT_upper_bound(0x0c)
    8883                      .dwendtag $C$DW$T$45
    8884              
    8885              
    8886              $C$DW$T$50      .dwtag  DW_TAG_array_type
    8887                      .dwattr $C$DW$T$50, DW_AT_type(*$C$DW$T$39)
    8888                      .dwattr $C$DW$T$50, DW_AT_language(DW_LANG_C)
    8889                      .dwattr $C$DW$T$50, DW_AT_byte_size(0x08)
    8890              $C$DW$1271      .dwtag  DW_TAG_subrange_type
    8891                      .dwattr $C$DW$1271, DW_AT_upper_bound(0x07)
    8892                      .dwendtag $C$DW$T$50
    8893              
    8894              
    8895              $C$DW$T$95      .dwtag  DW_TAG_array_type
    8896                      .dwattr $C$DW$T$95, DW_AT_type(*$C$DW$T$39)
    8897                      .dwattr $C$DW$T$95, DW_AT_language(DW_LANG_C)
    8898                      .dwattr $C$DW$T$95, DW_AT_byte_size(0x18)
    8899              $C$DW$1272      .dwtag  DW_TAG_subrange_type
    8900                      .dwattr $C$DW$1272, DW_AT_upper_bound(0x17)
    8901                      .dwendtag $C$DW$T$95
    8902              
    8903              
    8904              $C$DW$T$96      .dwtag  DW_TAG_array_type
    8905                      .dwattr $C$DW$T$96, DW_AT_type(*$C$DW$T$39)
    8906                      .dwattr $C$DW$T$96, DW_AT_language(DW_LANG_C)
    8907                      .dwattr $C$DW$T$96, DW_AT_byte_size(0x04)
    8908              $C$DW$1273      .dwtag  DW_TAG_subrange_type
    8909                      .dwattr $C$DW$1273, DW_AT_upper_bound(0x03)
    8910                      .dwendtag $C$DW$T$96
    8911              
    8912              
    8913              $C$DW$T$165     .dwtag  DW_TAG_array_type
    8914                      .dwattr $C$DW$T$165, DW_AT_type(*$C$DW$T$39)
    8915                      .dwattr $C$DW$T$165, DW_AT_language(DW_LANG_C)
    8916                      .dwattr $C$DW$T$165, DW_AT_byte_size(0x06)
    8917              $C$DW$1274      .dwtag  DW_TAG_subrange_type
    8918                      .dwattr $C$DW$1274, DW_AT_upper_bound(0x05)
    8919                      .dwendtag $C$DW$T$165
    8920              
TMS320C2000 Assembler PC v6.4.10 Mon Jul 11 12:58:57 2016

Tools Copyright (c) 1996-2015 Texas Instruments Incorporated
C:\Users\bee25\AppData\Local\Temp\0350410                            PAGE  172

    8921              
    8922              $C$DW$T$170     .dwtag  DW_TAG_array_type
    8923                      .dwattr $C$DW$T$170, DW_AT_type(*$C$DW$T$39)
    8924                      .dwattr $C$DW$T$170, DW_AT_language(DW_LANG_C)
    8925                      .dwattr $C$DW$T$170, DW_AT_byte_size(0x6270)
    8926              $C$DW$1275      .dwtag  DW_TAG_subrange_type
    8927                      .dwattr $C$DW$1275, DW_AT_upper_bound(0x626f)
    8928                      .dwendtag $C$DW$T$170
    8929              
    8930              
    8931              $C$DW$T$174     .dwtag  DW_TAG_array_type
    8932                      .dwattr $C$DW$T$174, DW_AT_type(*$C$DW$T$39)
    8933                      .dwattr $C$DW$T$174, DW_AT_language(DW_LANG_C)
    8934                      .dwattr $C$DW$T$174, DW_AT_byte_size(0x6698)
    8935              $C$DW$1276      .dwtag  DW_TAG_subrange_type
    8936                      .dwattr $C$DW$1276, DW_AT_upper_bound(0x6697)
    8937                      .dwendtag $C$DW$T$174
    8938              
    8939              $C$DW$T$179     .dwtag  DW_TAG_typedef, DW_AT_name("uint_least16_t")
    8940                      .dwattr $C$DW$T$179, DW_AT_type(*$C$DW$T$22)
    8941                      .dwattr $C$DW$T$179, DW_AT_language(DW_LANG_C)
    8942              $C$DW$T$48      .dwtag  DW_TAG_typedef, DW_AT_name("uint_least8_t")
    8943                      .dwattr $C$DW$T$48, DW_AT_type(*$C$DW$T$22)
    8944                      .dwattr $C$DW$T$48, DW_AT_language(DW_LANG_C)
    8945              $C$DW$1277      .dwtag  DW_TAG_TI_far_type
    8946                      .dwattr $C$DW$1277, DW_AT_type(*$C$DW$T$48)
    8947              $C$DW$T$297     .dwtag  DW_TAG_const_type
    8948                      .dwattr $C$DW$T$297, DW_AT_type(*$C$DW$1277)
    8949              $C$DW$T$12      .dwtag  DW_TAG_base_type
    8950                      .dwattr $C$DW$T$12, DW_AT_encoding(DW_ATE_signed)
    8951                      .dwattr $C$DW$T$12, DW_AT_name("long")
    8952                      .dwattr $C$DW$T$12, DW_AT_byte_size(0x02)
    8953              $C$DW$T$47      .dwtag  DW_TAG_typedef, DW_AT_name("_iq")
    8954                      .dwattr $C$DW$T$47, DW_AT_type(*$C$DW$T$12)
    8955                      .dwattr $C$DW$T$47, DW_AT_language(DW_LANG_C)
    8956              
    8957              $C$DW$T$142     .dwtag  DW_TAG_array_type
    8958                      .dwattr $C$DW$T$142, DW_AT_type(*$C$DW$T$47)
    8959                      .dwattr $C$DW$T$142, DW_AT_language(DW_LANG_C)
    8960                      .dwattr $C$DW$T$142, DW_AT_byte_size(0x04)
    8961              $C$DW$1278      .dwtag  DW_TAG_subrange_type
    8962                      .dwattr $C$DW$1278, DW_AT_upper_bound(0x01)
    8963                      .dwendtag $C$DW$T$142
    8964              
    8965              
    8966              $C$DW$T$144     .dwtag  DW_TAG_array_type
    8967                      .dwattr $C$DW$T$144, DW_AT_type(*$C$DW$T$47)
    8968                      .dwattr $C$DW$T$144, DW_AT_language(DW_LANG_C)
    8969                      .dwattr $C$DW$T$144, DW_AT_byte_size(0x06)
    8970              $C$DW$1279      .dwtag  DW_TAG_subrange_type
    8971                      .dwattr $C$DW$1279, DW_AT_upper_bound(0x02)
    8972                      .dwendtag $C$DW$T$144
    8973              
    8974              $C$DW$1280      .dwtag  DW_TAG_TI_far_type
    8975                      .dwattr $C$DW$1280, DW_AT_type(*$C$DW$T$47)
TMS320C2000 Assembler PC v6.4.10 Mon Jul 11 12:58:57 2016

Tools Copyright (c) 1996-2015 Texas Instruments Incorporated
C:\Users\bee25\AppData\Local\Temp\0350410                            PAGE  173

    8976              $C$DW$T$287     .dwtag  DW_TAG_const_type
    8977                      .dwattr $C$DW$T$287, DW_AT_type(*$C$DW$1280)
    8978              $C$DW$T$13      .dwtag  DW_TAG_base_type
    8979                      .dwattr $C$DW$T$13, DW_AT_encoding(DW_ATE_unsigned)
    8980                      .dwattr $C$DW$T$13, DW_AT_name("unsigned long")
    8981                      .dwattr $C$DW$T$13, DW_AT_byte_size(0x02)
    8982              $C$DW$T$213     .dwtag  DW_TAG_typedef, DW_AT_name("size_t")
    8983                      .dwattr $C$DW$T$213, DW_AT_type(*$C$DW$T$13)
    8984                      .dwattr $C$DW$T$213, DW_AT_language(DW_LANG_C)
    8985              $C$DW$1281      .dwtag  DW_TAG_TI_far_type
    8986                      .dwattr $C$DW$1281, DW_AT_type(*$C$DW$T$213)
    8987              $C$DW$T$214     .dwtag  DW_TAG_const_type
    8988                      .dwattr $C$DW$T$214, DW_AT_type(*$C$DW$1281)
    8989              $C$DW$T$93      .dwtag  DW_TAG_typedef, DW_AT_name("uint32_t")
    8990                      .dwattr $C$DW$T$93, DW_AT_type(*$C$DW$T$13)
    8991                      .dwattr $C$DW$T$93, DW_AT_language(DW_LANG_C)
    8992              $C$DW$1282      .dwtag  DW_TAG_TI_far_type
    8993                      .dwattr $C$DW$1282, DW_AT_type(*$C$DW$T$93)
    8994              $C$DW$T$94      .dwtag  DW_TAG_volatile_type
    8995                      .dwattr $C$DW$T$94, DW_AT_type(*$C$DW$1282)
    8996              $C$DW$T$182     .dwtag  DW_TAG_typedef, DW_AT_name("uint_least32_t")
    8997                      .dwattr $C$DW$T$182, DW_AT_type(*$C$DW$T$93)
    8998                      .dwattr $C$DW$T$182, DW_AT_language(DW_LANG_C)
    8999              
    9000              $C$DW$T$183     .dwtag  DW_TAG_array_type
    9001                      .dwattr $C$DW$T$183, DW_AT_type(*$C$DW$T$182)
    9002                      .dwattr $C$DW$T$183, DW_AT_language(DW_LANG_C)
    9003                      .dwattr $C$DW$T$183, DW_AT_byte_size(0x08)
    9004              $C$DW$1283      .dwtag  DW_TAG_subrange_type
    9005                      .dwattr $C$DW$1283, DW_AT_upper_bound(0x03)
    9006                      .dwendtag $C$DW$T$183
    9007              
    9008              
    9009              $C$DW$T$184     .dwtag  DW_TAG_array_type
    9010                      .dwattr $C$DW$T$184, DW_AT_type(*$C$DW$T$182)
    9011                      .dwattr $C$DW$T$184, DW_AT_language(DW_LANG_C)
    9012                      .dwattr $C$DW$T$184, DW_AT_byte_size(0x1c)
    9013              $C$DW$1284      .dwtag  DW_TAG_subrange_type
    9014                      .dwattr $C$DW$1284, DW_AT_upper_bound(0x0d)
    9015                      .dwendtag $C$DW$T$184
    9016              
    9017              
    9018              $C$DW$T$185     .dwtag  DW_TAG_array_type
    9019                      .dwattr $C$DW$T$185, DW_AT_type(*$C$DW$T$182)
    9020                      .dwattr $C$DW$T$185, DW_AT_language(DW_LANG_C)
    9021                      .dwattr $C$DW$T$185, DW_AT_byte_size(0x0c)
    9022              $C$DW$1285      .dwtag  DW_TAG_subrange_type
    9023                      .dwattr $C$DW$1285, DW_AT_upper_bound(0x05)
    9024                      .dwendtag $C$DW$T$185
    9025              
    9026              
    9027              $C$DW$T$186     .dwtag  DW_TAG_array_type
    9028                      .dwattr $C$DW$T$186, DW_AT_type(*$C$DW$T$182)
    9029                      .dwattr $C$DW$T$186, DW_AT_language(DW_LANG_C)
    9030                      .dwattr $C$DW$T$186, DW_AT_byte_size(0x0e)
TMS320C2000 Assembler PC v6.4.10 Mon Jul 11 12:58:57 2016

Tools Copyright (c) 1996-2015 Texas Instruments Incorporated
C:\Users\bee25\AppData\Local\Temp\0350410                            PAGE  174

    9031              $C$DW$1286      .dwtag  DW_TAG_subrange_type
    9032                      .dwattr $C$DW$1286, DW_AT_upper_bound(0x06)
    9033                      .dwendtag $C$DW$T$186
    9034              
    9035              $C$DW$T$14      .dwtag  DW_TAG_base_type
    9036                      .dwattr $C$DW$T$14, DW_AT_encoding(DW_ATE_signed)
    9037                      .dwattr $C$DW$T$14, DW_AT_name("long long")
    9038                      .dwattr $C$DW$T$14, DW_AT_byte_size(0x04)
    9039              $C$DW$T$15      .dwtag  DW_TAG_base_type
    9040                      .dwattr $C$DW$T$15, DW_AT_encoding(DW_ATE_unsigned)
    9041                      .dwattr $C$DW$T$15, DW_AT_name("unsigned long long")
    9042                      .dwattr $C$DW$T$15, DW_AT_byte_size(0x04)
    9043              $C$DW$T$16      .dwtag  DW_TAG_base_type
    9044                      .dwattr $C$DW$T$16, DW_AT_encoding(DW_ATE_float)
    9045                      .dwattr $C$DW$T$16, DW_AT_name("float")
    9046                      .dwattr $C$DW$T$16, DW_AT_byte_size(0x02)
    9047              $C$DW$T$153     .dwtag  DW_TAG_typedef, DW_AT_name("float_t")
    9048                      .dwattr $C$DW$T$153, DW_AT_type(*$C$DW$T$16)
    9049                      .dwattr $C$DW$T$153, DW_AT_language(DW_LANG_C)
    9050              $C$DW$T$17      .dwtag  DW_TAG_base_type
    9051                      .dwattr $C$DW$T$17, DW_AT_encoding(DW_ATE_float)
    9052                      .dwattr $C$DW$T$17, DW_AT_name("double")
    9053                      .dwattr $C$DW$T$17, DW_AT_byte_size(0x02)
    9054              $C$DW$T$363     .dwtag  DW_TAG_pointer_type
    9055                      .dwattr $C$DW$T$363, DW_AT_type(*$C$DW$T$17)
    9056                      .dwattr $C$DW$T$363, DW_AT_address_class(0x20)
    9057              $C$DW$T$18      .dwtag  DW_TAG_base_type
    9058                      .dwattr $C$DW$T$18, DW_AT_encoding(DW_ATE_float)
    9059                      .dwattr $C$DW$T$18, DW_AT_name("long double")
    9060                      .dwattr $C$DW$T$18, DW_AT_byte_size(0x04)
    9061              $C$DW$T$62      .dwtag  DW_TAG_base_type
    9062                      .dwattr $C$DW$T$62, DW_AT_encoding(DW_ATE_unsigned_char)
    9063                      .dwattr $C$DW$T$62, DW_AT_name("unsigned char")
    9064                      .dwattr $C$DW$T$62, DW_AT_byte_size(0x01)
    9065              $C$DW$1287      .dwtag  DW_TAG_TI_far_type
    9066                      .dwattr $C$DW$1287, DW_AT_type(*$C$DW$T$62)
    9067              $C$DW$T$290     .dwtag  DW_TAG_const_type
    9068                      .dwattr $C$DW$T$290, DW_AT_type(*$C$DW$1287)
    9069                      .dwattr $C$DW$CU, DW_AT_language(DW_LANG_C)
    9070              
    9071              ;***************************************************************
    9072              ;* DWARF CIE ENTRIES                                           *
    9073              ;***************************************************************
    9074              
    9075              $C$DW$CIE       .dwcie 26
    9076                      .dwcfi  cfa_register, 20
    9077                      .dwcfi  cfa_offset, 0
    9078                      .dwcfi  undefined, 0
    9079                      .dwcfi  undefined, 1
    9080                      .dwcfi  undefined, 2
    9081                      .dwcfi  undefined, 3
    9082                      .dwcfi  undefined, 20
    9083                      .dwcfi  undefined, 21
    9084                      .dwcfi  undefined, 22
    9085                      .dwcfi  undefined, 23
TMS320C2000 Assembler PC v6.4.10 Mon Jul 11 12:58:57 2016

Tools Copyright (c) 1996-2015 Texas Instruments Incorporated
C:\Users\bee25\AppData\Local\Temp\0350410                            PAGE  175

    9086                      .dwcfi  undefined, 24
    9087                      .dwcfi  undefined, 25
    9088                      .dwcfi  undefined, 26
    9089                      .dwcfi  same_value, 28
    9090                      .dwcfi  undefined, 29
    9091                      .dwcfi  undefined, 30
    9092                      .dwcfi  undefined, 31
    9093                      .dwcfi  undefined, 32
    9094                      .dwcfi  undefined, 33
    9095                      .dwcfi  undefined, 34
    9096                      .dwcfi  undefined, 35
    9097                      .dwcfi  undefined, 36
    9098                      .dwcfi  undefined, 37
    9099                      .dwcfi  undefined, 38
    9100                      .dwcfi  undefined, 75
    9101                      .dwcfi  undefined, 76
    9102                      .dwcfi  undefined, 77
    9103                      .dwcfi  undefined, 4
    9104                      .dwcfi  undefined, 5
    9105                      .dwcfi  same_value, 6
    9106                      .dwcfi  same_value, 7
    9107                      .dwcfi  same_value, 8
    9108                      .dwcfi  same_value, 9
    9109                      .dwcfi  same_value, 10
    9110                      .dwcfi  same_value, 11
    9111                      .dwcfi  undefined, 12
    9112                      .dwcfi  undefined, 13
    9113                      .dwcfi  undefined, 14
    9114                      .dwcfi  undefined, 15
    9115                      .dwcfi  undefined, 16
    9116                      .dwcfi  undefined, 17
    9117                      .dwcfi  undefined, 18
    9118                      .dwcfi  undefined, 19
    9119                      .dwendentry
    9120              
    9121              ;***************************************************************
    9122              ;* DWARF REGISTER MAP                                          *
    9123              ;***************************************************************
    9124              
    9125              $C$DW$1288      .dwtag  DW_TAG_TI_assign_register, DW_AT_name("AL")
    9126                      .dwattr $C$DW$1288, DW_AT_location[DW_OP_reg0]
    9127              $C$DW$1289      .dwtag  DW_TAG_TI_assign_register, DW_AT_name("AH")
    9128                      .dwattr $C$DW$1289, DW_AT_location[DW_OP_reg1]
    9129              $C$DW$1290      .dwtag  DW_TAG_TI_assign_register, DW_AT_name("PL")
    9130                      .dwattr $C$DW$1290, DW_AT_location[DW_OP_reg2]
    9131              $C$DW$1291      .dwtag  DW_TAG_TI_assign_register, DW_AT_name("PH")
    9132                      .dwattr $C$DW$1291, DW_AT_location[DW_OP_reg3]
    9133              $C$DW$1292      .dwtag  DW_TAG_TI_assign_register, DW_AT_name("SP")
    9134                      .dwattr $C$DW$1292, DW_AT_location[DW_OP_reg20]
    9135              $C$DW$1293      .dwtag  DW_TAG_TI_assign_register, DW_AT_name("XT")
    9136                      .dwattr $C$DW$1293, DW_AT_location[DW_OP_reg21]
    9137              $C$DW$1294      .dwtag  DW_TAG_TI_assign_register, DW_AT_name("T")
    9138                      .dwattr $C$DW$1294, DW_AT_location[DW_OP_reg22]
    9139              $C$DW$1295      .dwtag  DW_TAG_TI_assign_register, DW_AT_name("ST0")
    9140                      .dwattr $C$DW$1295, DW_AT_location[DW_OP_reg23]
TMS320C2000 Assembler PC v6.4.10 Mon Jul 11 12:58:57 2016

Tools Copyright (c) 1996-2015 Texas Instruments Incorporated
C:\Users\bee25\AppData\Local\Temp\0350410                            PAGE  176

    9141              $C$DW$1296      .dwtag  DW_TAG_TI_assign_register, DW_AT_name("ST1")
    9142                      .dwattr $C$DW$1296, DW_AT_location[DW_OP_reg24]
    9143              $C$DW$1297      .dwtag  DW_TAG_TI_assign_register, DW_AT_name("PC")
    9144                      .dwattr $C$DW$1297, DW_AT_location[DW_OP_reg25]
    9145              $C$DW$1298      .dwtag  DW_TAG_TI_assign_register, DW_AT_name("RPC")
    9146                      .dwattr $C$DW$1298, DW_AT_location[DW_OP_reg26]
    9147              $C$DW$1299      .dwtag  DW_TAG_TI_assign_register, DW_AT_name("FP")
    9148                      .dwattr $C$DW$1299, DW_AT_location[DW_OP_reg28]
    9149              $C$DW$1300      .dwtag  DW_TAG_TI_assign_register, DW_AT_name("DP")
    9150                      .dwattr $C$DW$1300, DW_AT_location[DW_OP_reg29]
    9151              $C$DW$1301      .dwtag  DW_TAG_TI_assign_register, DW_AT_name("SXM")
    9152                      .dwattr $C$DW$1301, DW_AT_location[DW_OP_reg30]
    9153              $C$DW$1302      .dwtag  DW_TAG_TI_assign_register, DW_AT_name("PM")
    9154                      .dwattr $C$DW$1302, DW_AT_location[DW_OP_reg31]
    9155              $C$DW$1303      .dwtag  DW_TAG_TI_assign_register, DW_AT_name("OVM")
    9156                      .dwattr $C$DW$1303, DW_AT_location[DW_OP_regx 0x20]
    9157              $C$DW$1304      .dwtag  DW_TAG_TI_assign_register, DW_AT_name("PAGE0")
    9158                      .dwattr $C$DW$1304, DW_AT_location[DW_OP_regx 0x21]
    9159              $C$DW$1305      .dwtag  DW_TAG_TI_assign_register, DW_AT_name("AMODE")
    9160                      .dwattr $C$DW$1305, DW_AT_location[DW_OP_regx 0x22]
    9161              $C$DW$1306      .dwtag  DW_TAG_TI_assign_register, DW_AT_name("INTM")
    9162                      .dwattr $C$DW$1306, DW_AT_location[DW_OP_regx 0x23]
    9163              $C$DW$1307      .dwtag  DW_TAG_TI_assign_register, DW_AT_name("IFR")
    9164                      .dwattr $C$DW$1307, DW_AT_location[DW_OP_regx 0x24]
    9165              $C$DW$1308      .dwtag  DW_TAG_TI_assign_register, DW_AT_name("IER")
    9166                      .dwattr $C$DW$1308, DW_AT_location[DW_OP_regx 0x25]
    9167              $C$DW$1309      .dwtag  DW_TAG_TI_assign_register, DW_AT_name("V")
    9168                      .dwattr $C$DW$1309, DW_AT_location[DW_OP_regx 0x26]
    9169              $C$DW$1310      .dwtag  DW_TAG_TI_assign_register, DW_AT_name("PSEUDOH")
    9170                      .dwattr $C$DW$1310, DW_AT_location[DW_OP_regx 0x4c]
    9171              $C$DW$1311      .dwtag  DW_TAG_TI_assign_register, DW_AT_name("VOL")
    9172                      .dwattr $C$DW$1311, DW_AT_location[DW_OP_regx 0x4d]
    9173              $C$DW$1312      .dwtag  DW_TAG_TI_assign_register, DW_AT_name("AR0")
    9174                      .dwattr $C$DW$1312, DW_AT_location[DW_OP_reg4]
    9175              $C$DW$1313      .dwtag  DW_TAG_TI_assign_register, DW_AT_name("XAR0")
    9176                      .dwattr $C$DW$1313, DW_AT_location[DW_OP_reg5]
    9177              $C$DW$1314      .dwtag  DW_TAG_TI_assign_register, DW_AT_name("AR1")
    9178                      .dwattr $C$DW$1314, DW_AT_location[DW_OP_reg6]
    9179              $C$DW$1315      .dwtag  DW_TAG_TI_assign_register, DW_AT_name("XAR1")
    9180                      .dwattr $C$DW$1315, DW_AT_location[DW_OP_reg7]
    9181              $C$DW$1316      .dwtag  DW_TAG_TI_assign_register, DW_AT_name("AR2")
    9182                      .dwattr $C$DW$1316, DW_AT_location[DW_OP_reg8]
    9183              $C$DW$1317      .dwtag  DW_TAG_TI_assign_register, DW_AT_name("XAR2")
    9184                      .dwattr $C$DW$1317, DW_AT_location[DW_OP_reg9]
    9185              $C$DW$1318      .dwtag  DW_TAG_TI_assign_register, DW_AT_name("AR3")
    9186                      .dwattr $C$DW$1318, DW_AT_location[DW_OP_reg10]
    9187              $C$DW$1319      .dwtag  DW_TAG_TI_assign_register, DW_AT_name("XAR3")
    9188                      .dwattr $C$DW$1319, DW_AT_location[DW_OP_reg11]
    9189              $C$DW$1320      .dwtag  DW_TAG_TI_assign_register, DW_AT_name("AR4")
    9190                      .dwattr $C$DW$1320, DW_AT_location[DW_OP_reg12]
    9191              $C$DW$1321      .dwtag  DW_TAG_TI_assign_register, DW_AT_name("XAR4")
    9192                      .dwattr $C$DW$1321, DW_AT_location[DW_OP_reg13]
    9193              $C$DW$1322      .dwtag  DW_TAG_TI_assign_register, DW_AT_name("AR5")
    9194                      .dwattr $C$DW$1322, DW_AT_location[DW_OP_reg14]
    9195              $C$DW$1323      .dwtag  DW_TAG_TI_assign_register, DW_AT_name("XAR5")
TMS320C2000 Assembler PC v6.4.10 Mon Jul 11 12:58:57 2016

Tools Copyright (c) 1996-2015 Texas Instruments Incorporated
C:\Users\bee25\AppData\Local\Temp\0350410                            PAGE  177

    9196                      .dwattr $C$DW$1323, DW_AT_location[DW_OP_reg15]
    9197              $C$DW$1324      .dwtag  DW_TAG_TI_assign_register, DW_AT_name("AR6")
    9198                      .dwattr $C$DW$1324, DW_AT_location[DW_OP_reg16]
    9199              $C$DW$1325      .dwtag  DW_TAG_TI_assign_register, DW_AT_name("XAR6")
    9200                      .dwattr $C$DW$1325, DW_AT_location[DW_OP_reg17]
    9201              $C$DW$1326      .dwtag  DW_TAG_TI_assign_register, DW_AT_name("AR7")
    9202                      .dwattr $C$DW$1326, DW_AT_location[DW_OP_reg18]
    9203              $C$DW$1327      .dwtag  DW_TAG_TI_assign_register, DW_AT_name("XAR7")
    9204                      .dwattr $C$DW$1327, DW_AT_location[DW_OP_reg19]
    9205                      .dwendtag $C$DW$CU
    9206              

No Assembly Errors, No Assembly Warnings
