TMS320C2000 Assembler PC v6.4.10 Mon Jul 11 12:58:57 2016

Tools Copyright (c) 1996-2015 Texas Instruments Incorporated
C:\Users\bee25\AppData\Local\Temp\0350410                            PAGE    1

       1              ;***************************************************************
       2              ;* TMS320C2000 C/C++ Codegen                        PC v6.4.10 *
       3              ;* Date/Time created: Mon Jul 11 12:58:57 2016                 *
       4              ;***************************************************************
       5                      .compiler_opts --float_support=softlib --hll_source=on --mem_model:code=flat --mem_model:data=large -
       6        0002  FP      .set    XAR2
       7              
       8              $C$DW$CU        .dwtag  DW_TAG_compile_unit
       9                      .dwattr $C$DW$CU, DW_AT_name("C:/ti/motorware/motorware_1_01_00_16/sw/solutions/instaspin_foc/src/pro
      10                      .dwattr $C$DW$CU, DW_AT_producer("TI TMS320C2000 C/C++ Codegen PC v6.4.10 Copyright (c) 1996-2015 Tex
      11                      .dwattr $C$DW$CU, DW_AT_TI_version(0x01)
      12                      .dwattr $C$DW$CU, DW_AT_comp_dir("C:\ti\motorware\motorware_1_01_00_16\sw\solutions\instaspin_foc\boa
      13              ;**************************************************************
      14              ;* CINIT RECORDS                                              *
      15              ;**************************************************************
      16 00000000               .sect   ".cinit"
      17                      .align  1
      18 00000000 FFFE          .field          -2,16
      19 00000001 0012-         .field          _gSpeed_krpm_to_pu_sf+0,32
         00000002 0000 
      20 00000003 F0DA          .bits   2420954,32                      ; _gSpeed_krpm_to_pu_sf @ 0
         00000004 0024 
      21              
      22 00000005               .sect   ".cinit"
      23                      .align  1
      24 00000005 FFFE          .field          -2,16
      25 00000006 0014-         .field          _gSpeed_hz_to_krpm_sf+0,32
         00000007 0000 
      26 00000008 8F5C          .bits   167772,32                       ; _gSpeed_hz_to_krpm_sf @ 0
         00000009 0002 
      27              
      28 0000000a               .sect   ".cinit"
      29                      .align  1
      30 0000000a FFFC          .field          -$C$IR_1,16
      31 0000000b 001E-         .field          _gVdq_out_pu+0,32
         0000000c 0000 
      32 0000000d 0000          .bits   0,32                    ; _gVdq_out_pu._value[0] @ 0
         0000000e 0000 
      33 0000000f 0000          .bits   0,32                    ; _gVdq_out_pu._value[1] @ 32
         00000010 0000 
      34        0004  $C$IR_1:        .set    4
      35              
      36 00000011               .sect   ".cinit"
      37                      .align  1
      38 00000011 FFFC          .field          -$C$IR_2,16
      39 00000012 0022-         .field          _gIdq_pu+0,32
         00000013 0000 
      40 00000014 0000          .bits   0,32                    ; _gIdq_pu._value[0] @ 0
         00000015 0000 
      41 00000016 0000          .bits   0,32                    ; _gIdq_pu._value[1] @ 32
         00000017 0000 
      42        0004  $C$IR_2:        .set    4
      43              
      44 00000018               .sect   ".cinit"
      45                      .align  1
TMS320C2000 Assembler PC v6.4.10 Mon Jul 11 12:58:57 2016

Tools Copyright (c) 1996-2015 Texas Instruments Incorporated
C:\Users\bee25\AppData\Local\Temp\0350410                            PAGE    2

      46 00000018 FFFC          .field          -$C$IR_3,16
      47 00000019 0026-         .field          _gIdq_ref_pu+0,32
         0000001a 0000 
      48 0000001b 0000          .bits   0,32                    ; _gIdq_ref_pu._value[0] @ 0
         0000001c 0000 
      49 0000001d 0000          .bits   0,32                    ; _gIdq_ref_pu._value[1] @ 32
         0000001e 0000 
      50        0004  $C$IR_3:        .set    4
      51              
      52 0000001f               .sect   ".cinit"
      53                      .align  1
      54 0000001f FFFA          .field          -$C$IR_4,16
      55 00000020 0030-         .field          _gOffsets_V_pu+0,32
         00000021 0000 
      56 00000022 0000          .bits   0,32                    ; _gOffsets_V_pu._value[0] @ 0
         00000023 0000 
      57 00000024 0000          .bits   0,32                    ; _gOffsets_V_pu._value[1] @ 32
         00000025 0000 
      58 00000026 0000          .bits   0,32                    ; _gOffsets_V_pu._value[2] @ 64
         00000027 0000 
      59        0006  $C$IR_4:        .set    6
      60              
      61 00000028               .sect   ".cinit"
      62                      .align  1
      63 00000028 FFFA          .field          -$C$IR_5,16
      64 00000029 0046-         .field          _gOffsets_I_pu+0,32
         0000002a 0000 
      65 0000002b 0000          .bits   0,32                    ; _gOffsets_I_pu._value[0] @ 0
         0000002c 0000 
      66 0000002d 0000          .bits   0,32                    ; _gOffsets_I_pu._value[1] @ 32
         0000002e 0000 
      67 0000002f 0000          .bits   0,32                    ; _gOffsets_I_pu._value[2] @ 64
         00000030 0000 
      68        0006  $C$IR_5:        .set    6
      69              
      70 00000031               .sect   ".cinit"
      71                      .align  1
      72 00000031 FFFA          .field          -$C$IR_6,16
      73 00000032 004C-         .field          _gPwmData+0,32
         00000033 0000 
      74 00000034 0000          .bits   0,32                    ; _gPwmData._Tabc._value[0] @ 0
         00000035 0000 
      75 00000036 0000          .bits   0,32                    ; _gPwmData._Tabc._value[1] @ 32
         00000037 0000 
      76 00000038 0000          .bits   0,32                    ; _gPwmData._Tabc._value[2] @ 64
         00000039 0000 
      77        0006  $C$IR_6:        .set    6
      78              
      79 0000003a               .sect   ".cinit"
      80                      .align  1
      81 0000003a FF98          .field          -$C$IR_7,16
      82 0000003b 00C0-         .field          _gMotorVars+0,32
         0000003c 0000 
      83 0000003d 0000          .bits   0,16                    ; _gMotorVars._Flag_enableSys @ 0
      84 0000003e 0000          .bits   0,16                    ; _gMotorVars._Flag_Run_Identify @ 16
TMS320C2000 Assembler PC v6.4.10 Mon Jul 11 12:58:57 2016

Tools Copyright (c) 1996-2015 Texas Instruments Incorporated
C:\Users\bee25\AppData\Local\Temp\0350410                            PAGE    3

      85 0000003f 0000          .bits   0,16                    ; _gMotorVars._Flag_MotorIdentified @ 32
      86 00000040 0001          .bits   1,16                    ; _gMotorVars._Flag_enableForceAngle @ 48
      87 00000041 0000          .bits   0,16                    ; _gMotorVars._Flag_enableFieldWeakening @ 64
      88 00000042 0000          .bits   0,16                    ; _gMotorVars._Flag_enableRsRecalc @ 80
      89 00000043 0001          .bits   1,16                    ; _gMotorVars._Flag_enableUserParams @ 96
      90 00000044 0001          .bits   1,16                    ; _gMotorVars._Flag_enableOffsetcalc @ 112
      91 00000045 0000          .bits   0,16                    ; _gMotorVars._Flag_enablePowerWarp @ 128
      92 00000046 0000          .bits   0,16                    ; _gMotorVars._Flag_enableSpeedCtrl @ 144
      93 00000047 0001          .bits   1,16                    ; _gMotorVars._CtrlState @ 160
      94 00000048 0001          .bits   1,16                    ; _gMotorVars._EstState @ 176
      95 00000049 0000          .bits   0,16                    ; _gMotorVars._UserErrorCode @ 192
      96 0000004a 0000          .bits   0,16                    ; _gMotorVars._CtrlVersion._rsvd @ 208
      97 0000004b 0004          .bits   4,16                    ; _gMotorVars._CtrlVersion._targetProc @ 224
      98 0000004c 0000          .bits   0,16                    ; _gMotorVars._CtrlVersion._major @ 240
      99 0000004d 0000          .bits   0,16                    ; _gMotorVars._CtrlVersion._minor @ 256
     100 0000004e               .space  16
     101 0000004f 0000          .bits   0,32                    ; _gMotorVars._IdRef_A @ 288
         00000050 0000 
     102 00000051 0000          .bits   0,32                    ; _gMotorVars._IqRef_A @ 320
         00000052 0000 
     103 00000053 0000          .bits   0,32                    ; _gMotorVars._SpeedRef_pu @ 352
         00000054 0000 
     104 00000055 9999          .bits   1677721,32                      ; _gMotorVars._SpeedRef_krpm @ 384
         00000056 0019 
     105 00000057 0000          .bits   0,32                    ; _gMotorVars._SpeedTraj_krpm @ 416
         00000058 0000 
     106 00000059 3333          .bits   3355443,32                      ; _gMotorVars._MaxAccel_krpmps @ 448
         0000005a 0033 
     107 0000005b 0000          .bits   0,32                    ; _gMotorVars._Speed_krpm @ 480
         0000005c 0000 
     108 0000005d 0000          .bits   8388608,32                      ; _gMotorVars._OverModulation @ 512
         0000005e 0080 
     109 0000005f 0000          .bits   33554432,32                     ; _gMotorVars._RsOnLineCurrent_A @ 544
         00000060 0200 
     110 00000061 0190          .bits   400,32                  ; _gMotorVars._SvgenMaxModulation_ticks @ 576
         00000062 0000 
     111 00000063 0000          .bits   0,32                    ; _gMotorVars._Flux_Wb @ 608
         00000064 0000 
     112 00000065 0000          .bits   0,32                    ; _gMotorVars._Torque_Nm @ 640
         00000066 0000 
     113 00000067 0000          .xfloat $strtod("0x0p+0")               ; _gMotorVars._MagnCurr_A @ 672
         00000068 0000 
     114 00000069 0000          .xfloat $strtod("0x0p+0")               ; _gMotorVars._Rr_Ohm @ 704
         0000006a 0000 
     115 0000006b 0000          .xfloat $strtod("0x0p+0")               ; _gMotorVars._Rs_Ohm @ 736
         0000006c 0000 
     116 0000006d 0000          .xfloat $strtod("0x0p+0")               ; _gMotorVars._RsOnLine_Ohm @ 768
         0000006e 0000 
     117 0000006f 0000          .xfloat $strtod("0x0p+0")               ; _gMotorVars._Lsd_H @ 800
         00000070 0000 
     118 00000071 0000          .xfloat $strtod("0x0p+0")               ; _gMotorVars._Lsq_H @ 832
         00000072 0000 
     119 00000073 0000          .xfloat $strtod("0x0p+0")               ; _gMotorVars._Flux_VpHz @ 864
         00000074 0000 
     120 00000075 0000          .xfloat $strtod("0x0p+0")               ; _gMotorVars._ipd_excFreq_Hz @ 896
TMS320C2000 Assembler PC v6.4.10 Mon Jul 11 12:58:57 2016

Tools Copyright (c) 1996-2015 Texas Instruments Incorporated
C:\Users\bee25\AppData\Local\Temp\0350410                            PAGE    4

         00000076 0000 
     121 00000077 0000          .bits   0,32                    ; _gMotorVars._ipd_Kspd @ 928
         00000078 0000 
     122 00000079 0000          .bits   0,32                    ; _gMotorVars._ipd_excMag_coarse_pu @ 960
         0000007a 0000 
     123 0000007b 0000          .bits   0,32                    ; _gMotorVars._ipd_excMag_fine_pu @ 992
         0000007c 0000 
     124 0000007d 0000          .xfloat $strtod("0x0p+0")               ; _gMotorVars._ipd_waitTime_coarse_sec @ 1024
         0000007e 0000 
     125 0000007f 0000          .xfloat $strtod("0x0p+0")               ; _gMotorVars._ipd_waitTime_fine_sec @ 1056
         00000080 0000 
     126 00000081 0000          .bits   0,32                    ; _gMotorVars._Kp_spd @ 1088
         00000082 0000 
     127 00000083 0000          .bits   0,32                    ; _gMotorVars._Ki_spd @ 1120
         00000084 0000 
     128 00000085 0000          .bits   0,32                    ; _gMotorVars._Kp_Idq @ 1152
         00000086 0000 
     129 00000087 0000          .bits   0,32                    ; _gMotorVars._Ki_Idq @ 1184
         00000088 0000 
     130 00000089 0000          .bits   0,32                    ; _gMotorVars._Vd @ 1216
         0000008a 0000 
     131 0000008b 0000          .bits   0,32                    ; _gMotorVars._Vq @ 1248
         0000008c 0000 
     132 0000008d 0000          .bits   0,32                    ; _gMotorVars._Vs @ 1280
         0000008e 0000 
     133 0000008f 6666          .bits   6710886,32                      ; _gMotorVars._VsRef @ 1312
         00000090 0066 
     134 00000091 0000          .bits   0,32                    ; _gMotorVars._VdcBus_kV @ 1344
         00000092 0000 
     135 00000093 0000          .bits   0,32                    ; _gMotorVars._Id_A @ 1376
         00000094 0000 
     136 00000095 0000          .bits   0,32                    ; _gMotorVars._Iq_A @ 1408
         00000096 0000 
     137 00000097 0000          .bits   0,32                    ; _gMotorVars._Is_A @ 1440
         00000098 0000 
     138 00000099 0000          .bits   0,32                    ; _gMotorVars._I_bias._value[0] @ 1472
         0000009a 0000 
     139 0000009b 0000          .bits   0,32                    ; _gMotorVars._I_bias._value[1] @ 1504
         0000009c 0000 
     140 0000009d 0000          .bits   0,32                    ; _gMotorVars._I_bias._value[2] @ 1536
         0000009e 0000 
     141 0000009f 0000          .bits   0,32                    ; _gMotorVars._V_bias._value[0] @ 1568
         000000a0 0000 
     142 000000a1 0000          .bits   0,32                    ; _gMotorVars._V_bias._value[1] @ 1600
         000000a2 0000 
     143 000000a3 0000          .bits   0,32                    ; _gMotorVars._V_bias._value[2] @ 1632
         000000a4 0000 
     144        0068  $C$IR_7:        .set    104
     145              
     146              
     147              $C$DW$1 .dwtag  DW_TAG_subprogram, DW_AT_name("USER_setParams")
     148                      .dwattr $C$DW$1, DW_AT_TI_symbol_name("_USER_setParams")
     149                      .dwattr $C$DW$1, DW_AT_declaration
     150                      .dwattr $C$DW$1, DW_AT_external
     151              $C$DW$2 .dwtag  DW_TAG_formal_parameter
TMS320C2000 Assembler PC v6.4.10 Mon Jul 11 12:58:57 2016

Tools Copyright (c) 1996-2015 Texas Instruments Incorporated
C:\Users\bee25\AppData\Local\Temp\0350410                            PAGE    5

     152                      .dwattr $C$DW$2, DW_AT_type(*$C$DW$T$195)
     153                      .dwendtag $C$DW$1
     154              
     155              
     156              $C$DW$3 .dwtag  DW_TAG_subprogram, DW_AT_name("USER_checkForErrors")
     157                      .dwattr $C$DW$3, DW_AT_TI_symbol_name("_USER_checkForErrors")
     158                      .dwattr $C$DW$3, DW_AT_declaration
     159                      .dwattr $C$DW$3, DW_AT_external
     160              $C$DW$4 .dwtag  DW_TAG_formal_parameter
     161                      .dwattr $C$DW$4, DW_AT_type(*$C$DW$T$195)
     162                      .dwendtag $C$DW$3
     163              
     164              
     165              $C$DW$5 .dwtag  DW_TAG_subprogram, DW_AT_name("HAL_enableDebugInt")
     166                      .dwattr $C$DW$5, DW_AT_TI_symbol_name("_HAL_enableDebugInt")
     167                      .dwattr $C$DW$5, DW_AT_declaration
     168                      .dwattr $C$DW$5, DW_AT_external
     169              $C$DW$6 .dwtag  DW_TAG_formal_parameter
     170                      .dwattr $C$DW$6, DW_AT_type(*$C$DW$T$232)
     171                      .dwendtag $C$DW$5
     172              
     173              
     174              $C$DW$7 .dwtag  DW_TAG_subprogram, DW_AT_name("HAL_enableGlobalInts")
     175                      .dwattr $C$DW$7, DW_AT_TI_symbol_name("_HAL_enableGlobalInts")
     176                      .dwattr $C$DW$7, DW_AT_declaration
     177                      .dwattr $C$DW$7, DW_AT_external
     178              $C$DW$8 .dwtag  DW_TAG_formal_parameter
     179                      .dwattr $C$DW$8, DW_AT_type(*$C$DW$T$232)
     180                      .dwendtag $C$DW$7
     181              
     182              
     183              $C$DW$9 .dwtag  DW_TAG_subprogram, DW_AT_name("HAL_enableAdcInts")
     184                      .dwattr $C$DW$9, DW_AT_TI_symbol_name("_HAL_enableAdcInts")
     185                      .dwattr $C$DW$9, DW_AT_declaration
     186                      .dwattr $C$DW$9, DW_AT_external
     187              $C$DW$10        .dwtag  DW_TAG_formal_parameter
     188                      .dwattr $C$DW$10, DW_AT_type(*$C$DW$T$232)
     189                      .dwendtag $C$DW$9
     190              
     191              
     192              $C$DW$11        .dwtag  DW_TAG_subprogram, DW_AT_name("EST_setupEstIdleState")
     193                      .dwattr $C$DW$11, DW_AT_TI_symbol_name("_EST_setupEstIdleState")
     194                      .dwattr $C$DW$11, DW_AT_declaration
     195                      .dwattr $C$DW$11, DW_AT_external
     196              $C$DW$12        .dwtag  DW_TAG_formal_parameter
     197                      .dwattr $C$DW$12, DW_AT_type(*$C$DW$T$190)
     198                      .dwendtag $C$DW$11
     199              
     200              
     201              $C$DW$13        .dwtag  DW_TAG_subprogram, DW_AT_name("EST_getIdq_pu")
     202                      .dwattr $C$DW$13, DW_AT_TI_symbol_name("_EST_getIdq_pu")
     203                      .dwattr $C$DW$13, DW_AT_declaration
     204                      .dwattr $C$DW$13, DW_AT_external
     205              $C$DW$14        .dwtag  DW_TAG_formal_parameter
     206                      .dwattr $C$DW$14, DW_AT_type(*$C$DW$T$190)
TMS320C2000 Assembler PC v6.4.10 Mon Jul 11 12:58:57 2016

Tools Copyright (c) 1996-2015 Texas Instruments Incorporated
C:\Users\bee25\AppData\Local\Temp\0350410                            PAGE    6

     207              $C$DW$15        .dwtag  DW_TAG_formal_parameter
     208                      .dwattr $C$DW$15, DW_AT_type(*$C$DW$T$249)
     209                      .dwendtag $C$DW$13
     210              
     211              
     212              $C$DW$16        .dwtag  DW_TAG_subprogram, DW_AT_name("EST_setEstParams")
     213                      .dwattr $C$DW$16, DW_AT_TI_symbol_name("_EST_setEstParams")
     214                      .dwattr $C$DW$16, DW_AT_declaration
     215                      .dwattr $C$DW$16, DW_AT_external
     216              $C$DW$17        .dwtag  DW_TAG_formal_parameter
     217                      .dwattr $C$DW$17, DW_AT_type(*$C$DW$T$190)
     218              $C$DW$18        .dwtag  DW_TAG_formal_parameter
     219                      .dwattr $C$DW$18, DW_AT_type(*$C$DW$T$195)
     220                      .dwendtag $C$DW$16
     221              
     222              
     223              $C$DW$19        .dwtag  DW_TAG_subprogram, DW_AT_name("HAL_setupDrvSpi")
     224                      .dwattr $C$DW$19, DW_AT_TI_symbol_name("_HAL_setupDrvSpi")
     225                      .dwattr $C$DW$19, DW_AT_declaration
     226                      .dwattr $C$DW$19, DW_AT_external
     227              $C$DW$20        .dwtag  DW_TAG_formal_parameter
     228                      .dwattr $C$DW$20, DW_AT_type(*$C$DW$T$232)
     229              $C$DW$21        .dwtag  DW_TAG_formal_parameter
     230                      .dwattr $C$DW$21, DW_AT_type(*$C$DW$T$220)
     231                      .dwendtag $C$DW$19
     232              
     233              
     234              $C$DW$22        .dwtag  DW_TAG_subprogram, DW_AT_name("HAL_setupFaults")
     235                      .dwattr $C$DW$22, DW_AT_TI_symbol_name("_HAL_setupFaults")
     236                      .dwattr $C$DW$22, DW_AT_declaration
     237                      .dwattr $C$DW$22, DW_AT_external
     238              $C$DW$23        .dwtag  DW_TAG_formal_parameter
     239                      .dwattr $C$DW$23, DW_AT_type(*$C$DW$T$232)
     240                      .dwendtag $C$DW$22
     241              
     242              
     243              $C$DW$24        .dwtag  DW_TAG_subprogram, DW_AT_name("HAL_enableDrv")
     244                      .dwattr $C$DW$24, DW_AT_TI_symbol_name("_HAL_enableDrv")
     245                      .dwattr $C$DW$24, DW_AT_declaration
     246                      .dwattr $C$DW$24, DW_AT_external
     247              $C$DW$25        .dwtag  DW_TAG_formal_parameter
     248                      .dwattr $C$DW$25, DW_AT_type(*$C$DW$T$232)
     249                      .dwendtag $C$DW$24
     250              
     251              
     252              $C$DW$26        .dwtag  DW_TAG_subprogram, DW_AT_name("HAL_writeDrvData")
     253                      .dwattr $C$DW$26, DW_AT_TI_symbol_name("_HAL_writeDrvData")
     254                      .dwattr $C$DW$26, DW_AT_declaration
     255                      .dwattr $C$DW$26, DW_AT_external
     256              $C$DW$27        .dwtag  DW_TAG_formal_parameter
     257                      .dwattr $C$DW$27, DW_AT_type(*$C$DW$T$232)
     258              $C$DW$28        .dwtag  DW_TAG_formal_parameter
     259                      .dwattr $C$DW$28, DW_AT_type(*$C$DW$T$220)
     260                      .dwendtag $C$DW$26
     261              
TMS320C2000 Assembler PC v6.4.10 Mon Jul 11 12:58:57 2016

Tools Copyright (c) 1996-2015 Texas Instruments Incorporated
C:\Users\bee25\AppData\Local\Temp\0350410                            PAGE    7

     262              
     263              $C$DW$29        .dwtag  DW_TAG_subprogram, DW_AT_name("HAL_readDrvData")
     264                      .dwattr $C$DW$29, DW_AT_TI_symbol_name("_HAL_readDrvData")
     265                      .dwattr $C$DW$29, DW_AT_declaration
     266                      .dwattr $C$DW$29, DW_AT_external
     267              $C$DW$30        .dwtag  DW_TAG_formal_parameter
     268                      .dwattr $C$DW$30, DW_AT_type(*$C$DW$T$232)
     269              $C$DW$31        .dwtag  DW_TAG_formal_parameter
     270                      .dwattr $C$DW$31, DW_AT_type(*$C$DW$T$220)
     271                      .dwendtag $C$DW$29
     272              
     273              
     274              $C$DW$32        .dwtag  DW_TAG_subprogram, DW_AT_name("HAL_setParams")
     275                      .dwattr $C$DW$32, DW_AT_TI_symbol_name("_HAL_setParams")
     276                      .dwattr $C$DW$32, DW_AT_declaration
     277                      .dwattr $C$DW$32, DW_AT_external
     278              $C$DW$33        .dwtag  DW_TAG_formal_parameter
     279                      .dwattr $C$DW$33, DW_AT_type(*$C$DW$T$232)
     280              $C$DW$34        .dwtag  DW_TAG_formal_parameter
     281                      .dwattr $C$DW$34, DW_AT_type(*$C$DW$T$281)
     282                      .dwendtag $C$DW$32
     283              
     284              
     285              $C$DW$35        .dwtag  DW_TAG_subprogram, DW_AT_name("EST_setLs_d_pu")
     286                      .dwattr $C$DW$35, DW_AT_TI_symbol_name("_EST_setLs_d_pu")
     287                      .dwattr $C$DW$35, DW_AT_declaration
     288                      .dwattr $C$DW$35, DW_AT_external
     289              $C$DW$36        .dwtag  DW_TAG_formal_parameter
     290                      .dwattr $C$DW$36, DW_AT_type(*$C$DW$T$190)
     291              $C$DW$37        .dwtag  DW_TAG_formal_parameter
     292                      .dwattr $C$DW$37, DW_AT_type(*$C$DW$T$287)
     293                      .dwendtag $C$DW$35
     294              
     295              
     296              $C$DW$38        .dwtag  DW_TAG_subprogram, DW_AT_name("EST_setIdle")
     297                      .dwattr $C$DW$38, DW_AT_TI_symbol_name("_EST_setIdle")
     298                      .dwattr $C$DW$38, DW_AT_declaration
     299                      .dwattr $C$DW$38, DW_AT_external
     300              $C$DW$39        .dwtag  DW_TAG_formal_parameter
     301                      .dwattr $C$DW$39, DW_AT_type(*$C$DW$T$190)
     302                      .dwendtag $C$DW$38
     303              
     304              
     305              $C$DW$40        .dwtag  DW_TAG_subprogram, DW_AT_name("EST_setLs_qFmt")
     306                      .dwattr $C$DW$40, DW_AT_TI_symbol_name("_EST_setLs_qFmt")
     307                      .dwattr $C$DW$40, DW_AT_declaration
     308                      .dwattr $C$DW$40, DW_AT_external
     309              $C$DW$41        .dwtag  DW_TAG_formal_parameter
     310                      .dwattr $C$DW$41, DW_AT_type(*$C$DW$T$190)
     311              $C$DW$42        .dwtag  DW_TAG_formal_parameter
     312                      .dwattr $C$DW$42, DW_AT_type(*$C$DW$T$297)
     313                      .dwendtag $C$DW$40
     314              
     315              
     316              $C$DW$43        .dwtag  DW_TAG_subprogram, DW_AT_name("EST_setLs_q_pu")
TMS320C2000 Assembler PC v6.4.10 Mon Jul 11 12:58:57 2016

Tools Copyright (c) 1996-2015 Texas Instruments Incorporated
C:\Users\bee25\AppData\Local\Temp\0350410                            PAGE    8

     317                      .dwattr $C$DW$43, DW_AT_TI_symbol_name("_EST_setLs_q_pu")
     318                      .dwattr $C$DW$43, DW_AT_declaration
     319                      .dwattr $C$DW$43, DW_AT_external
     320              $C$DW$44        .dwtag  DW_TAG_formal_parameter
     321                      .dwattr $C$DW$44, DW_AT_type(*$C$DW$T$190)
     322              $C$DW$45        .dwtag  DW_TAG_formal_parameter
     323                      .dwattr $C$DW$45, DW_AT_type(*$C$DW$T$287)
     324                      .dwendtag $C$DW$43
     325              
     326              
     327              $C$DW$46        .dwtag  DW_TAG_subprogram, DW_AT_name("EST_run")
     328                      .dwattr $C$DW$46, DW_AT_TI_symbol_name("_EST_run")
     329                      .dwattr $C$DW$46, DW_AT_declaration
     330                      .dwattr $C$DW$46, DW_AT_external
     331              $C$DW$47        .dwtag  DW_TAG_formal_parameter
     332                      .dwattr $C$DW$47, DW_AT_type(*$C$DW$T$190)
     333              $C$DW$48        .dwtag  DW_TAG_formal_parameter
     334                      .dwattr $C$DW$48, DW_AT_type(*$C$DW$T$248)
     335              $C$DW$49        .dwtag  DW_TAG_formal_parameter
     336                      .dwattr $C$DW$49, DW_AT_type(*$C$DW$T$248)
     337              $C$DW$50        .dwtag  DW_TAG_formal_parameter
     338                      .dwattr $C$DW$50, DW_AT_type(*$C$DW$T$287)
     339              $C$DW$51        .dwtag  DW_TAG_formal_parameter
     340                      .dwattr $C$DW$51, DW_AT_type(*$C$DW$T$287)
     341                      .dwendtag $C$DW$46
     342              
     343              
     344              $C$DW$52        .dwtag  DW_TAG_subprogram, DW_AT_name("memCopy")
     345                      .dwattr $C$DW$52, DW_AT_TI_symbol_name("_memCopy")
     346                      .dwattr $C$DW$52, DW_AT_declaration
     347                      .dwattr $C$DW$52, DW_AT_external
     348              $C$DW$53        .dwtag  DW_TAG_formal_parameter
     349                      .dwattr $C$DW$53, DW_AT_type(*$C$DW$T$284)
     350              $C$DW$54        .dwtag  DW_TAG_formal_parameter
     351                      .dwattr $C$DW$54, DW_AT_type(*$C$DW$T$284)
     352              $C$DW$55        .dwtag  DW_TAG_formal_parameter
     353                      .dwattr $C$DW$55, DW_AT_type(*$C$DW$T$284)
     354                      .dwendtag $C$DW$52
     355              
     356              
     357              $C$DW$56        .dwtag  DW_TAG_subprogram, DW_AT_name("EST_setFlag_enableRsRecalc")
     358                      .dwattr $C$DW$56, DW_AT_TI_symbol_name("_EST_setFlag_enableRsRecalc")
     359                      .dwattr $C$DW$56, DW_AT_declaration
     360                      .dwattr $C$DW$56, DW_AT_external
     361              $C$DW$57        .dwtag  DW_TAG_formal_parameter
     362                      .dwattr $C$DW$57, DW_AT_type(*$C$DW$T$190)
     363              $C$DW$58        .dwtag  DW_TAG_formal_parameter
     364                      .dwattr $C$DW$58, DW_AT_type(*$C$DW$T$290)
     365                      .dwendtag $C$DW$56
     366              
     367              
     368              $C$DW$59        .dwtag  DW_TAG_subprogram, DW_AT_name("EST_setFlag_enableForceAngle")
     369                      .dwattr $C$DW$59, DW_AT_TI_symbol_name("_EST_setFlag_enableForceAngle")
     370                      .dwattr $C$DW$59, DW_AT_declaration
     371                      .dwattr $C$DW$59, DW_AT_external
TMS320C2000 Assembler PC v6.4.10 Mon Jul 11 12:58:57 2016

Tools Copyright (c) 1996-2015 Texas Instruments Incorporated
C:\Users\bee25\AppData\Local\Temp\0350410                            PAGE    9

     372              $C$DW$60        .dwtag  DW_TAG_formal_parameter
     373                      .dwattr $C$DW$60, DW_AT_type(*$C$DW$T$190)
     374              $C$DW$61        .dwtag  DW_TAG_formal_parameter
     375                      .dwattr $C$DW$61, DW_AT_type(*$C$DW$T$290)
     376                      .dwendtag $C$DW$59
     377              
     378              
     379              $C$DW$62        .dwtag  DW_TAG_subprogram, DW_AT_name("EST_getState")
     380                      .dwattr $C$DW$62, DW_AT_TI_symbol_name("_EST_getState")
     381                      .dwattr $C$DW$62, DW_AT_type(*$C$DW$T$149)
     382                      .dwattr $C$DW$62, DW_AT_declaration
     383                      .dwattr $C$DW$62, DW_AT_external
     384              $C$DW$63        .dwtag  DW_TAG_formal_parameter
     385                      .dwattr $C$DW$63, DW_AT_type(*$C$DW$T$190)
     386                      .dwendtag $C$DW$62
     387              
     388              
     389              $C$DW$64        .dwtag  DW_TAG_subprogram, DW_AT_name("USER_getErrorCode")
     390                      .dwattr $C$DW$64, DW_AT_TI_symbol_name("_USER_getErrorCode")
     391                      .dwattr $C$DW$64, DW_AT_type(*$C$DW$T$151)
     392                      .dwattr $C$DW$64, DW_AT_declaration
     393                      .dwattr $C$DW$64, DW_AT_external
     394              $C$DW$65        .dwtag  DW_TAG_formal_parameter
     395                      .dwattr $C$DW$65, DW_AT_type(*$C$DW$T$195)
     396                      .dwendtag $C$DW$64
     397              
     398              
     399              $C$DW$66        .dwtag  DW_TAG_subprogram, DW_AT_name("EST_updateState")
     400                      .dwattr $C$DW$66, DW_AT_TI_symbol_name("_EST_updateState")
     401                      .dwattr $C$DW$66, DW_AT_type(*$C$DW$T$62)
     402                      .dwattr $C$DW$66, DW_AT_declaration
     403                      .dwattr $C$DW$66, DW_AT_external
     404              $C$DW$67        .dwtag  DW_TAG_formal_parameter
     405                      .dwattr $C$DW$67, DW_AT_type(*$C$DW$T$190)
     406              $C$DW$68        .dwtag  DW_TAG_formal_parameter
     407                      .dwattr $C$DW$68, DW_AT_type(*$C$DW$T$287)
     408                      .dwendtag $C$DW$66
     409              
     410                      .global _pidCntSpeed
     411 00000000       _pidCntSpeed:   .usect  ".ebss",1,1,0
     412              $C$DW$69        .dwtag  DW_TAG_variable, DW_AT_name("pidCntSpeed")
     413                      .dwattr $C$DW$69, DW_AT_TI_symbol_name("_pidCntSpeed")
     414                      .dwattr $C$DW$69, DW_AT_location[DW_OP_addr _pidCntSpeed]
     415                      .dwattr $C$DW$69, DW_AT_type(*$C$DW$T$22)
     416                      .dwattr $C$DW$69, DW_AT_external
     417                      .global _svgenHandle
     418 00000002       _svgenHandle:   .usect  ".ebss",2,1,1
     419              $C$DW$70        .dwtag  DW_TAG_variable, DW_AT_name("svgenHandle")
     420                      .dwattr $C$DW$70, DW_AT_TI_symbol_name("_svgenHandle")
     421                      .dwattr $C$DW$70, DW_AT_location[DW_OP_addr _svgenHandle]
     422                      .dwattr $C$DW$70, DW_AT_type(*$C$DW$T$276)
     423                      .dwattr $C$DW$70, DW_AT_external
     424                      .global _clarkeHandle_V
     425 00000004       _clarkeHandle_V:        .usect  ".ebss",2,1,1
     426              $C$DW$71        .dwtag  DW_TAG_variable, DW_AT_name("clarkeHandle_V")
TMS320C2000 Assembler PC v6.4.10 Mon Jul 11 12:58:57 2016

Tools Copyright (c) 1996-2015 Texas Instruments Incorporated
C:\Users\bee25\AppData\Local\Temp\0350410                            PAGE   10

     427                      .dwattr $C$DW$71, DW_AT_TI_symbol_name("_clarkeHandle_V")
     428                      .dwattr $C$DW$71, DW_AT_location[DW_OP_addr _clarkeHandle_V]
     429                      .dwattr $C$DW$71, DW_AT_type(*$C$DW$T$211)
     430                      .dwattr $C$DW$71, DW_AT_external
     431              
     432              $C$DW$72        .dwtag  DW_TAG_subprogram, DW_AT_name("labs")
     433                      .dwattr $C$DW$72, DW_AT_TI_symbol_name("_labs")
     434                      .dwattr $C$DW$72, DW_AT_type(*$C$DW$T$12)
     435                      .dwattr $C$DW$72, DW_AT_declaration
     436                      .dwattr $C$DW$72, DW_AT_external
     437              $C$DW$73        .dwtag  DW_TAG_formal_parameter
     438                      .dwattr $C$DW$73, DW_AT_type(*$C$DW$T$12)
     439                      .dwendtag $C$DW$72
     440              
     441                      .global _iparkHandle
     442 00000006       _iparkHandle:   .usect  ".ebss",2,1,1
     443              $C$DW$74        .dwtag  DW_TAG_variable, DW_AT_name("iparkHandle")
     444                      .dwattr $C$DW$74, DW_AT_TI_symbol_name("_iparkHandle")
     445                      .dwattr $C$DW$74, DW_AT_location[DW_OP_addr _iparkHandle]
     446                      .dwattr $C$DW$74, DW_AT_type(*$C$DW$T$242)
     447                      .dwattr $C$DW$74, DW_AT_external
     448                      .global _svgen
     449 00000008       _svgen: .usect  ".ebss",2,1,1
     450              $C$DW$75        .dwtag  DW_TAG_variable, DW_AT_name("svgen")
     451                      .dwattr $C$DW$75, DW_AT_TI_symbol_name("_svgen")
     452                      .dwattr $C$DW$75, DW_AT_location[DW_OP_addr _svgen]
     453                      .dwattr $C$DW$75, DW_AT_type(*$C$DW$T$274)
     454                      .dwattr $C$DW$75, DW_AT_external
     455                      .global _clarkeHandle_I
     456 0000000a       _clarkeHandle_I:        .usect  ".ebss",2,1,1
     457              $C$DW$76        .dwtag  DW_TAG_variable, DW_AT_name("clarkeHandle_I")
     458                      .dwattr $C$DW$76, DW_AT_TI_symbol_name("_clarkeHandle_I")
     459                      .dwattr $C$DW$76, DW_AT_location[DW_OP_addr _clarkeHandle_I]
     460                      .dwattr $C$DW$76, DW_AT_type(*$C$DW$T$211)
     461                      .dwattr $C$DW$76, DW_AT_external
     462              
     463              $C$DW$77        .dwtag  DW_TAG_subprogram, DW_AT_name("log")
     464                      .dwattr $C$DW$77, DW_AT_TI_symbol_name("_log")
     465                      .dwattr $C$DW$77, DW_AT_type(*$C$DW$T$17)
     466                      .dwattr $C$DW$77, DW_AT_declaration
     467                      .dwattr $C$DW$77, DW_AT_external
     468              $C$DW$78        .dwtag  DW_TAG_formal_parameter
     469                      .dwattr $C$DW$78, DW_AT_type(*$C$DW$T$17)
     470                      .dwendtag $C$DW$77
     471              
     472              
     473              $C$DW$79        .dwtag  DW_TAG_subprogram, DW_AT_name("modf")
     474                      .dwattr $C$DW$79, DW_AT_TI_symbol_name("_modf")
     475                      .dwattr $C$DW$79, DW_AT_type(*$C$DW$T$17)
     476                      .dwattr $C$DW$79, DW_AT_declaration
     477                      .dwattr $C$DW$79, DW_AT_external
     478              $C$DW$80        .dwtag  DW_TAG_formal_parameter
     479                      .dwattr $C$DW$80, DW_AT_type(*$C$DW$T$17)
     480              $C$DW$81        .dwtag  DW_TAG_formal_parameter
     481                      .dwattr $C$DW$81, DW_AT_type(*$C$DW$T$363)
TMS320C2000 Assembler PC v6.4.10 Mon Jul 11 12:58:57 2016

Tools Copyright (c) 1996-2015 Texas Instruments Incorporated
C:\Users\bee25\AppData\Local\Temp\0350410                            PAGE   11

     482                      .dwendtag $C$DW$79
     483              
     484              
     485              $C$DW$82        .dwtag  DW_TAG_subprogram, DW_AT_name("__IQmpy")
     486                      .dwattr $C$DW$82, DW_AT_TI_symbol_name("___IQmpy")
     487                      .dwattr $C$DW$82, DW_AT_type(*$C$DW$T$12)
     488                      .dwattr $C$DW$82, DW_AT_declaration
     489                      .dwattr $C$DW$82, DW_AT_external
     490              $C$DW$83        .dwtag  DW_TAG_formal_parameter
     491                      .dwattr $C$DW$83, DW_AT_type(*$C$DW$T$12)
     492              $C$DW$84        .dwtag  DW_TAG_formal_parameter
     493                      .dwattr $C$DW$84, DW_AT_type(*$C$DW$T$12)
     494              $C$DW$85        .dwtag  DW_TAG_formal_parameter
     495                      .dwattr $C$DW$85, DW_AT_type(*$C$DW$T$10)
     496                      .dwendtag $C$DW$82
     497              
     498                      .global _estHandle
     499 0000000c       _estHandle:     .usect  ".ebss",2,1,1
     500              $C$DW$86        .dwtag  DW_TAG_variable, DW_AT_name("estHandle")
     501                      .dwattr $C$DW$86, DW_AT_TI_symbol_name("_estHandle")
     502                      .dwattr $C$DW$86, DW_AT_location[DW_OP_addr _estHandle]
     503                      .dwattr $C$DW$86, DW_AT_type(*$C$DW$T$190)
     504                      .dwattr $C$DW$86, DW_AT_external
     505              
     506              $C$DW$87        .dwtag  DW_TAG_subprogram, DW_AT_name("EST_init")
     507                      .dwattr $C$DW$87, DW_AT_TI_symbol_name("_EST_init")
     508                      .dwattr $C$DW$87, DW_AT_type(*$C$DW$T$190)
     509                      .dwattr $C$DW$87, DW_AT_declaration
     510                      .dwattr $C$DW$87, DW_AT_external
     511              $C$DW$88        .dwtag  DW_TAG_formal_parameter
     512                      .dwattr $C$DW$88, DW_AT_type(*$C$DW$T$3)
     513              $C$DW$89        .dwtag  DW_TAG_formal_parameter
     514                      .dwattr $C$DW$89, DW_AT_type(*$C$DW$T$214)
     515                      .dwendtag $C$DW$87
     516              
     517              
     518              $C$DW$90        .dwtag  DW_TAG_subprogram, DW_AT_name("__IQsat")
     519                      .dwattr $C$DW$90, DW_AT_TI_symbol_name("___IQsat")
     520                      .dwattr $C$DW$90, DW_AT_type(*$C$DW$T$12)
     521                      .dwattr $C$DW$90, DW_AT_declaration
     522                      .dwattr $C$DW$90, DW_AT_external
     523              $C$DW$91        .dwtag  DW_TAG_formal_parameter
     524                      .dwattr $C$DW$91, DW_AT_type(*$C$DW$T$12)
     525              $C$DW$92        .dwtag  DW_TAG_formal_parameter
     526                      .dwattr $C$DW$92, DW_AT_type(*$C$DW$T$12)
     527              $C$DW$93        .dwtag  DW_TAG_formal_parameter
     528                      .dwattr $C$DW$93, DW_AT_type(*$C$DW$T$12)
     529                      .dwendtag $C$DW$90
     530              
     531                      .global _gFlux_pu_to_Wb_sf
     532 0000000e       _gFlux_pu_to_Wb_sf:     .usect  ".ebss",2,1,1
     533              $C$DW$94        .dwtag  DW_TAG_variable, DW_AT_name("gFlux_pu_to_Wb_sf")
     534                      .dwattr $C$DW$94, DW_AT_TI_symbol_name("_gFlux_pu_to_Wb_sf")
     535                      .dwattr $C$DW$94, DW_AT_location[DW_OP_addr _gFlux_pu_to_Wb_sf]
     536                      .dwattr $C$DW$94, DW_AT_type(*$C$DW$T$47)
TMS320C2000 Assembler PC v6.4.10 Mon Jul 11 12:58:57 2016

Tools Copyright (c) 1996-2015 Texas Instruments Incorporated
C:\Users\bee25\AppData\Local\Temp\0350410                            PAGE   12

     537                      .dwattr $C$DW$94, DW_AT_external
     538                      .global _gFlux_pu_to_VpHz_sf
     539 00000010       _gFlux_pu_to_VpHz_sf:   .usect  ".ebss",2,1,1
     540              $C$DW$95        .dwtag  DW_TAG_variable, DW_AT_name("gFlux_pu_to_VpHz_sf")
     541                      .dwattr $C$DW$95, DW_AT_TI_symbol_name("_gFlux_pu_to_VpHz_sf")
     542                      .dwattr $C$DW$95, DW_AT_location[DW_OP_addr _gFlux_pu_to_VpHz_sf]
     543                      .dwattr $C$DW$95, DW_AT_type(*$C$DW$T$47)
     544                      .dwattr $C$DW$95, DW_AT_external
     545              $C$DW$96        .dwtag  DW_TAG_variable, DW_AT_name("switch_end")
     546                      .dwattr $C$DW$96, DW_AT_TI_symbol_name("_switch_end")
     547                      .dwattr $C$DW$96, DW_AT_type(*$C$DW$T$284)
     548                      .dwattr $C$DW$96, DW_AT_declaration
     549                      .dwattr $C$DW$96, DW_AT_external
     550              $C$DW$97        .dwtag  DW_TAG_variable, DW_AT_name("switch_ram_load")
     551                      .dwattr $C$DW$97, DW_AT_TI_symbol_name("_switch_ram_load")
     552                      .dwattr $C$DW$97, DW_AT_type(*$C$DW$T$284)
     553                      .dwattr $C$DW$97, DW_AT_declaration
     554                      .dwattr $C$DW$97, DW_AT_external
     555                      .global _gSpeed_krpm_to_pu_sf
     556 00000012       _gSpeed_krpm_to_pu_sf:  .usect  ".ebss",2,1,1
     557              $C$DW$98        .dwtag  DW_TAG_variable, DW_AT_name("gSpeed_krpm_to_pu_sf")
     558                      .dwattr $C$DW$98, DW_AT_TI_symbol_name("_gSpeed_krpm_to_pu_sf")
     559                      .dwattr $C$DW$98, DW_AT_location[DW_OP_addr _gSpeed_krpm_to_pu_sf]
     560                      .dwattr $C$DW$98, DW_AT_type(*$C$DW$T$47)
     561                      .dwattr $C$DW$98, DW_AT_external
     562                      .global _gSpeed_hz_to_krpm_sf
     563 00000014       _gSpeed_hz_to_krpm_sf:  .usect  ".ebss",2,1,1
     564              $C$DW$99        .dwtag  DW_TAG_variable, DW_AT_name("gSpeed_hz_to_krpm_sf")
     565                      .dwattr $C$DW$99, DW_AT_TI_symbol_name("_gSpeed_hz_to_krpm_sf")
     566                      .dwattr $C$DW$99, DW_AT_location[DW_OP_addr _gSpeed_hz_to_krpm_sf]
     567                      .dwattr $C$DW$99, DW_AT_type(*$C$DW$T$47)
     568                      .dwattr $C$DW$99, DW_AT_external
     569                      .global _gTorque_Ls_Id_Iq_pu_to_Nm_sf
     570 00000016       _gTorque_Ls_Id_Iq_pu_to_Nm_sf:  .usect  ".ebss",2,1,1
     571              $C$DW$100       .dwtag  DW_TAG_variable, DW_AT_name("gTorque_Ls_Id_Iq_pu_to_Nm_sf")
     572                      .dwattr $C$DW$100, DW_AT_TI_symbol_name("_gTorque_Ls_Id_Iq_pu_to_Nm_sf")
     573                      .dwattr $C$DW$100, DW_AT_location[DW_OP_addr _gTorque_Ls_Id_Iq_pu_to_Nm_sf]
     574                      .dwattr $C$DW$100, DW_AT_type(*$C$DW$T$47)
     575                      .dwattr $C$DW$100, DW_AT_external
     576                      .global _gTorque_Flux_Iq_pu_to_Nm_sf
     577 00000018       _gTorque_Flux_Iq_pu_to_Nm_sf:   .usect  ".ebss",2,1,1
     578              $C$DW$101       .dwtag  DW_TAG_variable, DW_AT_name("gTorque_Flux_Iq_pu_to_Nm_sf")
     579                      .dwattr $C$DW$101, DW_AT_TI_symbol_name("_gTorque_Flux_Iq_pu_to_Nm_sf")
     580                      .dwattr $C$DW$101, DW_AT_location[DW_OP_addr _gTorque_Flux_Iq_pu_to_Nm_sf]
     581                      .dwattr $C$DW$101, DW_AT_type(*$C$DW$T$47)
     582                      .dwattr $C$DW$101, DW_AT_external
     583              $C$DW$102       .dwtag  DW_TAG_variable, DW_AT_name("RamfuncsLoadEnd")
     584                      .dwattr $C$DW$102, DW_AT_TI_symbol_name("_RamfuncsLoadEnd")
     585                      .dwattr $C$DW$102, DW_AT_type(*$C$DW$T$284)
     586                      .dwattr $C$DW$102, DW_AT_declaration
     587                      .dwattr $C$DW$102, DW_AT_external
     588              $C$DW$103       .dwtag  DW_TAG_variable, DW_AT_name("RamfuncsRunStart")
     589                      .dwattr $C$DW$103, DW_AT_TI_symbol_name("_RamfuncsRunStart")
     590                      .dwattr $C$DW$103, DW_AT_type(*$C$DW$T$284)
     591                      .dwattr $C$DW$103, DW_AT_declaration
TMS320C2000 Assembler PC v6.4.10 Mon Jul 11 12:58:57 2016

Tools Copyright (c) 1996-2015 Texas Instruments Incorporated
C:\Users\bee25\AppData\Local\Temp\0350410                            PAGE   13

     592                      .dwattr $C$DW$103, DW_AT_external
     593                      .global _halHandle
     594 00000000       _halHandle:     .usect  "rom_accessed_data",2,1,1
     595              $C$DW$104       .dwtag  DW_TAG_variable, DW_AT_name("halHandle")
     596                      .dwattr $C$DW$104, DW_AT_TI_symbol_name("_halHandle")
     597                      .dwattr $C$DW$104, DW_AT_location[DW_OP_addr _halHandle]
     598                      .dwattr $C$DW$104, DW_AT_type(*$C$DW$T$232)
     599                      .dwattr $C$DW$104, DW_AT_external
     600              $C$DW$105       .dwtag  DW_TAG_variable, DW_AT_name("RamfuncsLoadStart")
     601                      .dwattr $C$DW$105, DW_AT_TI_symbol_name("_RamfuncsLoadStart")
     602                      .dwattr $C$DW$105, DW_AT_type(*$C$DW$T$284)
     603                      .dwattr $C$DW$105, DW_AT_declaration
     604                      .dwattr $C$DW$105, DW_AT_external
     605              $C$DW$106       .dwtag  DW_TAG_variable, DW_AT_name("econst_ram_load")
     606                      .dwattr $C$DW$106, DW_AT_TI_symbol_name("_econst_ram_load")
     607                      .dwattr $C$DW$106, DW_AT_type(*$C$DW$T$284)
     608                      .dwattr $C$DW$106, DW_AT_declaration
     609                      .dwattr $C$DW$106, DW_AT_external
     610              $C$DW$107       .dwtag  DW_TAG_variable, DW_AT_name("switch_start")
     611                      .dwattr $C$DW$107, DW_AT_TI_symbol_name("_switch_start")
     612                      .dwattr $C$DW$107, DW_AT_type(*$C$DW$T$284)
     613                      .dwattr $C$DW$107, DW_AT_declaration
     614                      .dwattr $C$DW$107, DW_AT_external
     615              $C$DW$108       .dwtag  DW_TAG_variable, DW_AT_name("econst_start")
     616                      .dwattr $C$DW$108, DW_AT_TI_symbol_name("_econst_start")
     617                      .dwattr $C$DW$108, DW_AT_type(*$C$DW$T$284)
     618                      .dwattr $C$DW$108, DW_AT_declaration
     619                      .dwattr $C$DW$108, DW_AT_external
     620              $C$DW$109       .dwtag  DW_TAG_variable, DW_AT_name("econst_end")
     621                      .dwattr $C$DW$109, DW_AT_TI_symbol_name("_econst_end")
     622                      .dwattr $C$DW$109, DW_AT_type(*$C$DW$T$284)
     623                      .dwattr $C$DW$109, DW_AT_declaration
     624                      .dwattr $C$DW$109, DW_AT_external
     625              
     626              $C$DW$110       .dwtag  DW_TAG_subprogram, DW_AT_name("CLARKE_init")
     627                      .dwattr $C$DW$110, DW_AT_TI_symbol_name("_CLARKE_init")
     628                      .dwattr $C$DW$110, DW_AT_type(*$C$DW$T$211)
     629                      .dwattr $C$DW$110, DW_AT_declaration
     630                      .dwattr $C$DW$110, DW_AT_external
     631              $C$DW$111       .dwtag  DW_TAG_formal_parameter
     632                      .dwattr $C$DW$111, DW_AT_type(*$C$DW$T$3)
     633              $C$DW$112       .dwtag  DW_TAG_formal_parameter
     634                      .dwattr $C$DW$112, DW_AT_type(*$C$DW$T$214)
     635                      .dwendtag $C$DW$110
     636              
     637              
     638              $C$DW$113       .dwtag  DW_TAG_subprogram, DW_AT_name("PID_init")
     639                      .dwattr $C$DW$113, DW_AT_TI_symbol_name("_PID_init")
     640                      .dwattr $C$DW$113, DW_AT_type(*$C$DW$T$263)
     641                      .dwattr $C$DW$113, DW_AT_declaration
     642                      .dwattr $C$DW$113, DW_AT_external
     643              $C$DW$114       .dwtag  DW_TAG_formal_parameter
     644                      .dwattr $C$DW$114, DW_AT_type(*$C$DW$T$3)
     645              $C$DW$115       .dwtag  DW_TAG_formal_parameter
     646                      .dwattr $C$DW$115, DW_AT_type(*$C$DW$T$214)
TMS320C2000 Assembler PC v6.4.10 Mon Jul 11 12:58:57 2016

Tools Copyright (c) 1996-2015 Texas Instruments Incorporated
C:\Users\bee25\AppData\Local\Temp\0350410                            PAGE   14

     647                      .dwendtag $C$DW$113
     648              
     649              
     650              $C$DW$116       .dwtag  DW_TAG_subprogram, DW_AT_name("EST_getLs_q_pu")
     651                      .dwattr $C$DW$116, DW_AT_TI_symbol_name("_EST_getLs_q_pu")
     652                      .dwattr $C$DW$116, DW_AT_type(*$C$DW$T$47)
     653                      .dwattr $C$DW$116, DW_AT_declaration
     654                      .dwattr $C$DW$116, DW_AT_external
     655              $C$DW$117       .dwtag  DW_TAG_formal_parameter
     656                      .dwattr $C$DW$117, DW_AT_type(*$C$DW$T$190)
     657                      .dwendtag $C$DW$116
     658              
     659              
     660              $C$DW$118       .dwtag  DW_TAG_subprogram, DW_AT_name("SVGEN_init")
     661                      .dwattr $C$DW$118, DW_AT_TI_symbol_name("_SVGEN_init")
     662                      .dwattr $C$DW$118, DW_AT_type(*$C$DW$T$276)
     663                      .dwattr $C$DW$118, DW_AT_declaration
     664                      .dwattr $C$DW$118, DW_AT_external
     665              $C$DW$119       .dwtag  DW_TAG_formal_parameter
     666                      .dwattr $C$DW$119, DW_AT_type(*$C$DW$T$3)
     667              $C$DW$120       .dwtag  DW_TAG_formal_parameter
     668                      .dwattr $C$DW$120, DW_AT_type(*$C$DW$T$214)
     669                      .dwendtag $C$DW$118
     670              
     671              
     672              $C$DW$121       .dwtag  DW_TAG_subprogram, DW_AT_name("EST_getLs_d_H")
     673                      .dwattr $C$DW$121, DW_AT_TI_symbol_name("_EST_getLs_d_H")
     674                      .dwattr $C$DW$121, DW_AT_type(*$C$DW$T$153)
     675                      .dwattr $C$DW$121, DW_AT_declaration
     676                      .dwattr $C$DW$121, DW_AT_external
     677              $C$DW$122       .dwtag  DW_TAG_formal_parameter
     678                      .dwattr $C$DW$122, DW_AT_type(*$C$DW$T$190)
     679                      .dwendtag $C$DW$121
     680              
     681              
     682              $C$DW$123       .dwtag  DW_TAG_subprogram, DW_AT_name("EST_getLs_q_H")
     683                      .dwattr $C$DW$123, DW_AT_TI_symbol_name("_EST_getLs_q_H")
     684                      .dwattr $C$DW$123, DW_AT_type(*$C$DW$T$153)
     685                      .dwattr $C$DW$123, DW_AT_declaration
     686                      .dwattr $C$DW$123, DW_AT_external
     687              $C$DW$124       .dwtag  DW_TAG_formal_parameter
     688                      .dwattr $C$DW$124, DW_AT_type(*$C$DW$T$190)
     689                      .dwendtag $C$DW$123
     690              
     691              
     692              $C$DW$125       .dwtag  DW_TAG_subprogram, DW_AT_name("EST_getLs_d_pu")
     693                      .dwattr $C$DW$125, DW_AT_TI_symbol_name("_EST_getLs_d_pu")
     694                      .dwattr $C$DW$125, DW_AT_type(*$C$DW$T$47)
     695                      .dwattr $C$DW$125, DW_AT_declaration
     696                      .dwattr $C$DW$125, DW_AT_external
     697              $C$DW$126       .dwtag  DW_TAG_formal_parameter
     698                      .dwattr $C$DW$126, DW_AT_type(*$C$DW$T$190)
     699                      .dwendtag $C$DW$125
     700              
     701              
TMS320C2000 Assembler PC v6.4.10 Mon Jul 11 12:58:57 2016

Tools Copyright (c) 1996-2015 Texas Instruments Incorporated
C:\Users\bee25\AppData\Local\Temp\0350410                            PAGE   15

     702              $C$DW$127       .dwtag  DW_TAG_subprogram, DW_AT_name("USER_computeTorque_Flux_Iq_pu_to_Nm_sf")
     703                      .dwattr $C$DW$127, DW_AT_TI_symbol_name("_USER_computeTorque_Flux_Iq_pu_to_Nm_sf")
     704                      .dwattr $C$DW$127, DW_AT_type(*$C$DW$T$47)
     705                      .dwattr $C$DW$127, DW_AT_declaration
     706                      .dwattr $C$DW$127, DW_AT_external
     707              
     708              $C$DW$128       .dwtag  DW_TAG_subprogram, DW_AT_name("USER_computeFlux_pu_to_Wb_sf")
     709                      .dwattr $C$DW$128, DW_AT_TI_symbol_name("_USER_computeFlux_pu_to_Wb_sf")
     710                      .dwattr $C$DW$128, DW_AT_type(*$C$DW$T$47)
     711                      .dwattr $C$DW$128, DW_AT_declaration
     712                      .dwattr $C$DW$128, DW_AT_external
     713              
     714              $C$DW$129       .dwtag  DW_TAG_subprogram, DW_AT_name("EST_getRs_Ohm")
     715                      .dwattr $C$DW$129, DW_AT_TI_symbol_name("_EST_getRs_Ohm")
     716                      .dwattr $C$DW$129, DW_AT_type(*$C$DW$T$153)
     717                      .dwattr $C$DW$129, DW_AT_declaration
     718                      .dwattr $C$DW$129, DW_AT_external
     719              $C$DW$130       .dwtag  DW_TAG_formal_parameter
     720                      .dwattr $C$DW$130, DW_AT_type(*$C$DW$T$190)
     721                      .dwendtag $C$DW$129
     722              
     723              
     724              $C$DW$131       .dwtag  DW_TAG_subprogram, DW_AT_name("USER_computeTorque_Ls_Id_Iq_pu_to_Nm_sf")
     725                      .dwattr $C$DW$131, DW_AT_TI_symbol_name("_USER_computeTorque_Ls_Id_Iq_pu_to_Nm_sf")
     726                      .dwattr $C$DW$131, DW_AT_type(*$C$DW$T$47)
     727                      .dwattr $C$DW$131, DW_AT_declaration
     728                      .dwattr $C$DW$131, DW_AT_external
     729              
     730              $C$DW$132       .dwtag  DW_TAG_subprogram, DW_AT_name("EST_getOneOverDcBus_pu")
     731                      .dwattr $C$DW$132, DW_AT_TI_symbol_name("_EST_getOneOverDcBus_pu")
     732                      .dwattr $C$DW$132, DW_AT_type(*$C$DW$T$47)
     733                      .dwattr $C$DW$132, DW_AT_declaration
     734                      .dwattr $C$DW$132, DW_AT_external
     735              $C$DW$133       .dwtag  DW_TAG_formal_parameter
     736                      .dwattr $C$DW$133, DW_AT_type(*$C$DW$T$190)
     737                      .dwendtag $C$DW$132
     738              
     739              
     740              $C$DW$134       .dwtag  DW_TAG_subprogram, DW_AT_name("EST_getLs_coarse_max_pu")
     741                      .dwattr $C$DW$134, DW_AT_TI_symbol_name("_EST_getLs_coarse_max_pu")
     742                      .dwattr $C$DW$134, DW_AT_type(*$C$DW$T$47)
     743                      .dwattr $C$DW$134, DW_AT_declaration
     744                      .dwattr $C$DW$134, DW_AT_external
     745              $C$DW$135       .dwtag  DW_TAG_formal_parameter
     746                      .dwattr $C$DW$135, DW_AT_type(*$C$DW$T$190)
     747                      .dwendtag $C$DW$134
     748              
     749              
     750              $C$DW$136       .dwtag  DW_TAG_subprogram, DW_AT_name("USER_computeFlux_pu_to_VpHz_sf")
     751                      .dwattr $C$DW$136, DW_AT_TI_symbol_name("_USER_computeFlux_pu_to_VpHz_sf")
     752                      .dwattr $C$DW$136, DW_AT_type(*$C$DW$T$47)
     753                      .dwattr $C$DW$136, DW_AT_declaration
     754                      .dwattr $C$DW$136, DW_AT_external
     755              
     756              $C$DW$137       .dwtag  DW_TAG_subprogram, DW_AT_name("EST_getRr_Ohm")
TMS320C2000 Assembler PC v6.4.10 Mon Jul 11 12:58:57 2016

Tools Copyright (c) 1996-2015 Texas Instruments Incorporated
C:\Users\bee25\AppData\Local\Temp\0350410                            PAGE   16

     757                      .dwattr $C$DW$137, DW_AT_TI_symbol_name("_EST_getRr_Ohm")
     758                      .dwattr $C$DW$137, DW_AT_type(*$C$DW$T$153)
     759                      .dwattr $C$DW$137, DW_AT_declaration
     760                      .dwattr $C$DW$137, DW_AT_external
     761              $C$DW$138       .dwtag  DW_TAG_formal_parameter
     762                      .dwattr $C$DW$138, DW_AT_type(*$C$DW$T$190)
     763                      .dwendtag $C$DW$137
     764              
     765              
     766              $C$DW$139       .dwtag  DW_TAG_subprogram, DW_AT_name("EST_getSpeed_krpm")
     767                      .dwattr $C$DW$139, DW_AT_TI_symbol_name("_EST_getSpeed_krpm")
     768                      .dwattr $C$DW$139, DW_AT_type(*$C$DW$T$47)
     769                      .dwattr $C$DW$139, DW_AT_declaration
     770                      .dwattr $C$DW$139, DW_AT_external
     771              $C$DW$140       .dwtag  DW_TAG_formal_parameter
     772                      .dwattr $C$DW$140, DW_AT_type(*$C$DW$T$190)
     773                      .dwendtag $C$DW$139
     774              
     775              
     776              $C$DW$141       .dwtag  DW_TAG_subprogram, DW_AT_name("EST_getFlux_VpHz")
     777                      .dwattr $C$DW$141, DW_AT_TI_symbol_name("_EST_getFlux_VpHz")
     778                      .dwattr $C$DW$141, DW_AT_type(*$C$DW$T$153)
     779                      .dwattr $C$DW$141, DW_AT_declaration
     780                      .dwattr $C$DW$141, DW_AT_external
     781              $C$DW$142       .dwtag  DW_TAG_formal_parameter
     782                      .dwattr $C$DW$142, DW_AT_type(*$C$DW$T$190)
     783                      .dwendtag $C$DW$141
     784              
     785              
     786              $C$DW$143       .dwtag  DW_TAG_subprogram, DW_AT_name("EST_getAngle_pu")
     787                      .dwattr $C$DW$143, DW_AT_TI_symbol_name("_EST_getAngle_pu")
     788                      .dwattr $C$DW$143, DW_AT_type(*$C$DW$T$47)
     789                      .dwattr $C$DW$143, DW_AT_declaration
     790                      .dwattr $C$DW$143, DW_AT_external
     791              $C$DW$144       .dwtag  DW_TAG_formal_parameter
     792                      .dwattr $C$DW$144, DW_AT_type(*$C$DW$T$190)
     793                      .dwendtag $C$DW$143
     794              
     795              
     796              $C$DW$145       .dwtag  DW_TAG_subprogram, DW_AT_name("EST_getFlux_pu")
     797                      .dwattr $C$DW$145, DW_AT_TI_symbol_name("_EST_getFlux_pu")
     798                      .dwattr $C$DW$145, DW_AT_type(*$C$DW$T$47)
     799                      .dwattr $C$DW$145, DW_AT_declaration
     800                      .dwattr $C$DW$145, DW_AT_external
     801              $C$DW$146       .dwtag  DW_TAG_formal_parameter
     802                      .dwattr $C$DW$146, DW_AT_type(*$C$DW$T$190)
     803                      .dwendtag $C$DW$145
     804              
     805              
     806              $C$DW$147       .dwtag  DW_TAG_subprogram, DW_AT_name("EST_getFm_pu")
     807                      .dwattr $C$DW$147, DW_AT_TI_symbol_name("_EST_getFm_pu")
     808                      .dwattr $C$DW$147, DW_AT_type(*$C$DW$T$47)
     809                      .dwattr $C$DW$147, DW_AT_declaration
     810                      .dwattr $C$DW$147, DW_AT_external
     811              $C$DW$148       .dwtag  DW_TAG_formal_parameter
TMS320C2000 Assembler PC v6.4.10 Mon Jul 11 12:58:57 2016

Tools Copyright (c) 1996-2015 Texas Instruments Incorporated
C:\Users\bee25\AppData\Local\Temp\0350410                            PAGE   17

     812                      .dwattr $C$DW$148, DW_AT_type(*$C$DW$T$190)
     813                      .dwendtag $C$DW$147
     814              
     815              
     816              $C$DW$149       .dwtag  DW_TAG_subprogram, DW_AT_name("IPARK_init")
     817                      .dwattr $C$DW$149, DW_AT_TI_symbol_name("_IPARK_init")
     818                      .dwattr $C$DW$149, DW_AT_type(*$C$DW$T$242)
     819                      .dwattr $C$DW$149, DW_AT_declaration
     820                      .dwattr $C$DW$149, DW_AT_external
     821              $C$DW$150       .dwtag  DW_TAG_formal_parameter
     822                      .dwattr $C$DW$150, DW_AT_type(*$C$DW$T$3)
     823              $C$DW$151       .dwtag  DW_TAG_formal_parameter
     824                      .dwattr $C$DW$151, DW_AT_type(*$C$DW$T$214)
     825                      .dwendtag $C$DW$149
     826              
     827              
     828              $C$DW$152       .dwtag  DW_TAG_subprogram, DW_AT_name("_IQ30toF")
     829                      .dwattr $C$DW$152, DW_AT_TI_symbol_name("__IQ30toF")
     830                      .dwattr $C$DW$152, DW_AT_type(*$C$DW$T$16)
     831                      .dwattr $C$DW$152, DW_AT_declaration
     832                      .dwattr $C$DW$152, DW_AT_external
     833              $C$DW$153       .dwtag  DW_TAG_formal_parameter
     834                      .dwattr $C$DW$153, DW_AT_type(*$C$DW$T$12)
     835                      .dwendtag $C$DW$152
     836              
     837              
     838              $C$DW$154       .dwtag  DW_TAG_subprogram, DW_AT_name("pow")
     839                      .dwattr $C$DW$154, DW_AT_TI_symbol_name("_pow")
     840                      .dwattr $C$DW$154, DW_AT_type(*$C$DW$T$17)
     841                      .dwattr $C$DW$154, DW_AT_declaration
     842                      .dwattr $C$DW$154, DW_AT_external
     843              $C$DW$155       .dwtag  DW_TAG_formal_parameter
     844                      .dwattr $C$DW$155, DW_AT_type(*$C$DW$T$17)
     845              $C$DW$156       .dwtag  DW_TAG_formal_parameter
     846                      .dwattr $C$DW$156, DW_AT_type(*$C$DW$T$17)
     847                      .dwendtag $C$DW$154
     848              
     849              
     850              $C$DW$157       .dwtag  DW_TAG_subprogram, DW_AT_name("_IQ24sinPU")
     851                      .dwattr $C$DW$157, DW_AT_TI_symbol_name("__IQ24sinPU")
     852                      .dwattr $C$DW$157, DW_AT_type(*$C$DW$T$12)
     853                      .dwattr $C$DW$157, DW_AT_declaration
     854                      .dwattr $C$DW$157, DW_AT_external
     855              $C$DW$158       .dwtag  DW_TAG_formal_parameter
     856                      .dwattr $C$DW$158, DW_AT_type(*$C$DW$T$12)
     857                      .dwendtag $C$DW$157
     858              
     859              
     860              $C$DW$159       .dwtag  DW_TAG_subprogram, DW_AT_name("_IQ24sqrt")
     861                      .dwattr $C$DW$159, DW_AT_TI_symbol_name("__IQ24sqrt")
     862                      .dwattr $C$DW$159, DW_AT_type(*$C$DW$T$12)
     863                      .dwattr $C$DW$159, DW_AT_declaration
     864                      .dwattr $C$DW$159, DW_AT_external
     865              $C$DW$160       .dwtag  DW_TAG_formal_parameter
     866                      .dwattr $C$DW$160, DW_AT_type(*$C$DW$T$12)
TMS320C2000 Assembler PC v6.4.10 Mon Jul 11 12:58:57 2016

Tools Copyright (c) 1996-2015 Texas Instruments Incorporated
C:\Users\bee25\AppData\Local\Temp\0350410                            PAGE   18

     867                      .dwendtag $C$DW$159
     868              
     869              
     870              $C$DW$161       .dwtag  DW_TAG_subprogram, DW_AT_name("_IQ24cosPU")
     871                      .dwattr $C$DW$161, DW_AT_TI_symbol_name("__IQ24cosPU")
     872                      .dwattr $C$DW$161, DW_AT_type(*$C$DW$T$12)
     873                      .dwattr $C$DW$161, DW_AT_declaration
     874                      .dwattr $C$DW$161, DW_AT_external
     875              $C$DW$162       .dwtag  DW_TAG_formal_parameter
     876                      .dwattr $C$DW$162, DW_AT_type(*$C$DW$T$12)
     877                      .dwendtag $C$DW$161
     878              
     879              
     880              $C$DW$163       .dwtag  DW_TAG_subprogram, DW_AT_name("HAL_init")
     881                      .dwattr $C$DW$163, DW_AT_TI_symbol_name("_HAL_init")
     882                      .dwattr $C$DW$163, DW_AT_type(*$C$DW$T$232)
     883                      .dwattr $C$DW$163, DW_AT_declaration
     884                      .dwattr $C$DW$163, DW_AT_external
     885              $C$DW$164       .dwtag  DW_TAG_formal_parameter
     886                      .dwattr $C$DW$164, DW_AT_type(*$C$DW$T$3)
     887              $C$DW$165       .dwtag  DW_TAG_formal_parameter
     888                      .dwattr $C$DW$165, DW_AT_type(*$C$DW$T$214)
     889                      .dwendtag $C$DW$163
     890              
     891              
     892              $C$DW$166       .dwtag  DW_TAG_subprogram, DW_AT_name("EST_getIdRated")
     893                      .dwattr $C$DW$166, DW_AT_TI_symbol_name("_EST_getIdRated")
     894                      .dwattr $C$DW$166, DW_AT_type(*$C$DW$T$153)
     895                      .dwattr $C$DW$166, DW_AT_declaration
     896                      .dwattr $C$DW$166, DW_AT_external
     897              $C$DW$167       .dwtag  DW_TAG_formal_parameter
     898                      .dwattr $C$DW$167, DW_AT_type(*$C$DW$T$190)
     899                      .dwendtag $C$DW$166
     900              
     901                      .global _ipark
     902 0000001a       _ipark: .usect  ".ebss",4,1,1
     903              $C$DW$168       .dwtag  DW_TAG_variable, DW_AT_name("ipark")
     904                      .dwattr $C$DW$168, DW_AT_TI_symbol_name("_ipark")
     905                      .dwattr $C$DW$168, DW_AT_location[DW_OP_addr _ipark]
     906                      .dwattr $C$DW$168, DW_AT_type(*$C$DW$T$239)
     907                      .dwattr $C$DW$168, DW_AT_external
     908                      .global _gVdq_out_pu
     909 0000001e       _gVdq_out_pu:   .usect  ".ebss",4,1,1
     910              $C$DW$169       .dwtag  DW_TAG_variable, DW_AT_name("gVdq_out_pu")
     911                      .dwattr $C$DW$169, DW_AT_TI_symbol_name("_gVdq_out_pu")
     912                      .dwattr $C$DW$169, DW_AT_location[DW_OP_addr _gVdq_out_pu]
     913                      .dwattr $C$DW$169, DW_AT_type(*$C$DW$T$246)
     914                      .dwattr $C$DW$169, DW_AT_external
     915                      .global _gIdq_pu
     916 00000022       _gIdq_pu:       .usect  ".ebss",4,1,1
     917              $C$DW$170       .dwtag  DW_TAG_variable, DW_AT_name("gIdq_pu")
     918                      .dwattr $C$DW$170, DW_AT_TI_symbol_name("_gIdq_pu")
     919                      .dwattr $C$DW$170, DW_AT_location[DW_OP_addr _gIdq_pu]
     920                      .dwattr $C$DW$170, DW_AT_type(*$C$DW$T$246)
     921                      .dwattr $C$DW$170, DW_AT_external
TMS320C2000 Assembler PC v6.4.10 Mon Jul 11 12:58:57 2016

Tools Copyright (c) 1996-2015 Texas Instruments Incorporated
C:\Users\bee25\AppData\Local\Temp\0350410                            PAGE   19

     922                      .global _gIdq_ref_pu
     923 00000026       _gIdq_ref_pu:   .usect  ".ebss",4,1,1
     924              $C$DW$171       .dwtag  DW_TAG_variable, DW_AT_name("gIdq_ref_pu")
     925                      .dwattr $C$DW$171, DW_AT_TI_symbol_name("_gIdq_ref_pu")
     926                      .dwattr $C$DW$171, DW_AT_location[DW_OP_addr _gIdq_ref_pu]
     927                      .dwattr $C$DW$171, DW_AT_type(*$C$DW$T$246)
     928                      .dwattr $C$DW$171, DW_AT_external
     929                      .global _pidHandle
     930 0000002a       _pidHandle:     .usect  ".ebss",6,1,1
     931              $C$DW$172       .dwtag  DW_TAG_variable, DW_AT_name("pidHandle")
     932                      .dwattr $C$DW$172, DW_AT_TI_symbol_name("_pidHandle")
     933                      .dwattr $C$DW$172, DW_AT_location[DW_OP_addr _pidHandle]
     934                      .dwattr $C$DW$172, DW_AT_type(*$C$DW$T$265)
     935                      .dwattr $C$DW$172, DW_AT_external
     936                      .global _gOffsets_V_pu
     937 00000030       _gOffsets_V_pu: .usect  ".ebss",6,1,1
     938              $C$DW$173       .dwtag  DW_TAG_variable, DW_AT_name("gOffsets_V_pu")
     939                      .dwattr $C$DW$173, DW_AT_TI_symbol_name("_gOffsets_V_pu")
     940                      .dwattr $C$DW$173, DW_AT_location[DW_OP_addr _gOffsets_V_pu]
     941                      .dwattr $C$DW$173, DW_AT_type(*$C$DW$T$98)
     942                      .dwattr $C$DW$173, DW_AT_external
     943                      .global _clarke_I
     944 00000036       _clarke_I:      .usect  ".ebss",6,1,1
     945              $C$DW$174       .dwtag  DW_TAG_variable, DW_AT_name("clarke_I")
     946                      .dwattr $C$DW$174, DW_AT_TI_symbol_name("_clarke_I")
     947                      .dwattr $C$DW$174, DW_AT_location[DW_OP_addr _clarke_I]
     948                      .dwattr $C$DW$174, DW_AT_type(*$C$DW$T$209)
     949                      .dwattr $C$DW$174, DW_AT_external
     950                      .global _clarke_V
     951 00000040       _clarke_V:      .usect  ".ebss",6,1,1
     952              $C$DW$175       .dwtag  DW_TAG_variable, DW_AT_name("clarke_V")
     953                      .dwattr $C$DW$175, DW_AT_TI_symbol_name("_clarke_V")
     954                      .dwattr $C$DW$175, DW_AT_location[DW_OP_addr _clarke_V]
     955                      .dwattr $C$DW$175, DW_AT_type(*$C$DW$T$209)
     956                      .dwattr $C$DW$175, DW_AT_external
     957                      .global _gOffsets_I_pu
     958 00000046       _gOffsets_I_pu: .usect  ".ebss",6,1,1
     959              $C$DW$176       .dwtag  DW_TAG_variable, DW_AT_name("gOffsets_I_pu")
     960                      .dwattr $C$DW$176, DW_AT_TI_symbol_name("_gOffsets_I_pu")
     961                      .dwattr $C$DW$176, DW_AT_location[DW_OP_addr _gOffsets_I_pu]
     962                      .dwattr $C$DW$176, DW_AT_type(*$C$DW$T$98)
     963                      .dwattr $C$DW$176, DW_AT_external
     964                      .global _gPwmData
     965 0000004c       _gPwmData:      .usect  ".ebss",6,1,1
     966              $C$DW$177       .dwtag  DW_TAG_variable, DW_AT_name("gPwmData")
     967                      .dwattr $C$DW$177, DW_AT_TI_symbol_name("_gPwmData")
     968                      .dwattr $C$DW$177, DW_AT_location[DW_OP_addr _gPwmData]
     969                      .dwattr $C$DW$177, DW_AT_type(*$C$DW$T$236)
     970                      .dwattr $C$DW$177, DW_AT_external
     971                      .global _gAdcData
     972 00000052       _gAdcData:      .usect  ".ebss",16,1,1
     973              $C$DW$178       .dwtag  DW_TAG_variable, DW_AT_name("gAdcData")
     974                      .dwattr $C$DW$178, DW_AT_TI_symbol_name("_gAdcData")
     975                      .dwattr $C$DW$178, DW_AT_location[DW_OP_addr _gAdcData]
     976                      .dwattr $C$DW$178, DW_AT_type(*$C$DW$T$129)
TMS320C2000 Assembler PC v6.4.10 Mon Jul 11 12:58:57 2016

Tools Copyright (c) 1996-2015 Texas Instruments Incorporated
C:\Users\bee25\AppData\Local\Temp\0350410                            PAGE   20

     977                      .dwattr $C$DW$178, DW_AT_external
     978                      .global _gDrvSpi8301Vars
     979 00000062       _gDrvSpi8301Vars:       .usect  ".ebss",24,1,0
     980              $C$DW$179       .dwtag  DW_TAG_variable, DW_AT_name("gDrvSpi8301Vars")
     981                      .dwattr $C$DW$179, DW_AT_TI_symbol_name("_gDrvSpi8301Vars")
     982                      .dwattr $C$DW$179, DW_AT_location[DW_OP_addr _gDrvSpi8301Vars]
     983                      .dwattr $C$DW$179, DW_AT_type(*$C$DW$T$219)
     984                      .dwattr $C$DW$179, DW_AT_external
     985                      .global _pid
     986 00000080       _pid:   .usect  ".ebss",48,1,1
     987              $C$DW$180       .dwtag  DW_TAG_variable, DW_AT_name("pid")
     988                      .dwattr $C$DW$180, DW_AT_TI_symbol_name("_pid")
     989                      .dwattr $C$DW$180, DW_AT_location[DW_OP_addr _pid]
     990                      .dwattr $C$DW$180, DW_AT_type(*$C$DW$T$260)
     991                      .dwattr $C$DW$180, DW_AT_external
     992                      .global _gMotorVars
     993 000000c0       _gMotorVars:    .usect  ".ebss",104,1,1
     994              $C$DW$181       .dwtag  DW_TAG_variable, DW_AT_name("gMotorVars")
     995                      .dwattr $C$DW$181, DW_AT_TI_symbol_name("_gMotorVars")
     996                      .dwattr $C$DW$181, DW_AT_location[DW_OP_addr _gMotorVars]
     997                      .dwattr $C$DW$181, DW_AT_type(*$C$DW$T$256)
     998                      .dwattr $C$DW$181, DW_AT_external
     999                      .global _gUserParams
    1000 00000040       _gUserParams:   .usect  "rom_accessed_data",172,1,1
    1001              $C$DW$182       .dwtag  DW_TAG_variable, DW_AT_name("gUserParams")
    1002                      .dwattr $C$DW$182, DW_AT_TI_symbol_name("_gUserParams")
    1003                      .dwattr $C$DW$182, DW_AT_location[DW_OP_addr _gUserParams]
    1004                      .dwattr $C$DW$182, DW_AT_type(*$C$DW$T$194)
    1005                      .dwattr $C$DW$182, DW_AT_external
    1006              $C$DW$183       .dwtag  DW_TAG_variable, DW_AT_name("hal")
    1007                      .dwattr $C$DW$183, DW_AT_TI_symbol_name("_hal")
    1008                      .dwattr $C$DW$183, DW_AT_type(*$C$DW$T$229)
    1009                      .dwattr $C$DW$183, DW_AT_declaration
    1010                      .dwattr $C$DW$183, DW_AT_external
    1011              ;       C:\ti\ccsv6\tools\compiler\ti-cgt-c2000_6.4.10\bin\opt2000.exe C:\\Users\\bee25\\AppData\\Local\\Temp
    1012              ;       C:\ti\ccsv6\tools\compiler\ti-cgt-c2000_6.4.10\bin\ac2000.exe -@C:\\Users\\bee25\\AppData\\Local\\Tem
    1013 00000000               .sect   ".text"
    1014                      .clink
    1015                      .global _updateGlobalVariables
    1016              
    1017              $C$DW$184       .dwtag  DW_TAG_subprogram, DW_AT_name("updateGlobalVariables")
    1018                      .dwattr $C$DW$184, DW_AT_low_pc(_updateGlobalVariables)
    1019                      .dwattr $C$DW$184, DW_AT_high_pc(0x00)
    1020                      .dwattr $C$DW$184, DW_AT_TI_symbol_name("_updateGlobalVariables")
    1021                      .dwattr $C$DW$184, DW_AT_external
    1022                      .dwattr $C$DW$184, DW_AT_TI_begin_file("C:/ti/motorware/motorware_1_01_00_16/sw/solutions/instaspin_f
    1023                      .dwattr $C$DW$184, DW_AT_TI_begin_line(0x334)
    1024                      .dwattr $C$DW$184, DW_AT_TI_begin_column(0x06)
    1025                      .dwattr $C$DW$184, DW_AT_TI_max_frame_size(-12)
    1026                      .dwpsn  file "C:/ti/motorware/motorware_1_01_00_16/sw/solutions/instaspin_foc/src/proj_lab11.c",line 
    1027              
    1028                      .dwfde $C$DW$CIE, _updateGlobalVariables
    1029              $C$DW$185       .dwtag  DW_TAG_formal_parameter, DW_AT_name("handle")
    1030                      .dwattr $C$DW$185, DW_AT_TI_symbol_name("_handle")
    1031                      .dwattr $C$DW$185, DW_AT_type(*$C$DW$T$190)
TMS320C2000 Assembler PC v6.4.10 Mon Jul 11 12:58:57 2016

Tools Copyright (c) 1996-2015 Texas Instruments Incorporated
C:\Users\bee25\AppData\Local\Temp\0350410                            PAGE   21

    1032                      .dwattr $C$DW$185, DW_AT_location[DW_OP_reg12]
    1033              
    1034              ;***************************************************************
    1035              ;* FNAME: _updateGlobalVariables        FR SIZE:  10           *
    1036              ;*                                                             *
    1037              ;* FUNCTION ENVIRONMENT                                        *
    1038              ;*                                                             *
    1039              ;* FUNCTION PROPERTIES                                         *
    1040              ;*                            0 Parameter,  4 Auto,  6 SOE     *
    1041              ;***************************************************************
    1042              
    1043              _updateGlobalVariables:
    1044              ;* AR4   assigned to $O$C1
    1045              ;* AR4   assigned to $O$C2
    1046              ;* AR5   assigned to $O$C3
    1047              ;* AR1   assigned to _handle
    1048              $C$DW$186       .dwtag  DW_TAG_variable, DW_AT_name("handle")
    1049                      .dwattr $C$DW$186, DW_AT_TI_symbol_name("_handle")
    1050                      .dwattr $C$DW$186, DW_AT_type(*$C$DW$T$222)
    1051                      .dwattr $C$DW$186, DW_AT_location[DW_OP_reg6]
    1052              $C$DW$187       .dwtag  DW_TAG_variable, DW_AT_name("Flux_pu")
    1053                      .dwattr $C$DW$187, DW_AT_TI_symbol_name("_Flux_pu")
    1054                      .dwattr $C$DW$187, DW_AT_type(*$C$DW$T$47)
    1055                      .dwattr $C$DW$187, DW_AT_location[DW_OP_breg20 -2]
    1056              ;* AR3   assigned to _Id_pu
    1057              $C$DW$188       .dwtag  DW_TAG_variable, DW_AT_name("Id_pu")
    1058                      .dwattr $C$DW$188, DW_AT_TI_symbol_name("_Id_pu")
    1059                      .dwattr $C$DW$188, DW_AT_type(*$C$DW$T$47)
    1060                      .dwattr $C$DW$188, DW_AT_location[DW_OP_reg10]
    1061              ;* AR2   assigned to _Iq_pu
    1062              $C$DW$189       .dwtag  DW_TAG_variable, DW_AT_name("Iq_pu")
    1063                      .dwattr $C$DW$189, DW_AT_TI_symbol_name("_Iq_pu")
    1064                      .dwattr $C$DW$189, DW_AT_type(*$C$DW$T$47)
    1065                      .dwattr $C$DW$189, DW_AT_location[DW_OP_reg8]
    1066              ;* AR7   assigned to _Ld_minus_Lq_pu
    1067              $C$DW$190       .dwtag  DW_TAG_variable, DW_AT_name("Ld_minus_Lq_pu")
    1068                      .dwattr $C$DW$190, DW_AT_TI_symbol_name("_Ld_minus_Lq_pu")
    1069                      .dwattr $C$DW$190, DW_AT_type(*$C$DW$T$47)
    1070                      .dwattr $C$DW$190, DW_AT_location[DW_OP_reg18]
    1071                      .dwcfi  cfa_offset, -2
    1072                      .dwcfi  save_reg_to_mem, 26, 0
    1073 00000000 B2BD          MOVL      *SP++,XAR1            ; [CPU_] 
    1074                      .dwcfi  save_reg_to_mem, 7, 2
    1075                      .dwcfi  cfa_offset, -4
    1076 00000001 AABD          MOVL      *SP++,XAR2            ; [CPU_] 
    1077                      .dwcfi  save_reg_to_mem, 9, 4
    1078                      .dwcfi  cfa_offset, -6
    1079 00000002 A2BD          MOVL      *SP++,XAR3            ; [CPU_] 
    1080                      .dwcfi  save_reg_to_mem, 11, 6
    1081                      .dwcfi  cfa_offset, -8
    1082 00000003 FE04          ADDB      SP,#4                 ; [CPU_U] 
    1083                      .dwcfi  cfa_offset, -12
    1084 00000004 8BA4          MOVL      XAR1,XAR4             ; [CPU_] |821| 
    1085                      .dwpsn  file "C:/ti/motorware/motorware_1_01_00_16/sw/solutions/instaspin_foc/src/proj_lab11.c",line 
    1086              $C$DW$191       .dwtag  DW_TAG_TI_branch
TMS320C2000 Assembler PC v6.4.10 Mon Jul 11 12:58:57 2016

Tools Copyright (c) 1996-2015 Texas Instruments Incorporated
C:\Users\bee25\AppData\Local\Temp\0350410                            PAGE   22

    1087                      .dwattr $C$DW$191, DW_AT_low_pc(0x00)
    1088                      .dwattr $C$DW$191, DW_AT_name("_EST_getSpeed_krpm")
    1089                      .dwattr $C$DW$191, DW_AT_TI_call
    1090 00000005 7640!         LCR       #_EST_getSpeed_krpm   ; [CPU_] |823| 
         00000006 0000 
    1091                      ; call occurs [#_EST_getSpeed_krpm] ; [] |823| 
    1092 00000007 761F-         MOVW      DP,#_gMotorVars+30    ; [CPU_U] 
         00000008 0003 
    1093 00000009 1E1E-         MOVL      @_gMotorVars+30,ACC   ; [CPU_] |823| 
    1094                      .dwpsn  file "C:/ti/motorware/motorware_1_01_00_16/sw/solutions/instaspin_foc/src/proj_lab11.c",line 
    1095 0000000a 8AA1          MOVL      XAR4,XAR1             ; [CPU_] |827| 
    1096              $C$DW$192       .dwtag  DW_TAG_TI_branch
    1097                      .dwattr $C$DW$192, DW_AT_low_pc(0x00)
    1098                      .dwattr $C$DW$192, DW_AT_name("_EST_getFlux_pu")
    1099                      .dwattr $C$DW$192, DW_AT_TI_call
    1100 0000000b 7640!         LCR       #_EST_getFlux_pu      ; [CPU_] |827| 
         0000000c 0000 
    1101                      ; call occurs [#_EST_getFlux_pu] ; [] |827| 
    1102                      .dwpsn  file "C:/ti/motorware/motorware_1_01_00_16/sw/modules/pid/src/32b/pid.h",line 106,column 3,is
    1103 0000000d 8F40-         MOVL      XAR5,#_pidHandle      ; [CPU_U] |106| 
         0000000e 002A 
    1104                      .dwpsn  file "C:/ti/motorware/motorware_1_01_00_16/sw/solutions/instaspin_foc/src/proj_lab11.c",line 
    1105 0000000f 1E42          MOVL      *-SP[2],ACC           ; [CPU_] |827| 
    1106                      .dwpsn  file "C:/ti/motorware/motorware_1_01_00_16/sw/modules/pid/src/32b/pid.h",line 106,column 3,is
    1107 00000010 020A          MOVB      ACC,#10               ; [CPU_] |106| 
    1108 00000011 07D5          ADDL      ACC,*+XAR5[2]         ; [CPU_] |106| 
    1109 00000012 8AA9          MOVL      XAR4,ACC              ; [CPU_] |106| 
    1110 00000013 020A          MOVB      ACC,#10               ; [CPU_] |106| 
    1111 00000014 82C4          MOVL      XAR3,*+XAR4[0]        ; [CPU_] |106| 
    1112 00000015 07E5          ADDL      ACC,*+XAR5[4]         ; [CPU_] |106| 
    1113 00000016 8AA9          MOVL      XAR4,ACC              ; [CPU_] |106| 
    1114 00000017 86C4          MOVL      XAR2,*+XAR4[0]        ; [CPU_] |106| 
    1115                      .dwpsn  file "C:/ti/motorware/motorware_1_01_00_16/sw/solutions/instaspin_foc/src/proj_lab11.c",line 
    1116 00000018 8AA1          MOVL      XAR4,XAR1             ; [CPU_] |830| 
    1117              $C$DW$193       .dwtag  DW_TAG_TI_branch
    1118                      .dwattr $C$DW$193, DW_AT_low_pc(0x00)
    1119                      .dwattr $C$DW$193, DW_AT_name("_EST_getLs_q_pu")
    1120                      .dwattr $C$DW$193, DW_AT_TI_call
    1121 00000019 7640!         LCR       #_EST_getLs_q_pu      ; [CPU_] |830| 
         0000001a 0000 
    1122                      ; call occurs [#_EST_getLs_q_pu] ; [] |830| 
    1123 0000001b 1E44          MOVL      *-SP[4],ACC           ; [CPU_] |830| 
    1124 0000001c 8AA1          MOVL      XAR4,XAR1             ; [CPU_] |830| 
    1125              $C$DW$194       .dwtag  DW_TAG_TI_branch
    1126                      .dwattr $C$DW$194, DW_AT_low_pc(0x00)
    1127                      .dwattr $C$DW$194, DW_AT_name("_EST_getLs_d_pu")
    1128                      .dwattr $C$DW$194, DW_AT_TI_call
    1129 0000001d 7640!         LCR       #_EST_getLs_d_pu      ; [CPU_] |830| 
         0000001e 0000 
    1130                      ; call occurs [#_EST_getLs_d_pu] ; [] |830| 
    1131 0000001f C444          MOVL      XAR6,*-SP[4]          ; [CPU_] |830| 
    1132 00000020 3B01          SETC      SXM                   ; [CPU_] 
    1133 00000021 8742          MOVL      XT,*-SP[2]            ; [CPU_] |830| 
    1134 00000022 761F-         MOVW      DP,#_gTorque_Flux_Iq_pu_to_Nm_sf ; [CPU_U] 
         00000023 0000 
TMS320C2000 Assembler PC v6.4.10 Mon Jul 11 12:58:57 2016

Tools Copyright (c) 1996-2015 Texas Instruments Incorporated
C:\Users\bee25\AppData\Local\Temp\0350410                            PAGE   23

    1135 00000024 03A6          SUBL      ACC,XAR6              ; [CPU_] |830| 
    1136                      .dwpsn  file "C:/ti/motorware/motorware_1_01_00_16/sw/solutions/instaspin_foc/src/proj_lab11.c",line 
    1137 00000025 5605          IMPYL     P,XT,XAR2             ; [CPU_] |844| 
         00000026 00A2 
    1138                      .dwpsn  file "C:/ti/motorware/motorware_1_01_00_16/sw/solutions/instaspin_foc/src/proj_lab11.c",line 
    1139 00000027 8AA1          MOVL      XAR4,XAR1             ; [CPU_] |848| 
    1140                      .dwpsn  file "C:/ti/motorware/motorware_1_01_00_16/sw/solutions/instaspin_foc/src/proj_lab11.c",line 
    1141 00000028 FF45          SFR       ACC,6                 ; [CPU_] |830| 
    1142 00000029 1EA7          MOVL      XAR7,ACC              ; [CPU_] |830| 
    1143                      .dwpsn  file "C:/ti/motorware/motorware_1_01_00_16/sw/solutions/instaspin_foc/src/proj_lab11.c",line 
    1144 0000002a 5663          QMPYL     ACC,XT,XAR2           ; [CPU_] |844| 
         0000002b 00A2 
    1145 0000002c 56A7          LSL64     ACC:P,#8              ; [CPU_] |844| 
    1146 0000002d 1EAC          MOVL      XT,ACC                ; [CPU_] |844| 
    1147 0000002e 5605-         IMPYL     P,XT,@_gTorque_Flux_Iq_pu_to_Nm_sf ; [CPU_] |844| 
         0000002f 0018 
    1148 00000030 5663-         QMPYL     ACC,XT,@_gTorque_Flux_Iq_pu_to_Nm_sf ; [CPU_] |844| 
         00000031 0018 
    1149 00000032 56A7          LSL64     ACC:P,#8              ; [CPU_] |844| 
    1150 00000033 87A7          MOVL      XT,XAR7               ; [CPU_] |844| 
    1151 00000034 1EA6          MOVL      XAR6,ACC              ; [CPU_] |844| 
    1152 00000035 5605          IMPYL     P,XT,XAR3             ; [CPU_] |844| 
         00000036 00A3 
    1153 00000037 5663          QMPYL     ACC,XT,XAR3           ; [CPU_] |844| 
         00000038 00A3 
    1154 00000039 56A7          LSL64     ACC:P,#8              ; [CPU_] |844| 
    1155 0000003a 1EAC          MOVL      XT,ACC                ; [CPU_] |844| 
    1156 0000003b 5605          IMPYL     P,XT,XAR2             ; [CPU_] |844| 
         0000003c 00A2 
    1157 0000003d 5663          QMPYL     ACC,XT,XAR2           ; [CPU_] |844| 
         0000003e 00A2 
    1158 0000003f 56A7          LSL64     ACC:P,#8              ; [CPU_] |844| 
    1159 00000040 1EAC          MOVL      XT,ACC                ; [CPU_] |844| 
    1160 00000041 5605-         IMPYL     P,XT,@_gTorque_Ls_Id_Iq_pu_to_Nm_sf ; [CPU_] |844| 
         00000042 0016 
    1161 00000043 5663-         QMPYL     ACC,XT,@_gTorque_Ls_Id_Iq_pu_to_Nm_sf ; [CPU_] |844| 
         00000044 0016 
    1162 00000045 761F-         MOVW      DP,#_gMotorVars+40    ; [CPU_U] 
         00000046 0003 
    1163 00000047 56A7          LSL64     ACC:P,#8              ; [CPU_] |844| 
    1164 00000048 07A6          ADDL      ACC,XAR6              ; [CPU_] |844| 
    1165 00000049 1E28-         MOVL      @_gMotorVars+40,ACC   ; [CPU_] |844| 
    1166                      .dwpsn  file "C:/ti/motorware/motorware_1_01_00_16/sw/solutions/instaspin_foc/src/proj_lab11.c",line 
    1167              $C$DW$195       .dwtag  DW_TAG_TI_branch
    1168                      .dwattr $C$DW$195, DW_AT_low_pc(0x00)
    1169                      .dwattr $C$DW$195, DW_AT_name("_EST_getIdRated")
    1170                      .dwattr $C$DW$195, DW_AT_TI_call
    1171 0000004a 7640!         LCR       #_EST_getIdRated      ; [CPU_] |848| 
         0000004b 0000 
    1172                      ; call occurs [#_EST_getIdRated] ; [] |848| 
    1173 0000004c 761F-         MOVW      DP,#_gMotorVars+42    ; [CPU_U] 
         0000004d 0003 
    1174 0000004e 1E2A-         MOVL      @_gMotorVars+42,ACC   ; [CPU_] |848| 
    1175                      .dwpsn  file "C:/ti/motorware/motorware_1_01_00_16/sw/solutions/instaspin_foc/src/proj_lab11.c",line 
    1176 0000004f 8AA1          MOVL      XAR4,XAR1             ; [CPU_] |851| 
TMS320C2000 Assembler PC v6.4.10 Mon Jul 11 12:58:57 2016

Tools Copyright (c) 1996-2015 Texas Instruments Incorporated
C:\Users\bee25\AppData\Local\Temp\0350410                            PAGE   24

    1177              $C$DW$196       .dwtag  DW_TAG_TI_branch
    1178                      .dwattr $C$DW$196, DW_AT_low_pc(0x00)
    1179                      .dwattr $C$DW$196, DW_AT_name("_EST_getRr_Ohm")
    1180                      .dwattr $C$DW$196, DW_AT_TI_call
    1181 00000050 7640!         LCR       #_EST_getRr_Ohm       ; [CPU_] |851| 
         00000051 0000 
    1182                      ; call occurs [#_EST_getRr_Ohm] ; [] |851| 
    1183 00000052 761F-         MOVW      DP,#_gMotorVars+44    ; [CPU_U] 
         00000053 0003 
    1184 00000054 1E2C-         MOVL      @_gMotorVars+44,ACC   ; [CPU_] |851| 
    1185                      .dwpsn  file "C:/ti/motorware/motorware_1_01_00_16/sw/solutions/instaspin_foc/src/proj_lab11.c",line 
    1186 00000055 8AA1          MOVL      XAR4,XAR1             ; [CPU_] |854| 
    1187              $C$DW$197       .dwtag  DW_TAG_TI_branch
    1188                      .dwattr $C$DW$197, DW_AT_low_pc(0x00)
    1189                      .dwattr $C$DW$197, DW_AT_name("_EST_getRs_Ohm")
    1190                      .dwattr $C$DW$197, DW_AT_TI_call
    1191 00000056 7640!         LCR       #_EST_getRs_Ohm       ; [CPU_] |854| 
         00000057 0000 
    1192                      ; call occurs [#_EST_getRs_Ohm] ; [] |854| 
    1193 00000058 761F-         MOVW      DP,#_gMotorVars+46    ; [CPU_U] 
         00000059 0003 
    1194 0000005a 1E2E-         MOVL      @_gMotorVars+46,ACC   ; [CPU_] |854| 
    1195                      .dwpsn  file "C:/ti/motorware/motorware_1_01_00_16/sw/solutions/instaspin_foc/src/proj_lab11.c",line 
    1196 0000005b 8AA1          MOVL      XAR4,XAR1             ; [CPU_] |857| 
    1197              $C$DW$198       .dwtag  DW_TAG_TI_branch
    1198                      .dwattr $C$DW$198, DW_AT_low_pc(0x00)
    1199                      .dwattr $C$DW$198, DW_AT_name("_EST_getLs_d_H")
    1200                      .dwattr $C$DW$198, DW_AT_TI_call
    1201 0000005c 7640!         LCR       #_EST_getLs_d_H       ; [CPU_] |857| 
         0000005d 0000 
    1202                      ; call occurs [#_EST_getLs_d_H] ; [] |857| 
    1203 0000005e 761F-         MOVW      DP,#_gMotorVars+50    ; [CPU_U] 
         0000005f 0003 
    1204 00000060 1E32-         MOVL      @_gMotorVars+50,ACC   ; [CPU_] |857| 
    1205                      .dwpsn  file "C:/ti/motorware/motorware_1_01_00_16/sw/solutions/instaspin_foc/src/proj_lab11.c",line 
    1206 00000061 8AA1          MOVL      XAR4,XAR1             ; [CPU_] |860| 
    1207              $C$DW$199       .dwtag  DW_TAG_TI_branch
    1208                      .dwattr $C$DW$199, DW_AT_low_pc(0x00)
    1209                      .dwattr $C$DW$199, DW_AT_name("_EST_getLs_q_H")
    1210                      .dwattr $C$DW$199, DW_AT_TI_call
    1211 00000062 7640!         LCR       #_EST_getLs_q_H       ; [CPU_] |860| 
         00000063 0000 
    1212                      ; call occurs [#_EST_getLs_q_H] ; [] |860| 
    1213 00000064 761F-         MOVW      DP,#_gMotorVars+52    ; [CPU_U] 
         00000065 0003 
    1214 00000066 1E34-         MOVL      @_gMotorVars+52,ACC   ; [CPU_] |860| 
    1215                      .dwpsn  file "C:/ti/motorware/motorware_1_01_00_16/sw/solutions/instaspin_foc/src/proj_lab11.c",line 
    1216 00000067 8AA1          MOVL      XAR4,XAR1             ; [CPU_] |863| 
    1217              $C$DW$200       .dwtag  DW_TAG_TI_branch
    1218                      .dwattr $C$DW$200, DW_AT_low_pc(0x00)
    1219                      .dwattr $C$DW$200, DW_AT_name("_EST_getFlux_VpHz")
    1220                      .dwattr $C$DW$200, DW_AT_TI_call
    1221 00000068 7640!         LCR       #_EST_getFlux_VpHz    ; [CPU_] |863| 
         00000069 0000 
    1222                      ; call occurs [#_EST_getFlux_VpHz] ; [] |863| 
TMS320C2000 Assembler PC v6.4.10 Mon Jul 11 12:58:57 2016

Tools Copyright (c) 1996-2015 Texas Instruments Incorporated
C:\Users\bee25\AppData\Local\Temp\0350410                            PAGE   25

    1223 0000006a 761F-         MOVW      DP,#_gMotorVars+54    ; [CPU_U] 
         0000006b 0003 
    1224 0000006c 1E36-         MOVL      @_gMotorVars+54,ACC   ; [CPU_] |863| 
    1225                      .dwpsn  file "C:/ti/motorware/motorware_1_01_00_16/sw/solutions/instaspin_foc/src/proj_lab11.c",line 
    1226 0000006d 8AA1          MOVL      XAR4,XAR1             ; [CPU_] |866| 
    1227              $C$DW$201       .dwtag  DW_TAG_TI_branch
    1228                      .dwattr $C$DW$201, DW_AT_low_pc(0x00)
    1229                      .dwattr $C$DW$201, DW_AT_name("_EST_getFlux_pu")
    1230                      .dwattr $C$DW$201, DW_AT_TI_call
    1231 0000006e 7640!         LCR       #_EST_getFlux_pu      ; [CPU_] |866| 
         0000006f 0000 
    1232                      ; call occurs [#_EST_getFlux_pu] ; [] |866| 
    1233 00000070 1EAC          MOVL      XT,ACC                ; [CPU_] |866| 
    1234 00000071 761F-         MOVW      DP,#_gFlux_pu_to_Wb_sf ; [CPU_U] 
         00000072 0000 
    1235                      .dwpsn  file "C:/ti/motorware/motorware_1_01_00_16/sw/solutions/instaspin_foc/src/proj_lab11.c",line 
    1236 00000073 8AA1          MOVL      XAR4,XAR1             ; [CPU_] |869| 
    1237                      .dwpsn  file "C:/ti/motorware/motorware_1_01_00_16/sw/solutions/instaspin_foc/src/proj_lab11.c",line 
    1238 00000074 5605-         IMPYL     P,XT,@_gFlux_pu_to_Wb_sf ; [CPU_] |866| 
         00000075 000E 
    1239 00000076 5663-         QMPYL     ACC,XT,@_gFlux_pu_to_Wb_sf ; [CPU_] |866| 
         00000077 000E 
    1240 00000078 761F-         MOVW      DP,#_gMotorVars+38    ; [CPU_U] 
         00000079 0003 
    1241 0000007a 56A7          LSL64     ACC:P,#8              ; [CPU_] |866| 
    1242 0000007b 1E26-         MOVL      @_gMotorVars+38,ACC   ; [CPU_] |866| 
    1243                      .dwpsn  file "C:/ti/motorware/motorware_1_01_00_16/sw/solutions/instaspin_foc/src/proj_lab11.c",line 
    1244              $C$DW$202       .dwtag  DW_TAG_TI_branch
    1245                      .dwattr $C$DW$202, DW_AT_low_pc(0x00)
    1246                      .dwattr $C$DW$202, DW_AT_name("_EST_getState")
    1247                      .dwattr $C$DW$202, DW_AT_TI_call
    1248 0000007c 7640!         LCR       #_EST_getState        ; [CPU_] |869| 
         0000007d 0000 
    1249                      ; call occurs [#_EST_getState] ; [] |869| 
    1250 0000007e 761F-         MOVW      DP,#_gMotorVars+11    ; [CPU_U] 
         0000007f 0003 
    1251                      .dwpsn  file "C:/ti/motorware/motorware_1_01_00_16/sw/solutions/instaspin_foc/src/proj_lab11.c",line 
    1252 00000080 8F27          MOVL      XAR4,#2583691         ; [CPU_U] |872| 
         00000081 6C8B 
    1253                      .dwpsn  file "C:/ti/motorware/motorware_1_01_00_16/sw/solutions/instaspin_foc/src/proj_lab11.c",line 
    1254 00000082 960B-         MOV       @_gMotorVars+11,AL    ; [CPU_] |869| 
    1255 00000083 761F-         MOVW      DP,#_gAdcData+12      ; [CPU_U] 
         00000084 0001 
    1256                      .dwpsn  file "C:/ti/motorware/motorware_1_01_00_16/sw/solutions/instaspin_foc/src/proj_lab11.c",line 
    1257 00000085 871E-         MOVL      XT,@_gAdcData+12      ; [CPU_] |872| 
    1258 00000086 761F-         MOVW      DP,#_gMotorVars+84    ; [CPU_U] 
         00000087 0004 
    1259 00000088 5663          QMPYL     ACC,XT,XAR4           ; [CPU_] |872| 
         00000089 00A4 
    1260 0000008a 5605          IMPYL     P,XT,XAR4             ; [CPU_] |872| 
         0000008b 00A4 
    1261                      .dwpsn  file "C:/ti/motorware/motorware_1_01_00_16/sw/solutions/instaspin_foc/src/proj_lab11.c",line 
    1262 0000008c 8F00-         MOVL      XAR4,#_gVdq_out_pu    ; [CPU_U] |876| 
         0000008d 001E 
    1263                      .dwpsn  file "C:/ti/motorware/motorware_1_01_00_16/sw/solutions/instaspin_foc/src/proj_lab11.c",line 
TMS320C2000 Assembler PC v6.4.10 Mon Jul 11 12:58:57 2016

Tools Copyright (c) 1996-2015 Texas Instruments Incorporated
C:\Users\bee25\AppData\Local\Temp\0350410                            PAGE   26

    1264 0000008e 56A7          LSL64     ACC:P,#8              ; [CPU_] |872| 
    1265 0000008f 1E14-         MOVL      @_gMotorVars+84,ACC   ; [CPU_] |872| 
    1266                      .dwpsn  file "C:/ti/motorware/motorware_1_01_00_16/sw/solutions/instaspin_foc/src/proj_lab11.c",line 
    1267 00000090 06C4          MOVL      ACC,*+XAR4[0]         ; [CPU_] |876| 
    1268 00000091 1E0C-         MOVL      @_gMotorVars+76,ACC   ; [CPU_] |876| 
    1269                      .dwpsn  file "C:/ti/motorware/motorware_1_01_00_16/sw/solutions/instaspin_foc/src/proj_lab11.c",line 
    1270 00000092 06D4          MOVL      ACC,*+XAR4[2]         ; [CPU_] |877| 
    1271 00000093 1E0E-         MOVL      @_gMotorVars+78,ACC   ; [CPU_] |877| 
    1272                      .dwpsn  file "C:/ti/motorware/motorware_1_01_00_16/sw/solutions/instaspin_foc/src/proj_lab11.c",line 
    1273 00000094 870C-         MOVL      XT,@_gMotorVars+76    ; [CPU_] |880| 
    1274 00000095 5605-         IMPYL     P,XT,@_gMotorVars+76  ; [CPU_] |880| 
         00000096 000C 
    1275 00000097 5663-         QMPYL     ACC,XT,@_gMotorVars+76 ; [CPU_] |880| 
         00000098 000C 
    1276 00000099 56A7          LSL64     ACC:P,#8              ; [CPU_] |880| 
    1277 0000009a 1EA6          MOVL      XAR6,ACC              ; [CPU_] |880| 
    1278 0000009b 870E-         MOVL      XT,@_gMotorVars+78    ; [CPU_] |880| 
    1279 0000009c 5605-         IMPYL     P,XT,@_gMotorVars+78  ; [CPU_] |880| 
         0000009d 000E 
    1280 0000009e 5663-         QMPYL     ACC,XT,@_gMotorVars+78 ; [CPU_] |880| 
         0000009f 000E 
    1281 000000a0 56A7          LSL64     ACC:P,#8              ; [CPU_] |880| 
    1282 000000a1 07A6          ADDL      ACC,XAR6              ; [CPU_] |880| 
    1283              $C$DW$203       .dwtag  DW_TAG_TI_branch
    1284                      .dwattr $C$DW$203, DW_AT_low_pc(0x00)
    1285                      .dwattr $C$DW$203, DW_AT_name("__IQ24sqrt")
    1286                      .dwattr $C$DW$203, DW_AT_TI_call
    1287 000000a2 7640!         LCR       #__IQ24sqrt           ; [CPU_] |880| 
         000000a3 0000 
    1288                      ; call occurs [#__IQ24sqrt] ; [] |880| 
    1289 000000a4 761F-         MOVW      DP,#_gMotorVars+80    ; [CPU_U] 
         000000a5 0004 
    1290                      .dwpsn  file "C:/ti/motorware/motorware_1_01_00_16/sw/solutions/instaspin_foc/src/proj_lab11.c",line 
    1291 000000a6 8F00-         MOVL      XAR4,#_gIdq_pu        ; [CPU_U] |884| 
         000000a7 0022 
    1292                      .dwpsn  file "C:/ti/motorware/motorware_1_01_00_16/sw/solutions/instaspin_foc/src/proj_lab11.c",line 
    1293 000000a8 1E10-         MOVL      @_gMotorVars+80,ACC   ; [CPU_] |880| 
    1294                      .dwpsn  file "C:/ti/motorware/motorware_1_01_00_16/sw/solutions/instaspin_foc/src/proj_lab11.c",line 
    1295 000000a9 FF2F          MOV       ACC,#10240 << 15      ; [CPU_] |884| 
         000000aa 2800 
    1296 000000ab 87C4          MOVL      XT,*+XAR4[0]          ; [CPU_] |884| 
    1297 000000ac 5605          IMPYL     P,XT,ACC              ; [CPU_] |884| 
         000000ad 00A9 
    1298 000000ae 5663          QMPYL     ACC,XT,ACC            ; [CPU_] |884| 
         000000af 00A9 
    1299 000000b0 56A7          LSL64     ACC:P,#8              ; [CPU_] |884| 
    1300 000000b1 1E16-         MOVL      @_gMotorVars+86,ACC   ; [CPU_] |884| 
    1301                      .dwpsn  file "C:/ti/motorware/motorware_1_01_00_16/sw/solutions/instaspin_foc/src/proj_lab11.c",line 
    1302 000000b2 FF2F          MOV       ACC,#10240 << 15      ; [CPU_] |886| 
         000000b3 2800 
    1303 000000b4 87D4          MOVL      XT,*+XAR4[2]          ; [CPU_] |886| 
    1304 000000b5 5605          IMPYL     P,XT,ACC              ; [CPU_] |886| 
         000000b6 00A9 
    1305 000000b7 5663          QMPYL     ACC,XT,ACC            ; [CPU_] |886| 
         000000b8 00A9 
TMS320C2000 Assembler PC v6.4.10 Mon Jul 11 12:58:57 2016

Tools Copyright (c) 1996-2015 Texas Instruments Incorporated
C:\Users\bee25\AppData\Local\Temp\0350410                            PAGE   27

    1306 000000b9 56A7          LSL64     ACC:P,#8              ; [CPU_] |886| 
    1307 000000ba 1E18-         MOVL      @_gMotorVars+88,ACC   ; [CPU_] |886| 
    1308                      .dwpsn  file "C:/ti/motorware/motorware_1_01_00_16/sw/solutions/instaspin_foc/src/proj_lab11.c",line 
    1309 000000bb 8716-         MOVL      XT,@_gMotorVars+86    ; [CPU_] |890| 
    1310 000000bc 5605-         IMPYL     P,XT,@_gMotorVars+86  ; [CPU_] |890| 
         000000bd 0016 
    1311 000000be 5663-         QMPYL     ACC,XT,@_gMotorVars+86 ; [CPU_] |890| 
         000000bf 0016 
    1312 000000c0 56A7          LSL64     ACC:P,#8              ; [CPU_] |890| 
    1313 000000c1 8718-         MOVL      XT,@_gMotorVars+88    ; [CPU_] |890| 
    1314 000000c2 1EA6          MOVL      XAR6,ACC              ; [CPU_] |890| 
    1315 000000c3 5605-         IMPYL     P,XT,@_gMotorVars+88  ; [CPU_] |890| 
         000000c4 0018 
    1316 000000c5 5663-         QMPYL     ACC,XT,@_gMotorVars+88 ; [CPU_] |890| 
         000000c6 0018 
    1317 000000c7 56A7          LSL64     ACC:P,#8              ; [CPU_] |890| 
    1318 000000c8 07A6          ADDL      ACC,XAR6              ; [CPU_] |890| 
    1319              $C$DW$204       .dwtag  DW_TAG_TI_branch
    1320                      .dwattr $C$DW$204, DW_AT_low_pc(0x00)
    1321                      .dwattr $C$DW$204, DW_AT_name("__IQ24sqrt")
    1322                      .dwattr $C$DW$204, DW_AT_TI_call
    1323 000000c9 7640!         LCR       #__IQ24sqrt           ; [CPU_] |890| 
         000000ca 0000 
    1324                      ; call occurs [#__IQ24sqrt] ; [] |890| 
    1325 000000cb FE84          SUBB      SP,#4                 ; [CPU_U] 
    1326                      .dwcfi  cfa_offset, -8
    1327 000000cc 82BE          MOVL      XAR3,*--SP            ; [CPU_] 
    1328                      .dwcfi  cfa_offset, -6
    1329                      .dwcfi  restore_reg, 11
    1330 000000cd 86BE          MOVL      XAR2,*--SP            ; [CPU_] 
    1331                      .dwcfi  cfa_offset, -4
    1332                      .dwcfi  restore_reg, 9
    1333 000000ce 8BBE          MOVL      XAR1,*--SP            ; [CPU_] 
    1334                      .dwcfi  cfa_offset, -2
    1335                      .dwcfi  restore_reg, 7
    1336 000000cf 761F-         MOVW      DP,#_gMotorVars+90    ; [CPU_U] 
         000000d0 0004 
    1337 000000d1 1E1A-         MOVL      @_gMotorVars+90,ACC   ; [CPU_] |890| 
    1338              $C$DW$205       .dwtag  DW_TAG_TI_branch
    1339                      .dwattr $C$DW$205, DW_AT_low_pc(0x00)
    1340                      .dwattr $C$DW$205, DW_AT_TI_return
    1341 000000d2 0006          LRETR     ; [CPU_] 
    1342                      ; return occurs ; [] 
    1343                      .dwattr $C$DW$184, DW_AT_TI_end_file("C:/ti/motorware/motorware_1_01_00_16/sw/solutions/instaspin_foc
    1344                      .dwattr $C$DW$184, DW_AT_TI_end_line(0x37e)
    1345                      .dwattr $C$DW$184, DW_AT_TI_end_column(0x01)
    1346                      .dwendentry
    1347                      .dwendtag $C$DW$184
    1348              
    1349 000000d3               .sect   ".text"
    1350                      .clink
    1351                      .global _softwareUpdate1p6
    1352              
    1353              $C$DW$206       .dwtag  DW_TAG_subprogram, DW_AT_name("softwareUpdate1p6")
    1354                      .dwattr $C$DW$206, DW_AT_low_pc(_softwareUpdate1p6)
TMS320C2000 Assembler PC v6.4.10 Mon Jul 11 12:58:57 2016

Tools Copyright (c) 1996-2015 Texas Instruments Incorporated
C:\Users\bee25\AppData\Local\Temp\0350410                            PAGE   28

    1355                      .dwattr $C$DW$206, DW_AT_high_pc(0x00)
    1356                      .dwattr $C$DW$206, DW_AT_TI_symbol_name("_softwareUpdate1p6")
    1357                      .dwattr $C$DW$206, DW_AT_external
    1358                      .dwattr $C$DW$206, DW_AT_TI_begin_file("C:/ti/motorware/motorware_1_01_00_16/sw/solutions/instaspin_f
    1359                      .dwattr $C$DW$206, DW_AT_TI_begin_line(0x2e0)
    1360                      .dwattr $C$DW$206, DW_AT_TI_begin_column(0x06)
    1361                      .dwattr $C$DW$206, DW_AT_TI_max_frame_size(-20)
    1362                      .dwpsn  file "C:/ti/motorware/motorware_1_01_00_16/sw/solutions/instaspin_foc/src/proj_lab11.c",line 
    1363              
    1364                      .dwfde $C$DW$CIE, _softwareUpdate1p6
    1365              $C$DW$207       .dwtag  DW_TAG_formal_parameter, DW_AT_name("handle")
    1366                      .dwattr $C$DW$207, DW_AT_TI_symbol_name("_handle")
    1367                      .dwattr $C$DW$207, DW_AT_type(*$C$DW$T$190)
    1368                      .dwattr $C$DW$207, DW_AT_location[DW_OP_reg12]
    1369              
    1370              ;***************************************************************
    1371              ;* FNAME: _softwareUpdate1p6            FR SIZE:  18           *
    1372              ;*                                                             *
    1373              ;* FUNCTION ENVIRONMENT                                        *
    1374              ;*                                                             *
    1375              ;* FUNCTION PROPERTIES                                         *
    1376              ;*                            2 Parameter, 10 Auto,  6 SOE     *
    1377              ;***************************************************************
    1378              
    1379              _softwareUpdate1p6:
    1380              ;* AR1   assigned to $O$C2
    1381              ;* AL    assigned to _ceil_result
    1382              $C$DW$208       .dwtag  DW_TAG_variable, DW_AT_name("ceil_result")
    1383                      .dwattr $C$DW$208, DW_AT_TI_symbol_name("_ceil_result")
    1384                      .dwattr $C$DW$208, DW_AT_type(*$C$DW$T$17)
    1385                      .dwattr $C$DW$208, DW_AT_location[DW_OP_reg0]
    1386              $C$DW$209       .dwtag  DW_TAG_variable, DW_AT_name("ceil_y")
    1387                      .dwattr $C$DW$209, DW_AT_TI_symbol_name("_ceil_y")
    1388                      .dwattr $C$DW$209, DW_AT_type(*$C$DW$T$17)
    1389                      .dwattr $C$DW$209, DW_AT_location[DW_OP_breg20 -4]
    1390              ;* AR2   assigned to _L_max
    1391              $C$DW$210       .dwtag  DW_TAG_variable, DW_AT_name("L_max")
    1392                      .dwattr $C$DW$210, DW_AT_TI_symbol_name("_L_max")
    1393                      .dwattr $C$DW$210, DW_AT_type(*$C$DW$T$153)
    1394                      .dwattr $C$DW$210, DW_AT_location[DW_OP_reg8]
    1395              ;* AR6   assigned to _Ls_coarse_max
    1396              $C$DW$211       .dwtag  DW_TAG_variable, DW_AT_name("Ls_coarse_max")
    1397                      .dwattr $C$DW$211, DW_AT_TI_symbol_name("_Ls_coarse_max")
    1398                      .dwattr $C$DW$211, DW_AT_type(*$C$DW$T$153)
    1399                      .dwattr $C$DW$211, DW_AT_location[DW_OP_reg16]
    1400              ;* AR3   assigned to _handle
    1401              $C$DW$212       .dwtag  DW_TAG_variable, DW_AT_name("handle")
    1402                      .dwattr $C$DW$212, DW_AT_TI_symbol_name("_handle")
    1403                      .dwattr $C$DW$212, DW_AT_type(*$C$DW$T$222)
    1404                      .dwattr $C$DW$212, DW_AT_location[DW_OP_reg10]
    1405                      .dwcfi  cfa_offset, -2
    1406                      .dwcfi  save_reg_to_mem, 26, 0
    1407 000000d3 B2BD          MOVL      *SP++,XAR1            ; [CPU_] 
    1408                      .dwcfi  save_reg_to_mem, 7, 2
    1409                      .dwcfi  cfa_offset, -4
TMS320C2000 Assembler PC v6.4.10 Mon Jul 11 12:58:57 2016

Tools Copyright (c) 1996-2015 Texas Instruments Incorporated
C:\Users\bee25\AppData\Local\Temp\0350410                            PAGE   29

    1410 000000d4 AABD          MOVL      *SP++,XAR2            ; [CPU_] 
    1411                      .dwcfi  save_reg_to_mem, 9, 4
    1412                      .dwcfi  cfa_offset, -6
    1413 000000d5 A2BD          MOVL      *SP++,XAR3            ; [CPU_] 
    1414                      .dwcfi  save_reg_to_mem, 11, 6
    1415                      .dwcfi  cfa_offset, -8
    1416 000000d6 FE0C          ADDB      SP,#12                ; [CPU_U] 
    1417                      .dwcfi  cfa_offset, -20
    1418 000000d7 82A4          MOVL      XAR3,XAR4             ; [CPU_] |737| 
    1419                      .dwpsn  file "C:/ti/motorware/motorware_1_01_00_16/sw/solutions/instaspin_foc/src/proj_lab11.c",line 
    1420              $C$DW$213       .dwtag  DW_TAG_TI_branch
    1421                      .dwattr $C$DW$213, DW_AT_low_pc(0x00)
    1422                      .dwattr $C$DW$213, DW_AT_name("_EST_getLs_coarse_max_pu")
    1423                      .dwattr $C$DW$213, DW_AT_TI_call
    1424 000000d8 7640!         LCR       #_EST_getLs_coarse_max_pu ; [CPU_] |741| 
         000000d9 0000 
    1425                      ; call occurs [#_EST_getLs_coarse_max_pu] ; [] |741| 
    1426              $C$DW$214       .dwtag  DW_TAG_TI_branch
    1427                      .dwattr $C$DW$214, DW_AT_low_pc(0x00)
    1428                      .dwattr $C$DW$214, DW_AT_name("__IQ30toF")
    1429                      .dwattr $C$DW$214, DW_AT_TI_call
    1430 000000da 7640!         LCR       #__IQ30toF            ; [CPU_] |741| 
         000000db 0000 
    1431                      ; call occurs [#__IQ30toF] ; [] |741| 
    1432 000000dc 1EA6          MOVL      XAR6,ACC              ; [CPU_] |741| 
    1433                      .dwpsn  file "C:/ti/motorware/motorware_1_01_00_16/sw/solutions/instaspin_foc/src/proj_lab11.c",line 
    1434 000000dd 28A9          MOV       AL,#28599             ; [CPU_] |742| 
         000000de 6FB7 
    1435 000000df 28A8          MOV       AH,#15195             ; [CPU_] |742| 
         000000e0 3B5B 
    1436 000000e1 1E42          MOVL      *-SP[2],ACC           ; [CPU_] |742| 
    1437 000000e2 06A6          MOVL      ACC,XAR6              ; [CPU_] |742| 
    1438              $C$DW$215       .dwtag  DW_TAG_TI_branch
    1439                      .dwattr $C$DW$215, DW_AT_low_pc(0x00)
    1440                      .dwattr $C$DW$215, DW_AT_name("FS$$MPY")
    1441                      .dwattr $C$DW$215, DW_AT_TI_call
    1442 000000e3 7640!         LCR       #FS$$MPY              ; [CPU_] |742| 
         000000e4 0000 
    1443                      ; call occurs [#FS$$MPY] ; [] |742| 
    1444 000000e5 1E42          MOVL      *-SP[2],ACC           ; [CPU_] |742| 
    1445 000000e6 28A9          MOV       AL,#39789             ; [CPU_] |742| 
         000000e7 9B6D 
    1446 000000e8 28A8          MOV       AH,#14298             ; [CPU_] |742| 
         000000e9 37DA 
    1447              $C$DW$216       .dwtag  DW_TAG_TI_branch
    1448                      .dwattr $C$DW$216, DW_AT_low_pc(0x00)
    1449                      .dwattr $C$DW$216, DW_AT_name("FS$$DIV")
    1450                      .dwattr $C$DW$216, DW_AT_TI_call
    1451 000000ea 7640!         LCR       #FS$$DIV              ; [CPU_] |742| 
         000000eb 0000 
    1452                      ; call occurs [#FS$$DIV] ; [] |742| 
    1453              $C$DW$217       .dwtag  DW_TAG_TI_branch
    1454                      .dwattr $C$DW$217, DW_AT_low_pc(0x00)
    1455                      .dwattr $C$DW$217, DW_AT_name("_log")
    1456                      .dwattr $C$DW$217, DW_AT_TI_call
TMS320C2000 Assembler PC v6.4.10 Mon Jul 11 12:58:57 2016

Tools Copyright (c) 1996-2015 Texas Instruments Incorporated
C:\Users\bee25\AppData\Local\Temp\0350410                            PAGE   30

    1457 000000ec 7640!         LCR       #_log                 ; [CPU_] |742| 
         000000ed 0000 
    1458                      ; call occurs [#_log] ; [] |742| 
    1459 000000ee 8BA9          MOVL      XAR1,ACC              ; [CPU_] |742| 
    1460 000000ef 9A00          MOV       AL,#0                 ; [CPU_] |742| 
    1461 000000f0 28A8          MOV       AH,#16384             ; [CPU_] |742| 
         000000f1 4000 
    1462              $C$DW$218       .dwtag  DW_TAG_TI_branch
    1463                      .dwattr $C$DW$218, DW_AT_low_pc(0x00)
    1464                      .dwattr $C$DW$218, DW_AT_name("_log")
    1465                      .dwattr $C$DW$218, DW_AT_TI_call
    1466 000000f2 7640!         LCR       #_log                 ; [CPU_] |742| 
         000000f3 0000 
    1467                      ; call occurs [#_log] ; [] |742| 
    1468 000000f4 1E42          MOVL      *-SP[2],ACC           ; [CPU_] |742| 
    1469 000000f5 B2A9          MOVL      ACC,XAR1              ; [CPU_] |742| 
    1470              $C$DW$219       .dwtag  DW_TAG_TI_branch
    1471                      .dwattr $C$DW$219, DW_AT_low_pc(0x00)
    1472                      .dwattr $C$DW$219, DW_AT_name("FS$$DIV")
    1473                      .dwattr $C$DW$219, DW_AT_TI_call
    1474 000000f6 7640!         LCR       #FS$$DIV              ; [CPU_] |742| 
         000000f7 0000 
    1475                      ; call occurs [#FS$$DIV] ; [] |742| 
    1476                      .dwpsn  file "C:/ti/ccsv6/tools/compiler/ti-cgt-c2000_6.4.10/include/math.h",line 143,column 14,is_st
    1477 000000f8 5CAD          MOVZ      AR4,SP                ; [CPU_] |143| 
    1478 000000f9 DC84          SUBB      XAR4,#4               ; [CPU_U] |143| 
    1479 000000fa 5CA4          MOVZ      AR4,AR4               ; [CPU_] |143| 
    1480              $C$DW$220       .dwtag  DW_TAG_TI_branch
    1481                      .dwattr $C$DW$220, DW_AT_low_pc(0x00)
    1482                      .dwattr $C$DW$220, DW_AT_name("_modf")
    1483                      .dwattr $C$DW$220, DW_AT_TI_call
    1484 000000fb 7640!         LCR       #_modf                ; [CPU_] |143| 
         000000fc 0000 
    1485                      ; call occurs [#_modf] ; [] |143| 
    1486 000000fd 1EA6          MOVL      XAR6,ACC              ; [CPU_] |143| 
    1487 000000fe 9A00          MOV       AL,#0                 ; [CPU_] |143| 
    1488 000000ff 9B00          MOV       AH,#0                 ; [CPU_] |143| 
    1489 00000100 1E42          MOVL      *-SP[2],ACC           ; [CPU_] |143| 
    1490 00000101 06A6          MOVL      ACC,XAR6              ; [CPU_] |143| 
    1491              $C$DW$221       .dwtag  DW_TAG_TI_branch
    1492                      .dwattr $C$DW$221, DW_AT_low_pc(0x00)
    1493                      .dwattr $C$DW$221, DW_AT_name("FS$$CMP")
    1494                      .dwattr $C$DW$221, DW_AT_TI_call
    1495 00000102 7640!         LCR       #FS$$CMP              ; [CPU_] |143| 
         00000103 0000 
    1496                      ; call occurs [#FS$$CMP] ; [] |143| 
    1497 00000104 5200          CMPB      AL,#0                 ; [CPU_] |143| 
    1498 00000105 56C2          BF        $C$L1,GT              ; [CPU_] |143| 
         00000106 0004 
    1499                      ; branchcc occurs ; [] |143| 
    1500                      .dwpsn  file "C:/ti/ccsv6/tools/compiler/ti-cgt-c2000_6.4.10/include/math.h",line 150,column 18,is_st
    1501 00000107 0644          MOVL      ACC,*-SP[4]           ; [CPU_] |150| 
    1502 00000108 6F07          B         $C$L2,UNC             ; [CPU_] |150| 
    1503                      ; branch occurs ; [] |150| 
    1504 00000109       $C$L1:    
TMS320C2000 Assembler PC v6.4.10 Mon Jul 11 12:58:57 2016

Tools Copyright (c) 1996-2015 Texas Instruments Incorporated
C:\Users\bee25\AppData\Local\Temp\0350410                            PAGE   31

    1505                      .dwpsn  file "C:/ti/ccsv6/tools/compiler/ti-cgt-c2000_6.4.10/include/math.h",line 146,column 18,is_st
    1506 00000109 FF2F          MOV       ACC,#32512 << 15      ; [CPU_] |146| 
         0000010a 7F00 
    1507 0000010b 1E42          MOVL      *-SP[2],ACC           ; [CPU_] |146| 
    1508 0000010c 0644          MOVL      ACC,*-SP[4]           ; [CPU_] |146| 
    1509              $C$DW$222       .dwtag  DW_TAG_TI_branch
    1510                      .dwattr $C$DW$222, DW_AT_low_pc(0x00)
    1511                      .dwattr $C$DW$222, DW_AT_name("FS$$ADD")
    1512                      .dwattr $C$DW$222, DW_AT_TI_call
    1513 0000010d 7640!         LCR       #FS$$ADD              ; [CPU_] |146| 
         0000010e 0000 
    1514                      ; call occurs [#FS$$ADD] ; [] |146| 
    1515 0000010f       $C$L2:    
    1516                      .dwpsn  file "C:/ti/motorware/motorware_1_01_00_16/sw/solutions/instaspin_foc/src/proj_lab11.c",line 
    1517              $C$DW$223       .dwtag  DW_TAG_TI_branch
    1518                      .dwattr $C$DW$223, DW_AT_low_pc(0x00)
    1519                      .dwattr $C$DW$223, DW_AT_name("FS$$TOI")
    1520                      .dwattr $C$DW$223, DW_AT_TI_call
    1521 0000010f 7640!         LCR       #FS$$TOI              ; [CPU_] |745| 
         00000110 0000 
    1522                      ; call occurs [#FS$$TOI] ; [] |745| 
    1523 00000111 59A9          MOVZ      AR1,AL                ; [CPU_] |745| 
    1524              $C$DW$224       .dwtag  DW_TAG_TI_branch
    1525                      .dwattr $C$DW$224, DW_AT_low_pc(0x00)
    1526                      .dwattr $C$DW$224, DW_AT_name("I$$TOFS")
    1527                      .dwattr $C$DW$224, DW_AT_TI_call
    1528 00000112 7640!         LCR       #I$$TOFS              ; [CPU_] |745| 
         00000113 0000 
    1529                      ; call occurs [#I$$TOFS] ; [] |745| 
    1530 00000114 1E42          MOVL      *-SP[2],ACC           ; [CPU_] |745| 
    1531 00000115 9A00          MOV       AL,#0                 ; [CPU_] |745| 
    1532 00000116 28A8          MOV       AH,#16384             ; [CPU_] |745| 
         00000117 4000 
    1533              $C$DW$225       .dwtag  DW_TAG_TI_branch
    1534                      .dwattr $C$DW$225, DW_AT_low_pc(0x00)
    1535                      .dwattr $C$DW$225, DW_AT_name("_pow")
    1536                      .dwattr $C$DW$225, DW_AT_TI_call
    1537 00000118 7640!         LCR       #_pow                 ; [CPU_] |745| 
         00000119 0000 
    1538                      ; call occurs [#_pow] ; [] |745| 
    1539 0000011a 1EA6          MOVL      XAR6,ACC              ; [CPU_] |745| 
    1540 0000011b 28A9          MOV       AL,#28599             ; [CPU_] |745| 
         0000011c 6FB7 
    1541 0000011d 28A8          MOV       AH,#15195             ; [CPU_] |745| 
         0000011e 3B5B 
    1542 0000011f 1E42          MOVL      *-SP[2],ACC           ; [CPU_] |745| 
    1543 00000120 06A6          MOVL      ACC,XAR6              ; [CPU_] |745| 
    1544              $C$DW$226       .dwtag  DW_TAG_TI_branch
    1545                      .dwattr $C$DW$226, DW_AT_low_pc(0x00)
    1546                      .dwattr $C$DW$226, DW_AT_name("FS$$MPY")
    1547                      .dwattr $C$DW$226, DW_AT_TI_call
    1548 00000121 7640!         LCR       #FS$$MPY              ; [CPU_] |745| 
         00000122 0000 
    1549                      ; call occurs [#FS$$MPY] ; [] |745| 
    1550 00000123 86A9          MOVL      XAR2,ACC              ; [CPU_] |745| 
TMS320C2000 Assembler PC v6.4.10 Mon Jul 11 12:58:57 2016

Tools Copyright (c) 1996-2015 Texas Instruments Incorporated
C:\Users\bee25\AppData\Local\Temp\0350410                            PAGE   32

    1551                      .dwpsn  file "C:/ti/motorware/motorware_1_01_00_16/sw/solutions/instaspin_foc/src/proj_lab11.c",line 
    1552 00000124 1E42          MOVL      *-SP[2],ACC           ; [CPU_] |750| 
    1553 00000125 28A9          MOV       AL,#39789             ; [CPU_] |750| 
         00000126 9B6D 
    1554 00000127 28A8          MOV       AH,#14298             ; [CPU_] |750| 
         00000128 37DA 
    1555              $C$DW$227       .dwtag  DW_TAG_TI_branch
    1556                      .dwattr $C$DW$227, DW_AT_low_pc(0x00)
    1557                      .dwattr $C$DW$227, DW_AT_name("FS$$DIV")
    1558                      .dwattr $C$DW$227, DW_AT_TI_call
    1559 00000129 7640!         LCR       #FS$$DIV              ; [CPU_] |750| 
         0000012a 0000 
    1560                      ; call occurs [#FS$$DIV] ; [] |750| 
    1561 0000012b 5CAD          MOVZ      AR4,SP                ; [CPU_] |750| 
    1562 0000012c DC8C          SUBB      XAR4,#12              ; [CPU_U] |750| 
    1563 0000012d 88A4          MOVZ      AR6,AR4               ; [CPU_] |750| 
    1564              $C$DW$228       .dwtag  DW_TAG_TI_branch
    1565                      .dwattr $C$DW$228, DW_AT_low_pc(0x00)
    1566                      .dwattr $C$DW$228, DW_AT_name("FS$$TOFD")
    1567                      .dwattr $C$DW$228, DW_AT_TI_call
    1568 0000012e 7640!         LCR       #FS$$TOFD             ; [CPU_] |750| 
         0000012f 0000 
    1569                      ; call occurs [#FS$$TOFD] ; [] |750| 
    1570 00000130 5DAD          MOVZ      AR5,SP                ; [CPU_] |750| 
    1571 00000131 5CAD          MOVZ      AR4,SP                ; [CPU_] |750| 
    1572 00000132 DD88          SUBB      XAR5,#8               ; [CPU_U] |750| 
    1573 00000133 DC8C          SUBB      XAR4,#12              ; [CPU_U] |750| 
    1574 00000134 88A5          MOVZ      AR6,AR5               ; [CPU_] |750| 
    1575 00000135 5CA4          MOVZ      AR4,AR4               ; [CPU_] |750| 
    1576 00000136 8F40+         MOVL      XAR5,#$C$FL1          ; [CPU_U] |750| 
         00000137 0000 
    1577              $C$DW$229       .dwtag  DW_TAG_TI_branch
    1578                      .dwattr $C$DW$229, DW_AT_low_pc(0x00)
    1579                      .dwattr $C$DW$229, DW_AT_name("FD$$MPY")
    1580                      .dwattr $C$DW$229, DW_AT_TI_call
    1581 00000138 7640!         LCR       #FD$$MPY              ; [CPU_] |750| 
         00000139 0000 
    1582                      ; call occurs [#FD$$MPY] ; [] |750| 
    1583 0000013a 5CAD          MOVZ      AR4,SP                ; [CPU_] |750| 
    1584 0000013b DC88          SUBB      XAR4,#8               ; [CPU_U] |750| 
    1585 0000013c 5CA4          MOVZ      AR4,AR4               ; [CPU_] |750| 
    1586              $C$DW$230       .dwtag  DW_TAG_TI_branch
    1587                      .dwattr $C$DW$230, DW_AT_low_pc(0x00)
    1588                      .dwattr $C$DW$230, DW_AT_name("FD$$TOL")
    1589                      .dwattr $C$DW$230, DW_AT_TI_call
    1590 0000013d 7640!         LCR       #FD$$TOL              ; [CPU_] |750| 
         0000013e 0000 
    1591                      ; call occurs [#FD$$TOL] ; [] |750| 
    1592 0000013f 8AA3          MOVL      XAR4,XAR3             ; [CPU_] |750| 
    1593              $C$DW$231       .dwtag  DW_TAG_TI_branch
    1594                      .dwattr $C$DW$231, DW_AT_low_pc(0x00)
    1595                      .dwattr $C$DW$231, DW_AT_name("_EST_setLs_d_pu")
    1596                      .dwattr $C$DW$231, DW_AT_TI_call
    1597 00000140 7640!         LCR       #_EST_setLs_d_pu      ; [CPU_] |750| 
         00000141 0000 
TMS320C2000 Assembler PC v6.4.10 Mon Jul 11 12:58:57 2016

Tools Copyright (c) 1996-2015 Texas Instruments Incorporated
C:\Users\bee25\AppData\Local\Temp\0350410                            PAGE   33

    1598                      ; call occurs [#_EST_setLs_d_pu] ; [] |750| 
    1599                      .dwpsn  file "C:/ti/motorware/motorware_1_01_00_16/sw/solutions/instaspin_foc/src/proj_lab11.c",line 
    1600 00000142 28A9          MOV       AL,#40338             ; [CPU_] |751| 
         00000143 9D92 
    1601 00000144 28A8          MOV       AH,#14298             ; [CPU_] |751| 
         00000145 37DA 
    1602 00000146 AA42          MOVL      *-SP[2],XAR2          ; [CPU_] |751| 
    1603              $C$DW$232       .dwtag  DW_TAG_TI_branch
    1604                      .dwattr $C$DW$232, DW_AT_low_pc(0x00)
    1605                      .dwattr $C$DW$232, DW_AT_name("FS$$DIV")
    1606                      .dwattr $C$DW$232, DW_AT_TI_call
    1607 00000147 7640!         LCR       #FS$$DIV              ; [CPU_] |751| 
         00000148 0000 
    1608                      ; call occurs [#FS$$DIV] ; [] |751| 
    1609 00000149 5CAD          MOVZ      AR4,SP                ; [CPU_] |751| 
    1610 0000014a DC8C          SUBB      XAR4,#12              ; [CPU_U] |751| 
    1611 0000014b 88A4          MOVZ      AR6,AR4               ; [CPU_] |751| 
    1612              $C$DW$233       .dwtag  DW_TAG_TI_branch
    1613                      .dwattr $C$DW$233, DW_AT_low_pc(0x00)
    1614                      .dwattr $C$DW$233, DW_AT_name("FS$$TOFD")
    1615                      .dwattr $C$DW$233, DW_AT_TI_call
    1616 0000014c 7640!         LCR       #FS$$TOFD             ; [CPU_] |751| 
         0000014d 0000 
    1617                      ; call occurs [#FS$$TOFD] ; [] |751| 
    1618 0000014e 5DAD          MOVZ      AR5,SP                ; [CPU_] |751| 
    1619 0000014f 5CAD          MOVZ      AR4,SP                ; [CPU_] |751| 
    1620 00000150 DD88          SUBB      XAR5,#8               ; [CPU_U] |751| 
    1621 00000151 DC8C          SUBB      XAR4,#12              ; [CPU_U] |751| 
    1622 00000152 88A5          MOVZ      AR6,AR5               ; [CPU_] |751| 
    1623 00000153 5CA4          MOVZ      AR4,AR4               ; [CPU_] |751| 
    1624 00000154 8F40+         MOVL      XAR5,#$C$FL1          ; [CPU_U] |751| 
         00000155 0000 
    1625              $C$DW$234       .dwtag  DW_TAG_TI_branch
    1626                      .dwattr $C$DW$234, DW_AT_low_pc(0x00)
    1627                      .dwattr $C$DW$234, DW_AT_name("FD$$MPY")
    1628                      .dwattr $C$DW$234, DW_AT_TI_call
    1629 00000156 7640!         LCR       #FD$$MPY              ; [CPU_] |751| 
         00000157 0000 
    1630                      ; call occurs [#FD$$MPY] ; [] |751| 
    1631 00000158 5CAD          MOVZ      AR4,SP                ; [CPU_] |751| 
    1632 00000159 DC88          SUBB      XAR4,#8               ; [CPU_U] |751| 
    1633 0000015a 5CA4          MOVZ      AR4,AR4               ; [CPU_] |751| 
    1634              $C$DW$235       .dwtag  DW_TAG_TI_branch
    1635                      .dwattr $C$DW$235, DW_AT_low_pc(0x00)
    1636                      .dwattr $C$DW$235, DW_AT_name("FD$$TOL")
    1637                      .dwattr $C$DW$235, DW_AT_TI_call
    1638 0000015b 7640!         LCR       #FD$$TOL              ; [CPU_] |751| 
         0000015c 0000 
    1639                      ; call occurs [#FD$$TOL] ; [] |751| 
    1640 0000015d 8AA3          MOVL      XAR4,XAR3             ; [CPU_] |751| 
    1641              $C$DW$236       .dwtag  DW_TAG_TI_branch
    1642                      .dwattr $C$DW$236, DW_AT_low_pc(0x00)
    1643                      .dwattr $C$DW$236, DW_AT_name("_EST_setLs_q_pu")
    1644                      .dwattr $C$DW$236, DW_AT_TI_call
    1645 0000015e 7640!         LCR       #_EST_setLs_q_pu      ; [CPU_] |751| 
TMS320C2000 Assembler PC v6.4.10 Mon Jul 11 12:58:57 2016

Tools Copyright (c) 1996-2015 Texas Instruments Incorporated
C:\Users\bee25\AppData\Local\Temp\0350410                            PAGE   34

         0000015f 0000 
    1646                      ; call occurs [#_EST_setLs_q_pu] ; [] |751| 
    1647                      .dwpsn  file "C:/ti/motorware/motorware_1_01_00_16/sw/solutions/instaspin_foc/src/proj_lab11.c",line 
    1648 00000160 9A1E          MOVB      AL,#30                ; [CPU_] |752| 
    1649 00000161 8AA3          MOVL      XAR4,XAR3             ; [CPU_] |752| 
    1650 00000162 9EA1          SUB       AL,AR1                ; [CPU_] |752| 
    1651              $C$DW$237       .dwtag  DW_TAG_TI_branch
    1652                      .dwattr $C$DW$237, DW_AT_low_pc(0x00)
    1653                      .dwattr $C$DW$237, DW_AT_name("_EST_setLs_qFmt")
    1654                      .dwattr $C$DW$237, DW_AT_TI_call
    1655 00000163 7640!         LCR       #_EST_setLs_qFmt      ; [CPU_] |752| 
         00000164 0000 
    1656                      ; call occurs [#_EST_setLs_qFmt] ; [] |752| 
    1657 00000165 FE8C          SUBB      SP,#12                ; [CPU_U] 
    1658                      .dwcfi  cfa_offset, -8
    1659 00000166 82BE          MOVL      XAR3,*--SP            ; [CPU_] 
    1660                      .dwcfi  cfa_offset, -6
    1661                      .dwcfi  restore_reg, 11
    1662 00000167 86BE          MOVL      XAR2,*--SP            ; [CPU_] 
    1663                      .dwcfi  cfa_offset, -4
    1664                      .dwcfi  restore_reg, 9
    1665 00000168 8BBE          MOVL      XAR1,*--SP            ; [CPU_] 
    1666                      .dwcfi  cfa_offset, -2
    1667                      .dwcfi  restore_reg, 7
    1668              $C$DW$238       .dwtag  DW_TAG_TI_branch
    1669                      .dwattr $C$DW$238, DW_AT_low_pc(0x00)
    1670                      .dwattr $C$DW$238, DW_AT_TI_return
    1671 00000169 0006          LRETR     ; [CPU_] 
    1672                      ; return occurs ; [] 
    1673                      .dwattr $C$DW$206, DW_AT_TI_end_file("C:/ti/motorware/motorware_1_01_00_16/sw/solutions/instaspin_foc
    1674                      .dwattr $C$DW$206, DW_AT_TI_end_line(0x2f3)
    1675                      .dwattr $C$DW$206, DW_AT_TI_end_column(0x01)
    1676                      .dwendentry
    1677                      .dwendtag $C$DW$206
    1678              
    1679 0000016a               .sect   ".text"
    1680                      .clink
    1681                      .global _setupClarke_V
    1682              
    1683              $C$DW$239       .dwtag  DW_TAG_subprogram, DW_AT_name("setupClarke_V")
    1684                      .dwattr $C$DW$239, DW_AT_low_pc(_setupClarke_V)
    1685                      .dwattr $C$DW$239, DW_AT_high_pc(0x00)
    1686                      .dwattr $C$DW$239, DW_AT_TI_symbol_name("_setupClarke_V")
    1687                      .dwattr $C$DW$239, DW_AT_external
    1688                      .dwattr $C$DW$239, DW_AT_TI_begin_file("C:/ti/motorware/motorware_1_01_00_16/sw/solutions/instaspin_f
    1689                      .dwattr $C$DW$239, DW_AT_TI_begin_line(0x319)
    1690                      .dwattr $C$DW$239, DW_AT_TI_begin_column(0x06)
    1691                      .dwattr $C$DW$239, DW_AT_TI_max_frame_size(-2)
    1692                      .dwpsn  file "C:/ti/motorware/motorware_1_01_00_16/sw/solutions/instaspin_foc/src/proj_lab11.c",line 
    1693              
    1694                      .dwfde $C$DW$CIE, _setupClarke_V
    1695              $C$DW$240       .dwtag  DW_TAG_formal_parameter, DW_AT_name("handle")
    1696                      .dwattr $C$DW$240, DW_AT_TI_symbol_name("_handle")
    1697                      .dwattr $C$DW$240, DW_AT_type(*$C$DW$T$211)
    1698                      .dwattr $C$DW$240, DW_AT_location[DW_OP_reg12]
TMS320C2000 Assembler PC v6.4.10 Mon Jul 11 12:58:57 2016

Tools Copyright (c) 1996-2015 Texas Instruments Incorporated
C:\Users\bee25\AppData\Local\Temp\0350410                            PAGE   35

    1699              $C$DW$241       .dwtag  DW_TAG_formal_parameter, DW_AT_name("numVoltageSensors")
    1700                      .dwattr $C$DW$241, DW_AT_TI_symbol_name("_numVoltageSensors")
    1701                      .dwattr $C$DW$241, DW_AT_type(*$C$DW$T$297)
    1702                      .dwattr $C$DW$241, DW_AT_location[DW_OP_reg0]
    1703              
    1704              ;***************************************************************
    1705              ;* FNAME: _setupClarke_V                FR SIZE:   0           *
    1706              ;*                                                             *
    1707              ;* FUNCTION ENVIRONMENT                                        *
    1708              ;*                                                             *
    1709              ;* FUNCTION PROPERTIES                                         *
    1710              ;*                            0 Parameter,  0 Auto,  0 SOE     *
    1711              ;***************************************************************
    1712              
    1713              _setupClarke_V:
    1714              ;* PL    assigned to _beta_sf
    1715              $C$DW$242       .dwtag  DW_TAG_variable, DW_AT_name("beta_sf")
    1716                      .dwattr $C$DW$242, DW_AT_TI_symbol_name("_beta_sf")
    1717                      .dwattr $C$DW$242, DW_AT_type(*$C$DW$T$47)
    1718                      .dwattr $C$DW$242, DW_AT_location[DW_OP_reg2]
    1719              ;* AR6   assigned to _alpha_sf
    1720              $C$DW$243       .dwtag  DW_TAG_variable, DW_AT_name("alpha_sf")
    1721                      .dwattr $C$DW$243, DW_AT_TI_symbol_name("_alpha_sf")
    1722                      .dwattr $C$DW$243, DW_AT_type(*$C$DW$T$47)
    1723                      .dwattr $C$DW$243, DW_AT_location[DW_OP_reg16]
    1724              ;* AL    assigned to _numVoltageSensors
    1725              $C$DW$244       .dwtag  DW_TAG_variable, DW_AT_name("numVoltageSensors")
    1726                      .dwattr $C$DW$244, DW_AT_TI_symbol_name("_numVoltageSensors")
    1727                      .dwattr $C$DW$244, DW_AT_type(*$C$DW$T$297)
    1728                      .dwattr $C$DW$244, DW_AT_location[DW_OP_reg0]
    1729              ;* AR4   assigned to _handle
    1730              $C$DW$245       .dwtag  DW_TAG_variable, DW_AT_name("handle")
    1731                      .dwattr $C$DW$245, DW_AT_TI_symbol_name("_handle")
    1732                      .dwattr $C$DW$245, DW_AT_type(*$C$DW$T$212)
    1733                      .dwattr $C$DW$245, DW_AT_location[DW_OP_reg12]
    1734                      .dwcfi  cfa_offset, -2
    1735                      .dwcfi  save_reg_to_mem, 26, 0
    1736                      .dwpsn  file "C:/ti/motorware/motorware_1_01_00_16/sw/solutions/instaspin_foc/src/proj_lab11.c",line 
    1737 0000016a 5203          CMPB      AL,#3                 ; [CPU_] |798| 
    1738 0000016b EC05          BF        $C$L3,EQ              ; [CPU_] |798| 
    1739                      ; branchcc occurs ; [] |798| 
    1740                      .dwpsn  file "C:/ti/motorware/motorware_1_01_00_16/sw/solutions/instaspin_foc/src/proj_lab11.c",line 
    1741 0000016c B600          MOVB      XAR7,#0               ; [CPU_] |806| 
    1742                      .dwpsn  file "C:/ti/motorware/motorware_1_01_00_16/sw/solutions/instaspin_foc/src/proj_lab11.c",line 
    1743 0000016d BE00          MOVB      XAR6,#0               ; [CPU_] |805| 
    1744                      .dwpsn  file "C:/ti/motorware/motorware_1_01_00_16/sw/solutions/instaspin_foc/src/proj_lab11.c",line 
    1745 0000016e A3A7          MOVL      P,XAR7                ; [CPU_] |806| 
    1746 0000016f 6F0A          B         $C$L4,UNC             ; [CPU_] |806| 
    1747                      ; branch occurs ; [] |806| 
    1748 00000170       $C$L3:    
    1749                      .dwpsn  file "C:/ti/motorware/motorware_1_01_00_16/sw/solutions/instaspin_foc/src/proj_lab11.c",line 
    1750 00000170 28AB          MOV       PL,#21845             ; [CPU_] |800| 
         00000171 5555 
    1751 00000172 28AA          MOV       PH,#85                ; [CPU_] |800| 
         00000173 0055 
TMS320C2000 Assembler PC v6.4.10 Mon Jul 11 12:58:57 2016

Tools Copyright (c) 1996-2015 Texas Instruments Incorporated
C:\Users\bee25\AppData\Local\Temp\0350410                            PAGE   36

    1752 00000174 A9A6          MOVL      XAR6,P                ; [CPU_] |800| 
    1753                      .dwpsn  file "C:/ti/motorware/motorware_1_01_00_16/sw/solutions/instaspin_foc/src/proj_lab11.c",line 
    1754 00000175 28AB          MOV       PL,#52538             ; [CPU_] |801| 
         00000176 CD3A 
    1755 00000177 28AA          MOV       PH,#147               ; [CPU_] |801| 
         00000178 0093 
    1756 00000179       $C$L4:    
    1757                      .dwpsn  file "C:/ti/motorware/motorware_1_01_00_16/sw/modules/clarke/src/32b/clarke.h",line 185,colum
    1758 00000179 C2C4          MOVL      *+XAR4[0],XAR6        ; [CPU_] |185| 
    1759                      .dwpsn  file "C:/ti/motorware/motorware_1_01_00_16/sw/modules/clarke/src/32b/clarke.h",line 186,colum
    1760 0000017a A9D4          MOVL      *+XAR4[2],P           ; [CPU_] |186| 
    1761                      .dwpsn  file "C:/ti/motorware/motorware_1_01_00_16/sw/modules/clarke/src/32b/clarke.h",line 170,colum
    1762 0000017b 96E4          MOV       *+XAR4[4],AL          ; [CPU_] |170| 
    1763              $C$DW$246       .dwtag  DW_TAG_TI_branch
    1764                      .dwattr $C$DW$246, DW_AT_low_pc(0x00)
    1765                      .dwattr $C$DW$246, DW_AT_TI_return
    1766 0000017c 0006          LRETR     ; [CPU_] 
    1767                      ; return occurs ; [] 
    1768                      .dwattr $C$DW$239, DW_AT_TI_end_file("C:/ti/motorware/motorware_1_01_00_16/sw/solutions/instaspin_foc
    1769                      .dwattr $C$DW$239, DW_AT_TI_end_line(0x32f)
    1770                      .dwattr $C$DW$239, DW_AT_TI_end_column(0x01)
    1771                      .dwendentry
    1772                      .dwendtag $C$DW$239
    1773              
    1774 0000017d               .sect   ".text"
    1775                      .clink
    1776                      .global _setupClarke_I
    1777              
    1778              $C$DW$247       .dwtag  DW_TAG_subprogram, DW_AT_name("setupClarke_I")
    1779                      .dwattr $C$DW$247, DW_AT_low_pc(_setupClarke_I)
    1780                      .dwattr $C$DW$247, DW_AT_high_pc(0x00)
    1781                      .dwattr $C$DW$247, DW_AT_TI_symbol_name("_setupClarke_I")
    1782                      .dwattr $C$DW$247, DW_AT_external
    1783                      .dwattr $C$DW$247, DW_AT_TI_begin_file("C:/ti/motorware/motorware_1_01_00_16/sw/solutions/instaspin_f
    1784                      .dwattr $C$DW$247, DW_AT_TI_begin_line(0x2f9)
    1785                      .dwattr $C$DW$247, DW_AT_TI_begin_column(0x06)
    1786                      .dwattr $C$DW$247, DW_AT_TI_max_frame_size(-2)
    1787                      .dwpsn  file "C:/ti/motorware/motorware_1_01_00_16/sw/solutions/instaspin_foc/src/proj_lab11.c",line 
    1788              
    1789                      .dwfde $C$DW$CIE, _setupClarke_I
    1790              $C$DW$248       .dwtag  DW_TAG_formal_parameter, DW_AT_name("handle")
    1791                      .dwattr $C$DW$248, DW_AT_TI_symbol_name("_handle")
    1792                      .dwattr $C$DW$248, DW_AT_type(*$C$DW$T$211)
    1793                      .dwattr $C$DW$248, DW_AT_location[DW_OP_reg12]
    1794              $C$DW$249       .dwtag  DW_TAG_formal_parameter, DW_AT_name("numCurrentSensors")
    1795                      .dwattr $C$DW$249, DW_AT_TI_symbol_name("_numCurrentSensors")
    1796                      .dwattr $C$DW$249, DW_AT_type(*$C$DW$T$297)
    1797                      .dwattr $C$DW$249, DW_AT_location[DW_OP_reg0]
    1798              
    1799              ;***************************************************************
    1800              ;* FNAME: _setupClarke_I                FR SIZE:   0           *
    1801              ;*                                                             *
    1802              ;* FUNCTION ENVIRONMENT                                        *
    1803              ;*                                                             *
    1804              ;* FUNCTION PROPERTIES                                         *
TMS320C2000 Assembler PC v6.4.10 Mon Jul 11 12:58:57 2016

Tools Copyright (c) 1996-2015 Texas Instruments Incorporated
C:\Users\bee25\AppData\Local\Temp\0350410                            PAGE   37

    1805              ;*                            0 Parameter,  0 Auto,  0 SOE     *
    1806              ;***************************************************************
    1807              
    1808              _setupClarke_I:
    1809              ;* PL    assigned to _beta_sf
    1810              $C$DW$250       .dwtag  DW_TAG_variable, DW_AT_name("beta_sf")
    1811                      .dwattr $C$DW$250, DW_AT_TI_symbol_name("_beta_sf")
    1812                      .dwattr $C$DW$250, DW_AT_type(*$C$DW$T$47)
    1813                      .dwattr $C$DW$250, DW_AT_location[DW_OP_reg2]
    1814              ;* AR6   assigned to _alpha_sf
    1815              $C$DW$251       .dwtag  DW_TAG_variable, DW_AT_name("alpha_sf")
    1816                      .dwattr $C$DW$251, DW_AT_TI_symbol_name("_alpha_sf")
    1817                      .dwattr $C$DW$251, DW_AT_type(*$C$DW$T$47)
    1818                      .dwattr $C$DW$251, DW_AT_location[DW_OP_reg16]
    1819              ;* AL    assigned to _numCurrentSensors
    1820              $C$DW$252       .dwtag  DW_TAG_variable, DW_AT_name("numCurrentSensors")
    1821                      .dwattr $C$DW$252, DW_AT_TI_symbol_name("_numCurrentSensors")
    1822                      .dwattr $C$DW$252, DW_AT_type(*$C$DW$T$297)
    1823                      .dwattr $C$DW$252, DW_AT_location[DW_OP_reg0]
    1824              ;* AR4   assigned to _handle
    1825              $C$DW$253       .dwtag  DW_TAG_variable, DW_AT_name("handle")
    1826                      .dwattr $C$DW$253, DW_AT_TI_symbol_name("_handle")
    1827                      .dwattr $C$DW$253, DW_AT_type(*$C$DW$T$212)
    1828                      .dwattr $C$DW$253, DW_AT_location[DW_OP_reg12]
    1829                      .dwcfi  cfa_offset, -2
    1830                      .dwcfi  save_reg_to_mem, 26, 0
    1831                      .dwpsn  file "C:/ti/motorware/motorware_1_01_00_16/sw/solutions/instaspin_foc/src/proj_lab11.c",line 
    1832 0000017d 5203          CMPB      AL,#3                 ; [CPU_] |766| 
    1833 0000017e EC0B          BF        $C$L6,EQ              ; [CPU_] |766| 
    1834                      ; branchcc occurs ; [] |766| 
    1835                      .dwpsn  file "C:/ti/motorware/motorware_1_01_00_16/sw/solutions/instaspin_foc/src/proj_lab11.c",line 
    1836 0000017f 5202          CMPB      AL,#2                 ; [CPU_] |771| 
    1837 00000180 EC05          BF        $C$L5,EQ              ; [CPU_] |771| 
    1838                      ; branchcc occurs ; [] |771| 
    1839                      .dwpsn  file "C:/ti/motorware/motorware_1_01_00_16/sw/solutions/instaspin_foc/src/proj_lab11.c",line 
    1840 00000181 B600          MOVB      XAR7,#0               ; [CPU_] |779| 
    1841                      .dwpsn  file "C:/ti/motorware/motorware_1_01_00_16/sw/solutions/instaspin_foc/src/proj_lab11.c",line 
    1842 00000182 BE00          MOVB      XAR6,#0               ; [CPU_] |778| 
    1843                      .dwpsn  file "C:/ti/motorware/motorware_1_01_00_16/sw/solutions/instaspin_foc/src/proj_lab11.c",line 
    1844 00000183 A3A7          MOVL      P,XAR7                ; [CPU_] |779| 
    1845 00000184 6F0E          B         $C$L8,UNC             ; [CPU_] |779| 
    1846                      ; branch occurs ; [] |779| 
    1847 00000185       $C$L5:    
    1848                      .dwpsn  file "C:/ti/motorware/motorware_1_01_00_16/sw/solutions/instaspin_foc/src/proj_lab11.c",line 
    1849 00000185 2BAB          MOV       PL,#0                 ; [CPU_] |773| 
    1850 00000186 28AA          MOV       PH,#256               ; [CPU_] |773| 
         00000187 0100 
    1851                      .dwpsn  file "C:/ti/motorware/motorware_1_01_00_16/sw/solutions/instaspin_foc/src/proj_lab11.c",line 
    1852 00000188 6F05          B         $C$L7,UNC             ; [CPU_] |775| 
    1853                      ; branch occurs ; [] |775| 
    1854 00000189       $C$L6:    
    1855                      .dwpsn  file "C:/ti/motorware/motorware_1_01_00_16/sw/solutions/instaspin_foc/src/proj_lab11.c",line 
    1856 00000189 28AB          MOV       PL,#21845             ; [CPU_] |768| 
         0000018a 5555 
    1857 0000018b 28AA          MOV       PH,#85                ; [CPU_] |768| 
TMS320C2000 Assembler PC v6.4.10 Mon Jul 11 12:58:57 2016

Tools Copyright (c) 1996-2015 Texas Instruments Incorporated
C:\Users\bee25\AppData\Local\Temp\0350410                            PAGE   38

         0000018c 0055 
    1858 0000018d       $C$L7:    
    1859 0000018d A9A6          MOVL      XAR6,P                ; [CPU_] |768| 
    1860                      .dwpsn  file "C:/ti/motorware/motorware_1_01_00_16/sw/solutions/instaspin_foc/src/proj_lab11.c",line 
    1861 0000018e 28AB          MOV       PL,#52538             ; [CPU_] |769| 
         0000018f CD3A 
    1862 00000190 28AA          MOV       PH,#147               ; [CPU_] |769| 
         00000191 0093 
    1863 00000192       $C$L8:    
    1864                      .dwpsn  file "C:/ti/motorware/motorware_1_01_00_16/sw/modules/clarke/src/32b/clarke.h",line 185,colum
    1865 00000192 C2C4          MOVL      *+XAR4[0],XAR6        ; [CPU_] |185| 
    1866                      .dwpsn  file "C:/ti/motorware/motorware_1_01_00_16/sw/modules/clarke/src/32b/clarke.h",line 186,colum
    1867 00000193 A9D4          MOVL      *+XAR4[2],P           ; [CPU_] |186| 
    1868                      .dwpsn  file "C:/ti/motorware/motorware_1_01_00_16/sw/modules/clarke/src/32b/clarke.h",line 170,colum
    1869 00000194 96E4          MOV       *+XAR4[4],AL          ; [CPU_] |170| 
    1870              $C$DW$254       .dwtag  DW_TAG_TI_branch
    1871                      .dwattr $C$DW$254, DW_AT_low_pc(0x00)
    1872                      .dwattr $C$DW$254, DW_AT_TI_return
    1873 00000195 0006          LRETR     ; [CPU_] 
    1874                      ; return occurs ; [] 
    1875                      .dwattr $C$DW$247, DW_AT_TI_end_file("C:/ti/motorware/motorware_1_01_00_16/sw/solutions/instaspin_foc
    1876                      .dwattr $C$DW$247, DW_AT_TI_end_line(0x313)
    1877                      .dwattr $C$DW$247, DW_AT_TI_end_column(0x01)
    1878                      .dwendentry
    1879                      .dwendtag $C$DW$247
    1880              
    1881 00000196               .sect   ".text"
    1882                      .clink
    1883                      .global _angleDelayComp
    1884              
    1885              $C$DW$255       .dwtag  DW_TAG_subprogram, DW_AT_name("angleDelayComp")
    1886                      .dwattr $C$DW$255, DW_AT_low_pc(_angleDelayComp)
    1887                      .dwattr $C$DW$255, DW_AT_high_pc(0x00)
    1888                      .dwattr $C$DW$255, DW_AT_TI_symbol_name("_angleDelayComp")
    1889                      .dwattr $C$DW$255, DW_AT_external
    1890                      .dwattr $C$DW$255, DW_AT_type(*$C$DW$T$47)
    1891                      .dwattr $C$DW$255, DW_AT_TI_begin_file("C:/ti/motorware/motorware_1_01_00_16/sw/solutions/instaspin_f
    1892                      .dwattr $C$DW$255, DW_AT_TI_begin_line(0x2c0)
    1893                      .dwattr $C$DW$255, DW_AT_TI_begin_column(0x05)
    1894                      .dwattr $C$DW$255, DW_AT_TI_max_frame_size(-2)
    1895                      .dwpsn  file "C:/ti/motorware/motorware_1_01_00_16/sw/solutions/instaspin_foc/src/proj_lab11.c",line 
    1896              
    1897                      .dwfde $C$DW$CIE, _angleDelayComp
    1898              $C$DW$256       .dwtag  DW_TAG_formal_parameter, DW_AT_name("fm_pu")
    1899                      .dwattr $C$DW$256, DW_AT_TI_symbol_name("_fm_pu")
    1900                      .dwattr $C$DW$256, DW_AT_type(*$C$DW$T$287)
    1901                      .dwattr $C$DW$256, DW_AT_location[DW_OP_reg0]
    1902              $C$DW$257       .dwtag  DW_TAG_formal_parameter, DW_AT_name("angleUncomp_pu")
    1903                      .dwattr $C$DW$257, DW_AT_TI_symbol_name("_angleUncomp_pu")
    1904                      .dwattr $C$DW$257, DW_AT_type(*$C$DW$T$287)
    1905                      .dwattr $C$DW$257, DW_AT_location[DW_OP_breg20 -4]
    1906              
    1907              ;***************************************************************
    1908              ;* FNAME: _angleDelayComp               FR SIZE:   0           *
    1909              ;*                                                             *
TMS320C2000 Assembler PC v6.4.10 Mon Jul 11 12:58:57 2016

Tools Copyright (c) 1996-2015 Texas Instruments Incorporated
C:\Users\bee25\AppData\Local\Temp\0350410                            PAGE   39

    1910              ;* FUNCTION ENVIRONMENT                                        *
    1911              ;*                                                             *
    1912              ;* FUNCTION PROPERTIES                                         *
    1913              ;*                            0 Parameter,  0 Auto,  0 SOE     *
    1914              ;***************************************************************
    1915              
    1916              _angleDelayComp:
    1917              ;* AR7   assigned to $O$C1
    1918              ;* AR6   assigned to _angleComp_pu
    1919              $C$DW$258       .dwtag  DW_TAG_variable, DW_AT_name("angleComp_pu")
    1920                      .dwattr $C$DW$258, DW_AT_TI_symbol_name("_angleComp_pu")
    1921                      .dwattr $C$DW$258, DW_AT_type(*$C$DW$T$47)
    1922                      .dwattr $C$DW$258, DW_AT_location[DW_OP_reg16]
    1923              ;* AR6   assigned to _angleUncomp_pu
    1924              $C$DW$259       .dwtag  DW_TAG_variable, DW_AT_name("angleUncomp_pu")
    1925                      .dwattr $C$DW$259, DW_AT_TI_symbol_name("_angleUncomp_pu")
    1926                      .dwattr $C$DW$259, DW_AT_type(*$C$DW$T$287)
    1927                      .dwattr $C$DW$259, DW_AT_location[DW_OP_reg16]
    1928              ;* XT    assigned to _fm_pu
    1929              $C$DW$260       .dwtag  DW_TAG_variable, DW_AT_name("fm_pu")
    1930                      .dwattr $C$DW$260, DW_AT_TI_symbol_name("_fm_pu")
    1931                      .dwattr $C$DW$260, DW_AT_type(*$C$DW$T$287)
    1932                      .dwattr $C$DW$260, DW_AT_location[DW_OP_reg21]
    1933              ;* AR6   assigned to $O$K11
    1934                      .dwcfi  cfa_offset, -2
    1935                      .dwcfi  save_reg_to_mem, 26, 0
    1936 00000196 1EAC          MOVL      XT,ACC                ; [CPU_] |705| 
    1937                      .dwpsn  file "C:/ti/motorware/motorware_1_01_00_16/sw/solutions/instaspin_foc/src/proj_lab11.c",line 
    1938 00000197 8F08          MOVL      XAR4,#581330          ; [CPU_U] |720| 
         00000198 DED2 
    1939                      .dwpsn  file "C:/ti/motorware/motorware_1_01_00_16/sw/solutions/instaspin_foc/src/proj_lab11.c",line 
    1940 00000199 C444          MOVL      XAR6,*-SP[4]          ; [CPU_] |705| 
    1941                      .dwpsn  file "C:/ti/motorware/motorware_1_01_00_16/sw/solutions/instaspin_foc/src/proj_lab11.c",line 
    1942 0000019a 5605          IMPYL     P,XT,XAR4             ; [CPU_] |720| 
         0000019b 00A4 
    1943 0000019c 5663          QMPYL     ACC,XT,XAR4           ; [CPU_] |720| 
         0000019d 00A4 
    1944 0000019e 56A7          LSL64     ACC:P,#8              ; [CPU_] |720| 
    1945 0000019f 1EAC          MOVL      XT,ACC                ; [CPU_] |720| 
    1946 000001a0 FF2F          MOV       ACC,#1280 << 15       ; [CPU_] |720| 
         000001a1 0500 
    1947 000001a2 5605          IMPYL     P,XT,ACC              ; [CPU_] |720| 
         000001a3 00A9 
    1948 000001a4 5663          QMPYL     ACC,XT,ACC            ; [CPU_] |720| 
         000001a5 00A9 
    1949 000001a6 56A7          LSL64     ACC:P,#8              ; [CPU_] |720| 
    1950 000001a7 07A6          ADDL      ACC,XAR6              ; [CPU_] |720| 
    1951 000001a8 1EA7          MOVL      XAR7,ACC              ; [CPU_] |720| 
    1952 000001a9 FF56          ABS       ACC                   ; [CPU_] |720| 
    1953 000001aa 91FF          ANDB      AH,#255               ; [CPU_] |720| 
    1954 000001ab 1EA6          MOVL      XAR6,ACC              ; [CPU_] |720| 
    1955 000001ac 06A7          MOVL      ACC,XAR7              ; [CPU_] |720| 
    1956                      .dwpsn  file "C:/ti/motorware/motorware_1_01_00_16/sw/solutions/instaspin_foc/src/proj_lab11.c",line 
    1957 000001ad 56C3          BF        $C$L9,GEQ             ; [CPU_] |723| 
         000001ae 0005 
TMS320C2000 Assembler PC v6.4.10 Mon Jul 11 12:58:57 2016

Tools Copyright (c) 1996-2015 Texas Instruments Incorporated
C:\Users\bee25\AppData\Local\Temp\0350410                            PAGE   40

    1958                      ; branchcc occurs ; [] |723| 
    1959                      .dwpsn  file "C:/ti/motorware/motorware_1_01_00_16/sw/solutions/instaspin_foc/src/proj_lab11.c",line 
    1960 000001af 06A6          MOVL      ACC,XAR6              ; [CPU_] |725| 
    1961 000001b0 FF54          NEG       ACC                   ; [CPU_] |725| 
    1962 000001b1 1EA6          MOVL      XAR6,ACC              ; [CPU_] |725| 
    1963 000001b2       $C$L9:    
    1964                      .dwpsn  file "C:/ti/motorware/motorware_1_01_00_16/sw/solutions/instaspin_foc/src/proj_lab11.c",line 
    1965 000001b2 06A6          MOVL      ACC,XAR6              ; [CPU_] |728| 
    1966              $C$DW$261       .dwtag  DW_TAG_TI_branch
    1967                      .dwattr $C$DW$261, DW_AT_low_pc(0x00)
    1968                      .dwattr $C$DW$261, DW_AT_TI_return
    1969 000001b3 0006          LRETR     ; [CPU_] 
    1970                      ; return occurs ; [] 
    1971                      .dwattr $C$DW$255, DW_AT_TI_end_file("C:/ti/motorware/motorware_1_01_00_16/sw/solutions/instaspin_foc
    1972                      .dwattr $C$DW$255, DW_AT_TI_end_line(0x2d9)
    1973                      .dwattr $C$DW$255, DW_AT_TI_end_column(0x01)
    1974                      .dwendentry
    1975                      .dwendtag $C$DW$255
    1976              
    1977 00000000               .sect   "ramfuncs:retain"
    1978                      .retain
    1979                      .retainrefs
    1980                      .global _mainISR
    1981              
    1982              $C$DW$262       .dwtag  DW_TAG_subprogram, DW_AT_name("mainISR")
    1983                      .dwattr $C$DW$262, DW_AT_low_pc(_mainISR)
    1984                      .dwattr $C$DW$262, DW_AT_high_pc(0x00)
    1985                      .dwattr $C$DW$262, DW_AT_TI_symbol_name("_mainISR")
    1986                      .dwattr $C$DW$262, DW_AT_external
    1987                      .dwattr $C$DW$262, DW_AT_TI_begin_file("C:/ti/motorware/motorware_1_01_00_16/sw/solutions/instaspin_f
    1988                      .dwattr $C$DW$262, DW_AT_TI_begin_line(0x219)
    1989                      .dwattr $C$DW$262, DW_AT_TI_begin_column(0x10)
    1990                      .dwattr $C$DW$262, DW_AT_TI_interrupt
    1991                      .dwattr $C$DW$262, DW_AT_TI_max_frame_size(-40)
    1992                      .dwpsn  file "C:/ti/motorware/motorware_1_01_00_16/sw/solutions/instaspin_foc/src/proj_lab11.c",line 
    1993              
    1994                      .dwfde $C$DW$CIE, _mainISR
    1995              
    1996              ;***************************************************************
    1997              ;* FNAME: _mainISR                      FR SIZE:  38           *
    1998              ;*                                                             *
    1999              ;* FUNCTION ENVIRONMENT                                        *
    2000              ;*                                                             *
    2001              ;* FUNCTION PROPERTIES                                         *
    2002              ;*                            4 Parameter, 18 Auto, 16 SOE     *
    2003              ;***************************************************************
    2004              
    2005              _mainISR:
    2006              ;* AR5   assigned to $O$C1
    2007              ;* AR5   assigned to $O$C2
    2008              ;* AR4   assigned to $O$C3
    2009              ;* AL    assigned to $O$C4
    2010              ;* PL    assigned to $O$C5
    2011              ;* AR4   assigned to $O$C6
    2012              ;* AR3   assigned to $O$C7
TMS320C2000 Assembler PC v6.4.10 Mon Jul 11 12:58:57 2016

Tools Copyright (c) 1996-2015 Texas Instruments Incorporated
C:\Users\bee25\AppData\Local\Temp\0350410                            PAGE   41

    2013              ;* AR4   assigned to $O$C9
    2014              ;* AR5   assigned to $O$C10
    2015              ;* AR5   assigned to $O$C11
    2016              ;* AR4   assigned to $O$C12
    2017              ;* AR4   assigned to $O$C13
    2018              ;* AL    assigned to $O$C14
    2019              ;* AR4   assigned to $O$C15
    2020              ;* AR4   assigned to $O$C16
    2021              ;* AL    assigned to $O$C17
    2022              ;* AR4   assigned to $O$C18
    2023              ;* AR4   assigned to $O$C19
    2024              ;* AR4   assigned to $O$C20
    2025              ;* AR7   assigned to $O$C21
    2026              ;* AR5   assigned to $O$C22
    2027              ;* AR6   assigned to $O$C23
    2028              ;* AR7   assigned to $O$C24
    2029              ;* AR4   assigned to $O$U317
    2030              ;* AR7   assigned to $O$U323
    2031              ;* AR4   assigned to _obj
    2032              $C$DW$263       .dwtag  DW_TAG_variable, DW_AT_name("obj")
    2033                      .dwattr $C$DW$263, DW_AT_TI_symbol_name("_obj")
    2034                      .dwattr $C$DW$263, DW_AT_type(*$C$DW$T$230)
    2035                      .dwattr $C$DW$263, DW_AT_location[DW_OP_reg12]
    2036              ;* AR7   assigned to _alpha_sf
    2037              $C$DW$264       .dwtag  DW_TAG_variable, DW_AT_name("alpha_sf")
    2038                      .dwattr $C$DW$264, DW_AT_TI_symbol_name("_alpha_sf")
    2039                      .dwattr $C$DW$264, DW_AT_type(*$C$DW$T$47)
    2040                      .dwattr $C$DW$264, DW_AT_location[DW_OP_reg18]
    2041              ;* AR6   assigned to _beta_sf
    2042              $C$DW$265       .dwtag  DW_TAG_variable, DW_AT_name("beta_sf")
    2043                      .dwattr $C$DW$265, DW_AT_TI_symbol_name("_beta_sf")
    2044                      .dwattr $C$DW$265, DW_AT_type(*$C$DW$T$47)
    2045                      .dwattr $C$DW$265, DW_AT_location[DW_OP_reg16]
    2046              ;* AR7   assigned to _alpha_sf
    2047              $C$DW$266       .dwtag  DW_TAG_variable, DW_AT_name("alpha_sf")
    2048                      .dwattr $C$DW$266, DW_AT_TI_symbol_name("_alpha_sf")
    2049                      .dwattr $C$DW$266, DW_AT_type(*$C$DW$T$47)
    2050                      .dwattr $C$DW$266, DW_AT_location[DW_OP_reg18]
    2051              ;* AR6   assigned to _beta_sf
    2052              $C$DW$267       .dwtag  DW_TAG_variable, DW_AT_name("beta_sf")
    2053                      .dwattr $C$DW$267, DW_AT_TI_symbol_name("_beta_sf")
    2054                      .dwattr $C$DW$267, DW_AT_type(*$C$DW$T$47)
    2055                      .dwattr $C$DW$267, DW_AT_location[DW_OP_reg16]
    2056              ;* AR7   assigned to _refValue
    2057              $C$DW$268       .dwtag  DW_TAG_variable, DW_AT_name("refValue")
    2058                      .dwattr $C$DW$268, DW_AT_TI_symbol_name("_refValue")
    2059                      .dwattr $C$DW$268, DW_AT_type(*$C$DW$T$47)
    2060                      .dwattr $C$DW$268, DW_AT_location[DW_OP_reg18]
    2061              ;* AR4   assigned to _obj
    2062              $C$DW$269       .dwtag  DW_TAG_variable, DW_AT_name("obj")
    2063                      .dwattr $C$DW$269, DW_AT_TI_symbol_name("_obj")
    2064                      .dwattr $C$DW$269, DW_AT_type(*$C$DW$T$261)
    2065                      .dwattr $C$DW$269, DW_AT_location[DW_OP_reg12]
    2066              ;* AR6   assigned to _Up
    2067              $C$DW$270       .dwtag  DW_TAG_variable, DW_AT_name("Up")
TMS320C2000 Assembler PC v6.4.10 Mon Jul 11 12:58:57 2016

Tools Copyright (c) 1996-2015 Texas Instruments Incorporated
C:\Users\bee25\AppData\Local\Temp\0350410                            PAGE   42

    2068                      .dwattr $C$DW$270, DW_AT_TI_symbol_name("_Up")
    2069                      .dwattr $C$DW$270, DW_AT_type(*$C$DW$T$47)
    2070                      .dwattr $C$DW$270, DW_AT_location[DW_OP_reg16]
    2071              ;* AL    assigned to _Ui
    2072              $C$DW$271       .dwtag  DW_TAG_variable, DW_AT_name("Ui")
    2073                      .dwattr $C$DW$271, DW_AT_TI_symbol_name("_Ui")
    2074                      .dwattr $C$DW$271, DW_AT_type(*$C$DW$T$47)
    2075                      .dwattr $C$DW$271, DW_AT_location[DW_OP_reg0]
    2076              ;* AR3   assigned to _refValue
    2077              $C$DW$272       .dwtag  DW_TAG_variable, DW_AT_name("refValue")
    2078                      .dwattr $C$DW$272, DW_AT_TI_symbol_name("_refValue")
    2079                      .dwattr $C$DW$272, DW_AT_type(*$C$DW$T$47)
    2080                      .dwattr $C$DW$272, DW_AT_location[DW_OP_reg10]
    2081              ;* AR7   assigned to _fbackValue
    2082              $C$DW$273       .dwtag  DW_TAG_variable, DW_AT_name("fbackValue")
    2083                      .dwattr $C$DW$273, DW_AT_TI_symbol_name("_fbackValue")
    2084                      .dwattr $C$DW$273, DW_AT_type(*$C$DW$T$47)
    2085                      .dwattr $C$DW$273, DW_AT_location[DW_OP_reg18]
    2086              ;* AR6   assigned to _obj
    2087              $C$DW$274       .dwtag  DW_TAG_variable, DW_AT_name("obj")
    2088                      .dwattr $C$DW$274, DW_AT_TI_symbol_name("_obj")
    2089                      .dwattr $C$DW$274, DW_AT_type(*$C$DW$T$261)
    2090                      .dwattr $C$DW$274, DW_AT_location[DW_OP_reg16]
    2091              $C$DW$275       .dwtag  DW_TAG_variable, DW_AT_name("Up")
    2092                      .dwattr $C$DW$275, DW_AT_TI_symbol_name("_Up")
    2093                      .dwattr $C$DW$275, DW_AT_type(*$C$DW$T$47)
    2094                      .dwattr $C$DW$275, DW_AT_location[DW_OP_breg20 -20]
    2095              ;* AL    assigned to _Ui
    2096              $C$DW$276       .dwtag  DW_TAG_variable, DW_AT_name("Ui")
    2097                      .dwattr $C$DW$276, DW_AT_TI_symbol_name("_Ui")
    2098                      .dwattr $C$DW$276, DW_AT_type(*$C$DW$T$47)
    2099                      .dwattr $C$DW$276, DW_AT_location[DW_OP_reg0]
    2100              ;* AR4   assigned to _obj
    2101              $C$DW$277       .dwtag  DW_TAG_variable, DW_AT_name("obj")
    2102                      .dwattr $C$DW$277, DW_AT_TI_symbol_name("_obj")
    2103                      .dwattr $C$DW$277, DW_AT_type(*$C$DW$T$261)
    2104                      .dwattr $C$DW$277, DW_AT_location[DW_OP_reg12]
    2105              ;* AR7   assigned to _refValue
    2106              $C$DW$278       .dwtag  DW_TAG_variable, DW_AT_name("refValue")
    2107                      .dwattr $C$DW$278, DW_AT_TI_symbol_name("_refValue")
    2108                      .dwattr $C$DW$278, DW_AT_type(*$C$DW$T$47)
    2109                      .dwattr $C$DW$278, DW_AT_location[DW_OP_reg18]
    2110              ;* AR6   assigned to _fbackValue
    2111              $C$DW$279       .dwtag  DW_TAG_variable, DW_AT_name("fbackValue")
    2112                      .dwattr $C$DW$279, DW_AT_TI_symbol_name("_fbackValue")
    2113                      .dwattr $C$DW$279, DW_AT_type(*$C$DW$T$47)
    2114                      .dwattr $C$DW$279, DW_AT_location[DW_OP_reg16]
    2115              ;* AR4   assigned to _obj
    2116              $C$DW$280       .dwtag  DW_TAG_variable, DW_AT_name("obj")
    2117                      .dwattr $C$DW$280, DW_AT_TI_symbol_name("_obj")
    2118                      .dwattr $C$DW$280, DW_AT_type(*$C$DW$T$261)
    2119                      .dwattr $C$DW$280, DW_AT_location[DW_OP_reg12]
    2120              ;* AR5   assigned to _Up
    2121              $C$DW$281       .dwtag  DW_TAG_variable, DW_AT_name("Up")
    2122                      .dwattr $C$DW$281, DW_AT_TI_symbol_name("_Up")
TMS320C2000 Assembler PC v6.4.10 Mon Jul 11 12:58:57 2016

Tools Copyright (c) 1996-2015 Texas Instruments Incorporated
C:\Users\bee25\AppData\Local\Temp\0350410                            PAGE   43

    2123                      .dwattr $C$DW$281, DW_AT_type(*$C$DW$T$47)
    2124                      .dwattr $C$DW$281, DW_AT_location[DW_OP_reg14]
    2125              ;* AL    assigned to _Ui
    2126              $C$DW$282       .dwtag  DW_TAG_variable, DW_AT_name("Ui")
    2127                      .dwattr $C$DW$282, DW_AT_TI_symbol_name("_Ui")
    2128                      .dwattr $C$DW$282, DW_AT_type(*$C$DW$T$47)
    2129                      .dwattr $C$DW$282, DW_AT_location[DW_OP_reg0]
    2130              ;* AR4   assigned to _obj
    2131              $C$DW$283       .dwtag  DW_TAG_variable, DW_AT_name("obj")
    2132                      .dwattr $C$DW$283, DW_AT_TI_symbol_name("_obj")
    2133                      .dwattr $C$DW$283, DW_AT_type(*$C$DW$T$240)
    2134                      .dwattr $C$DW$283, DW_AT_location[DW_OP_reg12]
    2135              ;* AR7   assigned to _sinTh
    2136              $C$DW$284       .dwtag  DW_TAG_variable, DW_AT_name("sinTh")
    2137                      .dwattr $C$DW$284, DW_AT_TI_symbol_name("_sinTh")
    2138                      .dwattr $C$DW$284, DW_AT_type(*$C$DW$T$47)
    2139                      .dwattr $C$DW$284, DW_AT_location[DW_OP_reg18]
    2140              ;* AR4   assigned to _cosTh
    2141              $C$DW$285       .dwtag  DW_TAG_variable, DW_AT_name("cosTh")
    2142                      .dwattr $C$DW$285, DW_AT_TI_symbol_name("_cosTh")
    2143                      .dwattr $C$DW$285, DW_AT_type(*$C$DW$T$47)
    2144                      .dwattr $C$DW$285, DW_AT_location[DW_OP_reg12]
    2145              ;* AR6   assigned to _Va
    2146              $C$DW$286       .dwtag  DW_TAG_variable, DW_AT_name("Va")
    2147                      .dwattr $C$DW$286, DW_AT_TI_symbol_name("_Va")
    2148                      .dwattr $C$DW$286, DW_AT_type(*$C$DW$T$47)
    2149                      .dwattr $C$DW$286, DW_AT_location[DW_OP_reg16]
    2150              ;* AR5   assigned to _Vb
    2151              $C$DW$287       .dwtag  DW_TAG_variable, DW_AT_name("Vb")
    2152                      .dwattr $C$DW$287, DW_AT_TI_symbol_name("_Vb")
    2153                      .dwattr $C$DW$287, DW_AT_type(*$C$DW$T$47)
    2154                      .dwattr $C$DW$287, DW_AT_location[DW_OP_reg14]
    2155              ;* AR7   assigned to _Vc
    2156              $C$DW$288       .dwtag  DW_TAG_variable, DW_AT_name("Vc")
    2157                      .dwattr $C$DW$288, DW_AT_TI_symbol_name("_Vc")
    2158                      .dwattr $C$DW$288, DW_AT_type(*$C$DW$T$47)
    2159                      .dwattr $C$DW$288, DW_AT_location[DW_OP_reg18]
    2160              ;* AR5   assigned to _obj
    2161              $C$DW$289       .dwtag  DW_TAG_variable, DW_AT_name("obj")
    2162                      .dwattr $C$DW$289, DW_AT_TI_symbol_name("_obj")
    2163                      .dwattr $C$DW$289, DW_AT_type(*$C$DW$T$230)
    2164                      .dwattr $C$DW$289, DW_AT_location[DW_OP_reg14]
    2165              ;* AR0   assigned to _period
    2166              $C$DW$290       .dwtag  DW_TAG_variable, DW_AT_name("period")
    2167                      .dwattr $C$DW$290, DW_AT_TI_symbol_name("_period")
    2168                      .dwattr $C$DW$290, DW_AT_type(*$C$DW$T$47)
    2169                      .dwattr $C$DW$290, DW_AT_location[DW_OP_reg4]
    2170              ;* AR6   assigned to _outMax_pu
    2171              $C$DW$291       .dwtag  DW_TAG_variable, DW_AT_name("outMax_pu")
    2172                      .dwattr $C$DW$291, DW_AT_TI_symbol_name("_outMax_pu")
    2173                      .dwattr $C$DW$291, DW_AT_type(*$C$DW$T$47)
    2174                      .dwattr $C$DW$291, DW_AT_location[DW_OP_reg16]
    2175              $C$DW$292       .dwtag  DW_TAG_variable, DW_AT_name("fbackValue")
    2176                      .dwattr $C$DW$292, DW_AT_TI_symbol_name("_fbackValue")
    2177                      .dwattr $C$DW$292, DW_AT_type(*$C$DW$T$47)
TMS320C2000 Assembler PC v6.4.10 Mon Jul 11 12:58:57 2016

Tools Copyright (c) 1996-2015 Texas Instruments Incorporated
C:\Users\bee25\AppData\Local\Temp\0350410                            PAGE   44

    2178                      .dwattr $C$DW$292, DW_AT_location[DW_OP_breg20 -20]
    2179              ;* AR1   assigned to _refValue
    2180              $C$DW$293       .dwtag  DW_TAG_variable, DW_AT_name("refValue")
    2181                      .dwattr $C$DW$293, DW_AT_TI_symbol_name("_refValue")
    2182                      .dwattr $C$DW$293, DW_AT_type(*$C$DW$T$47)
    2183                      .dwattr $C$DW$293, DW_AT_location[DW_OP_reg6]
    2184              ;* AR6   assigned to _oneOverDcBus
    2185              $C$DW$294       .dwtag  DW_TAG_variable, DW_AT_name("oneOverDcBus")
    2186                      .dwattr $C$DW$294, DW_AT_TI_symbol_name("_oneOverDcBus")
    2187                      .dwattr $C$DW$294, DW_AT_type(*$C$DW$T$47)
    2188                      .dwattr $C$DW$294, DW_AT_location[DW_OP_reg16]
    2189              $C$DW$295       .dwtag  DW_TAG_variable, DW_AT_name("speed_pu")
    2190                      .dwattr $C$DW$295, DW_AT_TI_symbol_name("_speed_pu")
    2191                      .dwattr $C$DW$295, DW_AT_type(*$C$DW$T$47)
    2192                      .dwattr $C$DW$295, DW_AT_location[DW_OP_breg20 -22]
    2193              ;* AR2   assigned to _angle_pu
    2194              $C$DW$296       .dwtag  DW_TAG_variable, DW_AT_name("angle_pu")
    2195                      .dwattr $C$DW$296, DW_AT_TI_symbol_name("_angle_pu")
    2196                      .dwattr $C$DW$296, DW_AT_type(*$C$DW$T$47)
    2197                      .dwattr $C$DW$296, DW_AT_location[DW_OP_reg8]
    2198              ;* XT    assigned to _value
    2199              $C$DW$297       .dwtag  DW_TAG_variable, DW_AT_name("value")
    2200                      .dwattr $C$DW$297, DW_AT_TI_symbol_name("_value")
    2201                      .dwattr $C$DW$297, DW_AT_type(*$C$DW$T$47)
    2202                      .dwattr $C$DW$297, DW_AT_location[DW_OP_reg21]
    2203              ;* XT    assigned to _value
    2204              $C$DW$298       .dwtag  DW_TAG_variable, DW_AT_name("value")
    2205                      .dwattr $C$DW$298, DW_AT_TI_symbol_name("_value")
    2206                      .dwattr $C$DW$298, DW_AT_type(*$C$DW$T$47)
    2207                      .dwattr $C$DW$298, DW_AT_location[DW_OP_reg21]
    2208              ;* XT    assigned to _value
    2209              $C$DW$299       .dwtag  DW_TAG_variable, DW_AT_name("value")
    2210                      .dwattr $C$DW$299, DW_AT_TI_symbol_name("_value")
    2211                      .dwattr $C$DW$299, DW_AT_type(*$C$DW$T$47)
    2212                      .dwattr $C$DW$299, DW_AT_location[DW_OP_reg21]
    2213              ;* XT    assigned to _value
    2214              $C$DW$300       .dwtag  DW_TAG_variable, DW_AT_name("value")
    2215                      .dwattr $C$DW$300, DW_AT_TI_symbol_name("_value")
    2216                      .dwattr $C$DW$300, DW_AT_type(*$C$DW$T$47)
    2217                      .dwattr $C$DW$300, DW_AT_location[DW_OP_reg21]
    2218              ;* XT    assigned to _value
    2219              $C$DW$301       .dwtag  DW_TAG_variable, DW_AT_name("value")
    2220                      .dwattr $C$DW$301, DW_AT_TI_symbol_name("_value")
    2221                      .dwattr $C$DW$301, DW_AT_type(*$C$DW$T$47)
    2222                      .dwattr $C$DW$301, DW_AT_location[DW_OP_reg21]
    2223              ;* XT    assigned to _value
    2224              $C$DW$302       .dwtag  DW_TAG_variable, DW_AT_name("value")
    2225                      .dwattr $C$DW$302, DW_AT_TI_symbol_name("_value")
    2226                      .dwattr $C$DW$302, DW_AT_type(*$C$DW$T$47)
    2227                      .dwattr $C$DW$302, DW_AT_location[DW_OP_reg21]
    2228              ;* XT    assigned to _value
    2229              $C$DW$303       .dwtag  DW_TAG_variable, DW_AT_name("value")
    2230                      .dwattr $C$DW$303, DW_AT_TI_symbol_name("_value")
    2231                      .dwattr $C$DW$303, DW_AT_type(*$C$DW$T$47)
    2232                      .dwattr $C$DW$303, DW_AT_location[DW_OP_reg21]
TMS320C2000 Assembler PC v6.4.10 Mon Jul 11 12:58:57 2016

Tools Copyright (c) 1996-2015 Texas Instruments Incorporated
C:\Users\bee25\AppData\Local\Temp\0350410                            PAGE   45

    2233              ;* PL    assigned to _Vmax
    2234              $C$DW$304       .dwtag  DW_TAG_variable, DW_AT_name("Vmax")
    2235                      .dwattr $C$DW$304, DW_AT_TI_symbol_name("_Vmax")
    2236                      .dwattr $C$DW$304, DW_AT_type(*$C$DW$T$47)
    2237                      .dwattr $C$DW$304, DW_AT_location[DW_OP_reg2]
    2238              ;* XT    assigned to _Vmin
    2239              $C$DW$305       .dwtag  DW_TAG_variable, DW_AT_name("Vmin")
    2240                      .dwattr $C$DW$305, DW_AT_TI_symbol_name("_Vmin")
    2241                      .dwattr $C$DW$305, DW_AT_type(*$C$DW$T$47)
    2242                      .dwattr $C$DW$305, DW_AT_location[DW_OP_reg21]
    2243              ;* AR4   assigned to $O$v2
    2244              ;* AR4   assigned to $O$v1
    2245              ;* AR4   assigned to $O$v1
    2246              $C$DW$306       .dwtag  DW_TAG_variable, DW_AT_name("Iab_pu")
    2247                      .dwattr $C$DW$306, DW_AT_TI_symbol_name("_Iab_pu")
    2248                      .dwattr $C$DW$306, DW_AT_type(*$C$DW$T$246)
    2249                      .dwattr $C$DW$306, DW_AT_location[DW_OP_breg20 -8]
    2250              $C$DW$307       .dwtag  DW_TAG_variable, DW_AT_name("Vab_pu")
    2251                      .dwattr $C$DW$307, DW_AT_TI_symbol_name("_Vab_pu")
    2252                      .dwattr $C$DW$307, DW_AT_type(*$C$DW$T$246)
    2253                      .dwattr $C$DW$307, DW_AT_location[DW_OP_breg20 -12]
    2254              $C$DW$308       .dwtag  DW_TAG_variable, DW_AT_name("phasor")
    2255                      .dwattr $C$DW$308, DW_AT_TI_symbol_name("_phasor")
    2256                      .dwattr $C$DW$308, DW_AT_type(*$C$DW$T$246)
    2257                      .dwattr $C$DW$308, DW_AT_location[DW_OP_breg20 -16]
    2258                      .dwcfi  cfa_offset, -2
    2259                      .dwcfi  save_reg_to_mem, 26, 0
    2260 00000000 761B          ASP       ; [CPU_] 
    2261 00000001 0005          PUSH      AR1H:AR0H             ; [CPU_] 
    2262                      .dwcfi  save_reg_to_mem, 5, 2
    2263                      .dwcfi  save_reg_to_mem, 7, 3
    2264                      .dwcfi  cfa_offset, -4
    2265 00000002 ABBD          MOVL      *SP++,XT              ; [CPU_] 
    2266                      .dwcfi  save_reg_to_mem, 21, 4
    2267                      .dwcfi  save_reg_to_mem, 22, 5
    2268                      .dwcfi  cfa_offset, -6
    2269 00000003 AABD          MOVL      *SP++,XAR2            ; [CPU_] 
    2270                      .dwcfi  save_reg_to_mem, 8, 6
    2271                      .dwcfi  save_reg_to_mem, 9, 7
    2272                      .dwcfi  cfa_offset, -8
    2273 00000004 A2BD          MOVL      *SP++,XAR3            ; [CPU_] 
    2274                      .dwcfi  save_reg_to_mem, 10, 8
    2275                      .dwcfi  save_reg_to_mem, 11, 9
    2276                      .dwcfi  cfa_offset, -10
    2277 00000005 A8BD          MOVL      *SP++,XAR4            ; [CPU_] 
    2278                      .dwcfi  save_reg_to_mem, 12, 10
    2279                      .dwcfi  save_reg_to_mem, 13, 11
    2280                      .dwcfi  cfa_offset, -12
    2281 00000006 A0BD          MOVL      *SP++,XAR5            ; [CPU_] 
    2282                      .dwcfi  save_reg_to_mem, 14, 12
    2283                      .dwcfi  save_reg_to_mem, 15, 13
    2284                      .dwcfi  cfa_offset, -14
    2285 00000007 C2BD          MOVL      *SP++,XAR6            ; [CPU_] 
    2286                      .dwcfi  save_reg_to_mem, 16, 14
    2287                      .dwcfi  save_reg_to_mem, 17, 15
TMS320C2000 Assembler PC v6.4.10 Mon Jul 11 12:58:57 2016

Tools Copyright (c) 1996-2015 Texas Instruments Incorporated
C:\Users\bee25\AppData\Local\Temp\0350410                            PAGE   46

    2288                      .dwcfi  cfa_offset, -16
    2289 00000008 C3BD          MOVL      *SP++,XAR7            ; [CPU_] 
    2290                      .dwcfi  save_reg_to_mem, 18, 16
    2291                      .dwcfi  save_reg_to_mem, 19, 17
    2292                      .dwcfi  cfa_offset, -18
    2293 00000009 FE16          ADDB      SP,#22                ; [CPU_U] 
    2294                      .dwcfi  cfa_offset, -40
    2295 0000000a FF69          SPM       0                     ; [CPU_] 
    2296 0000000b 2942          CLRC      PAGE0,OVM             ; [CPU_] 
    2297 0000000c 5616          CLRC      AMODE                 ; [CPU_] 
    2298 0000000d 761F-         MOVW      DP,#_halHandle        ; [CPU_U] 
         0000000e 0000 
    2299                      .dwpsn  file "C:/ti/motorware/motorware_1_01_00_16/sw/solutions/instaspin_foc/src/proj_lab11.c",line 
    2300 0000000f 8A00-         MOVL      XAR4,@_halHandle      ; [CPU_] |548| 
    2301                      .dwpsn  file "C:/ti/motorware/motorware_1_01_00_16/sw/drivers/adc/src/32b/f28x/f2802x/adc.h",line 571
    2302 00000010 8F40          MOVL      XAR5,#26117           ; [CPU_U] |571| 
         00000011 6605 
    2303 00000012 A0A9          MOVL      ACC,XAR5              ; [CPU_] |571| 
    2304 00000013 07C4          ADDL      ACC,*+XAR4[0]         ; [CPU_] |571| 
    2305 00000014 83A9          MOVL      XAR5,ACC              ; [CPU_] |571| 
    2306                      .dwpsn  file "C:/ti/motorware/motorware_1_01_00_16/sw/drivers/pie/src/32b/f28x/f2802x/pie.h",line 757
    2307 00000015 D078          MOVB      XAR0,#120             ; [CPU_] |757| 
    2308                      .dwpsn  file "C:/ti/motorware/motorware_1_01_00_16/sw/drivers/adc/src/32b/f28x/f2802x/adc.h",line 571
    2309 00000016 56BF          MOVB      *+XAR5[0],#1,UNC      ; [CPU_] |571| 
         00000017 01C5 
    2310                      .dwpsn  file "C:/ti/motorware/motorware_1_01_00_16/sw/drivers/pie/src/32b/f28x/f2802x/pie.h",line 757
    2311 00000018 8394          MOVL      XAR5,*+XAR4[AR0]      ; [CPU_] |757| 
    2312                      .dwpsn  file "C:/ti/motorware/motorware_1_01_00_16/sw/modules/hal/boards/boostxldrv8301_revB/f28x/f28
    2313 00000019 D0A2          MOVB      XAR0,#162             ; [CPU_] |564| 
    2314                      .dwpsn  file "C:/ti/motorware/motorware_1_01_00_16/sw/drivers/pie/src/32b/f28x/f2802x/pie.h",line 757
    2315 0000001a 28CD          MOV       *+XAR5[1],#512        ; [CPU_] |757| 
         0000001b 0200 
    2316                      .dwpsn  file "C:/ti/motorware/motorware_1_01_00_16/sw/drivers/adc/src/32b/f28x/f2802x/adc.h",line 684
    2317 0000001c 83C4          MOVL      XAR5,*+XAR4[0]        ; [CPU_] |684| 
    2318                      .dwpsn  file "C:/ti/motorware/motorware_1_01_00_16/sw/modules/hal/boards/boostxldrv8301_revB/f28x/f28
    2319 0000001d C594          MOVL      XAR7,*+XAR4[AR0]      ; [CPU_] |564| 
    2320                      .dwpsn  file "C:/ti/motorware/motorware_1_01_00_16/sw/modules/hal/boards/boostxldrv8301_revB/f28x/f28
    2321 0000001e 7680-         MOVL      XAR6,#_gAdcData       ; [CPU_U] |565| 
         0000001f 0052 
    2322                      .dwpsn  file "C:/ti/motorware/motorware_1_01_00_16/sw/modules/hal/boards/boostxldrv8301_revB/f28x/f28
    2323 00000020 D0A4          MOVB      XAR0,#164             ; [CPU_] |579| 
    2324                      .dwpsn  file "C:/ti/motorware/motorware_1_01_00_16/sw/drivers/adc/src/32b/f28x/f2802x/adc.h",line 684
    2325 00000021 0ECD          MOVU      ACC,*+XAR5[1]         ; [CPU_] |684| 
    2326 00000022 1EAC          MOVL      XT,ACC                ; [CPU_] |684| 
    2327                      .dwpsn  file "C:/ti/motorware/motorware_1_01_00_16/sw/modules/hal/boards/boostxldrv8301_revB/f28x/f28
    2328 00000023 5605          IMPYL     P,XT,XAR7             ; [CPU_] |564| 
         00000024 00A7 
    2329 00000025 5663          QMPYL     ACC,XT,XAR7           ; [CPU_] |564| 
         00000026 00A7 
    2330 00000027 568B          ASR64     ACC:P,#12             ; [CPU_] |564| 
    2331                      .dwpsn  file "C:/ti/motorware/motorware_1_01_00_16/sw/modules/hal/boards/boostxldrv8301_revB/f28x/f28
    2332 00000028 A9C6          MOVL      *+XAR6[0],P           ; [CPU_] |565| 
    2333                      .dwpsn  file "C:/ti/motorware/motorware_1_01_00_16/sw/drivers/adc/src/32b/f28x/f2802x/adc.h",line 684
    2334 00000029 0ED5          MOVU      ACC,*+XAR5[2]         ; [CPU_] |684| 
    2335 0000002a 1EAC          MOVL      XT,ACC                ; [CPU_] |684| 
TMS320C2000 Assembler PC v6.4.10 Mon Jul 11 12:58:57 2016

Tools Copyright (c) 1996-2015 Texas Instruments Incorporated
C:\Users\bee25\AppData\Local\Temp\0350410                            PAGE   47

    2336                      .dwpsn  file "C:/ti/motorware/motorware_1_01_00_16/sw/modules/hal/boards/boostxldrv8301_revB/f28x/f28
    2337 0000002b 5663          QMPYL     ACC,XT,XAR7           ; [CPU_] |569| 
         0000002c 00A7 
    2338 0000002d 5605          IMPYL     P,XT,XAR7             ; [CPU_] |569| 
         0000002e 00A7 
    2339 0000002f 568B          ASR64     ACC:P,#12             ; [CPU_] |569| 
    2340                      .dwpsn  file "C:/ti/motorware/motorware_1_01_00_16/sw/modules/hal/boards/boostxldrv8301_revB/f28x/f28
    2341 00000030 A9D6          MOVL      *+XAR6[2],P           ; [CPU_] |570| 
    2342                      .dwpsn  file "C:/ti/motorware/motorware_1_01_00_16/sw/drivers/adc/src/32b/f28x/f2802x/adc.h",line 684
    2343 00000031 0EDD          MOVU      ACC,*+XAR5[3]         ; [CPU_] |684| 
    2344 00000032 1EAC          MOVL      XT,ACC                ; [CPU_] |684| 
    2345                      .dwpsn  file "C:/ti/motorware/motorware_1_01_00_16/sw/modules/hal/boards/boostxldrv8301_revB/f28x/f28
    2346 00000033 5663          QMPYL     ACC,XT,XAR7           ; [CPU_] |574| 
         00000034 00A7 
    2347 00000035 5605          IMPYL     P,XT,XAR7             ; [CPU_] |574| 
         00000036 00A7 
    2348 00000037 568B          ASR64     ACC:P,#12             ; [CPU_] |574| 
    2349                      .dwpsn  file "C:/ti/motorware/motorware_1_01_00_16/sw/modules/hal/boards/boostxldrv8301_revB/f28x/f28
    2350 00000038 A9E6          MOVL      *+XAR6[4],P           ; [CPU_] |575| 
    2351                      .dwpsn  file "C:/ti/motorware/motorware_1_01_00_16/sw/drivers/adc/src/32b/f28x/f2802x/adc.h",line 684
    2352 00000039 0EE5          MOVU      ACC,*+XAR5[4]         ; [CPU_] |684| 
    2353                      .dwpsn  file "C:/ti/motorware/motorware_1_01_00_16/sw/modules/hal/boards/boostxldrv8301_revB/f28x/f28
    2354 0000003a C594          MOVL      XAR7,*+XAR4[AR0]      ; [CPU_] |579| 
    2355 0000003b 761F-         MOVW      DP,#_gAdcData+12      ; [CPU_U] 
         0000003c 0001 
    2356                      .dwpsn  file "C:/ti/motorware/motorware_1_01_00_16/sw/drivers/adc/src/32b/f28x/f2802x/adc.h",line 684
    2357 0000003d 1EAC          MOVL      XT,ACC                ; [CPU_] |684| 
    2358                      .dwpsn  file "C:/ti/motorware/motorware_1_01_00_16/sw/modules/hal/boards/boostxldrv8301_revB/f28x/f28
    2359 0000003e D008          MOVB      XAR0,#8               ; [CPU_] |585| 
    2360                      .dwpsn  file "C:/ti/motorware/motorware_1_01_00_16/sw/modules/hal/boards/boostxldrv8301_revB/f28x/f28
    2361 0000003f 5663          QMPYL     ACC,XT,XAR7           ; [CPU_] |579| 
         00000040 00A7 
    2362 00000041 5605          IMPYL     P,XT,XAR7             ; [CPU_] |579| 
         00000042 00A7 
    2363                      .dwpsn  file "C:/ti/motorware/motorware_1_01_00_16/sw/solutions/instaspin_foc/src/proj_lab11.c",line 
    2364 00000043 8F00-         MOVL      XAR4,#_gOffsets_I_pu  ; [CPU_U] |554| 
         00000044 0046 
    2365                      .dwpsn  file "C:/ti/motorware/motorware_1_01_00_16/sw/modules/hal/boards/boostxldrv8301_revB/f28x/f28
    2366 00000045 568B          ASR64     ACC:P,#12             ; [CPU_] |579| 
    2367                      .dwpsn  file "C:/ti/motorware/motorware_1_01_00_16/sw/modules/hal/boards/boostxldrv8301_revB/f28x/f28
    2368 00000046 A9F6          MOVL      *+XAR6[6],P           ; [CPU_] |580| 
    2369                      .dwpsn  file "C:/ti/motorware/motorware_1_01_00_16/sw/drivers/adc/src/32b/f28x/f2802x/adc.h",line 684
    2370 00000047 0EED          MOVU      ACC,*+XAR5[5]         ; [CPU_] |684| 
    2371 00000048 1EAC          MOVL      XT,ACC                ; [CPU_] |684| 
    2372                      .dwpsn  file "C:/ti/motorware/motorware_1_01_00_16/sw/modules/hal/boards/boostxldrv8301_revB/f28x/f28
    2373 00000049 5663          QMPYL     ACC,XT,XAR7           ; [CPU_] |584| 
         0000004a 00A7 
    2374 0000004b 5605          IMPYL     P,XT,XAR7             ; [CPU_] |584| 
         0000004c 00A7 
    2375 0000004d 568B          ASR64     ACC:P,#12             ; [CPU_] |584| 
    2376                      .dwpsn  file "C:/ti/motorware/motorware_1_01_00_16/sw/modules/hal/boards/boostxldrv8301_revB/f28x/f28
    2377 0000004e A996          MOVL      *+XAR6[AR0],P         ; [CPU_] |585| 
    2378                      .dwpsn  file "C:/ti/motorware/motorware_1_01_00_16/sw/modules/hal/boards/boostxldrv8301_revB/f28x/f28
    2379 0000004f D00A          MOVB      XAR0,#10              ; [CPU_] |590| 
    2380                      .dwpsn  file "C:/ti/motorware/motorware_1_01_00_16/sw/drivers/adc/src/32b/f28x/f2802x/adc.h",line 684
TMS320C2000 Assembler PC v6.4.10 Mon Jul 11 12:58:57 2016

Tools Copyright (c) 1996-2015 Texas Instruments Incorporated
C:\Users\bee25\AppData\Local\Temp\0350410                            PAGE   48

    2381 00000050 0EF5          MOVU      ACC,*+XAR5[6]         ; [CPU_] |684| 
    2382 00000051 1EAC          MOVL      XT,ACC                ; [CPU_] |684| 
    2383                      .dwpsn  file "C:/ti/motorware/motorware_1_01_00_16/sw/modules/hal/boards/boostxldrv8301_revB/f28x/f28
    2384 00000052 5663          QMPYL     ACC,XT,XAR7           ; [CPU_] |589| 
         00000053 00A7 
    2385 00000054 5605          IMPYL     P,XT,XAR7             ; [CPU_] |589| 
         00000055 00A7 
    2386 00000056 568B          ASR64     ACC:P,#12             ; [CPU_] |589| 
    2387                      .dwpsn  file "C:/ti/motorware/motorware_1_01_00_16/sw/modules/hal/boards/boostxldrv8301_revB/f28x/f28
    2388 00000057 A996          MOVL      *+XAR6[AR0],P         ; [CPU_] |590| 
    2389                      .dwpsn  file "C:/ti/motorware/motorware_1_01_00_16/sw/drivers/adc/src/32b/f28x/f2802x/adc.h",line 684
    2390 00000058 0EFD          MOVU      ACC,*+XAR5[7]         ; [CPU_] |684| 
    2391 00000059 1EAC          MOVL      XT,ACC                ; [CPU_] |684| 
    2392                      .dwpsn  file "C:/ti/motorware/motorware_1_01_00_16/sw/modules/hal/boards/boostxldrv8301_revB/f28x/f28
    2393 0000005a 5663          QMPYL     ACC,XT,XAR7           ; [CPU_] |594| 
         0000005b 00A7 
    2394 0000005c 5605          IMPYL     P,XT,XAR7             ; [CPU_] |594| 
         0000005d 00A7 
    2395 0000005e 568B          ASR64     ACC:P,#12             ; [CPU_] |594| 
    2396                      .dwpsn  file "C:/ti/motorware/motorware_1_01_00_16/sw/modules/hal/boards/boostxldrv8301_revB/f28x/f28
    2397 0000005f A91E-         MOVL      @_gAdcData+12,P       ; [CPU_] |595| 
    2398                      .dwpsn  file "C:/ti/motorware/motorware_1_01_00_16/sw/solutions/instaspin_foc/src/proj_lab11.c",line 
    2399 00000060 06C4          MOVL      ACC,*+XAR4[0]         ; [CPU_] |554| 
    2400 00000061 5641-         SUBL      @_gAdcData,ACC        ; [CPU_] |554| 
         00000062 0012 
    2401                      .dwpsn  file "C:/ti/motorware/motorware_1_01_00_16/sw/solutions/instaspin_foc/src/proj_lab11.c",line 
    2402 00000063 06D4          MOVL      ACC,*+XAR4[2]         ; [CPU_] |555| 
    2403 00000064 5641-         SUBL      @_gAdcData+2,ACC      ; [CPU_] |555| 
         00000065 0014 
    2404                      .dwpsn  file "C:/ti/motorware/motorware_1_01_00_16/sw/solutions/instaspin_foc/src/proj_lab11.c",line 
    2405 00000066 06E4          MOVL      ACC,*+XAR4[4]         ; [CPU_] |556| 
    2406                      .dwpsn  file "C:/ti/motorware/motorware_1_01_00_16/sw/solutions/instaspin_foc/src/proj_lab11.c",line 
    2407 00000067 8F00-         MOVL      XAR4,#_gOffsets_V_pu  ; [CPU_U] |557| 
         00000068 0030 
    2408                      .dwpsn  file "C:/ti/motorware/motorware_1_01_00_16/sw/solutions/instaspin_foc/src/proj_lab11.c",line 
    2409 00000069 5641-         SUBL      @_gAdcData+4,ACC      ; [CPU_] |556| 
         0000006a 0016 
    2410                      .dwpsn  file "C:/ti/motorware/motorware_1_01_00_16/sw/solutions/instaspin_foc/src/proj_lab11.c",line 
    2411 0000006b 06C4          MOVL      ACC,*+XAR4[0]         ; [CPU_] |557| 
    2412 0000006c 5641-         SUBL      @_gAdcData+6,ACC      ; [CPU_] |557| 
         0000006d 0018 
    2413                      .dwpsn  file "C:/ti/motorware/motorware_1_01_00_16/sw/solutions/instaspin_foc/src/proj_lab11.c",line 
    2414 0000006e 06D4          MOVL      ACC,*+XAR4[2]         ; [CPU_] |558| 
    2415 0000006f 5641-         SUBL      @_gAdcData+8,ACC      ; [CPU_] |558| 
         00000070 001A 
    2416                      .dwpsn  file "C:/ti/motorware/motorware_1_01_00_16/sw/solutions/instaspin_foc/src/proj_lab11.c",line 
    2417 00000071 06E4          MOVL      ACC,*+XAR4[4]         ; [CPU_] |559| 
    2418 00000072 5641-         SUBL      @_gAdcData+10,ACC     ; [CPU_] |559| 
         00000073 001C 
    2419 00000074 761F-         MOVW      DP,#_clarkeHandle_I   ; [CPU_U] 
         00000075 0000 
    2420                      .dwpsn  file "C:/ti/motorware/motorware_1_01_00_16/sw/modules/clarke/src/32b/clarke.h",line 125,colum
    2421 00000076 8A0A-         MOVL      XAR4,@_clarkeHandle_I ; [CPU_] |125| 
    2422                      .dwpsn  file "C:/ti/motorware/motorware_1_01_00_16/sw/modules/clarke/src/32b/clarke.h",line 129,colum
    2423 00000077 92E4          MOV       AL,*+XAR4[4]          ; [CPU_] |129| 
TMS320C2000 Assembler PC v6.4.10 Mon Jul 11 12:58:57 2016

Tools Copyright (c) 1996-2015 Texas Instruments Incorporated
C:\Users\bee25\AppData\Local\Temp\0350410                            PAGE   49

    2424                      .dwpsn  file "C:/ti/motorware/motorware_1_01_00_16/sw/modules/clarke/src/32b/clarke.h",line 126,colum
    2425 00000078 C4D4          MOVL      XAR6,*+XAR4[2]        ; [CPU_] |126| 
    2426                      .dwpsn  file "C:/ti/motorware/motorware_1_01_00_16/sw/modules/clarke/src/32b/clarke.h",line 125,colum
    2427 00000079 C5C4          MOVL      XAR7,*+XAR4[0]        ; [CPU_] |125| 
    2428                      .dwpsn  file "C:/ti/motorware/motorware_1_01_00_16/sw/modules/clarke/src/32b/clarke.h",line 129,colum
    2429 0000007a 5203          CMPB      AL,#3                 ; [CPU_] |129| 
    2430 0000007b EC10          BF        $C$L10,EQ             ; [CPU_] |129| 
    2431                      ; branchcc occurs ; [] |129| 
    2432                      .dwpsn  file "C:/ti/motorware/motorware_1_01_00_16/sw/modules/clarke/src/32b/clarke.h",line 134,colum
    2433 0000007c 5202          CMPB      AL,#2                 ; [CPU_] |134| 
    2434 0000007d ED26          BF        $C$L12,NEQ            ; [CPU_] |134| 
    2435                      ; branchcc occurs ; [] |134| 
    2436 0000007e 761F-         MOVW      DP,#_gAdcData         ; [CPU_U] 
         0000007f 0001 
    2437                      .dwpsn  file "C:/ti/motorware/motorware_1_01_00_16/sw/modules/clarke/src/32b/clarke.h",line 136,colum
    2438 00000080 8712-         MOVL      XT,@_gAdcData         ; [CPU_] |136| 
    2439 00000081 5605          IMPYL     P,XT,XAR7             ; [CPU_] |136| 
         00000082 00A7 
    2440 00000083 5663          QMPYL     ACC,XT,XAR7           ; [CPU_] |136| 
         00000084 00A7 
    2441 00000085 56A7          LSL64     ACC:P,#8              ; [CPU_] |136| 
    2442 00000086 1E48          MOVL      *-SP[8],ACC           ; [CPU_] |136| 
    2443                      .dwpsn  file "C:/ti/motorware/motorware_1_01_00_16/sw/modules/clarke/src/32b/clarke.h",line 137,colum
    2444 00000087 0614-         MOVL      ACC,@_gAdcData+2      ; [CPU_] |137| 
    2445 00000088 FF30          LSL       ACC,1                 ; [CPU_] |137| 
    2446 00000089 0712-         ADDL      ACC,@_gAdcData        ; [CPU_] |137| 
    2447 0000008a 6F12          B         $C$L11,UNC            ; [CPU_] |137| 
    2448                      ; branch occurs ; [] |137| 
    2449 0000008b       $C$L10:    
    2450 0000008b 761F-         MOVW      DP,#_gAdcData         ; [CPU_U] 
         0000008c 0001 
    2451                      .dwpsn  file "C:/ti/motorware/motorware_1_01_00_16/sw/modules/clarke/src/32b/clarke.h",line 131,colum
    2452 0000008d 8F00-         MOVL      XAR4,#_gAdcData       ; [CPU_U] |131| 
         0000008e 0052 
    2453 0000008f 0612-         MOVL      ACC,@_gAdcData        ; [CPU_] |131| 
    2454 00000090 FF30          LSL       ACC,1                 ; [CPU_] |131| 
    2455 00000091 03D4          SUBL      ACC,*+XAR4[2]         ; [CPU_] |131| 
    2456 00000092 03E4          SUBL      ACC,*+XAR4[4]         ; [CPU_] |131| 
    2457 00000093 1EAC          MOVL      XT,ACC                ; [CPU_] |131| 
    2458 00000094 5605          IMPYL     P,XT,XAR7             ; [CPU_] |131| 
         00000095 00A7 
    2459 00000096 5663          QMPYL     ACC,XT,XAR7           ; [CPU_] |131| 
         00000097 00A7 
    2460 00000098 56A7          LSL64     ACC:P,#8              ; [CPU_] |131| 
    2461 00000099 1E48          MOVL      *-SP[8],ACC           ; [CPU_] |131| 
    2462                      .dwpsn  file "C:/ti/motorware/motorware_1_01_00_16/sw/modules/clarke/src/32b/clarke.h",line 132,colum
    2463 0000009a 0614-         MOVL      ACC,@_gAdcData+2      ; [CPU_] |132| 
    2464 0000009b 0316-         SUBL      ACC,@_gAdcData+4      ; [CPU_] |132| 
    2465 0000009c       $C$L11:    
    2466 0000009c 1EAC          MOVL      XT,ACC                ; [CPU_] |132| 
    2467 0000009d 5605          IMPYL     P,XT,XAR6             ; [CPU_] |132| 
         0000009e 00A6 
    2468 0000009f 5663          QMPYL     ACC,XT,XAR6           ; [CPU_] |132| 
         000000a0 00A6 
    2469 000000a1 56A7          LSL64     ACC:P,#8              ; [CPU_] |132| 
TMS320C2000 Assembler PC v6.4.10 Mon Jul 11 12:58:57 2016

Tools Copyright (c) 1996-2015 Texas Instruments Incorporated
C:\Users\bee25\AppData\Local\Temp\0350410                            PAGE   50

    2470 000000a2 1E46          MOVL      *-SP[6],ACC           ; [CPU_] |132| 
    2471 000000a3       $C$L12:    
    2472 000000a3 761F-         MOVW      DP,#_clarkeHandle_V   ; [CPU_U] 
         000000a4 0000 
    2473                      .dwpsn  file "C:/ti/motorware/motorware_1_01_00_16/sw/modules/clarke/src/32b/clarke.h",line 125,colum
    2474 000000a5 8A04-         MOVL      XAR4,@_clarkeHandle_V ; [CPU_] |125| 
    2475                      .dwpsn  file "C:/ti/motorware/motorware_1_01_00_16/sw/modules/clarke/src/32b/clarke.h",line 129,colum
    2476 000000a6 92E4          MOV       AL,*+XAR4[4]          ; [CPU_] |129| 
    2477                      .dwpsn  file "C:/ti/motorware/motorware_1_01_00_16/sw/modules/clarke/src/32b/clarke.h",line 125,colum
    2478 000000a7 C5C4          MOVL      XAR7,*+XAR4[0]        ; [CPU_] |125| 
    2479                      .dwpsn  file "C:/ti/motorware/motorware_1_01_00_16/sw/modules/clarke/src/32b/clarke.h",line 126,colum
    2480 000000a8 C4D4          MOVL      XAR6,*+XAR4[2]        ; [CPU_] |126| 
    2481                      .dwpsn  file "C:/ti/motorware/motorware_1_01_00_16/sw/modules/clarke/src/32b/clarke.h",line 129,colum
    2482 000000a9 5203          CMPB      AL,#3                 ; [CPU_] |129| 
    2483 000000aa EC13          BF        $C$L13,EQ             ; [CPU_] |129| 
    2484                      ; branchcc occurs ; [] |129| 
    2485                      .dwpsn  file "C:/ti/motorware/motorware_1_01_00_16/sw/modules/clarke/src/32b/clarke.h",line 134,colum
    2486 000000ab 5202          CMPB      AL,#2                 ; [CPU_] |134| 
    2487 000000ac ED2B          BF        $C$L15,NEQ            ; [CPU_] |134| 
    2488                      ; branchcc occurs ; [] |134| 
    2489                      .dwpsn  file "C:/ti/motorware/motorware_1_01_00_16/sw/modules/clarke/src/32b/clarke.h",line 136,colum
    2490 000000ad 8F00-         MOVL      XAR4,#_gAdcData       ; [CPU_U] |136| 
         000000ae 0052 
    2491 000000af 87F4          MOVL      XT,*+XAR4[6]          ; [CPU_] |136| 
    2492                      .dwpsn  file "C:/ti/motorware/motorware_1_01_00_16/sw/modules/clarke/src/32b/clarke.h",line 137,colum
    2493 000000b0 D008          MOVB      XAR0,#8               ; [CPU_] |137| 
    2494 000000b1 761F-         MOVW      DP,#_gAdcData+6       ; [CPU_U] 
         000000b2 0001 
    2495                      .dwpsn  file "C:/ti/motorware/motorware_1_01_00_16/sw/modules/clarke/src/32b/clarke.h",line 136,colum
    2496 000000b3 5605          IMPYL     P,XT,XAR7             ; [CPU_] |136| 
         000000b4 00A7 
    2497 000000b5 5663          QMPYL     ACC,XT,XAR7           ; [CPU_] |136| 
         000000b6 00A7 
    2498 000000b7 56A7          LSL64     ACC:P,#8              ; [CPU_] |136| 
    2499 000000b8 1E4C          MOVL      *-SP[12],ACC          ; [CPU_] |136| 
    2500                      .dwpsn  file "C:/ti/motorware/motorware_1_01_00_16/sw/modules/clarke/src/32b/clarke.h",line 137,colum
    2501 000000b9 0694          MOVL      ACC,*+XAR4[AR0]       ; [CPU_] |137| 
    2502 000000ba FF30          LSL       ACC,1                 ; [CPU_] |137| 
    2503 000000bb 0718-         ADDL      ACC,@_gAdcData+6      ; [CPU_] |137| 
    2504 000000bc 6F14          B         $C$L14,UNC            ; [CPU_] |137| 
    2505                      ; branch occurs ; [] |137| 
    2506 000000bd       $C$L13:    
    2507                      .dwpsn  file "C:/ti/motorware/motorware_1_01_00_16/sw/modules/clarke/src/32b/clarke.h",line 131,colum
    2508 000000bd 8F00-         MOVL      XAR4,#_gAdcData       ; [CPU_U] |131| 
         000000be 0052 
    2509 000000bf D008          MOVB      XAR0,#8               ; [CPU_] |131| 
    2510 000000c0 06F4          MOVL      ACC,*+XAR4[6]         ; [CPU_] |131| 
    2511 000000c1 761F-         MOVW      DP,#_gAdcData+8       ; [CPU_U] 
         000000c2 0001 
    2512 000000c3 FF30          LSL       ACC,1                 ; [CPU_] |131| 
    2513 000000c4 0394          SUBL      ACC,*+XAR4[AR0]       ; [CPU_] |131| 
    2514 000000c5 D00A          MOVB      XAR0,#10              ; [CPU_] |131| 
    2515 000000c6 0394          SUBL      ACC,*+XAR4[AR0]       ; [CPU_] |131| 
    2516 000000c7 1EAC          MOVL      XT,ACC                ; [CPU_] |131| 
    2517 000000c8 5605          IMPYL     P,XT,XAR7             ; [CPU_] |131| 
TMS320C2000 Assembler PC v6.4.10 Mon Jul 11 12:58:57 2016

Tools Copyright (c) 1996-2015 Texas Instruments Incorporated
C:\Users\bee25\AppData\Local\Temp\0350410                            PAGE   51

         000000c9 00A7 
    2518 000000ca 5663          QMPYL     ACC,XT,XAR7           ; [CPU_] |131| 
         000000cb 00A7 
    2519 000000cc 56A7          LSL64     ACC:P,#8              ; [CPU_] |131| 
    2520 000000cd 1E4C          MOVL      *-SP[12],ACC          ; [CPU_] |131| 
    2521                      .dwpsn  file "C:/ti/motorware/motorware_1_01_00_16/sw/modules/clarke/src/32b/clarke.h",line 132,colum
    2522 000000ce 061A-         MOVL      ACC,@_gAdcData+8      ; [CPU_] |132| 
    2523 000000cf 031C-         SUBL      ACC,@_gAdcData+10     ; [CPU_] |132| 
    2524 000000d0       $C$L14:    
    2525 000000d0 1EAC          MOVL      XT,ACC                ; [CPU_] |132| 
    2526 000000d1 5605          IMPYL     P,XT,XAR6             ; [CPU_] |132| 
         000000d2 00A6 
    2527 000000d3 5663          QMPYL     ACC,XT,XAR6           ; [CPU_] |132| 
         000000d4 00A6 
    2528 000000d5 56A7          LSL64     ACC:P,#8              ; [CPU_] |132| 
    2529 000000d6 1E4A          MOVL      *-SP[10],ACC          ; [CPU_] |132| 
    2530 000000d7       $C$L15:    
    2531                      .dwpsn  file "C:/ti/motorware/motorware_1_01_00_16/sw/solutions/instaspin_foc/src/proj_lab11.c",line 
    2532 000000d7 5CAD          MOVZ      AR4,SP                ; [CPU_] |573| 
    2533 000000d8 5DAD          MOVZ      AR5,SP                ; [CPU_] |573| 
    2534 000000d9 761F-         MOVW      DP,#_gMotorVars+22    ; [CPU_U] 
         000000da 0003 
    2535 000000db DC8C          SUBB      XAR4,#12              ; [CPU_U] |573| 
    2536 000000dc DD88          SUBB      XAR5,#8               ; [CPU_U] |573| 
    2537 000000dd 0EA4          MOVU      ACC,AR4               ; [CPU_] |573| 
    2538 000000de 1E42          MOVL      *-SP[2],ACC           ; [CPU_] |573| 
    2539 000000df 5DA5          MOVZ      AR5,AR5               ; [CPU_] |573| 
    2540 000000e0 0616-         MOVL      ACC,@_gMotorVars+22   ; [CPU_] |573| 
    2541 000000e1 761F-         MOVW      DP,#_estHandle        ; [CPU_U] 
         000000e2 0000 
    2542 000000e3 1E44          MOVL      *-SP[4],ACC           ; [CPU_] |573| 
    2543 000000e4 8A0C-         MOVL      XAR4,@_estHandle      ; [CPU_] |573| 
    2544 000000e5 761F-         MOVW      DP,#_gAdcData+12      ; [CPU_U] 
         000000e6 0001 
    2545 000000e7 061E-         MOVL      ACC,@_gAdcData+12     ; [CPU_] |573| 
    2546              $C$DW$309       .dwtag  DW_TAG_TI_branch
    2547                      .dwattr $C$DW$309, DW_AT_low_pc(0x00)
    2548                      .dwattr $C$DW$309, DW_AT_name("_EST_run")
    2549                      .dwattr $C$DW$309, DW_AT_TI_call
    2550 000000e8 7640!         LCR       #_EST_run             ; [CPU_] |573| 
         000000e9 0000 
    2551                      ; call occurs [#_EST_run] ; [] |573| 
    2552 000000ea 761F-         MOVW      DP,#_estHandle        ; [CPU_U] 
         000000eb 0000 
    2553                      .dwpsn  file "C:/ti/motorware/motorware_1_01_00_16/sw/solutions/instaspin_foc/src/proj_lab11.c",line 
    2554 000000ec 8A0C-         MOVL      XAR4,@_estHandle      ; [CPU_] |576| 
    2555              $C$DW$310       .dwtag  DW_TAG_TI_branch
    2556                      .dwattr $C$DW$310, DW_AT_low_pc(0x00)
    2557                      .dwattr $C$DW$310, DW_AT_name("_EST_getAngle_pu")
    2558                      .dwattr $C$DW$310, DW_AT_TI_call
    2559 000000ed 7640!         LCR       #_EST_getAngle_pu     ; [CPU_] |576| 
         000000ee 0000 
    2560                      ; call occurs [#_EST_getAngle_pu] ; [] |576| 
    2561 000000ef 761F-         MOVW      DP,#_estHandle        ; [CPU_U] 
         000000f0 0000 
TMS320C2000 Assembler PC v6.4.10 Mon Jul 11 12:58:57 2016

Tools Copyright (c) 1996-2015 Texas Instruments Incorporated
C:\Users\bee25\AppData\Local\Temp\0350410                            PAGE   52

    2562 000000f1 86A9          MOVL      XAR2,ACC              ; [CPU_] |576| 
    2563                      .dwpsn  file "C:/ti/motorware/motorware_1_01_00_16/sw/solutions/instaspin_foc/src/proj_lab11.c",line 
    2564 000000f2 8A0C-         MOVL      XAR4,@_estHandle      ; [CPU_] |577| 
    2565              $C$DW$311       .dwtag  DW_TAG_TI_branch
    2566                      .dwattr $C$DW$311, DW_AT_low_pc(0x00)
    2567                      .dwattr $C$DW$311, DW_AT_name("_EST_getFm_pu")
    2568                      .dwattr $C$DW$311, DW_AT_TI_call
    2569 000000f3 7640!         LCR       #_EST_getFm_pu        ; [CPU_] |577| 
         000000f4 0000 
    2570                      ; call occurs [#_EST_getFm_pu] ; [] |577| 
    2571 000000f5 761F-         MOVW      DP,#_estHandle        ; [CPU_U] 
         000000f6 0000 
    2572                      .dwpsn  file "C:/ti/motorware/motorware_1_01_00_16/sw/solutions/instaspin_foc/src/proj_lab11.c",line 
    2573 000000f7 8F40-         MOVL      XAR5,#_gIdq_pu        ; [CPU_U] |581| 
         000000f8 0022 
    2574                      .dwpsn  file "C:/ti/motorware/motorware_1_01_00_16/sw/solutions/instaspin_foc/src/proj_lab11.c",line 
    2575 000000f9 1E56          MOVL      *-SP[22],ACC          ; [CPU_] |577| 
    2576                      .dwpsn  file "C:/ti/motorware/motorware_1_01_00_16/sw/solutions/instaspin_foc/src/proj_lab11.c",line 
    2577 000000fa 8A0C-         MOVL      XAR4,@_estHandle      ; [CPU_] |581| 
    2578              $C$DW$312       .dwtag  DW_TAG_TI_branch
    2579                      .dwattr $C$DW$312, DW_AT_low_pc(0x00)
    2580                      .dwattr $C$DW$312, DW_AT_name("_EST_getIdq_pu")
    2581                      .dwattr $C$DW$312, DW_AT_TI_call
    2582 000000fb 7640!         LCR       #_EST_getIdq_pu       ; [CPU_] |581| 
         000000fc 0000 
    2583                      ; call occurs [#_EST_getIdq_pu] ; [] |581| 
    2584 000000fd 761F-         MOVW      DP,#_gMotorVars+1     ; [CPU_U] 
         000000fe 0003 
    2585                      .dwpsn  file "C:/ti/motorware/motorware_1_01_00_16/sw/solutions/instaspin_foc/src/proj_lab11.c",line 
    2586 000000ff 9201-         MOV       AL,@_gMotorVars+1     ; [CPU_] |584| 
    2587 00000100 56C1          BF        $C$L22,EQ             ; [CPU_] |584| 
         00000101 012C 
    2588                      ; branchcc occurs ; [] |584| 
    2589 00000102 761F-         MOVW      DP,#_pidCntSpeed      ; [CPU_U] 
         00000103 0000 
    2590                      .dwpsn  file "C:/ti/motorware/motorware_1_01_00_16/sw/solutions/instaspin_foc/src/proj_lab11.c",line 
    2591 00000104 9200-         MOV       AL,@_pidCntSpeed      ; [CPU_] |593| 
    2592 00000105 520F          CMPB      AL,#15                ; [CPU_] |593| 
    2593 00000106 56C7          BF        $C$L16,HIS            ; [CPU_] |593| 
         00000107 0004 
    2594                      ; branchcc occurs ; [] |593| 
    2595                      .dwpsn  file "C:/ti/motorware/motorware_1_01_00_16/sw/solutions/instaspin_foc/src/proj_lab11.c",line 
    2596 00000108 0A00-         INC       @_pidCntSpeed         ; [CPU_] |607| 
    2597 00000109 6F2E          B         $C$L17,UNC            ; [CPU_] |607| 
    2598                      ; branch occurs ; [] |607| 
    2599 0000010a       $C$L16:    
    2600                      .dwpsn  file "C:/ti/motorware/motorware_1_01_00_16/sw/solutions/instaspin_foc/src/proj_lab11.c",line 
    2601 0000010a 2B00-         MOV       @_pidCntSpeed,#0      ; [CPU_] |596| 
    2602 0000010b 761F-         MOVW      DP,#_gMotorVars+22    ; [CPU_U] 
         0000010c 0003 
    2603                      .dwpsn  file "C:/ti/motorware/motorware_1_01_00_16/sw/solutions/instaspin_foc/src/proj_lab11.c",line 
    2604 0000010d C516-         MOVL      XAR7,@_gMotorVars+22  ; [CPU_] |601| 
    2605                      .dwpsn  file "C:/ti/motorware/motorware_1_01_00_16/sw/modules/pid/src/32b/pid.h",line 270,column 3,is
    2606 0000010e C456          MOVL      XAR6,*-SP[22]         ; [CPU_] |270| 
    2607 0000010f 761F-         MOVW      DP,#_pidHandle        ; [CPU_U] 
TMS320C2000 Assembler PC v6.4.10 Mon Jul 11 12:58:57 2016

Tools Copyright (c) 1996-2015 Texas Instruments Incorporated
C:\Users\bee25\AppData\Local\Temp\0350410                            PAGE   53

         00000110 0000 
    2608                      .dwpsn  file "C:/ti/motorware/motorware_1_01_00_16/sw/modules/pid/src/32b/pid.h",line 262,column 16,i
    2609 00000111 8A2A-         MOVL      XAR4,@_pidHandle      ; [CPU_] |262| 
    2610                      .dwpsn  file "C:/ti/motorware/motorware_1_01_00_16/sw/modules/pid/src/32b/pid.h",line 270,column 3,is
    2611 00000112 06A7          MOVL      ACC,XAR7              ; [CPU_] |270| 
    2612 00000113 03A6          SUBL      ACC,XAR6              ; [CPU_] |270| 
    2613 00000114 83A9          MOVL      XAR5,ACC              ; [CPU_] |270| 
    2614 00000115 87C4          MOVL      XT,*+XAR4[0]          ; [CPU_] |270| 
    2615                      .dwpsn  file "C:/ti/motorware/motorware_1_01_00_16/sw/modules/pid/src/32b/pid.h",line 271,column 3,is
    2616 00000116 D10E          MOVB      XAR1,#14              ; [CPU_] |271| 
    2617 00000117 D00C          MOVB      XAR0,#12              ; [CPU_] |271| 
    2618                      .dwpsn  file "C:/ti/motorware/motorware_1_01_00_16/sw/modules/pid/src/32b/pid.h",line 270,column 3,is
    2619 00000118 5605          IMPYL     P,XT,XAR5             ; [CPU_] |270| 
         00000119 00A5 
    2620 0000011a 5663          QMPYL     ACC,XT,XAR5           ; [CPU_] |270| 
         0000011b 00A5 
    2621 0000011c 56A7          LSL64     ACC:P,#8              ; [CPU_] |270| 
    2622                      .dwpsn  file "C:/ti/motorware/motorware_1_01_00_16/sw/modules/pid/src/32b/pid.h",line 271,column 3,is
    2623 0000011d 87D4          MOVL      XT,*+XAR4[2]          ; [CPU_] |271| 
    2624                      .dwpsn  file "C:/ti/motorware/motorware_1_01_00_16/sw/modules/pid/src/32b/pid.h",line 270,column 3,is
    2625 0000011e 1EA6          MOVL      XAR6,ACC              ; [CPU_] |270| 
    2626                      .dwpsn  file "C:/ti/motorware/motorware_1_01_00_16/sw/modules/pid/src/32b/pid.h",line 271,column 3,is
    2627 0000011f 5605          IMPYL     P,XT,XAR5             ; [CPU_] |271| 
         00000120 00A5 
    2628 00000121 5663          QMPYL     ACC,XT,XAR5           ; [CPU_] |271| 
         00000122 00A5 
    2629 00000123 56A7          LSL64     ACC:P,#8              ; [CPU_] |271| 
    2630 00000124 07F4          ADDL      ACC,*+XAR4[6]         ; [CPU_] |271| 
    2631 00000125 5650          MINL      ACC,*+XAR4[AR1]       ; [CPU_] |271| 
         00000126 009C 
    2632 00000127 5661          MAXL      ACC,*+XAR4[AR0]       ; [CPU_] |271| 
         00000128 0094 
    2633                      .dwpsn  file "C:/ti/motorware/motorware_1_01_00_16/sw/modules/pid/src/32b/pid.h",line 274,column 3,is
    2634 00000129 D008          MOVB      XAR0,#8               ; [CPU_] |274| 
    2635                      .dwpsn  file "C:/ti/motorware/motorware_1_01_00_16/sw/modules/pid/src/32b/pid.h",line 273,column 3,is
    2636 0000012a 1EF4          MOVL      *+XAR4[6],ACC         ; [CPU_] |273| 
    2637                      .dwpsn  file "C:/ti/motorware/motorware_1_01_00_16/sw/modules/pid/src/32b/pid.h",line 274,column 3,is
    2638 0000012b C394          MOVL      *+XAR4[AR0],XAR7      ; [CPU_] |274| 
    2639                      .dwpsn  file "C:/ti/motorware/motorware_1_01_00_16/sw/modules/pid/src/32b/pid.h",line 275,column 3,is
    2640 0000012c C556          MOVL      XAR7,*-SP[22]         ; [CPU_] |275| 
    2641 0000012d D00A          MOVB      XAR0,#10              ; [CPU_] |275| 
    2642                      .dwpsn  file "C:/ti/motorware/motorware_1_01_00_16/sw/modules/pid/src/32b/pid.h",line 277,column 3,is
    2643 0000012e D10E          MOVB      XAR1,#14              ; [CPU_] |277| 
    2644 0000012f 07A6          ADDL      ACC,XAR6              ; [CPU_] |277| 
    2645                      .dwpsn  file "C:/ti/motorware/motorware_1_01_00_16/sw/modules/pid/src/32b/pid.h",line 275,column 3,is
    2646 00000130 C394          MOVL      *+XAR4[AR0],XAR7      ; [CPU_] |275| 
    2647                      .dwpsn  file "C:/ti/motorware/motorware_1_01_00_16/sw/modules/pid/src/32b/pid.h",line 277,column 3,is
    2648 00000131 D00C          MOVB      XAR0,#12              ; [CPU_] |277| 
    2649 00000132 5650          MINL      ACC,*+XAR4[AR1]       ; [CPU_] |277| 
         00000133 009C 
    2650 00000134 5661          MAXL      ACC,*+XAR4[AR0]       ; [CPU_] |277| 
         00000135 0094 
    2651 00000136 1E28-         MOVL      @_gIdq_ref_pu+2,ACC   ; [CPU_] |277| 
    2652 00000137       $C$L17:    
    2653                      .dwpsn  file "C:/ti/motorware/motorware_1_01_00_16/sw/solutions/instaspin_foc/src/proj_lab11.c",line 
TMS320C2000 Assembler PC v6.4.10 Mon Jul 11 12:58:57 2016

Tools Copyright (c) 1996-2015 Texas Instruments Incorporated
C:\Users\bee25\AppData\Local\Temp\0350410                            PAGE   54

    2654 00000137 8F40-         MOVL      XAR5,#_gIdq_ref_pu    ; [CPU_U] |619| 
         00000138 0026 
    2655 00000139 8F00-         MOVL      XAR4,#_gIdq_pu        ; [CPU_U] |619| 
         0000013a 0022 
    2656 0000013b 82C5          MOVL      XAR3,*+XAR5[0]        ; [CPU_] |619| 
    2657                      .dwpsn  file "C:/ti/motorware/motorware_1_01_00_16/sw/modules/pid/src/32b/pid.h",line 233,column 16,i
    2658 0000013c 7680-         MOVL      XAR6,#_pidHandle      ; [CPU_U] |233| 
         0000013d 002A 
    2659                      .dwpsn  file "C:/ti/motorware/motorware_1_01_00_16/sw/solutions/instaspin_foc/src/proj_lab11.c",line 
    2660 0000013e C5C4          MOVL      XAR7,*+XAR4[0]        ; [CPU_] |619| 
    2661                      .dwpsn  file "C:/ti/motorware/motorware_1_01_00_16/sw/modules/pid/src/32b/pid.h",line 233,column 16,i
    2662 0000013f C252          MOVL      *-SP[18],XAR6         ; [CPU_] |233| 
    2663                      .dwpsn  file "C:/ti/motorware/motorware_1_01_00_16/sw/modules/pid/src/32b/pid.h",line 242,column 3,is
    2664 00000140 A2A9          MOVL      ACC,XAR3              ; [CPU_] |242| 
    2665                      .dwpsn  file "C:/ti/motorware/motorware_1_01_00_16/sw/modules/pid/src/32b/pid.h",line 233,column 16,i
    2666 00000141 C4D6          MOVL      XAR6,*+XAR6[2]        ; [CPU_] |233| 
    2667                      .dwpsn  file "C:/ti/motorware/motorware_1_01_00_16/sw/modules/pid/src/32b/pid.h",line 243,column 3,is
    2668 00000142 D10E          MOVB      XAR1,#14              ; [CPU_] |243| 
    2669 00000143 D00C          MOVB      XAR0,#12              ; [CPU_] |243| 
    2670                      .dwpsn  file "C:/ti/motorware/motorware_1_01_00_16/sw/modules/pid/src/32b/pid.h",line 242,column 3,is
    2671 00000144 03A7          SUBL      ACC,XAR7              ; [CPU_] |242| 
    2672 00000145 87C6          MOVL      XT,*+XAR6[0]          ; [CPU_] |242| 
    2673 00000146 5605          IMPYL     P,XT,ACC              ; [CPU_] |242| 
         00000147 00A9 
    2674 00000148 5663          QMPYL     ACC,XT,ACC            ; [CPU_] |242| 
         00000149 00A9 
    2675 0000014a 56A7          LSL64     ACC:P,#8              ; [CPU_] |242| 
    2676 0000014b 1E54          MOVL      *-SP[20],ACC          ; [CPU_] |242| 
    2677                      .dwpsn  file "C:/ti/motorware/motorware_1_01_00_16/sw/modules/pid/src/32b/pid.h",line 243,column 3,is
    2678 0000014c 87D6          MOVL      XT,*+XAR6[2]          ; [CPU_] |243| 
    2679 0000014d 5605          IMPYL     P,XT,ACC              ; [CPU_] |243| 
         0000014e 00A9 
    2680 0000014f 5663          QMPYL     ACC,XT,ACC            ; [CPU_] |243| 
         00000150 00A9 
    2681 00000151 56A7          LSL64     ACC:P,#8              ; [CPU_] |243| 
    2682 00000152 07F6          ADDL      ACC,*+XAR6[6]         ; [CPU_] |243| 
    2683 00000153 5650          MINL      ACC,*+XAR6[AR1]       ; [CPU_] |243| 
         00000154 009E 
    2684 00000155 5661          MAXL      ACC,*+XAR6[AR0]       ; [CPU_] |243| 
         00000156 0096 
    2685                      .dwpsn  file "C:/ti/motorware/motorware_1_01_00_16/sw/modules/pid/src/32b/pid.h",line 246,column 3,is
    2686 00000157 D008          MOVB      XAR0,#8               ; [CPU_] |246| 
    2687                      .dwpsn  file "C:/ti/motorware/motorware_1_01_00_16/sw/modules/pid/src/32b/pid.h",line 245,column 3,is
    2688 00000158 1EF6          MOVL      *+XAR6[6],ACC         ; [CPU_] |245| 
    2689                      .dwpsn  file "C:/ti/motorware/motorware_1_01_00_16/sw/modules/pid/src/32b/pid.h",line 246,column 3,is
    2690 00000159 A296          MOVL      *+XAR6[AR0],XAR3      ; [CPU_] |246| 
    2691                      .dwpsn  file "C:/ti/motorware/motorware_1_01_00_16/sw/modules/pid/src/32b/pid.h",line 247,column 3,is
    2692 0000015a D00A          MOVB      XAR0,#10              ; [CPU_] |247| 
    2693 0000015b C396          MOVL      *+XAR6[AR0],XAR7      ; [CPU_] |247| 
    2694                      .dwpsn  file "C:/ti/motorware/motorware_1_01_00_16/sw/modules/pid/src/32b/pid.h",line 249,column 3,is
    2695 0000015c C554          MOVL      XAR7,*-SP[20]         ; [CPU_] |249| 
    2696 0000015d D10E          MOVB      XAR1,#14              ; [CPU_] |249| 
    2697 0000015e D00C          MOVB      XAR0,#12              ; [CPU_] |249| 
    2698 0000015f 8DC0-         MOVL      XAR3,#_gVdq_out_pu    ; [CPU_U] |249| 
         00000160 001E 
TMS320C2000 Assembler PC v6.4.10 Mon Jul 11 12:58:57 2016

Tools Copyright (c) 1996-2015 Texas Instruments Incorporated
C:\Users\bee25\AppData\Local\Temp\0350410                            PAGE   55

    2699 00000161 07A7          ADDL      ACC,XAR7              ; [CPU_] |249| 
    2700 00000162 5650          MINL      ACC,*+XAR6[AR1]       ; [CPU_] |249| 
         00000163 009E 
    2701 00000164 5661          MAXL      ACC,*+XAR6[AR0]       ; [CPU_] |249| 
         00000165 0096 
    2702 00000166 1EC3          MOVL      *+XAR3[0],ACC         ; [CPU_] |249| 
    2703                      .dwpsn  file "C:/ti/motorware/motorware_1_01_00_16/sw/solutions/instaspin_foc/src/proj_lab11.c",line 
    2704 00000167 8BD5          MOVL      XAR1,*+XAR5[2]        ; [CPU_] |622| 
    2705                      .dwpsn  file "C:/ti/motorware/motorware_1_01_00_16/sw/solutions/instaspin_foc/src/proj_lab11.c",line 
    2706 00000168 06D4          MOVL      ACC,*+XAR4[2]         ; [CPU_] |625| 
    2707 00000169 1E54          MOVL      *-SP[20],ACC          ; [CPU_] |625| 
    2708                      .dwpsn  file "C:/ti/motorware/motorware_1_01_00_16/sw/solutions/instaspin_foc/src/proj_lab11.c",line 
    2709 0000016a 87C3          MOVL      XT,*+XAR3[0]          ; [CPU_] |635| 
    2710 0000016b 5605          IMPYL     P,XT,*+XAR3[0]        ; [CPU_] |635| 
         0000016c 00C3 
    2711 0000016d 5663          QMPYL     ACC,XT,*+XAR3[0]      ; [CPU_] |635| 
         0000016e 00C3 
    2712 0000016f 56A7          LSL64     ACC:P,#8              ; [CPU_] |635| 
    2713 00000170 2BAB          MOV       PL,#0                 ; [CPU_] |635| 
    2714 00000171 28AA          MOV       PH,#64                ; [CPU_] |635| 
         00000172 0040 
    2715 00000173 5641          SUBL      P,ACC                 ; [CPU_] |635| 
         00000174 00AB 
    2716 00000175 A9A9          MOVL      ACC,P                 ; [CPU_] |635| 
    2717              $C$DW$313       .dwtag  DW_TAG_TI_branch
    2718                      .dwattr $C$DW$313, DW_AT_low_pc(0x00)
    2719                      .dwattr $C$DW$313, DW_AT_name("__IQ24sqrt")
    2720                      .dwattr $C$DW$313, DW_AT_TI_call
    2721 00000176 7640!         LCR       #__IQ24sqrt           ; [CPU_] |635| 
         00000177 0000 
    2722                      ; call occurs [#__IQ24sqrt] ; [] |635| 
    2723 00000178 8A52          MOVL      XAR4,*-SP[18]         ; [CPU_] |635| 
    2724                      .dwpsn  file "C:/ti/motorware/motorware_1_01_00_16/sw/modules/pid/src/32b/pid.h",line 358,column 16,i
    2725 00000179 8AE4          MOVL      XAR4,*+XAR4[4]        ; [CPU_] |358| 
    2726                      .dwpsn  file "C:/ti/motorware/motorware_1_01_00_16/sw/solutions/instaspin_foc/src/proj_lab11.c",line 
    2727 0000017a 1EA6          MOVL      XAR6,ACC              ; [CPU_] |635| 
    2728                      .dwpsn  file "C:/ti/motorware/motorware_1_01_00_16/sw/modules/pid/src/32b/pid.h",line 360,column 3,is
    2729 0000017b D00C          MOVB      XAR0,#12              ; [CPU_] |360| 
    2730 0000017c FF54          NEG       ACC                   ; [CPU_] |360| 
    2731 0000017d 1E94          MOVL      *+XAR4[AR0],ACC       ; [CPU_] |360| 
    2732                      .dwpsn  file "C:/ti/motorware/motorware_1_01_00_16/sw/modules/pid/src/32b/pid.h",line 361,column 3,is
    2733 0000017e D00E          MOVB      XAR0,#14              ; [CPU_] |361| 
    2734 0000017f C294          MOVL      *+XAR4[AR0],XAR6      ; [CPU_] |361| 
    2735                      .dwpsn  file "C:/ti/motorware/motorware_1_01_00_16/sw/solutions/instaspin_foc/src/proj_lab11.c",line 
    2736 00000180 C454          MOVL      XAR6,*-SP[20]         ; [CPU_] |644| 
    2737 00000181 B2A9          MOVL      ACC,XAR1              ; [CPU_] |644| 
    2738 00000182 C5A1          MOVL      XAR7,XAR1             ; [CPU_] |644| 
    2739                      .dwpsn  file "C:/ti/motorware/motorware_1_01_00_16/sw/modules/pid/src/32b/pid.h",line 242,column 3,is
    2740 00000183 87C4          MOVL      XT,*+XAR4[0]          ; [CPU_] |242| 
    2741 00000184 03A6          SUBL      ACC,XAR6              ; [CPU_] |242| 
    2742 00000185 5605          IMPYL     P,XT,ACC              ; [CPU_] |242| 
         00000186 00A9 
    2743 00000187 5663          QMPYL     ACC,XT,ACC            ; [CPU_] |242| 
         00000188 00A9 
    2744 00000189 56A7          LSL64     ACC:P,#8              ; [CPU_] |242| 
TMS320C2000 Assembler PC v6.4.10 Mon Jul 11 12:58:57 2016

Tools Copyright (c) 1996-2015 Texas Instruments Incorporated
C:\Users\bee25\AppData\Local\Temp\0350410                            PAGE   56

    2745 0000018a 83A9          MOVL      XAR5,ACC              ; [CPU_] |242| 
    2746                      .dwpsn  file "C:/ti/motorware/motorware_1_01_00_16/sw/modules/pid/src/32b/pid.h",line 243,column 3,is
    2747 0000018b D10E          MOVB      XAR1,#14              ; [CPU_] |243| 
    2748 0000018c D00C          MOVB      XAR0,#12              ; [CPU_] |243| 
    2749 0000018d 87D4          MOVL      XT,*+XAR4[2]          ; [CPU_] |243| 
    2750 0000018e 5605          IMPYL     P,XT,XAR5             ; [CPU_] |243| 
         0000018f 00A5 
    2751 00000190 5663          QMPYL     ACC,XT,XAR5           ; [CPU_] |243| 
         00000191 00A5 
    2752 00000192 56A7          LSL64     ACC:P,#8              ; [CPU_] |243| 
    2753 00000193 07F4          ADDL      ACC,*+XAR4[6]         ; [CPU_] |243| 
    2754 00000194 5650          MINL      ACC,*+XAR4[AR1]       ; [CPU_] |243| 
         00000195 009C 
    2755                      .dwpsn  file "C:/ti/motorware/motorware_1_01_00_16/sw/modules/pid/src/32b/pid.h",line 249,column 3,is
    2756 00000196 D10E          MOVB      XAR1,#14              ; [CPU_] |249| 
    2757                      .dwpsn  file "C:/ti/motorware/motorware_1_01_00_16/sw/modules/pid/src/32b/pid.h",line 243,column 3,is
    2758 00000197 5661          MAXL      ACC,*+XAR4[AR0]       ; [CPU_] |243| 
         00000198 0094 
    2759                      .dwpsn  file "C:/ti/motorware/motorware_1_01_00_16/sw/modules/pid/src/32b/pid.h",line 246,column 3,is
    2760 00000199 D008          MOVB      XAR0,#8               ; [CPU_] |246| 
    2761                      .dwpsn  file "C:/ti/motorware/motorware_1_01_00_16/sw/modules/pid/src/32b/pid.h",line 245,column 3,is
    2762 0000019a 1EF4          MOVL      *+XAR4[6],ACC         ; [CPU_] |245| 
    2763                      .dwpsn  file "C:/ti/motorware/motorware_1_01_00_16/sw/modules/pid/src/32b/pid.h",line 249,column 3,is
    2764 0000019b 07A5          ADDL      ACC,XAR5              ; [CPU_] |249| 
    2765                      .dwpsn  file "C:/ti/motorware/motorware_1_01_00_16/sw/modules/pid/src/32b/pid.h",line 246,column 3,is
    2766 0000019c C394          MOVL      *+XAR4[AR0],XAR7      ; [CPU_] |246| 
    2767                      .dwpsn  file "C:/ti/motorware/motorware_1_01_00_16/sw/modules/pid/src/32b/pid.h",line 247,column 3,is
    2768 0000019d D00A          MOVB      XAR0,#10              ; [CPU_] |247| 
    2769 0000019e C294          MOVL      *+XAR4[AR0],XAR6      ; [CPU_] |247| 
    2770                      .dwpsn  file "C:/ti/motorware/motorware_1_01_00_16/sw/modules/pid/src/32b/pid.h",line 249,column 3,is
    2771 0000019f D00C          MOVB      XAR0,#12              ; [CPU_] |249| 
    2772 000001a0 5650          MINL      ACC,*+XAR4[AR1]       ; [CPU_] |249| 
         000001a1 009C 
    2773 000001a2 5661          MAXL      ACC,*+XAR4[AR0]       ; [CPU_] |249| 
         000001a3 0094 
    2774 000001a4 1ED3          MOVL      *+XAR3[2],ACC         ; [CPU_] |249| 
    2775                      .dwpsn  file "C:/ti/motorware/motorware_1_01_00_16/sw/solutions/instaspin_foc/src/proj_lab11.c",line 
    2776 000001a5 AA42          MOVL      *-SP[2],XAR2          ; [CPU_] |654| 
    2777 000001a6 0656          MOVL      ACC,*-SP[22]          ; [CPU_] |654| 
    2778              $C$DW$314       .dwtag  DW_TAG_TI_branch
    2779                      .dwattr $C$DW$314, DW_AT_low_pc(0x00)
    2780                      .dwattr $C$DW$314, DW_AT_name("_angleDelayComp")
    2781                      .dwattr $C$DW$314, DW_AT_TI_call
    2782 000001a7 7640'         LCR       #_angleDelayComp      ; [CPU_] |654| 
         000001a8 0196 
    2783                      ; call occurs [#_angleDelayComp] ; [] |654| 
    2784 000001a9 86A9          MOVL      XAR2,ACC              ; [CPU_] |654| 
    2785                      .dwpsn  file "C:/ti/motorware/motorware_1_01_00_16/sw/solutions/instaspin_foc/src/proj_lab11.c",line 
    2786              $C$DW$315       .dwtag  DW_TAG_TI_branch
    2787                      .dwattr $C$DW$315, DW_AT_low_pc(0x00)
    2788                      .dwattr $C$DW$315, DW_AT_name("__IQ24cosPU")
    2789                      .dwattr $C$DW$315, DW_AT_TI_call
    2790 000001aa 7640!         LCR       #__IQ24cosPU          ; [CPU_] |660| 
         000001ab 0000 
    2791                      ; call occurs [#__IQ24cosPU] ; [] |660| 
TMS320C2000 Assembler PC v6.4.10 Mon Jul 11 12:58:57 2016

Tools Copyright (c) 1996-2015 Texas Instruments Incorporated
C:\Users\bee25\AppData\Local\Temp\0350410                            PAGE   57

    2792 000001ac 1E50          MOVL      *-SP[16],ACC          ; [CPU_] |660| 
    2793                      .dwpsn  file "C:/ti/motorware/motorware_1_01_00_16/sw/solutions/instaspin_foc/src/proj_lab11.c",line 
    2794 000001ad AAA9          MOVL      ACC,XAR2              ; [CPU_] |661| 
    2795              $C$DW$316       .dwtag  DW_TAG_TI_branch
    2796                      .dwattr $C$DW$316, DW_AT_low_pc(0x00)
    2797                      .dwattr $C$DW$316, DW_AT_name("__IQ24sinPU")
    2798                      .dwattr $C$DW$316, DW_AT_TI_call
    2799 000001ae 7640!         LCR       #__IQ24sinPU          ; [CPU_] |661| 
         000001af 0000 
    2800                      ; call occurs [#__IQ24sinPU] ; [] |661| 
    2801 000001b0 761F-         MOVW      DP,#_iparkHandle      ; [CPU_U] 
         000001b1 0000 
    2802                      .dwpsn  file "C:/ti/motorware/motorware_1_01_00_16/sw/solutions/instaspin_foc/src/proj_lab11.c",line 
    2803 000001b2 8A06-         MOVL      XAR4,@_iparkHandle    ; [CPU_] |664| 
    2804                      .dwpsn  file "C:/ti/motorware/motorware_1_01_00_16/sw/solutions/instaspin_foc/src/proj_lab11.c",line 
    2805 000001b3 1E4E          MOVL      *-SP[14],ACC          ; [CPU_] |661| 
    2806                      .dwpsn  file "C:/ti/motorware/motorware_1_01_00_16/sw/modules/ipark/src/32b/ipark.h",line 175,column 
    2807 000001b4 0650          MOVL      ACC,*-SP[16]          ; [CPU_] |175| 
    2808 000001b5 1ED4          MOVL      *+XAR4[2],ACC         ; [CPU_] |175| 
    2809                      .dwpsn  file "C:/ti/motorware/motorware_1_01_00_16/sw/modules/ipark/src/32b/ipark.h",line 176,column 
    2810 000001b6 064E          MOVL      ACC,*-SP[14]          ; [CPU_] |176| 
    2811 000001b7 1EC4          MOVL      *+XAR4[0],ACC         ; [CPU_] |176| 
    2812                      .dwpsn  file "C:/ti/motorware/motorware_1_01_00_16/sw/modules/ipark/src/32b/ipark.h",line 141,column 
    2813 000001b8 C5C4          MOVL      XAR7,*+XAR4[0]        ; [CPU_] |141| 
    2814                      .dwpsn  file "C:/ti/motorware/motorware_1_01_00_16/sw/modules/ipark/src/32b/ipark.h",line 148,column 
    2815 000001b9 8720-         MOVL      XT,@_gVdq_out_pu+2    ; [CPU_] |148| 
    2816 000001ba 5605          IMPYL     P,XT,XAR7             ; [CPU_] |148| 
         000001bb 00A7 
    2817 000001bc 5663          QMPYL     ACC,XT,XAR7           ; [CPU_] |148| 
         000001bd 00A7 
    2818                      .dwpsn  file "C:/ti/motorware/motorware_1_01_00_16/sw/modules/ipark/src/32b/ipark.h",line 142,column 
    2819 000001be 8AD4          MOVL      XAR4,*+XAR4[2]        ; [CPU_] |142| 
    2820                      .dwpsn  file "C:/ti/motorware/motorware_1_01_00_16/sw/modules/ipark/src/32b/ipark.h",line 148,column 
    2821 000001bf 56A7          LSL64     ACC:P,#8              ; [CPU_] |148| 
    2822 000001c0 871E-         MOVL      XT,@_gVdq_out_pu      ; [CPU_] |148| 
    2823 000001c1 1EA6          MOVL      XAR6,ACC              ; [CPU_] |148| 
    2824 000001c2 5605          IMPYL     P,XT,XAR4             ; [CPU_] |148| 
         000001c3 00A4 
    2825 000001c4 5663          QMPYL     ACC,XT,XAR4           ; [CPU_] |148| 
         000001c5 00A4 
    2826 000001c6 56A7          LSL64     ACC:P,#8              ; [CPU_] |148| 
    2827                      .dwpsn  file "C:/ti/motorware/motorware_1_01_00_16/sw/modules/ipark/src/32b/ipark.h",line 149,column 
    2828 000001c7 8720-         MOVL      XT,@_gVdq_out_pu+2    ; [CPU_] |149| 
    2829                      .dwpsn  file "C:/ti/motorware/motorware_1_01_00_16/sw/modules/ipark/src/32b/ipark.h",line 148,column 
    2830 000001c8 03A6          SUBL      ACC,XAR6              ; [CPU_] |148| 
    2831                      .dwpsn  file "C:/ti/motorware/motorware_1_01_00_16/sw/modules/ipark/src/32b/ipark.h",line 149,column 
    2832 000001c9 5605          IMPYL     P,XT,XAR4             ; [CPU_] |149| 
         000001ca 00A4 
    2833                      .dwpsn  file "C:/ti/motorware/motorware_1_01_00_16/sw/modules/ipark/src/32b/ipark.h",line 148,column 
    2834 000001cb 1E4C          MOVL      *-SP[12],ACC          ; [CPU_] |148| 
    2835                      .dwpsn  file "C:/ti/motorware/motorware_1_01_00_16/sw/modules/ipark/src/32b/ipark.h",line 149,column 
    2836 000001cc 5663          QMPYL     ACC,XT,XAR4           ; [CPU_] |149| 
         000001cd 00A4 
    2837 000001ce 56A7          LSL64     ACC:P,#8              ; [CPU_] |149| 
    2838 000001cf 871E-         MOVL      XT,@_gVdq_out_pu      ; [CPU_] |149| 
TMS320C2000 Assembler PC v6.4.10 Mon Jul 11 12:58:57 2016

Tools Copyright (c) 1996-2015 Texas Instruments Incorporated
C:\Users\bee25\AppData\Local\Temp\0350410                            PAGE   58

    2839                      .dwpsn  file "C:/ti/motorware/motorware_1_01_00_16/sw/solutions/instaspin_foc/src/proj_lab11.c",line 
    2840 000001d0 8A0C-         MOVL      XAR4,@_estHandle      ; [CPU_] |674| 
    2841                      .dwpsn  file "C:/ti/motorware/motorware_1_01_00_16/sw/modules/ipark/src/32b/ipark.h",line 149,column 
    2842 000001d1 1EA6          MOVL      XAR6,ACC              ; [CPU_] |149| 
    2843 000001d2 5605          IMPYL     P,XT,XAR7             ; [CPU_] |149| 
         000001d3 00A7 
    2844 000001d4 5663          QMPYL     ACC,XT,XAR7           ; [CPU_] |149| 
         000001d5 00A7 
    2845 000001d6 56A7          LSL64     ACC:P,#8              ; [CPU_] |149| 
    2846 000001d7 07A6          ADDL      ACC,XAR6              ; [CPU_] |149| 
    2847 000001d8 1E4A          MOVL      *-SP[10],ACC          ; [CPU_] |149| 
    2848                      .dwpsn  file "C:/ti/motorware/motorware_1_01_00_16/sw/solutions/instaspin_foc/src/proj_lab11.c",line 
    2849              $C$DW$317       .dwtag  DW_TAG_TI_branch
    2850                      .dwattr $C$DW$317, DW_AT_low_pc(0x00)
    2851                      .dwattr $C$DW$317, DW_AT_name("_EST_getOneOverDcBus_pu")
    2852                      .dwattr $C$DW$317, DW_AT_TI_call
    2853 000001d9 7640!         LCR       #_EST_getOneOverDcBus_pu ; [CPU_] |674| 
         000001da 0000 
    2854                      ; call occurs [#_EST_getOneOverDcBus_pu] ; [] |674| 
    2855 000001db 1EA6          MOVL      XAR6,ACC              ; [CPU_] |674| 
    2856                      .dwpsn  file "C:/ti/motorware/motorware_1_01_00_16/sw/solutions/instaspin_foc/src/proj_lab11.c",line 
    2857 000001dc 874C          MOVL      XT,*-SP[12]           ; [CPU_] |675| 
    2858 000001dd 3B01          SETC      SXM                   ; [CPU_] 
    2859 000001de 5605          IMPYL     P,XT,XAR6             ; [CPU_] |675| 
         000001df 00A6 
    2860 000001e0 5663          QMPYL     ACC,XT,XAR6           ; [CPU_] |675| 
         000001e1 00A6 
    2861 000001e2 56A7          LSL64     ACC:P,#8              ; [CPU_] |675| 
    2862 000001e3 1E4C          MOVL      *-SP[12],ACC          ; [CPU_] |675| 
    2863                      .dwpsn  file "C:/ti/motorware/motorware_1_01_00_16/sw/solutions/instaspin_foc/src/proj_lab11.c",line 
    2864 000001e4 874A          MOVL      XT,*-SP[10]           ; [CPU_] |676| 
    2865 000001e5 5605          IMPYL     P,XT,XAR6             ; [CPU_] |676| 
         000001e6 00A6 
    2866 000001e7 5663          QMPYL     ACC,XT,XAR6           ; [CPU_] |676| 
         000001e8 00A6 
    2867 000001e9 56A7          LSL64     ACC:P,#8              ; [CPU_] |676| 
    2868 000001ea 1E4A          MOVL      *-SP[10],ACC          ; [CPU_] |676| 
    2869                      .dwpsn  file "C:/ti/motorware/motorware_1_01_00_16/sw/modules/svgen/src/32b/svgen.h",line 133,column 
    2870 000001eb 28A9          MOV       AL,#46039             ; [CPU_] |133| 
         000001ec B3D7 
    2871 000001ed 9BDD          MOV       AH,#221               ; [CPU_] |133| 
    2872 000001ee 1EAC          MOVL      XT,ACC                ; [CPU_] |133| 
    2873                      .dwpsn  file "C:/ti/motorware/motorware_1_01_00_16/sw/modules/svgen/src/32b/svgen.h",line 132,column 
    2874 000001ef C44C          MOVL      XAR6,*-SP[12]         ; [CPU_] |132| 
    2875                      .dwpsn  file "C:/ti/motorware/motorware_1_01_00_16/sw/modules/svgen/src/32b/svgen.h",line 133,column 
    2876 000001f0 5605          IMPYL     P,XT,*-SP[10]         ; [CPU_] |133| 
         000001f1 004A 
    2877 000001f2 5663          QMPYL     ACC,XT,*-SP[10]       ; [CPU_] |133| 
         000001f3 004A 
    2878 000001f4 56A7          LSL64     ACC:P,#8              ; [CPU_] |133| 
    2879 000001f5 8AA9          MOVL      XAR4,ACC              ; [CPU_] |133| 
    2880 000001f6 06A6          MOVL      ACC,XAR6              ; [CPU_] |133| 
    2881 000001f7 FF40          SFR       ACC,1                 ; [CPU_] |133| 
    2882 000001f8 FF54          NEG       ACC                   ; [CPU_] |133| 
    2883 000001f9 FF5A          MOVL      P,ACC                 ; [CPU_] |133| 
TMS320C2000 Assembler PC v6.4.10 Mon Jul 11 12:58:57 2016

Tools Copyright (c) 1996-2015 Texas Instruments Incorporated
C:\Users\bee25\AppData\Local\Temp\0350410                            PAGE   59

    2884 000001fa A8A9          MOVL      ACC,XAR4              ; [CPU_] |133| 
    2885 000001fb 07AB          ADDL      ACC,P                 ; [CPU_] |133| 
    2886 000001fc 83A9          MOVL      XAR5,ACC              ; [CPU_] |133| 
    2887                      .dwpsn  file "C:/ti/motorware/motorware_1_01_00_16/sw/modules/svgen/src/32b/svgen.h",line 134,column 
    2888 000001fd 565D          SUBUL     P,XAR4                ; [CPU_] |134| 
         000001fe 00A4 
    2889 000001ff A9A7          MOVL      XAR7,P                ; [CPU_] |134| 
    2890                      .dwpsn  file "C:/ti/motorware/motorware_1_01_00_16/sw/modules/svgen/src/32b/svgen.h",line 140,column 
    2891 00000200 0FA6          CMPL      ACC,XAR6              ; [CPU_] |140| 
    2892 00000201 56C4          BF        $C$L18,LT             ; [CPU_] |140| 
         00000202 0005 
    2893                      ; branchcc occurs ; [] |140| 
    2894 00000203 A0AB          MOVL      P,XAR5                ; [CPU_] 
    2895                      .dwpsn  file "C:/ti/motorware/motorware_1_01_00_16/sw/modules/svgen/src/32b/svgen.h",line 148,column 
    2896 00000204 87A6          MOVL      XT,XAR6               ; [CPU_] |148| 
    2897 00000205 6F03          B         $C$L19,UNC            ; [CPU_] |148| 
    2898                      ; branch occurs ; [] |148| 
    2899 00000206       $C$L18:    
    2900                      .dwpsn  file "C:/ti/motorware/motorware_1_01_00_16/sw/modules/svgen/src/32b/svgen.h",line 142,column 
    2901 00000206 A3A6          MOVL      P,XAR6                ; [CPU_] |142| 
    2902 00000207 A0AC          MOVL      XT,XAR5               ; [CPU_] |142| 
    2903 00000208       $C$L19:    
    2904 00000208 A9A9          MOVL      ACC,P                 ; [CPU_] 
    2905                      .dwpsn  file "C:/ti/motorware/motorware_1_01_00_16/sw/modules/svgen/src/32b/svgen.h",line 151,column 
    2906 00000209 0FA7          CMPL      ACC,XAR7              ; [CPU_] |151| 
    2907 0000020a 56C4          BF        $C$L20,LT             ; [CPU_] |151| 
         0000020b 0008 
    2908                      ; branchcc occurs ; [] |151| 
    2909 0000020c ABA9          MOVL      ACC,XT                ; [CPU_] 
    2910                      .dwpsn  file "C:/ti/motorware/motorware_1_01_00_16/sw/modules/svgen/src/32b/svgen.h",line 155,column 
    2911 0000020d 0FA7          CMPL      ACC,XAR7              ; [CPU_] |155| 
    2912 0000020e 56C5          BF        $C$L21,LEQ            ; [CPU_] |155| 
         0000020f 0005 
    2913                      ; branchcc occurs ; [] |155| 
    2914                      .dwpsn  file "C:/ti/motorware/motorware_1_01_00_16/sw/modules/svgen/src/32b/svgen.h",line 157,column 
    2915 00000210 87A7          MOVL      XT,XAR7               ; [CPU_] |157| 
    2916 00000211 6F02          B         $C$L21,UNC            ; [CPU_] |157| 
    2917                      ; branch occurs ; [] |157| 
    2918 00000212       $C$L20:    
    2919                      .dwpsn  file "C:/ti/motorware/motorware_1_01_00_16/sw/modules/svgen/src/32b/svgen.h",line 153,column 
    2920 00000212 A3A7          MOVL      P,XAR7                ; [CPU_] |153| 
    2921 00000213       $C$L21:    
    2922                      .dwpsn  file "C:/ti/motorware/motorware_1_01_00_16/sw/modules/svgen/src/32b/svgen.h",line 163,column 
    2923 00000213 A9A9          MOVL      ACC,P                 ; [CPU_] |163| 
    2924 00000214 5601          ADDL      XT,ACC                ; [CPU_] |163| 
         00000215 00AC 
    2925 00000216 9A00          MOV       AL,#0                 ; [CPU_] |163| 
    2926 00000217 9B80          MOV       AH,#128               ; [CPU_] |163| 
    2927 00000218 8F00-         MOVL      XAR4,#_gPwmData       ; [CPU_U] |163| 
         00000219 004C 
    2928 0000021a 5605          IMPYL     P,XT,ACC              ; [CPU_] |163| 
         0000021b 00A9 
    2929 0000021c 5663          QMPYL     ACC,XT,ACC            ; [CPU_] |163| 
         0000021d 00A9 
    2930 0000021e 56A7          LSL64     ACC:P,#8              ; [CPU_] |163| 
TMS320C2000 Assembler PC v6.4.10 Mon Jul 11 12:58:57 2016

Tools Copyright (c) 1996-2015 Texas Instruments Incorporated
C:\Users\bee25\AppData\Local\Temp\0350410                            PAGE   60

    2931 0000021f 5641          SUBL      XAR6,ACC              ; [CPU_] |163| 
         00000220 00A6 
    2932                      .dwpsn  file "C:/ti/motorware/motorware_1_01_00_16/sw/modules/svgen/src/32b/svgen.h",line 164,column 
    2933 00000221 5641          SUBL      XAR5,ACC              ; [CPU_] |164| 
         00000222 00A5 
    2934                      .dwpsn  file "C:/ti/motorware/motorware_1_01_00_16/sw/modules/svgen/src/32b/svgen.h",line 165,column 
    2935 00000223 5641          SUBL      XAR7,ACC              ; [CPU_] |165| 
         00000224 00A7 
    2936 00000225 761F-         MOVW      DP,#_halHandle        ; [CPU_U] 
         00000226 0000 
    2937                      .dwpsn  file "C:/ti/motorware/motorware_1_01_00_16/sw/modules/svgen/src/32b/svgen.h",line 163,column 
    2938 00000227 C2C4          MOVL      *+XAR4[0],XAR6        ; [CPU_] |163| 
    2939                      .dwpsn  file "C:/ti/motorware/motorware_1_01_00_16/sw/modules/svgen/src/32b/svgen.h",line 164,column 
    2940 00000228 A0D4          MOVL      *+XAR4[2],XAR5        ; [CPU_] |164| 
    2941                      .dwpsn  file "C:/ti/motorware/motorware_1_01_00_16/sw/modules/svgen/src/32b/svgen.h",line 165,column 
    2942 00000229 C3E4          MOVL      *+XAR4[4],XAR7        ; [CPU_] |165| 
    2943                      .dwpsn  file "C:/ti/motorware/motorware_1_01_00_16/sw/modules/svgen/src/32b/svgen.h",line 167,column 
    2944 0000022a 8A00-         MOVL      XAR4,@_halHandle      ; [CPU_] |167| 
    2945 0000022b 6F22          B         $C$L23,UNC            ; [CPU_] |167| 
    2946                      ; branch occurs ; [] |167| 
    2947 0000022c       $C$L22:    
    2948 0000022c 761F-         MOVW      DP,#_halHandle        ; [CPU_U] 
         0000022d 0000 
    2949                      .dwpsn  file "C:/ti/motorware/motorware_1_01_00_16/sw/solutions/instaspin_foc/src/proj_lab11.c",line 
    2950 0000022e 8A00-         MOVL      XAR4,@_halHandle      ; [CPU_] |686| 
    2951                      .dwpsn  file "C:/ti/motorware/motorware_1_01_00_16/sw/modules/hal/boards/boostxldrv8301_revB/f28x/f28
    2952 0000022f 83A4          MOVL      XAR5,XAR4             ; [CPU_] |240| 
    2953 00000230 DD7E          ADDB      XAR5,#126             ; [CPU_] |240| 
    2954 00000231 7622   EALLOW
    2955                      .dwpsn  file "C:/ti/motorware/motorware_1_01_00_16/sw/drivers/pwm/src/32b/f28x/f2802x/pwm.h",line 156
    2956 00000232 D07C          MOVB      XAR0,#124             ; [CPU_] |1567| 
    2957 00000233 0218          MOVB      ACC,#24               ; [CPU_] |1567| 
    2958 00000234 0794          ADDL      ACC,*+XAR4[AR0]       ; [CPU_] |1567| 
    2959 00000235 1EA6          MOVL      XAR6,ACC              ; [CPU_] |1567| 
    2960 00000236 1AC6          OR        *+XAR6[0],#0x0004     ; [CPU_] |1567| 
         00000237 0004 
    2961 00000238 761A   EDIS
    2962 00000239 7622   EALLOW
    2963 0000023a 0218          MOVB      ACC,#24               ; [CPU_] |1567| 
    2964 0000023b 07C5          ADDL      ACC,*+XAR5[0]         ; [CPU_] |1567| 
    2965 0000023c 1EA6          MOVL      XAR6,ACC              ; [CPU_] |1567| 
    2966 0000023d 1AC6          OR        *+XAR6[0],#0x0004     ; [CPU_] |1567| 
         0000023e 0004 
    2967 0000023f 761A   EDIS
    2968 00000240 7622   EALLOW
    2969 00000241 0218          MOVB      ACC,#24               ; [CPU_] |1567| 
    2970 00000242 07D5          ADDL      ACC,*+XAR5[2]         ; [CPU_] |1567| 
    2971 00000243 83A9          MOVL      XAR5,ACC              ; [CPU_] |1567| 
    2972 00000244 1AC5          OR        *+XAR5[0],#0x0004     ; [CPU_] |1567| 
         00000245 0004 
    2973 00000246 761A   EDIS
    2974                      .dwpsn  file "C:/ti/motorware/motorware_1_01_00_16/sw/solutions/instaspin_foc/src/proj_lab11.c",line 
    2975 00000247 0200          MOVB      ACC,#0                ; [CPU_] |689| 
    2976 00000248 8F40-         MOVL      XAR5,#_gPwmData       ; [CPU_U] |689| 
         00000249 004C 
TMS320C2000 Assembler PC v6.4.10 Mon Jul 11 12:58:57 2016

Tools Copyright (c) 1996-2015 Texas Instruments Incorporated
C:\Users\bee25\AppData\Local\Temp\0350410                            PAGE   61

    2977 0000024a 1EC5          MOVL      *+XAR5[0],ACC         ; [CPU_] |689| 
    2978                      .dwpsn  file "C:/ti/motorware/motorware_1_01_00_16/sw/solutions/instaspin_foc/src/proj_lab11.c",line 
    2979 0000024b 1ED5          MOVL      *+XAR5[2],ACC         ; [CPU_] |690| 
    2980                      .dwpsn  file "C:/ti/motorware/motorware_1_01_00_16/sw/solutions/instaspin_foc/src/proj_lab11.c",line 
    2981 0000024c 1EE5          MOVL      *+XAR5[4],ACC         ; [CPU_] |691| 
    2982 0000024d       $C$L23:    
    2983 0000024d DC7C          ADDB      XAR4,#124             ; [CPU_] 
    2984 0000024e 76C0-         MOVL      XAR7,#_gPwmData       ; [CPU_U] 
         0000024f 004C 
    2985 00000250 BE02          MOVB      XAR6,#2               ; [CPU_] 
    2986 00000251 3B01          SETC      SXM                   ; [CPU_] 
    2987 00000252 FF69          SPM       #0                    ; [CPU_] 
    2988 00000253       $C$L24:    
    2989                      .dwpsn  file "C:/ti/motorware/motorware_1_01_00_16/sw/modules/hal/boards/boostxldrv8301_revB/f28x/f28
    2990 00000253 8384          MOVL      XAR5,*XAR4++          ; [CPU_] |1067| 
    2991                      .dwpsn  file "C:/ti/motorware/motorware_1_01_00_16/sw/drivers/pwm/src/32b/f28x/f2802x/pwm.h",line 171
    2992 00000254 FF2F          MOV       ACC,#-512 << 15       ; [CPU_] |1717| 
         00000255 FE00 
    2993 00000256 8787          MOVL      XT,*XAR7++            ; [CPU_] |1717| 
    2994 00000257 5605          IMPYL     P,XT,ACC              ; [CPU_] |1717| 
         00000258 00A9 
    2995                      .dwpsn  file "C:/ti/motorware/motorware_1_01_00_16/sw/modules/hal/boards/boostxldrv8301_revB/f28x/f28
    2996 00000259 58ED          MOVZ      AR0,*+XAR5[5]         ; [CPU_] |1067| 
    2997                      .dwpsn  file "C:/ti/motorware/motorware_1_01_00_16/sw/drivers/pwm/src/32b/f28x/f2802x/pwm.h",line 171
    2998 0000025a 5663          QMPYL     ACC,XT,ACC            ; [CPU_] |1717| 
         0000025b 00A9 
    2999 0000025c 56A7          LSL64     ACC:P,#8              ; [CPU_] |1717| 
    3000 0000025d 2BAB          MOV       PL,#0                 ; [CPU_] |1717| 
    3001 0000025e 28AA          MOV       PH,#128               ; [CPU_] |1717| 
         0000025f 0080 
    3002 00000260 A9AC          MOVL      XT,P                  ; [CPU_] |1717| 
    3003 00000261 2BAB          MOV       PL,#0                 ; [CPU_] |1717| 
    3004 00000262 28AA          MOV       PH,#65408             ; [CPU_] |1717| 
         00000263 FF80 
    3005 00000264 5650          MINL      ACC,XT                ; [CPU_] |1717| 
         00000265 00AC 
    3006 00000266 5661          MAXL      ACC,P                 ; [CPU_] |1717| 
         00000267 00AB 
