TMS320C2000 Assembler PC v6.4.10 Mon Jul 11 12:59:07 2016

Tools Copyright (c) 1996-2015 Texas Instruments Incorporated
C:\Users\bee25\AppData\Local\Temp\2833610                            PAGE    1

       1              ;***************************************************************
       2              ;* TMS320C2000 C/C++ Codegen                        PC v6.4.10 *
       3              ;* Date/Time created: Mon Jul 11 12:59:07 2016                 *
       4              ;***************************************************************
       5                      .compiler_opts --float_support=softlib --hll_source=on --mem_model:code=flat --mem_model:data=large -
       6        0002  FP      .set    XAR2
       7              
       8              $C$DW$CU        .dwtag  DW_TAG_compile_unit
       9                      .dwattr $C$DW$CU, DW_AT_name("C:/ti/motorware/motorware_1_01_00_16/sw/modules/fw/src/32b/fw.c")
      10                      .dwattr $C$DW$CU, DW_AT_producer("TI TMS320C2000 C/C++ Codegen PC v6.4.10 Copyright (c) 1996-2015 Tex
      11                      .dwattr $C$DW$CU, DW_AT_TI_version(0x01)
      12                      .dwattr $C$DW$CU, DW_AT_comp_dir("C:\ti\motorware\motorware_1_01_00_16\sw\solutions\instaspin_foc\boa
      13              ;       C:\ti\ccsv6\tools\compiler\ti-cgt-c2000_6.4.10\bin\opt2000.exe C:\\Users\\bee25\\AppData\\Local\\Temp
      14              ;       C:\ti\ccsv6\tools\compiler\ti-cgt-c2000_6.4.10\bin\ac2000.exe -@C:\\Users\\bee25\\AppData\\Local\\Tem
      15 00000000               .sect   ".text"
      16                      .clink
      17                      .global _FW_init
      18              
      19              $C$DW$1 .dwtag  DW_TAG_subprogram, DW_AT_name("FW_init")
      20                      .dwattr $C$DW$1, DW_AT_low_pc(_FW_init)
      21                      .dwattr $C$DW$1, DW_AT_high_pc(0x00)
      22                      .dwattr $C$DW$1, DW_AT_TI_symbol_name("_FW_init")
      23                      .dwattr $C$DW$1, DW_AT_external
      24                      .dwattr $C$DW$1, DW_AT_type(*$C$DW$T$24)
      25                      .dwattr $C$DW$1, DW_AT_TI_begin_file("C:/ti/motorware/motorware_1_01_00_16/sw/modules/fw/src/32b/fw.c
      26                      .dwattr $C$DW$1, DW_AT_TI_begin_line(0x37)
      27                      .dwattr $C$DW$1, DW_AT_TI_begin_column(0x0b)
      28                      .dwattr $C$DW$1, DW_AT_TI_max_frame_size(-2)
      29                      .dwpsn  file "C:/ti/motorware/motorware_1_01_00_16/sw/modules/fw/src/32b/fw.c",line 56,column 1,is_st
      30              
      31                      .dwfde $C$DW$CIE, _FW_init
      32              $C$DW$2 .dwtag  DW_TAG_formal_parameter, DW_AT_name("pMemory")
      33                      .dwattr $C$DW$2, DW_AT_TI_symbol_name("_pMemory")
      34                      .dwattr $C$DW$2, DW_AT_type(*$C$DW$T$3)
      35                      .dwattr $C$DW$2, DW_AT_location[DW_OP_reg12]
      36              $C$DW$3 .dwtag  DW_TAG_formal_parameter, DW_AT_name("numBytes")
      37                      .dwattr $C$DW$3, DW_AT_TI_symbol_name("_numBytes")
      38                      .dwattr $C$DW$3, DW_AT_type(*$C$DW$T$26)
      39                      .dwattr $C$DW$3, DW_AT_location[DW_OP_reg0]
      40              
      41              ;***************************************************************
      42              ;* FNAME: _FW_init                      FR SIZE:   0           *
      43              ;*                                                             *
      44              ;* FUNCTION ENVIRONMENT                                        *
      45              ;*                                                             *
      46              ;* FUNCTION PROPERTIES                                         *
      47              ;*                            0 Parameter,  0 Auto,  0 SOE     *
      48              ;***************************************************************
      49              
      50              _FW_init:
      51              ;* AR6   assigned to _numBytes
      52              $C$DW$4 .dwtag  DW_TAG_variable, DW_AT_name("numBytes")
      53                      .dwattr $C$DW$4, DW_AT_TI_symbol_name("_numBytes")
      54                      .dwattr $C$DW$4, DW_AT_type(*$C$DW$T$26)
      55                      .dwattr $C$DW$4, DW_AT_location[DW_OP_reg16]
TMS320C2000 Assembler PC v6.4.10 Mon Jul 11 12:59:07 2016

Tools Copyright (c) 1996-2015 Texas Instruments Incorporated
C:\Users\bee25\AppData\Local\Temp\2833610                            PAGE    2

      56                      .dwcfi  cfa_offset, -2
      57                      .dwcfi  save_reg_to_mem, 26, 0
      58 00000000 1EA6          MOVL      XAR6,ACC              ; [CPU_] |56| 
      59                      .dwpsn  file "C:/ti/motorware/motorware_1_01_00_16/sw/modules/fw/src/32b/fw.c",line 60,column 5,is_st
      60 00000001 0214          MOVB      ACC,#20               ; [CPU_] |60| 
      61 00000002 0FA6          CMPL      ACC,XAR6              ; [CPU_] |60| 
      62 00000003 56C9          BF        $C$L1,LOS             ; [CPU_] |60| 
         00000004 0003 
      63                      ; branchcc occurs ; [] |60| 
      64 00000005 D400          MOVB      XAR4,#0               ; [CPU_] |60| 
      65              $C$L1:    
      66              $C$DW$5 .dwtag  DW_TAG_TI_branch
      67                      .dwattr $C$DW$5, DW_AT_low_pc(0x00)
      68                      .dwattr $C$DW$5, DW_AT_TI_return
      69 00000006 0006          LRETR     ; [CPU_] 
      70                      ; return occurs ; [] 
      71                      .dwattr $C$DW$1, DW_AT_TI_end_file("C:/ti/motorware/motorware_1_01_00_16/sw/modules/fw/src/32b/fw.c")
      72                      .dwattr $C$DW$1, DW_AT_TI_end_line(0x42)
      73                      .dwattr $C$DW$1, DW_AT_TI_end_column(0x01)
      74                      .dwendentry
      75                      .dwendtag $C$DW$1
      76              
      77              
      78              ;***************************************************************
      79              ;* TYPE INFORMATION                                            *
      80              ;***************************************************************
      81              
      82              $C$DW$T$22      .dwtag  DW_TAG_structure_type
      83                      .dwattr $C$DW$T$22, DW_AT_name("_FW_Obj_")
      84                      .dwattr $C$DW$T$22, DW_AT_byte_size(0x14)
      85              $C$DW$6 .dwtag  DW_TAG_member
      86                      .dwattr $C$DW$6, DW_AT_type(*$C$DW$T$19)
      87                      .dwattr $C$DW$6, DW_AT_name("numIsrTicksPerFwTick")
      88                      .dwattr $C$DW$6, DW_AT_TI_symbol_name("_numIsrTicksPerFwTick")
      89                      .dwattr $C$DW$6, DW_AT_data_member_location[DW_OP_plus_uconst 0x0]
      90                      .dwattr $C$DW$6, DW_AT_accessibility(DW_ACCESS_public)
      91              $C$DW$7 .dwtag  DW_TAG_member
      92                      .dwattr $C$DW$7, DW_AT_type(*$C$DW$T$19)
      93                      .dwattr $C$DW$7, DW_AT_name("counter_fw")
      94                      .dwattr $C$DW$7, DW_AT_TI_symbol_name("_counter_fw")
      95                      .dwattr $C$DW$7, DW_AT_data_member_location[DW_OP_plus_uconst 0x2]
      96                      .dwattr $C$DW$7, DW_AT_accessibility(DW_ACCESS_public)
      97              $C$DW$8 .dwtag  DW_TAG_member
      98                      .dwattr $C$DW$8, DW_AT_type(*$C$DW$T$20)
      99                      .dwattr $C$DW$8, DW_AT_name("delta_inc")
     100                      .dwattr $C$DW$8, DW_AT_TI_symbol_name("_delta_inc")
     101                      .dwattr $C$DW$8, DW_AT_data_member_location[DW_OP_plus_uconst 0x4]
     102                      .dwattr $C$DW$8, DW_AT_accessibility(DW_ACCESS_public)
     103              $C$DW$9 .dwtag  DW_TAG_member
     104                      .dwattr $C$DW$9, DW_AT_type(*$C$DW$T$20)
     105                      .dwattr $C$DW$9, DW_AT_name("delta_dec")
     106                      .dwattr $C$DW$9, DW_AT_TI_symbol_name("_delta_dec")
     107                      .dwattr $C$DW$9, DW_AT_data_member_location[DW_OP_plus_uconst 0x6]
     108                      .dwattr $C$DW$9, DW_AT_accessibility(DW_ACCESS_public)
     109              $C$DW$10        .dwtag  DW_TAG_member
TMS320C2000 Assembler PC v6.4.10 Mon Jul 11 12:59:07 2016

Tools Copyright (c) 1996-2015 Texas Instruments Incorporated
C:\Users\bee25\AppData\Local\Temp\2833610                            PAGE    3

     110                      .dwattr $C$DW$10, DW_AT_type(*$C$DW$T$20)
     111                      .dwattr $C$DW$10, DW_AT_name("refValue")
     112                      .dwattr $C$DW$10, DW_AT_TI_symbol_name("_refValue")
     113                      .dwattr $C$DW$10, DW_AT_data_member_location[DW_OP_plus_uconst 0x8]
     114                      .dwattr $C$DW$10, DW_AT_accessibility(DW_ACCESS_public)
     115              $C$DW$11        .dwtag  DW_TAG_member
     116                      .dwattr $C$DW$11, DW_AT_type(*$C$DW$T$20)
     117                      .dwattr $C$DW$11, DW_AT_name("fbackValue")
     118                      .dwattr $C$DW$11, DW_AT_TI_symbol_name("_fbackValue")
     119                      .dwattr $C$DW$11, DW_AT_data_member_location[DW_OP_plus_uconst 0xa]
     120                      .dwattr $C$DW$11, DW_AT_accessibility(DW_ACCESS_public)
     121              $C$DW$12        .dwtag  DW_TAG_member
     122                      .dwattr $C$DW$12, DW_AT_type(*$C$DW$T$20)
     123                      .dwattr $C$DW$12, DW_AT_name("output")
     124                      .dwattr $C$DW$12, DW_AT_TI_symbol_name("_output")
     125                      .dwattr $C$DW$12, DW_AT_data_member_location[DW_OP_plus_uconst 0xc]
     126                      .dwattr $C$DW$12, DW_AT_accessibility(DW_ACCESS_public)
     127              $C$DW$13        .dwtag  DW_TAG_member
     128                      .dwattr $C$DW$13, DW_AT_type(*$C$DW$T$20)
     129                      .dwattr $C$DW$13, DW_AT_name("outMin")
     130                      .dwattr $C$DW$13, DW_AT_TI_symbol_name("_outMin")
     131                      .dwattr $C$DW$13, DW_AT_data_member_location[DW_OP_plus_uconst 0xe]
     132                      .dwattr $C$DW$13, DW_AT_accessibility(DW_ACCESS_public)
     133              $C$DW$14        .dwtag  DW_TAG_member
     134                      .dwattr $C$DW$14, DW_AT_type(*$C$DW$T$20)
     135                      .dwattr $C$DW$14, DW_AT_name("outMax")
     136                      .dwattr $C$DW$14, DW_AT_TI_symbol_name("_outMax")
     137                      .dwattr $C$DW$14, DW_AT_data_member_location[DW_OP_plus_uconst 0x10]
     138                      .dwattr $C$DW$14, DW_AT_accessibility(DW_ACCESS_public)
     139              $C$DW$15        .dwtag  DW_TAG_member
     140                      .dwattr $C$DW$15, DW_AT_type(*$C$DW$T$21)
     141                      .dwattr $C$DW$15, DW_AT_name("flag_enableFw")
     142                      .dwattr $C$DW$15, DW_AT_TI_symbol_name("_flag_enableFw")
     143                      .dwattr $C$DW$15, DW_AT_data_member_location[DW_OP_plus_uconst 0x12]
     144                      .dwattr $C$DW$15, DW_AT_accessibility(DW_ACCESS_public)
     145                      .dwendtag $C$DW$T$22
     146              
     147              $C$DW$T$23      .dwtag  DW_TAG_pointer_type
     148                      .dwattr $C$DW$T$23, DW_AT_type(*$C$DW$T$22)
     149                      .dwattr $C$DW$T$23, DW_AT_address_class(0x20)
     150              $C$DW$T$24      .dwtag  DW_TAG_typedef, DW_AT_name("FW_Handle")
     151                      .dwattr $C$DW$T$24, DW_AT_type(*$C$DW$T$23)
     152                      .dwattr $C$DW$T$24, DW_AT_language(DW_LANG_C)
     153              $C$DW$T$2       .dwtag  DW_TAG_unspecified_type
     154                      .dwattr $C$DW$T$2, DW_AT_name("void")
     155              $C$DW$T$3       .dwtag  DW_TAG_pointer_type
     156                      .dwattr $C$DW$T$3, DW_AT_type(*$C$DW$T$2)
     157                      .dwattr $C$DW$T$3, DW_AT_address_class(0x20)
     158              $C$DW$T$4       .dwtag  DW_TAG_base_type
     159                      .dwattr $C$DW$T$4, DW_AT_encoding(DW_ATE_boolean)
     160                      .dwattr $C$DW$T$4, DW_AT_name("bool")
     161                      .dwattr $C$DW$T$4, DW_AT_byte_size(0x01)
     162              $C$DW$T$5       .dwtag  DW_TAG_base_type
     163                      .dwattr $C$DW$T$5, DW_AT_encoding(DW_ATE_signed_char)
     164                      .dwattr $C$DW$T$5, DW_AT_name("signed char")
TMS320C2000 Assembler PC v6.4.10 Mon Jul 11 12:59:07 2016

Tools Copyright (c) 1996-2015 Texas Instruments Incorporated
C:\Users\bee25\AppData\Local\Temp\2833610                            PAGE    4

     165                      .dwattr $C$DW$T$5, DW_AT_byte_size(0x01)
     166              $C$DW$T$6       .dwtag  DW_TAG_base_type
     167                      .dwattr $C$DW$T$6, DW_AT_encoding(DW_ATE_unsigned_char)
     168                      .dwattr $C$DW$T$6, DW_AT_name("unsigned char")
     169                      .dwattr $C$DW$T$6, DW_AT_byte_size(0x01)
     170              $C$DW$T$7       .dwtag  DW_TAG_base_type
     171                      .dwattr $C$DW$T$7, DW_AT_encoding(DW_ATE_signed_char)
     172                      .dwattr $C$DW$T$7, DW_AT_name("wchar_t")
     173                      .dwattr $C$DW$T$7, DW_AT_byte_size(0x01)
     174              $C$DW$T$8       .dwtag  DW_TAG_base_type
     175                      .dwattr $C$DW$T$8, DW_AT_encoding(DW_ATE_signed)
     176                      .dwattr $C$DW$T$8, DW_AT_name("short")
     177                      .dwattr $C$DW$T$8, DW_AT_byte_size(0x01)
     178              $C$DW$T$9       .dwtag  DW_TAG_base_type
     179                      .dwattr $C$DW$T$9, DW_AT_encoding(DW_ATE_unsigned)
     180                      .dwattr $C$DW$T$9, DW_AT_name("unsigned short")
     181                      .dwattr $C$DW$T$9, DW_AT_byte_size(0x01)
     182              $C$DW$T$10      .dwtag  DW_TAG_base_type
     183                      .dwattr $C$DW$T$10, DW_AT_encoding(DW_ATE_signed)
     184                      .dwattr $C$DW$T$10, DW_AT_name("int")
     185                      .dwattr $C$DW$T$10, DW_AT_byte_size(0x01)
     186              $C$DW$T$11      .dwtag  DW_TAG_base_type
     187                      .dwattr $C$DW$T$11, DW_AT_encoding(DW_ATE_unsigned)
     188                      .dwattr $C$DW$T$11, DW_AT_name("unsigned int")
     189                      .dwattr $C$DW$T$11, DW_AT_byte_size(0x01)
     190              $C$DW$T$12      .dwtag  DW_TAG_base_type
     191                      .dwattr $C$DW$T$12, DW_AT_encoding(DW_ATE_signed)
     192                      .dwattr $C$DW$T$12, DW_AT_name("long")
     193                      .dwattr $C$DW$T$12, DW_AT_byte_size(0x02)
     194              $C$DW$T$20      .dwtag  DW_TAG_typedef, DW_AT_name("_iq")
     195                      .dwattr $C$DW$T$20, DW_AT_type(*$C$DW$T$12)
     196                      .dwattr $C$DW$T$20, DW_AT_language(DW_LANG_C)
     197              $C$DW$T$13      .dwtag  DW_TAG_base_type
     198                      .dwattr $C$DW$T$13, DW_AT_encoding(DW_ATE_unsigned)
     199                      .dwattr $C$DW$T$13, DW_AT_name("unsigned long")
     200                      .dwattr $C$DW$T$13, DW_AT_byte_size(0x02)
     201              $C$DW$T$25      .dwtag  DW_TAG_typedef, DW_AT_name("size_t")
     202                      .dwattr $C$DW$T$25, DW_AT_type(*$C$DW$T$13)
     203                      .dwattr $C$DW$T$25, DW_AT_language(DW_LANG_C)
     204              $C$DW$16        .dwtag  DW_TAG_TI_far_type
     205                      .dwattr $C$DW$16, DW_AT_type(*$C$DW$T$25)
     206              $C$DW$T$26      .dwtag  DW_TAG_const_type
     207                      .dwattr $C$DW$T$26, DW_AT_type(*$C$DW$16)
     208              $C$DW$T$19      .dwtag  DW_TAG_typedef, DW_AT_name("uint32_t")
     209                      .dwattr $C$DW$T$19, DW_AT_type(*$C$DW$T$13)
     210                      .dwattr $C$DW$T$19, DW_AT_language(DW_LANG_C)
     211              $C$DW$T$14      .dwtag  DW_TAG_base_type
     212                      .dwattr $C$DW$T$14, DW_AT_encoding(DW_ATE_signed)
     213                      .dwattr $C$DW$T$14, DW_AT_name("long long")
     214                      .dwattr $C$DW$T$14, DW_AT_byte_size(0x04)
     215              $C$DW$T$15      .dwtag  DW_TAG_base_type
     216                      .dwattr $C$DW$T$15, DW_AT_encoding(DW_ATE_unsigned)
     217                      .dwattr $C$DW$T$15, DW_AT_name("unsigned long long")
     218                      .dwattr $C$DW$T$15, DW_AT_byte_size(0x04)
     219              $C$DW$T$16      .dwtag  DW_TAG_base_type
TMS320C2000 Assembler PC v6.4.10 Mon Jul 11 12:59:07 2016

Tools Copyright (c) 1996-2015 Texas Instruments Incorporated
C:\Users\bee25\AppData\Local\Temp\2833610                            PAGE    5

     220                      .dwattr $C$DW$T$16, DW_AT_encoding(DW_ATE_float)
     221                      .dwattr $C$DW$T$16, DW_AT_name("float")
     222                      .dwattr $C$DW$T$16, DW_AT_byte_size(0x02)
     223              $C$DW$T$17      .dwtag  DW_TAG_base_type
     224                      .dwattr $C$DW$T$17, DW_AT_encoding(DW_ATE_float)
     225                      .dwattr $C$DW$T$17, DW_AT_name("double")
     226                      .dwattr $C$DW$T$17, DW_AT_byte_size(0x02)
     227              $C$DW$T$18      .dwtag  DW_TAG_base_type
     228                      .dwattr $C$DW$T$18, DW_AT_encoding(DW_ATE_float)
     229                      .dwattr $C$DW$T$18, DW_AT_name("long double")
     230                      .dwattr $C$DW$T$18, DW_AT_byte_size(0x04)
     231              $C$DW$T$21      .dwtag  DW_TAG_base_type
     232                      .dwattr $C$DW$T$21, DW_AT_encoding(DW_ATE_unsigned_char)
     233                      .dwattr $C$DW$T$21, DW_AT_name("unsigned char")
     234                      .dwattr $C$DW$T$21, DW_AT_byte_size(0x01)
     235                      .dwattr $C$DW$CU, DW_AT_language(DW_LANG_C)
     236              
     237              ;***************************************************************
     238              ;* DWARF CIE ENTRIES                                           *
     239              ;***************************************************************
     240              
     241              $C$DW$CIE       .dwcie 26
     242                      .dwcfi  cfa_register, 20
     243                      .dwcfi  cfa_offset, 0
     244                      .dwcfi  undefined, 0
     245                      .dwcfi  undefined, 1
     246                      .dwcfi  undefined, 2
     247                      .dwcfi  undefined, 3
     248                      .dwcfi  undefined, 20
     249                      .dwcfi  undefined, 21
     250                      .dwcfi  undefined, 22
     251                      .dwcfi  undefined, 23
     252                      .dwcfi  undefined, 24
     253                      .dwcfi  undefined, 25
     254                      .dwcfi  undefined, 26
     255                      .dwcfi  same_value, 28
     256                      .dwcfi  undefined, 29
     257                      .dwcfi  undefined, 30
     258                      .dwcfi  undefined, 31
     259                      .dwcfi  undefined, 32
     260                      .dwcfi  undefined, 33
     261                      .dwcfi  undefined, 34
     262                      .dwcfi  undefined, 35
     263                      .dwcfi  undefined, 36
     264                      .dwcfi  undefined, 37
     265                      .dwcfi  undefined, 38
     266                      .dwcfi  undefined, 75
     267                      .dwcfi  undefined, 76
     268                      .dwcfi  undefined, 77
     269                      .dwcfi  undefined, 4
     270                      .dwcfi  undefined, 5
     271                      .dwcfi  same_value, 6
     272                      .dwcfi  same_value, 7
     273                      .dwcfi  same_value, 8
     274                      .dwcfi  same_value, 9
TMS320C2000 Assembler PC v6.4.10 Mon Jul 11 12:59:07 2016

Tools Copyright (c) 1996-2015 Texas Instruments Incorporated
C:\Users\bee25\AppData\Local\Temp\2833610                            PAGE    6

     275                      .dwcfi  same_value, 10
     276                      .dwcfi  same_value, 11
     277                      .dwcfi  undefined, 12
     278                      .dwcfi  undefined, 13
     279                      .dwcfi  undefined, 14
     280                      .dwcfi  undefined, 15
     281                      .dwcfi  undefined, 16
     282                      .dwcfi  undefined, 17
     283                      .dwcfi  undefined, 18
     284                      .dwcfi  undefined, 19
     285                      .dwendentry
     286              
     287              ;***************************************************************
     288              ;* DWARF REGISTER MAP                                          *
     289              ;***************************************************************
     290              
     291              $C$DW$17        .dwtag  DW_TAG_TI_assign_register, DW_AT_name("AL")
     292                      .dwattr $C$DW$17, DW_AT_location[DW_OP_reg0]
     293              $C$DW$18        .dwtag  DW_TAG_TI_assign_register, DW_AT_name("AH")
     294                      .dwattr $C$DW$18, DW_AT_location[DW_OP_reg1]
     295              $C$DW$19        .dwtag  DW_TAG_TI_assign_register, DW_AT_name("PL")
     296                      .dwattr $C$DW$19, DW_AT_location[DW_OP_reg2]
     297              $C$DW$20        .dwtag  DW_TAG_TI_assign_register, DW_AT_name("PH")
     298                      .dwattr $C$DW$20, DW_AT_location[DW_OP_reg3]
     299              $C$DW$21        .dwtag  DW_TAG_TI_assign_register, DW_AT_name("SP")
     300                      .dwattr $C$DW$21, DW_AT_location[DW_OP_reg20]
     301              $C$DW$22        .dwtag  DW_TAG_TI_assign_register, DW_AT_name("XT")
     302                      .dwattr $C$DW$22, DW_AT_location[DW_OP_reg21]
     303              $C$DW$23        .dwtag  DW_TAG_TI_assign_register, DW_AT_name("T")
     304                      .dwattr $C$DW$23, DW_AT_location[DW_OP_reg22]
     305              $C$DW$24        .dwtag  DW_TAG_TI_assign_register, DW_AT_name("ST0")
     306                      .dwattr $C$DW$24, DW_AT_location[DW_OP_reg23]
     307              $C$DW$25        .dwtag  DW_TAG_TI_assign_register, DW_AT_name("ST1")
     308                      .dwattr $C$DW$25, DW_AT_location[DW_OP_reg24]
     309              $C$DW$26        .dwtag  DW_TAG_TI_assign_register, DW_AT_name("PC")
     310                      .dwattr $C$DW$26, DW_AT_location[DW_OP_reg25]
     311              $C$DW$27        .dwtag  DW_TAG_TI_assign_register, DW_AT_name("RPC")
     312                      .dwattr $C$DW$27, DW_AT_location[DW_OP_reg26]
     313              $C$DW$28        .dwtag  DW_TAG_TI_assign_register, DW_AT_name("FP")
     314                      .dwattr $C$DW$28, DW_AT_location[DW_OP_reg28]
     315              $C$DW$29        .dwtag  DW_TAG_TI_assign_register, DW_AT_name("DP")
     316                      .dwattr $C$DW$29, DW_AT_location[DW_OP_reg29]
     317              $C$DW$30        .dwtag  DW_TAG_TI_assign_register, DW_AT_name("SXM")
     318                      .dwattr $C$DW$30, DW_AT_location[DW_OP_reg30]
     319              $C$DW$31        .dwtag  DW_TAG_TI_assign_register, DW_AT_name("PM")
     320                      .dwattr $C$DW$31, DW_AT_location[DW_OP_reg31]
     321              $C$DW$32        .dwtag  DW_TAG_TI_assign_register, DW_AT_name("OVM")
     322                      .dwattr $C$DW$32, DW_AT_location[DW_OP_regx 0x20]
     323              $C$DW$33        .dwtag  DW_TAG_TI_assign_register, DW_AT_name("PAGE0")
     324                      .dwattr $C$DW$33, DW_AT_location[DW_OP_regx 0x21]
     325              $C$DW$34        .dwtag  DW_TAG_TI_assign_register, DW_AT_name("AMODE")
     326                      .dwattr $C$DW$34, DW_AT_location[DW_OP_regx 0x22]
     327              $C$DW$35        .dwtag  DW_TAG_TI_assign_register, DW_AT_name("INTM")
     328                      .dwattr $C$DW$35, DW_AT_location[DW_OP_regx 0x23]
     329              $C$DW$36        .dwtag  DW_TAG_TI_assign_register, DW_AT_name("IFR")
TMS320C2000 Assembler PC v6.4.10 Mon Jul 11 12:59:07 2016

Tools Copyright (c) 1996-2015 Texas Instruments Incorporated
C:\Users\bee25\AppData\Local\Temp\2833610                            PAGE    7

     330                      .dwattr $C$DW$36, DW_AT_location[DW_OP_regx 0x24]
     331              $C$DW$37        .dwtag  DW_TAG_TI_assign_register, DW_AT_name("IER")
     332                      .dwattr $C$DW$37, DW_AT_location[DW_OP_regx 0x25]
     333              $C$DW$38        .dwtag  DW_TAG_TI_assign_register, DW_AT_name("V")
     334                      .dwattr $C$DW$38, DW_AT_location[DW_OP_regx 0x26]
     335              $C$DW$39        .dwtag  DW_TAG_TI_assign_register, DW_AT_name("PSEUDOH")
     336                      .dwattr $C$DW$39, DW_AT_location[DW_OP_regx 0x4c]
     337              $C$DW$40        .dwtag  DW_TAG_TI_assign_register, DW_AT_name("VOL")
     338                      .dwattr $C$DW$40, DW_AT_location[DW_OP_regx 0x4d]
     339              $C$DW$41        .dwtag  DW_TAG_TI_assign_register, DW_AT_name("AR0")
     340                      .dwattr $C$DW$41, DW_AT_location[DW_OP_reg4]
     341              $C$DW$42        .dwtag  DW_TAG_TI_assign_register, DW_AT_name("XAR0")
     342                      .dwattr $C$DW$42, DW_AT_location[DW_OP_reg5]
     343              $C$DW$43        .dwtag  DW_TAG_TI_assign_register, DW_AT_name("AR1")
     344                      .dwattr $C$DW$43, DW_AT_location[DW_OP_reg6]
     345              $C$DW$44        .dwtag  DW_TAG_TI_assign_register, DW_AT_name("XAR1")
     346                      .dwattr $C$DW$44, DW_AT_location[DW_OP_reg7]
     347              $C$DW$45        .dwtag  DW_TAG_TI_assign_register, DW_AT_name("AR2")
     348                      .dwattr $C$DW$45, DW_AT_location[DW_OP_reg8]
     349              $C$DW$46        .dwtag  DW_TAG_TI_assign_register, DW_AT_name("XAR2")
     350                      .dwattr $C$DW$46, DW_AT_location[DW_OP_reg9]
     351              $C$DW$47        .dwtag  DW_TAG_TI_assign_register, DW_AT_name("AR3")
     352                      .dwattr $C$DW$47, DW_AT_location[DW_OP_reg10]
     353              $C$DW$48        .dwtag  DW_TAG_TI_assign_register, DW_AT_name("XAR3")
     354                      .dwattr $C$DW$48, DW_AT_location[DW_OP_reg11]
     355              $C$DW$49        .dwtag  DW_TAG_TI_assign_register, DW_AT_name("AR4")
     356                      .dwattr $C$DW$49, DW_AT_location[DW_OP_reg12]
     357              $C$DW$50        .dwtag  DW_TAG_TI_assign_register, DW_AT_name("XAR4")
     358                      .dwattr $C$DW$50, DW_AT_location[DW_OP_reg13]
     359              $C$DW$51        .dwtag  DW_TAG_TI_assign_register, DW_AT_name("AR5")
     360                      .dwattr $C$DW$51, DW_AT_location[DW_OP_reg14]
     361              $C$DW$52        .dwtag  DW_TAG_TI_assign_register, DW_AT_name("XAR5")
     362                      .dwattr $C$DW$52, DW_AT_location[DW_OP_reg15]
     363              $C$DW$53        .dwtag  DW_TAG_TI_assign_register, DW_AT_name("AR6")
     364                      .dwattr $C$DW$53, DW_AT_location[DW_OP_reg16]
     365              $C$DW$54        .dwtag  DW_TAG_TI_assign_register, DW_AT_name("XAR6")
     366                      .dwattr $C$DW$54, DW_AT_location[DW_OP_reg17]
     367              $C$DW$55        .dwtag  DW_TAG_TI_assign_register, DW_AT_name("AR7")
     368                      .dwattr $C$DW$55, DW_AT_location[DW_OP_reg18]
     369              $C$DW$56        .dwtag  DW_TAG_TI_assign_register, DW_AT_name("XAR7")
     370                      .dwattr $C$DW$56, DW_AT_location[DW_OP_reg19]
     371                      .dwendtag $C$DW$CU
     372              

No Assembly Errors, No Assembly Warnings
