TMS320C2000 Assembler PC v6.4.11 Mon Sep 05 19:06:41 2016

Tools Copyright (c) 1996-2015 Texas Instruments Incorporated
C:\Users\bee25\AppData\Local\Temp\2813610                            PAGE    1

       1              ;***************************************************************
       2              ;* TMS320C2000 C/C++ Codegen                        PC v6.4.11 *
       3              ;* Date/Time created: Mon Sep 05 19:06:40 2016                 *
       4              ;***************************************************************
       5                      .compiler_opts --float_support=softlib --hll_source=on --mem_model:code=flat --mem_model:data=large -
       6        0002  FP      .set    XAR2
       7              
       8              $C$DW$CU        .dwtag  DW_TAG_compile_unit
       9                      .dwattr $C$DW$CU, DW_AT_name("C:/ti/motorware/motorware_1_01_00_16/sw/drivers/pie/src/32b/f28x/f2802x
      10                      .dwattr $C$DW$CU, DW_AT_producer("TI TMS320C2000 C/C++ Codegen PC v6.4.11 Copyright (c) 1996-2015 Tex
      11                      .dwattr $C$DW$CU, DW_AT_TI_version(0x01)
      12                      .dwattr $C$DW$CU, DW_AT_comp_dir("C:\ti\motorware\motorware_1_01_00_16\sw\solutions\instaspin_foc\boa
      13              ;       C:\ti\ccsv6\tools\compiler\c2000_6.4.11\bin\opt2000.exe C:\\Users\\bee25\\AppData\\Local\\Temp\\28136
      14              ;       C:\ti\ccsv6\tools\compiler\c2000_6.4.11\bin\ac2000.exe -@C:\\Users\\bee25\\AppData\\Local\\Temp\\2813
      15 00000000               .sect   ".text"
      16                      .clink
      17                      .global _PIE_unregisterSystemIntHandler
      18              
      19              $C$DW$1 .dwtag  DW_TAG_subprogram, DW_AT_name("PIE_unregisterSystemIntHandler")
      20                      .dwattr $C$DW$1, DW_AT_low_pc(_PIE_unregisterSystemIntHandler)
      21                      .dwattr $C$DW$1, DW_AT_high_pc(0x00)
      22                      .dwattr $C$DW$1, DW_AT_TI_symbol_name("_PIE_unregisterSystemIntHandler")
      23                      .dwattr $C$DW$1, DW_AT_external
      24                      .dwattr $C$DW$1, DW_AT_TI_begin_file("C:/ti/motorware/motorware_1_01_00_16/sw/drivers/pie/src/32b/f28
      25                      .dwattr $C$DW$1, DW_AT_TI_begin_line(0x1e6)
      26                      .dwattr $C$DW$1, DW_AT_TI_begin_column(0x06)
      27                      .dwattr $C$DW$1, DW_AT_TI_max_frame_size(-2)
      28                      .dwpsn  file "C:/ti/motorware/motorware_1_01_00_16/sw/drivers/pie/src/32b/f28x/f2802x/pie.c",line 488
      29              
      30                      .dwfde $C$DW$CIE, _PIE_unregisterSystemIntHandler
      31              $C$DW$2 .dwtag  DW_TAG_formal_parameter, DW_AT_name("pieHandle")
      32                      .dwattr $C$DW$2, DW_AT_TI_symbol_name("_pieHandle")
      33                      .dwattr $C$DW$2, DW_AT_type(*$C$DW$T$62)
      34                      .dwattr $C$DW$2, DW_AT_location[DW_OP_reg12]
      35              $C$DW$3 .dwtag  DW_TAG_formal_parameter, DW_AT_name("systemInt")
      36                      .dwattr $C$DW$3, DW_AT_TI_symbol_name("_systemInt")
      37                      .dwattr $C$DW$3, DW_AT_type(*$C$DW$T$54)
      38                      .dwattr $C$DW$3, DW_AT_location[DW_OP_reg0]
      39              
      40              ;***************************************************************
      41              ;* FNAME: _PIE_unregisterSystemIntHandler FR SIZE:   0           *
      42              ;*                                                             *
      43              ;* FUNCTION ENVIRONMENT                                        *
      44              ;*                                                             *
      45              ;* FUNCTION PROPERTIES                                         *
      46              ;*                            0 Parameter,  0 Auto,  0 SOE     *
      47              ;***************************************************************
      48              
      49              _PIE_unregisterSystemIntHandler:
      50              ;* AR4   assigned to _pieHandle
      51              $C$DW$4 .dwtag  DW_TAG_variable, DW_AT_name("pieHandle")
      52                      .dwattr $C$DW$4, DW_AT_TI_symbol_name("_pieHandle")
      53                      .dwattr $C$DW$4, DW_AT_type(*$C$DW$T$63)
      54                      .dwattr $C$DW$4, DW_AT_location[DW_OP_reg12]
      55                      .dwcfi  cfa_offset, -2
TMS320C2000 Assembler PC v6.4.11 Mon Sep 05 19:06:41 2016

Tools Copyright (c) 1996-2015 Texas Instruments Incorporated
C:\Users\bee25\AppData\Local\Temp\2813610                            PAGE    2

      56                      .dwcfi  save_reg_to_mem, 26, 0
      57 00000000 7622   EALLOW
      58 00000001 2901          CLRC      SXM                   ; [CPU_] 
      59                      .dwpsn  file "C:/ti/motorware/motorware_1_01_00_16/sw/drivers/pie/src/32b/f28x/f2802x/pie.c",line 501
      60 00000002 5603          MOV       ACC,AL << 1           ; [CPU_] |501| 
         00000003 01A9 
      61 00000004 5601          ADDL      XAR4,ACC              ; [CPU_] |501| 
         00000005 00A4 
      62 00000006 D020          MOVB      XAR0,#32              ; [CPU_] |501| 
      63 00000007 8F40+         MOVL      XAR5,#_PIE_illegalIsr ; [CPU_U] |501| 
         00000008 0000 
      64 00000009 A094          MOVL      *+XAR4[AR0],XAR5      ; [CPU_] |501| 
      65 0000000a 761A   EDIS
      66 0000000b FF69          SPM       #0                    ; [CPU_] 
      67              $C$DW$5 .dwtag  DW_TAG_TI_branch
      68                      .dwattr $C$DW$5, DW_AT_low_pc(0x00)
      69                      .dwattr $C$DW$5, DW_AT_TI_return
      70 0000000c 0006          LRETR     ; [CPU_] 
      71                      ; return occurs ; [] 
      72                      .dwattr $C$DW$1, DW_AT_TI_end_file("C:/ti/motorware/motorware_1_01_00_16/sw/drivers/pie/src/32b/f28x/
      73                      .dwattr $C$DW$1, DW_AT_TI_end_line(0x1fa)
      74                      .dwattr $C$DW$1, DW_AT_TI_end_column(0x01)
      75                      .dwendentry
      76                      .dwendtag $C$DW$1
      77              
      78 0000000d               .sect   ".text"
      79                      .clink
      80                      .global _PIE_unregisterPieIntHandler
      81              
      82              $C$DW$6 .dwtag  DW_TAG_subprogram, DW_AT_name("PIE_unregisterPieIntHandler")
      83                      .dwattr $C$DW$6, DW_AT_low_pc(_PIE_unregisterPieIntHandler)
      84                      .dwattr $C$DW$6, DW_AT_high_pc(0x00)
      85                      .dwattr $C$DW$6, DW_AT_TI_symbol_name("_PIE_unregisterPieIntHandler")
      86                      .dwattr $C$DW$6, DW_AT_external
      87                      .dwattr $C$DW$6, DW_AT_TI_begin_file("C:/ti/motorware/motorware_1_01_00_16/sw/drivers/pie/src/32b/f28
      88                      .dwattr $C$DW$6, DW_AT_TI_begin_line(0x1cb)
      89                      .dwattr $C$DW$6, DW_AT_TI_begin_column(0x06)
      90                      .dwattr $C$DW$6, DW_AT_TI_max_frame_size(-2)
      91                      .dwpsn  file "C:/ti/motorware/motorware_1_01_00_16/sw/drivers/pie/src/32b/f28x/f2802x/pie.c",line 462
      92              
      93                      .dwfde $C$DW$CIE, _PIE_unregisterPieIntHandler
      94              $C$DW$7 .dwtag  DW_TAG_formal_parameter, DW_AT_name("pieHandle")
      95                      .dwattr $C$DW$7, DW_AT_TI_symbol_name("_pieHandle")
      96                      .dwattr $C$DW$7, DW_AT_type(*$C$DW$T$62)
      97                      .dwattr $C$DW$7, DW_AT_location[DW_OP_reg12]
      98              $C$DW$8 .dwtag  DW_TAG_formal_parameter, DW_AT_name("groupNumber")
      99                      .dwattr $C$DW$8, DW_AT_TI_symbol_name("_groupNumber")
     100                      .dwattr $C$DW$8, DW_AT_type(*$C$DW$T$39)
     101                      .dwattr $C$DW$8, DW_AT_location[DW_OP_reg0]
     102              $C$DW$9 .dwtag  DW_TAG_formal_parameter, DW_AT_name("subGroupNumber")
     103                      .dwattr $C$DW$9, DW_AT_TI_symbol_name("_subGroupNumber")
     104                      .dwattr $C$DW$9, DW_AT_type(*$C$DW$T$51)
     105                      .dwattr $C$DW$9, DW_AT_location[DW_OP_reg1]
     106              
     107              ;***************************************************************
TMS320C2000 Assembler PC v6.4.11 Mon Sep 05 19:06:41 2016

Tools Copyright (c) 1996-2015 Texas Instruments Incorporated
C:\Users\bee25\AppData\Local\Temp\2813610                            PAGE    3

     108              ;* FNAME: _PIE_unregisterPieIntHandler  FR SIZE:   0           *
     109              ;*                                                             *
     110              ;* FUNCTION ENVIRONMENT                                        *
     111              ;*                                                             *
     112              ;* FUNCTION PROPERTIES                                         *
     113              ;*                            0 Parameter,  0 Auto,  0 SOE     *
     114              ;***************************************************************
     115              
     116              _PIE_unregisterPieIntHandler:
     117              ;* AR4   assigned to _pieHandle
     118              $C$DW$10        .dwtag  DW_TAG_variable, DW_AT_name("pieHandle")
     119                      .dwattr $C$DW$10, DW_AT_TI_symbol_name("_pieHandle")
     120                      .dwattr $C$DW$10, DW_AT_type(*$C$DW$T$63)
     121                      .dwattr $C$DW$10, DW_AT_location[DW_OP_reg12]
     122              ;* AL    assigned to _groupNumber
     123              $C$DW$11        .dwtag  DW_TAG_variable, DW_AT_name("groupNumber")
     124                      .dwattr $C$DW$11, DW_AT_TI_symbol_name("_groupNumber")
     125                      .dwattr $C$DW$11, DW_AT_type(*$C$DW$T$39)
     126                      .dwattr $C$DW$11, DW_AT_location[DW_OP_reg0]
     127              ;* AH    assigned to _subGroupNumber
     128              $C$DW$12        .dwtag  DW_TAG_variable, DW_AT_name("subGroupNumber")
     129                      .dwattr $C$DW$12, DW_AT_TI_symbol_name("_subGroupNumber")
     130                      .dwattr $C$DW$12, DW_AT_type(*$C$DW$T$51)
     131                      .dwattr $C$DW$12, DW_AT_location[DW_OP_reg1]
     132                      .dwcfi  cfa_offset, -2
     133                      .dwcfi  save_reg_to_mem, 26, 0
     134 0000000d 7622   EALLOW
     135                      .dwpsn  file "C:/ti/motorware/motorware_1_01_00_16/sw/drivers/pie/src/32b/f28x/f2802x/pie.c",line 478
     136 0000000e 27A8          MOV       PL,AH                 ; [CPU_] |478| 
     137 0000000f 2901          CLRC      SXM                   ; [CPU_] 
     138 00000010 2BAA          MOV       PH,#0                 ; [CPU_] |478| 
     139 00000011 FF68          SPM       #1                    ; [CPU_] 
     140 00000012 5603          MOV       ACC,AL << #3          ; [CPU_] |478| 
         00000013 03A9 
     141 00000014 5603          MOV       ACC,AL << 1           ; [CPU_] |478| 
         00000015 01A9 
     142 00000016 10AC          ADDL      ACC,P << PM           ; [CPU_] |478| 
     143 00000017 5601          ADDL      XAR4,ACC              ; [CPU_] |478| 
         00000018 00A4 
     144 00000019 D060          MOVB      XAR0,#96              ; [CPU_] |478| 
     145 0000001a 8F40+         MOVL      XAR5,#_PIE_illegalIsr ; [CPU_U] |478| 
         0000001b 0000 
     146 0000001c A094          MOVL      *+XAR4[AR0],XAR5      ; [CPU_] |478| 
     147 0000001d 761A   EDIS
     148 0000001e FF69          SPM       #0                    ; [CPU_] 
     149              $C$DW$13        .dwtag  DW_TAG_TI_branch
     150                      .dwattr $C$DW$13, DW_AT_low_pc(0x00)
     151                      .dwattr $C$DW$13, DW_AT_TI_return
     152 0000001f 0006          LRETR     ; [CPU_] 
     153                      ; return occurs ; [] 
     154                      .dwattr $C$DW$6, DW_AT_TI_end_file("C:/ti/motorware/motorware_1_01_00_16/sw/drivers/pie/src/32b/f28x/
     155                      .dwattr $C$DW$6, DW_AT_TI_end_line(0x1e3)
     156                      .dwattr $C$DW$6, DW_AT_TI_end_column(0x01)
     157                      .dwendentry
     158                      .dwendtag $C$DW$6
TMS320C2000 Assembler PC v6.4.11 Mon Sep 05 19:06:41 2016

Tools Copyright (c) 1996-2015 Texas Instruments Incorporated
C:\Users\bee25\AppData\Local\Temp\2813610                            PAGE    4

     159              
     160 00000020               .sect   ".text"
     161                      .clink
     162                      .global _PIE_setExtIntPolarity
     163              
     164              $C$DW$14        .dwtag  DW_TAG_subprogram, DW_AT_name("PIE_setExtIntPolarity")
     165                      .dwattr $C$DW$14, DW_AT_low_pc(_PIE_setExtIntPolarity)
     166                      .dwattr $C$DW$14, DW_AT_high_pc(0x00)
     167                      .dwattr $C$DW$14, DW_AT_TI_symbol_name("_PIE_setExtIntPolarity")
     168                      .dwattr $C$DW$14, DW_AT_external
     169                      .dwattr $C$DW$14, DW_AT_TI_begin_file("C:/ti/motorware/motorware_1_01_00_16/sw/drivers/pie/src/32b/f2
     170                      .dwattr $C$DW$14, DW_AT_TI_begin_line(0x1ba)
     171                      .dwattr $C$DW$14, DW_AT_TI_begin_column(0x06)
     172                      .dwattr $C$DW$14, DW_AT_TI_max_frame_size(-2)
     173                      .dwpsn  file "C:/ti/motorware/motorware_1_01_00_16/sw/drivers/pie/src/32b/f28x/f2802x/pie.c",line 445
     174              
     175                      .dwfde $C$DW$CIE, _PIE_setExtIntPolarity
     176              $C$DW$15        .dwtag  DW_TAG_formal_parameter, DW_AT_name("pieHandle")
     177                      .dwattr $C$DW$15, DW_AT_TI_symbol_name("_pieHandle")
     178                      .dwattr $C$DW$15, DW_AT_type(*$C$DW$T$62)
     179                      .dwattr $C$DW$15, DW_AT_location[DW_OP_reg12]
     180              $C$DW$16        .dwtag  DW_TAG_formal_parameter, DW_AT_name("intNumber")
     181                      .dwattr $C$DW$16, DW_AT_TI_symbol_name("_intNumber")
     182                      .dwattr $C$DW$16, DW_AT_type(*$C$DW$T$36)
     183                      .dwattr $C$DW$16, DW_AT_location[DW_OP_reg0]
     184              $C$DW$17        .dwtag  DW_TAG_formal_parameter, DW_AT_name("polarity")
     185                      .dwattr $C$DW$17, DW_AT_TI_symbol_name("_polarity")
     186                      .dwattr $C$DW$17, DW_AT_type(*$C$DW$T$57)
     187                      .dwattr $C$DW$17, DW_AT_location[DW_OP_reg1]
     188              
     189              ;***************************************************************
     190              ;* FNAME: _PIE_setExtIntPolarity        FR SIZE:   0           *
     191              ;*                                                             *
     192              ;* FUNCTION ENVIRONMENT                                        *
     193              ;*                                                             *
     194              ;* FUNCTION PROPERTIES                                         *
     195              ;*                            0 Parameter,  0 Auto,  0 SOE     *
     196              ;***************************************************************
     197              
     198              _PIE_setExtIntPolarity:
     199              ;* AR4   assigned to $O$C1
     200              ;* AR4   assigned to _pieHandle
     201              $C$DW$18        .dwtag  DW_TAG_variable, DW_AT_name("pieHandle")
     202                      .dwattr $C$DW$18, DW_AT_TI_symbol_name("_pieHandle")
     203                      .dwattr $C$DW$18, DW_AT_type(*$C$DW$T$63)
     204                      .dwattr $C$DW$18, DW_AT_location[DW_OP_reg12]
     205              ;* AR7   assigned to _intNumber
     206              $C$DW$19        .dwtag  DW_TAG_variable, DW_AT_name("intNumber")
     207                      .dwattr $C$DW$19, DW_AT_TI_symbol_name("_intNumber")
     208                      .dwattr $C$DW$19, DW_AT_type(*$C$DW$T$36)
     209                      .dwattr $C$DW$19, DW_AT_location[DW_OP_reg18]
     210              ;* AR6   assigned to _polarity
     211              $C$DW$20        .dwtag  DW_TAG_variable, DW_AT_name("polarity")
     212                      .dwattr $C$DW$20, DW_AT_TI_symbol_name("_polarity")
     213                      .dwattr $C$DW$20, DW_AT_type(*$C$DW$T$57)
TMS320C2000 Assembler PC v6.4.11 Mon Sep 05 19:06:41 2016

Tools Copyright (c) 1996-2015 Texas Instruments Incorporated
C:\Users\bee25\AppData\Local\Temp\2813610                            PAGE    5

     214                      .dwattr $C$DW$20, DW_AT_location[DW_OP_reg16]
     215                      .dwcfi  cfa_offset, -2
     216                      .dwcfi  save_reg_to_mem, 26, 0
     217 00000020 80A9          MOVZ      AR7,AL                ; [CPU_] |445| 
     218 00000021 88A8          MOVZ      AR6,AH                ; [CPU_] |445| 
     219                      .dwpsn  file "C:/ti/motorware/motorware_1_01_00_16/sw/drivers/pie/src/32b/f28x/f2802x/pie.c",line 450
     220 00000022 A8A9          MOVL      ACC,XAR4              ; [CPU_] |450| 
     221 00000023 0DA7          ADDU      ACC,AR7               ; [CPU_] |450| 
     222 00000024 8AA9          MOVL      XAR4,ACC              ; [CPU_] |450| 
     223 00000025 FF14          ADD       ACC,#1593 << 4        ; [CPU_] |450| 
         00000026 0639 
     224 00000027 83A9          MOVL      XAR5,ACC              ; [CPU_] |450| 
     225                      .dwpsn  file "C:/ti/motorware/motorware_1_01_00_16/sw/drivers/pie/src/32b/f28x/f2802x/pie.c",line 453
     226 00000028 A8A9          MOVL      ACC,XAR4              ; [CPU_] |453| 
     227 00000029 FF14          ADD       ACC,#1593 << 4        ; [CPU_] |453| 
         0000002a 0639 
     228 0000002b 8AA9          MOVL      XAR4,ACC              ; [CPU_] |453| 
     229                      .dwpsn  file "C:/ti/motorware/motorware_1_01_00_16/sw/drivers/pie/src/32b/f28x/f2802x/pie.c",line 450
     230 0000002c 18C5          AND       *+XAR5[0],#0xfff3     ; [CPU_] |450| 
         0000002d FFF3 
     231                      .dwpsn  file "C:/ti/motorware/motorware_1_01_00_16/sw/drivers/pie/src/32b/f28x/f2802x/pie.c",line 453
     232 0000002e 92A6          MOV       AL,AR6                ; [CPU_] |453| 
     233 0000002f 98C4          OR        *+XAR4[0],AL          ; [CPU_] |453| 
     234              $C$DW$21        .dwtag  DW_TAG_TI_branch
     235                      .dwattr $C$DW$21, DW_AT_low_pc(0x00)
     236                      .dwattr $C$DW$21, DW_AT_TI_return
     237 00000030 0006          LRETR     ; [CPU_] 
     238                      ; return occurs ; [] 
     239                      .dwattr $C$DW$14, DW_AT_TI_end_file("C:/ti/motorware/motorware_1_01_00_16/sw/drivers/pie/src/32b/f28x
     240                      .dwattr $C$DW$14, DW_AT_TI_end_line(0x1c8)
     241                      .dwattr $C$DW$14, DW_AT_TI_end_column(0x01)
     242                      .dwendentry
     243                      .dwendtag $C$DW$14
     244              
     245 00000031               .sect   ".text"
     246                      .clink
     247                      .global _PIE_setDefaultIntVectorTable
     248              
     249              $C$DW$22        .dwtag  DW_TAG_subprogram, DW_AT_name("PIE_setDefaultIntVectorTable")
     250                      .dwattr $C$DW$22, DW_AT_low_pc(_PIE_setDefaultIntVectorTable)
     251                      .dwattr $C$DW$22, DW_AT_high_pc(0x00)
     252                      .dwattr $C$DW$22, DW_AT_TI_symbol_name("_PIE_setDefaultIntVectorTable")
     253                      .dwattr $C$DW$22, DW_AT_external
     254                      .dwattr $C$DW$22, DW_AT_TI_begin_file("C:/ti/motorware/motorware_1_01_00_16/sw/drivers/pie/src/32b/f2
     255                      .dwattr $C$DW$22, DW_AT_TI_begin_line(0x18f)
     256                      .dwattr $C$DW$22, DW_AT_TI_begin_column(0x06)
     257                      .dwattr $C$DW$22, DW_AT_TI_max_frame_size(-2)
     258                      .dwpsn  file "C:/ti/motorware/motorware_1_01_00_16/sw/drivers/pie/src/32b/f28x/f2802x/pie.c",line 400
     259              
     260                      .dwfde $C$DW$CIE, _PIE_setDefaultIntVectorTable
     261              $C$DW$23        .dwtag  DW_TAG_formal_parameter, DW_AT_name("pieHandle")
     262                      .dwattr $C$DW$23, DW_AT_TI_symbol_name("_pieHandle")
     263                      .dwattr $C$DW$23, DW_AT_type(*$C$DW$T$62)
     264                      .dwattr $C$DW$23, DW_AT_location[DW_OP_reg12]
     265              
TMS320C2000 Assembler PC v6.4.11 Mon Sep 05 19:06:41 2016

Tools Copyright (c) 1996-2015 Texas Instruments Incorporated
C:\Users\bee25\AppData\Local\Temp\2813610                            PAGE    6

     266              ;***************************************************************
     267              ;* FNAME: _PIE_setDefaultIntVectorTable FR SIZE:   0           *
     268              ;*                                                             *
     269              ;* FUNCTION ENVIRONMENT                                        *
     270              ;*                                                             *
     271              ;* FUNCTION PROPERTIES                                         *
     272              ;*                            0 Parameter,  0 Auto,  0 SOE     *
     273              ;***************************************************************
     274              
     275              _PIE_setDefaultIntVectorTable:
     276              ;* AR4   assigned to _addr
     277              $C$DW$24        .dwtag  DW_TAG_variable, DW_AT_name("addr")
     278                      .dwattr $C$DW$24, DW_AT_TI_symbol_name("_addr")
     279                      .dwattr $C$DW$24, DW_AT_type(*$C$DW$T$71)
     280                      .dwattr $C$DW$24, DW_AT_location[DW_OP_reg12]
     281                      .dwcfi  cfa_offset, -2
     282                      .dwcfi  save_reg_to_mem, 26, 0
     283                      .dwpsn  file "C:/ti/motorware/motorware_1_01_00_16/sw/drivers/pie/src/32b/f28x/f2802x/pie.c",line 402
     284 00000031 DC22          ADDB      XAR4,#34              ; [CPU_] |402| 
     285 00000032 7622   EALLOW
     286 00000033 BE77          MOVB      XAR6,#119             ; [CPU_] 
     287                      .dwpsn  file "C:/ti/motorware/motorware_1_01_00_16/sw/drivers/pie/src/32b/f28x/f2802x/pie.c",line 410
     288 00000034 8F40+         MOVL      XAR5,#_PIE_illegalIsr ; [CPU_U] |410| 
         00000035 0000 
     289 00000036       $C$L1:    
     290 00000036 A084          MOVL      *XAR4++,XAR5          ; [CPU_] |410| 
     291                      .dwpsn  file "C:/ti/motorware/motorware_1_01_00_16/sw/drivers/pie/src/32b/f28x/f2802x/pie.c",line 408
     292 00000037 000E          BANZ      $C$L1,AR6--           ; [CPU_] |408| 
         00000038 FFFF 
     293                      ; branchcc occurs ; [] |408| 
     294 00000039 761A   EDIS
     295 0000003a FF69          SPM       #0                    ; [CPU_] 
     296              $C$DW$25        .dwtag  DW_TAG_TI_branch
     297                      .dwattr $C$DW$25, DW_AT_low_pc(0x00)
     298                      .dwattr $C$DW$25, DW_AT_TI_return
     299 0000003b 0006          LRETR     ; [CPU_] 
     300                      ; return occurs ; [] 
     301                      .dwattr $C$DW$22, DW_AT_TI_end_file("C:/ti/motorware/motorware_1_01_00_16/sw/drivers/pie/src/32b/f28x
     302                      .dwattr $C$DW$22, DW_AT_TI_end_line(0x1a0)
     303                      .dwattr $C$DW$22, DW_AT_TI_end_column(0x01)
     304                      .dwendentry
     305                      .dwendtag $C$DW$22
     306              
     307 0000003c               .sect   ".text"
     308                      .clink
     309                      .global _PIE_registerSystemIntHandler
     310              
     311              $C$DW$26        .dwtag  DW_TAG_subprogram, DW_AT_name("PIE_registerSystemIntHandler")
     312                      .dwattr $C$DW$26, DW_AT_low_pc(_PIE_registerSystemIntHandler)
     313                      .dwattr $C$DW$26, DW_AT_high_pc(0x00)
     314                      .dwattr $C$DW$26, DW_AT_TI_symbol_name("_PIE_registerSystemIntHandler")
     315                      .dwattr $C$DW$26, DW_AT_external
     316                      .dwattr $C$DW$26, DW_AT_TI_begin_file("C:/ti/motorware/motorware_1_01_00_16/sw/drivers/pie/src/32b/f2
     317                      .dwattr $C$DW$26, DW_AT_TI_begin_line(0x177)
     318                      .dwattr $C$DW$26, DW_AT_TI_begin_column(0x06)
TMS320C2000 Assembler PC v6.4.11 Mon Sep 05 19:06:41 2016

Tools Copyright (c) 1996-2015 Texas Instruments Incorporated
C:\Users\bee25\AppData\Local\Temp\2813610                            PAGE    7

     319                      .dwattr $C$DW$26, DW_AT_TI_max_frame_size(-2)
     320                      .dwpsn  file "C:/ti/motorware/motorware_1_01_00_16/sw/drivers/pie/src/32b/f28x/f2802x/pie.c",line 378
     321              
     322                      .dwfde $C$DW$CIE, _PIE_registerSystemIntHandler
     323              $C$DW$27        .dwtag  DW_TAG_formal_parameter, DW_AT_name("pieHandle")
     324                      .dwattr $C$DW$27, DW_AT_TI_symbol_name("_pieHandle")
     325                      .dwattr $C$DW$27, DW_AT_type(*$C$DW$T$62)
     326                      .dwattr $C$DW$27, DW_AT_location[DW_OP_reg12]
     327              $C$DW$28        .dwtag  DW_TAG_formal_parameter, DW_AT_name("systemInt")
     328                      .dwattr $C$DW$28, DW_AT_TI_symbol_name("_systemInt")
     329                      .dwattr $C$DW$28, DW_AT_type(*$C$DW$T$54)
     330                      .dwattr $C$DW$28, DW_AT_location[DW_OP_reg0]
     331              $C$DW$29        .dwtag  DW_TAG_formal_parameter, DW_AT_name("vector")
     332                      .dwattr $C$DW$29, DW_AT_TI_symbol_name("_vector")
     333                      .dwattr $C$DW$29, DW_AT_type(*$C$DW$T$70)
     334                      .dwattr $C$DW$29, DW_AT_location[DW_OP_reg14]
     335              
     336              ;***************************************************************
     337              ;* FNAME: _PIE_registerSystemIntHandler FR SIZE:   0           *
     338              ;*                                                             *
     339              ;* FUNCTION ENVIRONMENT                                        *
     340              ;*                                                             *
     341              ;* FUNCTION PROPERTIES                                         *
     342              ;*                            0 Parameter,  0 Auto,  0 SOE     *
     343              ;***************************************************************
     344              
     345              _PIE_registerSystemIntHandler:
     346              ;* AR4   assigned to _pieHandle
     347              $C$DW$30        .dwtag  DW_TAG_variable, DW_AT_name("pieHandle")
     348                      .dwattr $C$DW$30, DW_AT_TI_symbol_name("_pieHandle")
     349                      .dwattr $C$DW$30, DW_AT_type(*$C$DW$T$63)
     350                      .dwattr $C$DW$30, DW_AT_location[DW_OP_reg12]
     351              ;* AR5   assigned to _vector
     352              $C$DW$31        .dwtag  DW_TAG_variable, DW_AT_name("vector")
     353                      .dwattr $C$DW$31, DW_AT_TI_symbol_name("_vector")
     354                      .dwattr $C$DW$31, DW_AT_type(*$C$DW$T$70)
     355                      .dwattr $C$DW$31, DW_AT_location[DW_OP_reg14]
     356                      .dwcfi  cfa_offset, -2
     357                      .dwcfi  save_reg_to_mem, 26, 0
     358 0000003c 7622   EALLOW
     359 0000003d 2901          CLRC      SXM                   ; [CPU_] 
     360                      .dwpsn  file "C:/ti/motorware/motorware_1_01_00_16/sw/drivers/pie/src/32b/f28x/f2802x/pie.c",line 391
     361 0000003e 5603          MOV       ACC,AL << 1           ; [CPU_] |391| 
         0000003f 01A9 
     362 00000040 5601          ADDL      XAR4,ACC              ; [CPU_] |391| 
         00000041 00A4 
     363 00000042 D020          MOVB      XAR0,#32              ; [CPU_] |391| 
     364 00000043 A094          MOVL      *+XAR4[AR0],XAR5      ; [CPU_] |391| 
     365 00000044 761A   EDIS
     366 00000045 FF69          SPM       #0                    ; [CPU_] 
     367              $C$DW$32        .dwtag  DW_TAG_TI_branch
     368                      .dwattr $C$DW$32, DW_AT_low_pc(0x00)
     369                      .dwattr $C$DW$32, DW_AT_TI_return
     370 00000046 0006          LRETR     ; [CPU_] 
     371                      ; return occurs ; [] 
TMS320C2000 Assembler PC v6.4.11 Mon Sep 05 19:06:41 2016

Tools Copyright (c) 1996-2015 Texas Instruments Incorporated
C:\Users\bee25\AppData\Local\Temp\2813610                            PAGE    8

     372                      .dwattr $C$DW$26, DW_AT_TI_end_file("C:/ti/motorware/motorware_1_01_00_16/sw/drivers/pie/src/32b/f28x
     373                      .dwattr $C$DW$26, DW_AT_TI_end_line(0x18c)
     374                      .dwattr $C$DW$26, DW_AT_TI_end_column(0x01)
     375                      .dwendentry
     376                      .dwendtag $C$DW$26
     377              
     378 00000047               .sect   ".text"
     379                      .clink
     380                      .global _PIE_registerPieIntHandler
     381              
     382              $C$DW$33        .dwtag  DW_TAG_subprogram, DW_AT_name("PIE_registerPieIntHandler")
     383                      .dwattr $C$DW$33, DW_AT_low_pc(_PIE_registerPieIntHandler)
     384                      .dwattr $C$DW$33, DW_AT_high_pc(0x00)
     385                      .dwattr $C$DW$33, DW_AT_TI_symbol_name("_PIE_registerPieIntHandler")
     386                      .dwattr $C$DW$33, DW_AT_external
     387                      .dwattr $C$DW$33, DW_AT_TI_begin_file("C:/ti/motorware/motorware_1_01_00_16/sw/drivers/pie/src/32b/f2
     388                      .dwattr $C$DW$33, DW_AT_TI_begin_line(0x15b)
     389                      .dwattr $C$DW$33, DW_AT_TI_begin_column(0x06)
     390                      .dwattr $C$DW$33, DW_AT_TI_max_frame_size(-2)
     391                      .dwpsn  file "C:/ti/motorware/motorware_1_01_00_16/sw/drivers/pie/src/32b/f28x/f2802x/pie.c",line 351
     392              
     393                      .dwfde $C$DW$CIE, _PIE_registerPieIntHandler
     394              $C$DW$34        .dwtag  DW_TAG_formal_parameter, DW_AT_name("pieHandle")
     395                      .dwattr $C$DW$34, DW_AT_TI_symbol_name("_pieHandle")
     396                      .dwattr $C$DW$34, DW_AT_type(*$C$DW$T$62)
     397                      .dwattr $C$DW$34, DW_AT_location[DW_OP_reg12]
     398              $C$DW$35        .dwtag  DW_TAG_formal_parameter, DW_AT_name("groupNumber")
     399                      .dwattr $C$DW$35, DW_AT_TI_symbol_name("_groupNumber")
     400                      .dwattr $C$DW$35, DW_AT_type(*$C$DW$T$39)
     401                      .dwattr $C$DW$35, DW_AT_location[DW_OP_reg0]
     402              $C$DW$36        .dwtag  DW_TAG_formal_parameter, DW_AT_name("subGroupNumber")
     403                      .dwattr $C$DW$36, DW_AT_TI_symbol_name("_subGroupNumber")
     404                      .dwattr $C$DW$36, DW_AT_type(*$C$DW$T$51)
     405                      .dwattr $C$DW$36, DW_AT_location[DW_OP_reg1]
     406              $C$DW$37        .dwtag  DW_TAG_formal_parameter, DW_AT_name("vector")
     407                      .dwattr $C$DW$37, DW_AT_TI_symbol_name("_vector")
     408                      .dwattr $C$DW$37, DW_AT_type(*$C$DW$T$70)
     409                      .dwattr $C$DW$37, DW_AT_location[DW_OP_reg14]
     410              
     411              ;***************************************************************
     412              ;* FNAME: _PIE_registerPieIntHandler    FR SIZE:   0           *
     413              ;*                                                             *
     414              ;* FUNCTION ENVIRONMENT                                        *
     415              ;*                                                             *
     416              ;* FUNCTION PROPERTIES                                         *
     417              ;*                            0 Parameter,  0 Auto,  0 SOE     *
     418              ;***************************************************************
     419              
     420              _PIE_registerPieIntHandler:
     421              ;* AR4   assigned to _pieHandle
     422              $C$DW$38        .dwtag  DW_TAG_variable, DW_AT_name("pieHandle")
     423                      .dwattr $C$DW$38, DW_AT_TI_symbol_name("_pieHandle")
     424                      .dwattr $C$DW$38, DW_AT_type(*$C$DW$T$63)
     425                      .dwattr $C$DW$38, DW_AT_location[DW_OP_reg12]
     426              ;* AL    assigned to _groupNumber
TMS320C2000 Assembler PC v6.4.11 Mon Sep 05 19:06:41 2016

Tools Copyright (c) 1996-2015 Texas Instruments Incorporated
C:\Users\bee25\AppData\Local\Temp\2813610                            PAGE    9

     427              $C$DW$39        .dwtag  DW_TAG_variable, DW_AT_name("groupNumber")
     428                      .dwattr $C$DW$39, DW_AT_TI_symbol_name("_groupNumber")
     429                      .dwattr $C$DW$39, DW_AT_type(*$C$DW$T$39)
     430                      .dwattr $C$DW$39, DW_AT_location[DW_OP_reg0]
     431              ;* AH    assigned to _subGroupNumber
     432              $C$DW$40        .dwtag  DW_TAG_variable, DW_AT_name("subGroupNumber")
     433                      .dwattr $C$DW$40, DW_AT_TI_symbol_name("_subGroupNumber")
     434                      .dwattr $C$DW$40, DW_AT_type(*$C$DW$T$51)
     435                      .dwattr $C$DW$40, DW_AT_location[DW_OP_reg1]
     436              ;* AR5   assigned to _vector
     437              $C$DW$41        .dwtag  DW_TAG_variable, DW_AT_name("vector")
     438                      .dwattr $C$DW$41, DW_AT_TI_symbol_name("_vector")
     439                      .dwattr $C$DW$41, DW_AT_type(*$C$DW$T$70)
     440                      .dwattr $C$DW$41, DW_AT_location[DW_OP_reg14]
     441                      .dwcfi  cfa_offset, -2
     442                      .dwcfi  save_reg_to_mem, 26, 0
     443 00000047 7622   EALLOW
     444                      .dwpsn  file "C:/ti/motorware/motorware_1_01_00_16/sw/drivers/pie/src/32b/f28x/f2802x/pie.c",line 367
     445 00000048 27A8          MOV       PL,AH                 ; [CPU_] |367| 
     446 00000049 2901          CLRC      SXM                   ; [CPU_] 
     447 0000004a 2BAA          MOV       PH,#0                 ; [CPU_] |367| 
     448 0000004b FF68          SPM       #1                    ; [CPU_] 
     449 0000004c 5603          MOV       ACC,AL << #3          ; [CPU_] |367| 
         0000004d 03A9 
     450 0000004e 5603          MOV       ACC,AL << 1           ; [CPU_] |367| 
         0000004f 01A9 
     451 00000050 10AC          ADDL      ACC,P << PM           ; [CPU_] |367| 
     452 00000051 5601          ADDL      XAR4,ACC              ; [CPU_] |367| 
         00000052 00A4 
     453 00000053 D060          MOVB      XAR0,#96              ; [CPU_] |367| 
     454 00000054 A094          MOVL      *+XAR4[AR0],XAR5      ; [CPU_] |367| 
     455 00000055 761A   EDIS
     456 00000056 FF69          SPM       #0                    ; [CPU_] 
     457              $C$DW$42        .dwtag  DW_TAG_TI_branch
     458                      .dwattr $C$DW$42, DW_AT_low_pc(0x00)
     459                      .dwattr $C$DW$42, DW_AT_TI_return
     460 00000057 0006          LRETR     ; [CPU_] 
     461                      ; return occurs ; [] 
     462                      .dwattr $C$DW$33, DW_AT_TI_end_file("C:/ti/motorware/motorware_1_01_00_16/sw/drivers/pie/src/32b/f28x
     463                      .dwattr $C$DW$33, DW_AT_TI_end_line(0x174)
     464                      .dwattr $C$DW$33, DW_AT_TI_end_column(0x01)
     465                      .dwendentry
     466                      .dwendtag $C$DW$33
     467              
     468 00000058               .sect   ".text"
     469                      .clink
     470                      .global _PIE_init
     471              
     472              $C$DW$43        .dwtag  DW_TAG_subprogram, DW_AT_name("PIE_init")
     473                      .dwattr $C$DW$43, DW_AT_low_pc(_PIE_init)
     474                      .dwattr $C$DW$43, DW_AT_high_pc(0x00)
     475                      .dwattr $C$DW$43, DW_AT_TI_symbol_name("_PIE_init")
     476                      .dwattr $C$DW$43, DW_AT_external
     477                      .dwattr $C$DW$43, DW_AT_type(*$C$DW$T$62)
     478                      .dwattr $C$DW$43, DW_AT_TI_begin_file("C:/ti/motorware/motorware_1_01_00_16/sw/drivers/pie/src/32b/f2
TMS320C2000 Assembler PC v6.4.11 Mon Sep 05 19:06:41 2016

Tools Copyright (c) 1996-2015 Texas Instruments Incorporated
C:\Users\bee25\AppData\Local\Temp\2813610                            PAGE   10

     479                      .dwattr $C$DW$43, DW_AT_TI_begin_line(0x14b)
     480                      .dwattr $C$DW$43, DW_AT_TI_begin_column(0x0c)
     481                      .dwattr $C$DW$43, DW_AT_TI_max_frame_size(-2)
     482                      .dwpsn  file "C:/ti/motorware/motorware_1_01_00_16/sw/drivers/pie/src/32b/f28x/f2802x/pie.c",line 332
     483              
     484                      .dwfde $C$DW$CIE, _PIE_init
     485              $C$DW$44        .dwtag  DW_TAG_formal_parameter, DW_AT_name("pMemory")
     486                      .dwattr $C$DW$44, DW_AT_TI_symbol_name("_pMemory")
     487                      .dwattr $C$DW$44, DW_AT_type(*$C$DW$T$3)
     488                      .dwattr $C$DW$44, DW_AT_location[DW_OP_reg12]
     489              $C$DW$45        .dwtag  DW_TAG_formal_parameter, DW_AT_name("numBytes")
     490                      .dwattr $C$DW$45, DW_AT_TI_symbol_name("_numBytes")
     491                      .dwattr $C$DW$45, DW_AT_type(*$C$DW$T$65)
     492                      .dwattr $C$DW$45, DW_AT_location[DW_OP_reg0]
     493              
     494              ;***************************************************************
     495              ;* FNAME: _PIE_init                     FR SIZE:   0           *
     496              ;*                                                             *
     497              ;* FUNCTION ENVIRONMENT                                        *
     498              ;*                                                             *
     499              ;* FUNCTION PROPERTIES                                         *
     500              ;*                            0 Parameter,  0 Auto,  0 SOE     *
     501              ;***************************************************************
     502              
     503              _PIE_init:
     504              ;* AR6   assigned to _numBytes
     505              $C$DW$46        .dwtag  DW_TAG_variable, DW_AT_name("numBytes")
     506                      .dwattr $C$DW$46, DW_AT_TI_symbol_name("_numBytes")
     507                      .dwattr $C$DW$46, DW_AT_type(*$C$DW$T$65)
     508                      .dwattr $C$DW$46, DW_AT_location[DW_OP_reg16]
     509                      .dwcfi  cfa_offset, -2
     510                      .dwcfi  save_reg_to_mem, 26, 0
     511 00000058 1EA6          MOVL      XAR6,ACC              ; [CPU_] |332| 
     512                      .dwpsn  file "C:/ti/motorware/motorware_1_01_00_16/sw/drivers/pie/src/32b/f28x/f2802x/pie.c",line 337
     513 00000059 8F40          MOVL      XAR5,#25500           ; [CPU_U] |337| 
         0000005a 639C 
     514 0000005b A0A9          MOVL      ACC,XAR5              ; [CPU_] |337| 
     515 0000005c 0FA6          CMPL      ACC,XAR6              ; [CPU_] |337| 
     516 0000005d 56C9          BF        $C$L2,LOS             ; [CPU_] |337| 
         0000005e 0003 
     517                      ; branchcc occurs ; [] |337| 
     518 0000005f D400          MOVB      XAR4,#0               ; [CPU_] |337| 
     519              $C$L2:    
     520              $C$DW$47        .dwtag  DW_TAG_TI_branch
     521                      .dwattr $C$DW$47, DW_AT_low_pc(0x00)
     522                      .dwattr $C$DW$47, DW_AT_TI_return
     523 00000060 0006          LRETR     ; [CPU_] 
     524                      ; return occurs ; [] 
     525                      .dwattr $C$DW$43, DW_AT_TI_end_file("C:/ti/motorware/motorware_1_01_00_16/sw/drivers/pie/src/32b/f28x
     526                      .dwattr $C$DW$43, DW_AT_TI_end_line(0x157)
     527                      .dwattr $C$DW$43, DW_AT_TI_end_column(0x01)
     528                      .dwendentry
     529                      .dwendtag $C$DW$43
     530              
     531 00000000               .sect   ".text:retain"
TMS320C2000 Assembler PC v6.4.11 Mon Sep 05 19:06:41 2016

Tools Copyright (c) 1996-2015 Texas Instruments Incorporated
C:\Users\bee25\AppData\Local\Temp\2813610                            PAGE   11

     532                      .retain
     533                      .retainrefs
     534                      .global _PIE_illegalIsr
     535              
     536              $C$DW$48        .dwtag  DW_TAG_subprogram, DW_AT_name("PIE_illegalIsr")
     537                      .dwattr $C$DW$48, DW_AT_low_pc(_PIE_illegalIsr)
     538                      .dwattr $C$DW$48, DW_AT_high_pc(0x00)
     539                      .dwattr $C$DW$48, DW_AT_TI_symbol_name("_PIE_illegalIsr")
     540                      .dwattr $C$DW$48, DW_AT_external
     541                      .dwattr $C$DW$48, DW_AT_TI_begin_file("C:/ti/motorware/motorware_1_01_00_16/sw/drivers/pie/src/32b/f2
     542                      .dwattr $C$DW$48, DW_AT_TI_begin_line(0x13f)
     543                      .dwattr $C$DW$48, DW_AT_TI_begin_column(0x10)
     544                      .dwattr $C$DW$48, DW_AT_TI_interrupt
     545                      .dwattr $C$DW$48, DW_AT_TI_max_frame_size(-2)
     546                      .dwpsn  file "C:/ti/motorware/motorware_1_01_00_16/sw/drivers/pie/src/32b/f28x/f2802x/pie.c",line 320
     547              
     548                      .dwfde $C$DW$CIE, _PIE_illegalIsr
     549              
     550              ;***************************************************************
     551              ;* FNAME: _PIE_illegalIsr               FR SIZE:   0           *
     552              ;*                                                             *
     553              ;* FUNCTION ENVIRONMENT                                        *
     554              ;*                                                             *
     555              ;* FUNCTION PROPERTIES                                         *
     556              ;*                            0 Parameter,  0 Auto,  0 SOE     *
     557              ;***************************************************************
     558              
     559 00000000       _PIE_illegalIsr:
     560                      .dwcfi  cfa_offset, -2
     561                      .dwcfi  save_reg_to_mem, 26, 0
     562 00000000 761B          ASP       ; [CPU_] 
     563 00000001 2942          CLRC      PAGE0,OVM             ; [CPU_] 
     564 00000002 5616          CLRC      AMODE                 ; [CPU_] 
     565 00000003 7625   ESTOP0
     566 00000004       $C$L3:    
     567                      .dwpsn  file "C:/ti/motorware/motorware_1_01_00_16/sw/drivers/pie/src/32b/f28x/f2802x/pie.c",line 326
     568 00000004 6F00          B         $C$L3,UNC             ; [CPU_] |326| 
     569                      ; branch occurs ; [] |326| 
     570                      .dwattr $C$DW$48, DW_AT_TI_end_file("C:/ti/motorware/motorware_1_01_00_16/sw/drivers/pie/src/32b/f28x
     571                      .dwattr $C$DW$48, DW_AT_TI_end_line(0x148)
     572                      .dwattr $C$DW$48, DW_AT_TI_end_column(0x01)
     573                      .dwendentry
     574                      .dwendtag $C$DW$48
     575              
     576 00000061               .sect   ".text"
     577                      .clink
     578                      .global _PIE_getIntFlags
     579              
     580              $C$DW$49        .dwtag  DW_TAG_subprogram, DW_AT_name("PIE_getIntFlags")
     581                      .dwattr $C$DW$49, DW_AT_low_pc(_PIE_getIntFlags)
     582                      .dwattr $C$DW$49, DW_AT_high_pc(0x00)
     583                      .dwattr $C$DW$49, DW_AT_TI_symbol_name("_PIE_getIntFlags")
     584                      .dwattr $C$DW$49, DW_AT_external
     585                      .dwattr $C$DW$49, DW_AT_type(*$C$DW$T$19)
     586                      .dwattr $C$DW$49, DW_AT_TI_begin_file("C:/ti/motorware/motorware_1_01_00_16/sw/drivers/pie/src/32b/f2
TMS320C2000 Assembler PC v6.4.11 Mon Sep 05 19:06:41 2016

Tools Copyright (c) 1996-2015 Texas Instruments Incorporated
C:\Users\bee25\AppData\Local\Temp\2813610                            PAGE   12

     587                      .dwattr $C$DW$49, DW_AT_TI_begin_line(0x137)
     588                      .dwattr $C$DW$49, DW_AT_TI_begin_column(0x0a)
     589                      .dwattr $C$DW$49, DW_AT_TI_max_frame_size(-2)
     590                      .dwpsn  file "C:/ti/motorware/motorware_1_01_00_16/sw/drivers/pie/src/32b/f28x/f2802x/pie.c",line 312
     591              
     592                      .dwfde $C$DW$CIE, _PIE_getIntFlags
     593              $C$DW$50        .dwtag  DW_TAG_formal_parameter, DW_AT_name("pieHandle")
     594                      .dwattr $C$DW$50, DW_AT_TI_symbol_name("_pieHandle")
     595                      .dwattr $C$DW$50, DW_AT_type(*$C$DW$T$62)
     596                      .dwattr $C$DW$50, DW_AT_location[DW_OP_reg12]
     597              $C$DW$51        .dwtag  DW_TAG_formal_parameter, DW_AT_name("group")
     598                      .dwattr $C$DW$51, DW_AT_TI_symbol_name("_group")
     599                      .dwattr $C$DW$51, DW_AT_type(*$C$DW$T$39)
     600                      .dwattr $C$DW$51, DW_AT_location[DW_OP_reg0]
     601              
     602              ;***************************************************************
     603              ;* FNAME: _PIE_getIntFlags              FR SIZE:   0           *
     604              ;*                                                             *
     605              ;* FUNCTION ENVIRONMENT                                        *
     606              ;*                                                             *
     607              ;* FUNCTION PROPERTIES                                         *
     608              ;*                            0 Parameter,  0 Auto,  0 SOE     *
     609              ;***************************************************************
     610              
     611              _PIE_getIntFlags:
     612              ;* AR4   assigned to _pieHandle
     613              $C$DW$52        .dwtag  DW_TAG_variable, DW_AT_name("pieHandle")
     614                      .dwattr $C$DW$52, DW_AT_TI_symbol_name("_pieHandle")
     615                      .dwattr $C$DW$52, DW_AT_type(*$C$DW$T$63)
     616                      .dwattr $C$DW$52, DW_AT_location[DW_OP_reg12]
     617                      .dwcfi  cfa_offset, -2
     618                      .dwcfi  save_reg_to_mem, 26, 0
     619 00000061 2901          CLRC      SXM                   ; [CPU_] 
     620                      .dwpsn  file "C:/ti/motorware/motorware_1_01_00_16/sw/drivers/pie/src/32b/f28x/f2802x/pie.c",line 315
     621 00000062 5603          MOV       ACC,AL << 1           ; [CPU_] |315| 
         00000063 01A9 
     622 00000064 5601          ADDL      XAR4,ACC              ; [CPU_] |315| 
         00000065 00A4 
     623 00000066 92DC          MOV       AL,*+XAR4[3]          ; [CPU_] |315| 
     624              $C$DW$53        .dwtag  DW_TAG_TI_branch
     625                      .dwattr $C$DW$53, DW_AT_low_pc(0x00)
     626                      .dwattr $C$DW$53, DW_AT_TI_return
     627 00000067 0006          LRETR     ; [CPU_] 
     628                      ; return occurs ; [] 
     629                      .dwattr $C$DW$49, DW_AT_TI_end_file("C:/ti/motorware/motorware_1_01_00_16/sw/drivers/pie/src/32b/f28x
     630                      .dwattr $C$DW$49, DW_AT_TI_end_line(0x13c)
     631                      .dwattr $C$DW$49, DW_AT_TI_end_column(0x01)
     632                      .dwendentry
     633                      .dwendtag $C$DW$49
     634              
     635 00000068               .sect   ".text"
     636                      .clink
     637                      .global _PIE_getIntEnables
     638              
     639              $C$DW$54        .dwtag  DW_TAG_subprogram, DW_AT_name("PIE_getIntEnables")
TMS320C2000 Assembler PC v6.4.11 Mon Sep 05 19:06:41 2016

Tools Copyright (c) 1996-2015 Texas Instruments Incorporated
C:\Users\bee25\AppData\Local\Temp\2813610                            PAGE   13

     640                      .dwattr $C$DW$54, DW_AT_low_pc(_PIE_getIntEnables)
     641                      .dwattr $C$DW$54, DW_AT_high_pc(0x00)
     642                      .dwattr $C$DW$54, DW_AT_TI_symbol_name("_PIE_getIntEnables")
     643                      .dwattr $C$DW$54, DW_AT_external
     644                      .dwattr $C$DW$54, DW_AT_type(*$C$DW$T$19)
     645                      .dwattr $C$DW$54, DW_AT_TI_begin_file("C:/ti/motorware/motorware_1_01_00_16/sw/drivers/pie/src/32b/f2
     646                      .dwattr $C$DW$54, DW_AT_TI_begin_line(0x12f)
     647                      .dwattr $C$DW$54, DW_AT_TI_begin_column(0x0a)
     648                      .dwattr $C$DW$54, DW_AT_TI_max_frame_size(-2)
     649                      .dwpsn  file "C:/ti/motorware/motorware_1_01_00_16/sw/drivers/pie/src/32b/f28x/f2802x/pie.c",line 304
     650              
     651                      .dwfde $C$DW$CIE, _PIE_getIntEnables
     652              $C$DW$55        .dwtag  DW_TAG_formal_parameter, DW_AT_name("pieHandle")
     653                      .dwattr $C$DW$55, DW_AT_TI_symbol_name("_pieHandle")
     654                      .dwattr $C$DW$55, DW_AT_type(*$C$DW$T$62)
     655                      .dwattr $C$DW$55, DW_AT_location[DW_OP_reg12]
     656              $C$DW$56        .dwtag  DW_TAG_formal_parameter, DW_AT_name("group")
     657                      .dwattr $C$DW$56, DW_AT_TI_symbol_name("_group")
     658                      .dwattr $C$DW$56, DW_AT_type(*$C$DW$T$39)
     659                      .dwattr $C$DW$56, DW_AT_location[DW_OP_reg0]
     660              
     661              ;***************************************************************
     662              ;* FNAME: _PIE_getIntEnables            FR SIZE:   0           *
     663              ;*                                                             *
     664              ;* FUNCTION ENVIRONMENT                                        *
     665              ;*                                                             *
     666              ;* FUNCTION PROPERTIES                                         *
     667              ;*                            0 Parameter,  0 Auto,  0 SOE     *
     668              ;***************************************************************
     669              
     670              _PIE_getIntEnables:
     671              ;* AR4   assigned to _pieHandle
     672              $C$DW$57        .dwtag  DW_TAG_variable, DW_AT_name("pieHandle")
     673                      .dwattr $C$DW$57, DW_AT_TI_symbol_name("_pieHandle")
     674                      .dwattr $C$DW$57, DW_AT_type(*$C$DW$T$63)
     675                      .dwattr $C$DW$57, DW_AT_location[DW_OP_reg12]
     676                      .dwcfi  cfa_offset, -2
     677                      .dwcfi  save_reg_to_mem, 26, 0
     678 00000068 2901          CLRC      SXM                   ; [CPU_] 
     679                      .dwpsn  file "C:/ti/motorware/motorware_1_01_00_16/sw/drivers/pie/src/32b/f28x/f2802x/pie.c",line 307
     680 00000069 5603          MOV       ACC,AL << 1           ; [CPU_] |307| 
         0000006a 01A9 
     681 0000006b 5601          ADDL      XAR4,ACC              ; [CPU_] |307| 
         0000006c 00A4 
     682 0000006d 92D4          MOV       AL,*+XAR4[2]          ; [CPU_] |307| 
     683              $C$DW$58        .dwtag  DW_TAG_TI_branch
     684                      .dwattr $C$DW$58, DW_AT_low_pc(0x00)
     685                      .dwattr $C$DW$58, DW_AT_TI_return
     686 0000006e 0006          LRETR     ; [CPU_] 
     687                      ; return occurs ; [] 
     688                      .dwattr $C$DW$54, DW_AT_TI_end_file("C:/ti/motorware/motorware_1_01_00_16/sw/drivers/pie/src/32b/f28x
     689                      .dwattr $C$DW$54, DW_AT_TI_end_line(0x134)
     690                      .dwattr $C$DW$54, DW_AT_TI_end_column(0x01)
     691                      .dwendentry
     692                      .dwendtag $C$DW$54
TMS320C2000 Assembler PC v6.4.11 Mon Sep 05 19:06:41 2016

Tools Copyright (c) 1996-2015 Texas Instruments Incorporated
C:\Users\bee25\AppData\Local\Temp\2813610                            PAGE   14

     693              
     694 0000006f               .sect   ".text"
     695                      .clink
     696                      .global _PIE_getExtIntCount
     697              
     698              $C$DW$59        .dwtag  DW_TAG_subprogram, DW_AT_name("PIE_getExtIntCount")
     699                      .dwattr $C$DW$59, DW_AT_low_pc(_PIE_getExtIntCount)
     700                      .dwattr $C$DW$59, DW_AT_high_pc(0x00)
     701                      .dwattr $C$DW$59, DW_AT_TI_symbol_name("_PIE_getExtIntCount")
     702                      .dwattr $C$DW$59, DW_AT_external
     703                      .dwattr $C$DW$59, DW_AT_type(*$C$DW$T$19)
     704                      .dwattr $C$DW$59, DW_AT_TI_begin_file("C:/ti/motorware/motorware_1_01_00_16/sw/drivers/pie/src/32b/f2
     705                      .dwattr $C$DW$59, DW_AT_TI_begin_line(0x123)
     706                      .dwattr $C$DW$59, DW_AT_TI_begin_column(0x0a)
     707                      .dwattr $C$DW$59, DW_AT_TI_max_frame_size(-2)
     708                      .dwpsn  file "C:/ti/motorware/motorware_1_01_00_16/sw/drivers/pie/src/32b/f28x/f2802x/pie.c",line 292
     709              
     710                      .dwfde $C$DW$CIE, _PIE_getExtIntCount
     711              $C$DW$60        .dwtag  DW_TAG_formal_parameter, DW_AT_name("pieHandle")
     712                      .dwattr $C$DW$60, DW_AT_TI_symbol_name("_pieHandle")
     713                      .dwattr $C$DW$60, DW_AT_type(*$C$DW$T$62)
     714                      .dwattr $C$DW$60, DW_AT_location[DW_OP_reg12]
     715              $C$DW$61        .dwtag  DW_TAG_formal_parameter, DW_AT_name("intNumber")
     716                      .dwattr $C$DW$61, DW_AT_TI_symbol_name("_intNumber")
     717                      .dwattr $C$DW$61, DW_AT_type(*$C$DW$T$36)
     718                      .dwattr $C$DW$61, DW_AT_location[DW_OP_reg0]
     719              
     720              ;***************************************************************
     721              ;* FNAME: _PIE_getExtIntCount           FR SIZE:   0           *
     722              ;*                                                             *
     723              ;* FUNCTION ENVIRONMENT                                        *
     724              ;*                                                             *
     725              ;* FUNCTION PROPERTIES                                         *
     726              ;*                            0 Parameter,  0 Auto,  0 SOE     *
     727              ;***************************************************************
     728              
     729              _PIE_getExtIntCount:
     730              ;* AL    assigned to _pieHandle
     731              $C$DW$62        .dwtag  DW_TAG_variable, DW_AT_name("pieHandle")
     732                      .dwattr $C$DW$62, DW_AT_TI_symbol_name("_pieHandle")
     733                      .dwattr $C$DW$62, DW_AT_type(*$C$DW$T$63)
     734                      .dwattr $C$DW$62, DW_AT_location[DW_OP_reg0]
     735              ;* AR6   assigned to _intNumber
     736              $C$DW$63        .dwtag  DW_TAG_variable, DW_AT_name("intNumber")
     737                      .dwattr $C$DW$63, DW_AT_TI_symbol_name("_intNumber")
     738                      .dwattr $C$DW$63, DW_AT_type(*$C$DW$T$36)
     739                      .dwattr $C$DW$63, DW_AT_location[DW_OP_reg16]
     740              ;* AL    assigned to _count
     741              $C$DW$64        .dwtag  DW_TAG_variable, DW_AT_name("count")
     742                      .dwattr $C$DW$64, DW_AT_TI_symbol_name("_count")
     743                      .dwattr $C$DW$64, DW_AT_type(*$C$DW$T$19)
     744                      .dwattr $C$DW$64, DW_AT_location[DW_OP_reg0]
     745                      .dwcfi  cfa_offset, -2
     746                      .dwcfi  save_reg_to_mem, 26, 0
     747 0000006f 88A9          MOVZ      AR6,AL                ; [CPU_] |292| 
TMS320C2000 Assembler PC v6.4.11 Mon Sep 05 19:06:41 2016

Tools Copyright (c) 1996-2015 Texas Instruments Incorporated
C:\Users\bee25\AppData\Local\Temp\2813610                            PAGE   15

     748 00000070 A8A9          MOVL      ACC,XAR4              ; [CPU_] |292| 
     749                      .dwpsn  file "C:/ti/motorware/motorware_1_01_00_16/sw/drivers/pie/src/32b/f28x/f2802x/pie.c",line 297
     750 00000071 0DA6          ADDU      ACC,AR6               ; [CPU_] |297| 
     751 00000072 FF13          ADD       ACC,#3187 << 3        ; [CPU_] |297| 
         00000073 0C73 
     752 00000074 8AA9          MOVL      XAR4,ACC              ; [CPU_] |297| 
     753 00000075 92C4          MOV       AL,*+XAR4[0]          ; [CPU_] |297| 
     754              $C$DW$65        .dwtag  DW_TAG_TI_branch
     755                      .dwattr $C$DW$65, DW_AT_low_pc(0x00)
     756                      .dwattr $C$DW$65, DW_AT_TI_return
     757 00000076 0006          LRETR     ; [CPU_] 
     758                      ; return occurs ; [] 
     759                      .dwattr $C$DW$59, DW_AT_TI_end_file("C:/ti/motorware/motorware_1_01_00_16/sw/drivers/pie/src/32b/f28x
     760                      .dwattr $C$DW$59, DW_AT_TI_end_line(0x12c)
     761                      .dwattr $C$DW$59, DW_AT_TI_end_column(0x01)
     762                      .dwendentry
     763                      .dwendtag $C$DW$59
     764              
     765 00000077               .sect   ".text"
     766                      .clink
     767                      .global _PIE_forceInt
     768              
     769              $C$DW$66        .dwtag  DW_TAG_subprogram, DW_AT_name("PIE_forceInt")
     770                      .dwattr $C$DW$66, DW_AT_low_pc(_PIE_forceInt)
     771                      .dwattr $C$DW$66, DW_AT_high_pc(0x00)
     772                      .dwattr $C$DW$66, DW_AT_TI_symbol_name("_PIE_forceInt")
     773                      .dwattr $C$DW$66, DW_AT_external
     774                      .dwattr $C$DW$66, DW_AT_TI_begin_file("C:/ti/motorware/motorware_1_01_00_16/sw/drivers/pie/src/32b/f2
     775                      .dwattr $C$DW$66, DW_AT_TI_begin_line(0x119)
     776                      .dwattr $C$DW$66, DW_AT_TI_begin_column(0x06)
     777                      .dwattr $C$DW$66, DW_AT_TI_max_frame_size(-2)
     778                      .dwpsn  file "C:/ti/motorware/motorware_1_01_00_16/sw/drivers/pie/src/32b/f28x/f2802x/pie.c",line 282
     779              
     780                      .dwfde $C$DW$CIE, _PIE_forceInt
     781              $C$DW$67        .dwtag  DW_TAG_formal_parameter, DW_AT_name("pieHandle")
     782                      .dwattr $C$DW$67, DW_AT_TI_symbol_name("_pieHandle")
     783                      .dwattr $C$DW$67, DW_AT_type(*$C$DW$T$62)
     784                      .dwattr $C$DW$67, DW_AT_location[DW_OP_reg12]
     785              $C$DW$68        .dwtag  DW_TAG_formal_parameter, DW_AT_name("group")
     786                      .dwattr $C$DW$68, DW_AT_TI_symbol_name("_group")
     787                      .dwattr $C$DW$68, DW_AT_type(*$C$DW$T$39)
     788                      .dwattr $C$DW$68, DW_AT_location[DW_OP_reg0]
     789              $C$DW$69        .dwtag  DW_TAG_formal_parameter, DW_AT_name("intSource")
     790                      .dwattr $C$DW$69, DW_AT_TI_symbol_name("_intSource")
     791                      .dwattr $C$DW$69, DW_AT_type(*$C$DW$T$42)
     792                      .dwattr $C$DW$69, DW_AT_location[DW_OP_reg1]
     793              
     794              ;***************************************************************
     795              ;* FNAME: _PIE_forceInt                 FR SIZE:   0           *
     796              ;*                                                             *
     797              ;* FUNCTION ENVIRONMENT                                        *
     798              ;*                                                             *
     799              ;* FUNCTION PROPERTIES                                         *
     800              ;*                            0 Parameter,  0 Auto,  0 SOE     *
     801              ;***************************************************************
TMS320C2000 Assembler PC v6.4.11 Mon Sep 05 19:06:41 2016

Tools Copyright (c) 1996-2015 Texas Instruments Incorporated
C:\Users\bee25\AppData\Local\Temp\2813610                            PAGE   16

     802              
     803              _PIE_forceInt:
     804              ;* AR4   assigned to _pieHandle
     805              $C$DW$70        .dwtag  DW_TAG_variable, DW_AT_name("pieHandle")
     806                      .dwattr $C$DW$70, DW_AT_TI_symbol_name("_pieHandle")
     807                      .dwattr $C$DW$70, DW_AT_type(*$C$DW$T$63)
     808                      .dwattr $C$DW$70, DW_AT_location[DW_OP_reg12]
     809              ;* AR6   assigned to _intSource
     810              $C$DW$71        .dwtag  DW_TAG_variable, DW_AT_name("intSource")
     811                      .dwattr $C$DW$71, DW_AT_TI_symbol_name("_intSource")
     812                      .dwattr $C$DW$71, DW_AT_type(*$C$DW$T$42)
     813                      .dwattr $C$DW$71, DW_AT_location[DW_OP_reg16]
     814                      .dwcfi  cfa_offset, -2
     815                      .dwcfi  save_reg_to_mem, 26, 0
     816 00000077 88A8          MOVZ      AR6,AH                ; [CPU_] |282| 
     817 00000078 2901          CLRC      SXM                   ; [CPU_] 
     818                      .dwpsn  file "C:/ti/motorware/motorware_1_01_00_16/sw/drivers/pie/src/32b/f28x/f2802x/pie.c",line 285
     819 00000079 5603          MOV       ACC,AL << 1           ; [CPU_] |285| 
         0000007a 01A9 
     820 0000007b 5601          ADDL      XAR4,ACC              ; [CPU_] |285| 
         0000007c 00A4 
     821 0000007d 92A6          MOV       AL,AR6                ; [CPU_] |285| 
     822 0000007e 98DC          OR        *+XAR4[3],AL          ; [CPU_] |285| 
     823              $C$DW$72        .dwtag  DW_TAG_TI_branch
     824                      .dwattr $C$DW$72, DW_AT_low_pc(0x00)
     825                      .dwattr $C$DW$72, DW_AT_TI_return
     826 0000007f 0006          LRETR     ; [CPU_] 
     827                      ; return occurs ; [] 
     828                      .dwattr $C$DW$66, DW_AT_TI_end_file("C:/ti/motorware/motorware_1_01_00_16/sw/drivers/pie/src/32b/f28x
     829                      .dwattr $C$DW$66, DW_AT_TI_end_line(0x120)
     830                      .dwattr $C$DW$66, DW_AT_TI_end_column(0x01)
     831                      .dwendentry
     832                      .dwendtag $C$DW$66
     833              
     834 00000080               .sect   ".text"
     835                      .clink
     836                      .global _PIE_enableTimer0Int
     837              
     838              $C$DW$73        .dwtag  DW_TAG_subprogram, DW_AT_name("PIE_enableTimer0Int")
     839                      .dwattr $C$DW$73, DW_AT_low_pc(_PIE_enableTimer0Int)
     840                      .dwattr $C$DW$73, DW_AT_high_pc(0x00)
     841                      .dwattr $C$DW$73, DW_AT_TI_symbol_name("_PIE_enableTimer0Int")
     842                      .dwattr $C$DW$73, DW_AT_external
     843                      .dwattr $C$DW$73, DW_AT_TI_begin_file("C:/ti/motorware/motorware_1_01_00_16/sw/drivers/pie/src/32b/f2
     844                      .dwattr $C$DW$73, DW_AT_TI_begin_line(0x10e)
     845                      .dwattr $C$DW$73, DW_AT_TI_begin_column(0x06)
     846                      .dwattr $C$DW$73, DW_AT_TI_max_frame_size(-2)
     847                      .dwpsn  file "C:/ti/motorware/motorware_1_01_00_16/sw/drivers/pie/src/32b/f28x/f2802x/pie.c",line 271
     848              
     849                      .dwfde $C$DW$CIE, _PIE_enableTimer0Int
     850              $C$DW$74        .dwtag  DW_TAG_formal_parameter, DW_AT_name("pieHandle")
     851                      .dwattr $C$DW$74, DW_AT_TI_symbol_name("_pieHandle")
     852                      .dwattr $C$DW$74, DW_AT_type(*$C$DW$T$62)
     853                      .dwattr $C$DW$74, DW_AT_location[DW_OP_reg12]
     854              
TMS320C2000 Assembler PC v6.4.11 Mon Sep 05 19:06:41 2016

Tools Copyright (c) 1996-2015 Texas Instruments Incorporated
C:\Users\bee25\AppData\Local\Temp\2813610                            PAGE   17

     855              ;***************************************************************
     856              ;* FNAME: _PIE_enableTimer0Int          FR SIZE:   0           *
     857              ;*                                                             *
     858              ;* FUNCTION ENVIRONMENT                                        *
     859              ;*                                                             *
     860              ;* FUNCTION PROPERTIES                                         *
     861              ;*                            0 Parameter,  0 Auto,  0 SOE     *
     862              ;***************************************************************
     863              
     864              _PIE_enableTimer0Int:
     865              ;* AR4   assigned to _pieHandle
     866              $C$DW$75        .dwtag  DW_TAG_variable, DW_AT_name("pieHandle")
     867                      .dwattr $C$DW$75, DW_AT_TI_symbol_name("_pieHandle")
     868                      .dwattr $C$DW$75, DW_AT_type(*$C$DW$T$63)
     869                      .dwattr $C$DW$75, DW_AT_location[DW_OP_reg12]
     870                      .dwcfi  cfa_offset, -2
     871                      .dwcfi  save_reg_to_mem, 26, 0
     872                      .dwpsn  file "C:/ti/motorware/motorware_1_01_00_16/sw/drivers/pie/src/32b/f28x/f2802x/pie.c",line 275
     873 00000080 1AD4          OR        *+XAR4[2],#0x0040     ; [CPU_] |275| 
         00000081 0040 
     874              $C$DW$76        .dwtag  DW_TAG_TI_branch
     875                      .dwattr $C$DW$76, DW_AT_low_pc(0x00)
     876                      .dwattr $C$DW$76, DW_AT_TI_return
     877 00000082 0006          LRETR     ; [CPU_] 
     878                      ; return occurs ; [] 
     879                      .dwattr $C$DW$73, DW_AT_TI_end_file("C:/ti/motorware/motorware_1_01_00_16/sw/drivers/pie/src/32b/f28x
     880                      .dwattr $C$DW$73, DW_AT_TI_end_line(0x116)
     881                      .dwattr $C$DW$73, DW_AT_TI_end_column(0x01)
     882                      .dwendentry
     883                      .dwendtag $C$DW$73
     884              
     885 00000083               .sect   ".text"
     886                      .clink
     887                      .global _PIE_enablePwmTzInt
     888              
     889              $C$DW$77        .dwtag  DW_TAG_subprogram, DW_AT_name("PIE_enablePwmTzInt")
     890                      .dwattr $C$DW$77, DW_AT_low_pc(_PIE_enablePwmTzInt)
     891                      .dwattr $C$DW$77, DW_AT_high_pc(0x00)
     892                      .dwattr $C$DW$77, DW_AT_TI_symbol_name("_PIE_enablePwmTzInt")
     893                      .dwattr $C$DW$77, DW_AT_external
     894                      .dwattr $C$DW$77, DW_AT_TI_begin_file("C:/ti/motorware/motorware_1_01_00_16/sw/drivers/pie/src/32b/f2
     895                      .dwattr $C$DW$77, DW_AT_TI_begin_line(0x101)
     896                      .dwattr $C$DW$77, DW_AT_TI_begin_column(0x06)
     897                      .dwattr $C$DW$77, DW_AT_TI_max_frame_size(-2)
     898                      .dwpsn  file "C:/ti/motorware/motorware_1_01_00_16/sw/drivers/pie/src/32b/f28x/f2802x/pie.c",line 258
     899              
     900                      .dwfde $C$DW$CIE, _PIE_enablePwmTzInt
     901              $C$DW$78        .dwtag  DW_TAG_formal_parameter, DW_AT_name("pieHandle")
     902                      .dwattr $C$DW$78, DW_AT_TI_symbol_name("_pieHandle")
     903                      .dwattr $C$DW$78, DW_AT_type(*$C$DW$T$62)
     904                      .dwattr $C$DW$78, DW_AT_location[DW_OP_reg12]
     905              $C$DW$79        .dwtag  DW_TAG_formal_parameter, DW_AT_name("pwmNumber")
     906                      .dwattr $C$DW$79, DW_AT_TI_symbol_name("_pwmNumber")
     907                      .dwattr $C$DW$79, DW_AT_type(*$C$DW$T$48)
     908                      .dwattr $C$DW$79, DW_AT_location[DW_OP_reg0]
TMS320C2000 Assembler PC v6.4.11 Mon Sep 05 19:06:41 2016

Tools Copyright (c) 1996-2015 Texas Instruments Incorporated
C:\Users\bee25\AppData\Local\Temp\2813610                            PAGE   18

     909              
     910              ;***************************************************************
     911              ;* FNAME: _PIE_enablePwmTzInt           FR SIZE:   0           *
     912              ;*                                                             *
     913              ;* FUNCTION ENVIRONMENT                                        *
     914              ;*                                                             *
     915              ;* FUNCTION PROPERTIES                                         *
     916              ;*                            0 Parameter,  0 Auto,  0 SOE     *
     917              ;***************************************************************
     918              
     919              _PIE_enablePwmTzInt:
     920              ;* AR4   assigned to _pieHandle
     921              $C$DW$80        .dwtag  DW_TAG_variable, DW_AT_name("pieHandle")
     922                      .dwattr $C$DW$80, DW_AT_TI_symbol_name("_pieHandle")
     923                      .dwattr $C$DW$80, DW_AT_type(*$C$DW$T$63)
     924                      .dwattr $C$DW$80, DW_AT_location[DW_OP_reg12]
     925              ;* T     assigned to _pwmNumber
     926              $C$DW$81        .dwtag  DW_TAG_variable, DW_AT_name("pwmNumber")
     927                      .dwattr $C$DW$81, DW_AT_TI_symbol_name("_pwmNumber")
     928                      .dwattr $C$DW$81, DW_AT_type(*$C$DW$T$48)
     929                      .dwattr $C$DW$81, DW_AT_location[DW_OP_reg22]
     930                      .dwcfi  cfa_offset, -2
     931                      .dwcfi  save_reg_to_mem, 26, 0
     932 00000083 2DA9          MOV       T,AL                  ; [CPU_] |258| 
     933                      .dwpsn  file "C:/ti/motorware/motorware_1_01_00_16/sw/drivers/pie/src/32b/f28x/f2802x/pie.c",line 265
     934 00000084 9A01          MOVB      AL,#1                 ; [CPU_] |265| 
     935 00000085 FF66          LSL       AL,T                  ; [CPU_] |265| 
     936 00000086 98E4          OR        *+XAR4[4],AL          ; [CPU_] |265| 
     937              $C$DW$82        .dwtag  DW_TAG_TI_branch
     938                      .dwattr $C$DW$82, DW_AT_low_pc(0x00)
     939                      .dwattr $C$DW$82, DW_AT_TI_return
     940 00000087 0006          LRETR     ; [CPU_] 
     941                      ; return occurs ; [] 
     942                      .dwattr $C$DW$77, DW_AT_TI_end_file("C:/ti/motorware/motorware_1_01_00_16/sw/drivers/pie/src/32b/f28x
     943                      .dwattr $C$DW$77, DW_AT_TI_end_line(0x10c)
     944                      .dwattr $C$DW$77, DW_AT_TI_end_column(0x01)
     945                      .dwendentry
     946                      .dwendtag $C$DW$77
     947              
     948 00000088               .sect   ".text"
     949                      .clink
     950                      .global _PIE_enablePwmInt
     951              
     952              $C$DW$83        .dwtag  DW_TAG_subprogram, DW_AT_name("PIE_enablePwmInt")
     953                      .dwattr $C$DW$83, DW_AT_low_pc(_PIE_enablePwmInt)
     954                      .dwattr $C$DW$83, DW_AT_high_pc(0x00)
     955                      .dwattr $C$DW$83, DW_AT_TI_symbol_name("_PIE_enablePwmInt")
     956                      .dwattr $C$DW$83, DW_AT_external
     957                      .dwattr $C$DW$83, DW_AT_TI_begin_file("C:/ti/motorware/motorware_1_01_00_16/sw/drivers/pie/src/32b/f2
     958                      .dwattr $C$DW$83, DW_AT_TI_begin_line(0xf4)
     959                      .dwattr $C$DW$83, DW_AT_TI_begin_column(0x06)
     960                      .dwattr $C$DW$83, DW_AT_TI_max_frame_size(-2)
     961                      .dwpsn  file "C:/ti/motorware/motorware_1_01_00_16/sw/drivers/pie/src/32b/f28x/f2802x/pie.c",line 245
     962              
     963                      .dwfde $C$DW$CIE, _PIE_enablePwmInt
TMS320C2000 Assembler PC v6.4.11 Mon Sep 05 19:06:41 2016

Tools Copyright (c) 1996-2015 Texas Instruments Incorporated
C:\Users\bee25\AppData\Local\Temp\2813610                            PAGE   19

     964              $C$DW$84        .dwtag  DW_TAG_formal_parameter, DW_AT_name("pieHandle")
     965                      .dwattr $C$DW$84, DW_AT_TI_symbol_name("_pieHandle")
     966                      .dwattr $C$DW$84, DW_AT_type(*$C$DW$T$62)
     967                      .dwattr $C$DW$84, DW_AT_location[DW_OP_reg12]
     968              $C$DW$85        .dwtag  DW_TAG_formal_parameter, DW_AT_name("pwmNumber")
     969                      .dwattr $C$DW$85, DW_AT_TI_symbol_name("_pwmNumber")
     970                      .dwattr $C$DW$85, DW_AT_type(*$C$DW$T$48)
     971                      .dwattr $C$DW$85, DW_AT_location[DW_OP_reg0]
     972              
     973              ;***************************************************************
     974              ;* FNAME: _PIE_enablePwmInt             FR SIZE:   0           *
     975              ;*                                                             *
     976              ;* FUNCTION ENVIRONMENT                                        *
     977              ;*                                                             *
     978              ;* FUNCTION PROPERTIES                                         *
     979              ;*                            0 Parameter,  0 Auto,  0 SOE     *
     980              ;***************************************************************
     981              
     982              _PIE_enablePwmInt:
     983              ;* AR4   assigned to _pieHandle
     984              $C$DW$86        .dwtag  DW_TAG_variable, DW_AT_name("pieHandle")
     985                      .dwattr $C$DW$86, DW_AT_TI_symbol_name("_pieHandle")
     986                      .dwattr $C$DW$86, DW_AT_type(*$C$DW$T$63)
     987                      .dwattr $C$DW$86, DW_AT_location[DW_OP_reg12]
     988              ;* T     assigned to _pwmNumber
     989              $C$DW$87        .dwtag  DW_TAG_variable, DW_AT_name("pwmNumber")
     990                      .dwattr $C$DW$87, DW_AT_TI_symbol_name("_pwmNumber")
     991                      .dwattr $C$DW$87, DW_AT_type(*$C$DW$T$48)
     992                      .dwattr $C$DW$87, DW_AT_location[DW_OP_reg22]
     993                      .dwcfi  cfa_offset, -2
     994                      .dwcfi  save_reg_to_mem, 26, 0
     995 00000088 2DA9          MOV       T,AL                  ; [CPU_] |245| 
     996                      .dwpsn  file "C:/ti/motorware/motorware_1_01_00_16/sw/drivers/pie/src/32b/f28x/f2802x/pie.c",line 252
     997 00000089 9A01          MOVB      AL,#1                 ; [CPU_] |252| 
     998 0000008a FF66          LSL       AL,T                  ; [CPU_] |252| 
     999 0000008b 98F4          OR        *+XAR4[6],AL          ; [CPU_] |252| 
    1000              $C$DW$88        .dwtag  DW_TAG_TI_branch
    1001                      .dwattr $C$DW$88, DW_AT_low_pc(0x00)
    1002                      .dwattr $C$DW$88, DW_AT_TI_return
    1003 0000008c 0006          LRETR     ; [CPU_] 
    1004                      ; return occurs ; [] 
    1005                      .dwattr $C$DW$83, DW_AT_TI_end_file("C:/ti/motorware/motorware_1_01_00_16/sw/drivers/pie/src/32b/f28x
    1006                      .dwattr $C$DW$83, DW_AT_TI_end_line(0xff)
    1007                      .dwattr $C$DW$83, DW_AT_TI_end_column(0x01)
    1008                      .dwendentry
    1009                      .dwendtag $C$DW$83
    1010              
    1011 0000008d               .sect   ".text"
    1012                      .clink
    1013                      .global _PIE_enableInt
    1014              
    1015              $C$DW$89        .dwtag  DW_TAG_subprogram, DW_AT_name("PIE_enableInt")
    1016                      .dwattr $C$DW$89, DW_AT_low_pc(_PIE_enableInt)
    1017                      .dwattr $C$DW$89, DW_AT_high_pc(0x00)
    1018                      .dwattr $C$DW$89, DW_AT_TI_symbol_name("_PIE_enableInt")
TMS320C2000 Assembler PC v6.4.11 Mon Sep 05 19:06:41 2016

Tools Copyright (c) 1996-2015 Texas Instruments Incorporated
C:\Users\bee25\AppData\Local\Temp\2813610                            PAGE   20

    1019                      .dwattr $C$DW$89, DW_AT_external
    1020                      .dwattr $C$DW$89, DW_AT_TI_begin_file("C:/ti/motorware/motorware_1_01_00_16/sw/drivers/pie/src/32b/f2
    1021                      .dwattr $C$DW$89, DW_AT_TI_begin_line(0xea)
    1022                      .dwattr $C$DW$89, DW_AT_TI_begin_column(0x06)
    1023                      .dwattr $C$DW$89, DW_AT_TI_max_frame_size(-2)
    1024                      .dwpsn  file "C:/ti/motorware/motorware_1_01_00_16/sw/drivers/pie/src/32b/f28x/f2802x/pie.c",line 235
    1025              
    1026                      .dwfde $C$DW$CIE, _PIE_enableInt
    1027              $C$DW$90        .dwtag  DW_TAG_formal_parameter, DW_AT_name("pieHandle")
    1028                      .dwattr $C$DW$90, DW_AT_TI_symbol_name("_pieHandle")
    1029                      .dwattr $C$DW$90, DW_AT_type(*$C$DW$T$62)
    1030                      .dwattr $C$DW$90, DW_AT_location[DW_OP_reg12]
    1031              $C$DW$91        .dwtag  DW_TAG_formal_parameter, DW_AT_name("group")
    1032                      .dwattr $C$DW$91, DW_AT_TI_symbol_name("_group")
    1033                      .dwattr $C$DW$91, DW_AT_type(*$C$DW$T$39)
    1034                      .dwattr $C$DW$91, DW_AT_location[DW_OP_reg0]
    1035              $C$DW$92        .dwtag  DW_TAG_formal_parameter, DW_AT_name("intSource")
    1036                      .dwattr $C$DW$92, DW_AT_TI_symbol_name("_intSource")
    1037                      .dwattr $C$DW$92, DW_AT_type(*$C$DW$T$42)
    1038                      .dwattr $C$DW$92, DW_AT_location[DW_OP_reg1]
    1039              
    1040              ;***************************************************************
    1041              ;* FNAME: _PIE_enableInt                FR SIZE:   0           *
    1042              ;*                                                             *
    1043              ;* FUNCTION ENVIRONMENT                                        *
    1044              ;*                                                             *
    1045              ;* FUNCTION PROPERTIES                                         *
    1046              ;*                            0 Parameter,  0 Auto,  0 SOE     *
    1047              ;***************************************************************
    1048              
    1049              _PIE_enableInt:
    1050              ;* AR4   assigned to _pieHandle
    1051              $C$DW$93        .dwtag  DW_TAG_variable, DW_AT_name("pieHandle")
    1052                      .dwattr $C$DW$93, DW_AT_TI_symbol_name("_pieHandle")
    1053                      .dwattr $C$DW$93, DW_AT_type(*$C$DW$T$63)
    1054                      .dwattr $C$DW$93, DW_AT_location[DW_OP_reg12]
    1055              ;* AR6   assigned to _intSource
    1056              $C$DW$94        .dwtag  DW_TAG_variable, DW_AT_name("intSource")
    1057                      .dwattr $C$DW$94, DW_AT_TI_symbol_name("_intSource")
    1058                      .dwattr $C$DW$94, DW_AT_type(*$C$DW$T$42)
    1059                      .dwattr $C$DW$94, DW_AT_location[DW_OP_reg16]
    1060                      .dwcfi  cfa_offset, -2
    1061                      .dwcfi  save_reg_to_mem, 26, 0
    1062 0000008d 88A8          MOVZ      AR6,AH                ; [CPU_] |235| 
    1063 0000008e 2901          CLRC      SXM                   ; [CPU_] 
    1064                      .dwpsn  file "C:/ti/motorware/motorware_1_01_00_16/sw/drivers/pie/src/32b/f28x/f2802x/pie.c",line 238
    1065 0000008f 5603          MOV       ACC,AL << 1           ; [CPU_] |238| 
         00000090 01A9 
    1066 00000091 5601          ADDL      XAR4,ACC              ; [CPU_] |238| 
         00000092 00A4 
    1067 00000093 92A6          MOV       AL,AR6                ; [CPU_] |238| 
    1068 00000094 98D4          OR        *+XAR4[2],AL          ; [CPU_] |238| 
    1069              $C$DW$95        .dwtag  DW_TAG_TI_branch
    1070                      .dwattr $C$DW$95, DW_AT_low_pc(0x00)
    1071                      .dwattr $C$DW$95, DW_AT_TI_return
TMS320C2000 Assembler PC v6.4.11 Mon Sep 05 19:06:41 2016

Tools Copyright (c) 1996-2015 Texas Instruments Incorporated
C:\Users\bee25\AppData\Local\Temp\2813610                            PAGE   21

    1072 00000095 0006          LRETR     ; [CPU_] 
    1073                      ; return occurs ; [] 
    1074                      .dwattr $C$DW$89, DW_AT_TI_end_file("C:/ti/motorware/motorware_1_01_00_16/sw/drivers/pie/src/32b/f28x
    1075                      .dwattr $C$DW$89, DW_AT_TI_end_line(0xf1)
    1076                      .dwattr $C$DW$89, DW_AT_TI_end_column(0x01)
    1077                      .dwendentry
    1078                      .dwendtag $C$DW$89
    1079              
    1080 00000096               .sect   ".text"
    1081                      .clink
    1082                      .global _PIE_enableI2cInt
    1083              
    1084              $C$DW$96        .dwtag  DW_TAG_subprogram, DW_AT_name("PIE_enableI2cInt")
    1085                      .dwattr $C$DW$96, DW_AT_low_pc(_PIE_enableI2cInt)
    1086                      .dwattr $C$DW$96, DW_AT_high_pc(0x00)
    1087                      .dwattr $C$DW$96, DW_AT_TI_symbol_name("_PIE_enableI2cInt")
    1088                      .dwattr $C$DW$96, DW_AT_external
    1089                      .dwattr $C$DW$96, DW_AT_TI_begin_file("C:/ti/motorware/motorware_1_01_00_16/sw/drivers/pie/src/32b/f2
    1090                      .dwattr $C$DW$96, DW_AT_TI_begin_line(0xb5)
    1091                      .dwattr $C$DW$96, DW_AT_TI_begin_column(0x06)
    1092                      .dwattr $C$DW$96, DW_AT_TI_max_frame_size(-2)
    1093                      .dwpsn  file "C:/ti/motorware/motorware_1_01_00_16/sw/drivers/pie/src/32b/f28x/f2802x/pie.c",line 182
    1094              
    1095                      .dwfde $C$DW$CIE, _PIE_enableI2cInt
    1096              $C$DW$97        .dwtag  DW_TAG_formal_parameter, DW_AT_name("pieHandle")
    1097                      .dwattr $C$DW$97, DW_AT_TI_symbol_name("_pieHandle")
    1098                      .dwattr $C$DW$97, DW_AT_type(*$C$DW$T$62)
    1099                      .dwattr $C$DW$97, DW_AT_location[DW_OP_reg12]
    1100              
    1101              ;***************************************************************
    1102              ;* FNAME: _PIE_enableI2cInt             FR SIZE:   0           *
    1103              ;*                                                             *
    1104              ;* FUNCTION ENVIRONMENT                                        *
    1105              ;*                                                             *
    1106              ;* FUNCTION PROPERTIES                                         *
    1107              ;*                            0 Parameter,  0 Auto,  0 SOE     *
    1108              ;***************************************************************
    1109              
    1110 00000096       _PIE_enableI2cInt:
    1111                      .dwcfi  cfa_offset, -2
    1112                      .dwcfi  save_reg_to_mem, 26, 0
    1113                      .dwpsn  file "C:/ti/motorware/motorware_1_01_00_16/sw/drivers/pie/src/32b/f28x/f2802x/pie.c",line 185
    1114 00000096 DC10          ADDB      XAR4,#16              ; [CPU_] |185| 
    1115 00000097 1AC4          OR        *+XAR4[0],#0x0001     ; [CPU_] |185| 
         00000098 0001 
    1116              $C$DW$98        .dwtag  DW_TAG_TI_branch
    1117                      .dwattr $C$DW$98, DW_AT_low_pc(0x00)
    1118                      .dwattr $C$DW$98, DW_AT_TI_return
    1119 00000099 0006          LRETR     ; [CPU_] 
    1120                      ; return occurs ; [] 
    1121                      .dwattr $C$DW$96, DW_AT_TI_end_file("C:/ti/motorware/motorware_1_01_00_16/sw/drivers/pie/src/32b/f28x
    1122                      .dwattr $C$DW$96, DW_AT_TI_end_line(0xbc)
    1123                      .dwattr $C$DW$96, DW_AT_TI_end_column(0x01)
    1124                      .dwendentry
    1125                      .dwendtag $C$DW$96
TMS320C2000 Assembler PC v6.4.11 Mon Sep 05 19:06:41 2016

Tools Copyright (c) 1996-2015 Texas Instruments Incorporated
C:\Users\bee25\AppData\Local\Temp\2813610                            PAGE   22

    1126              
    1127 0000009a               .sect   ".text"
    1128                      .clink
    1129                      .global _PIE_enableExtInt
    1130              
    1131              $C$DW$99        .dwtag  DW_TAG_subprogram, DW_AT_name("PIE_enableExtInt")
    1132                      .dwattr $C$DW$99, DW_AT_low_pc(_PIE_enableExtInt)
    1133                      .dwattr $C$DW$99, DW_AT_high_pc(0x00)
    1134                      .dwattr $C$DW$99, DW_AT_TI_symbol_name("_PIE_enableExtInt")
    1135                      .dwattr $C$DW$99, DW_AT_external
    1136                      .dwattr $C$DW$99, DW_AT_TI_begin_file("C:/ti/motorware/motorware_1_01_00_16/sw/drivers/pie/src/32b/f2
    1137                      .dwattr $C$DW$99, DW_AT_TI_begin_line(0xcd)
    1138                      .dwattr $C$DW$99, DW_AT_TI_begin_column(0x06)
    1139                      .dwattr $C$DW$99, DW_AT_TI_max_frame_size(-2)
    1140                      .dwpsn  file "C:/ti/motorware/motorware_1_01_00_16/sw/drivers/pie/src/32b/f28x/f2802x/pie.c",line 206
    1141              
    1142                      .dwfde $C$DW$CIE, _PIE_enableExtInt
    1143              $C$DW$100       .dwtag  DW_TAG_formal_parameter, DW_AT_name("pieHandle")
    1144                      .dwattr $C$DW$100, DW_AT_TI_symbol_name("_pieHandle")
    1145                      .dwattr $C$DW$100, DW_AT_type(*$C$DW$T$62)
    1146                      .dwattr $C$DW$100, DW_AT_location[DW_OP_reg12]
    1147              $C$DW$101       .dwtag  DW_TAG_formal_parameter, DW_AT_name("intNumber")
    1148                      .dwattr $C$DW$101, DW_AT_TI_symbol_name("_intNumber")
    1149                      .dwattr $C$DW$101, DW_AT_type(*$C$DW$T$36)
    1150                      .dwattr $C$DW$101, DW_AT_location[DW_OP_reg0]
    1151              
    1152              ;***************************************************************
    1153              ;* FNAME: _PIE_enableExtInt             FR SIZE:   0           *
    1154              ;*                                                             *
    1155              ;* FUNCTION ENVIRONMENT                                        *
    1156              ;*                                                             *
    1157              ;* FUNCTION PROPERTIES                                         *
    1158              ;*                            0 Parameter,  0 Auto,  0 SOE     *
    1159              ;***************************************************************
    1160              
    1161              _PIE_enableExtInt:
    1162              ;* AR7   assigned to _setValue
    1163              $C$DW$102       .dwtag  DW_TAG_variable, DW_AT_name("setValue")
    1164                      .dwattr $C$DW$102, DW_AT_TI_symbol_name("_setValue")
    1165                      .dwattr $C$DW$102, DW_AT_type(*$C$DW$T$19)
    1166                      .dwattr $C$DW$102, DW_AT_location[DW_OP_reg18]
    1167              ;* AR6   assigned to _intNumber
    1168              $C$DW$103       .dwtag  DW_TAG_variable, DW_AT_name("intNumber")
    1169                      .dwattr $C$DW$103, DW_AT_TI_symbol_name("_intNumber")
    1170                      .dwattr $C$DW$103, DW_AT_type(*$C$DW$T$36)
    1171                      .dwattr $C$DW$103, DW_AT_location[DW_OP_reg16]
    1172              ;* AR4   assigned to _pieHandle
    1173              $C$DW$104       .dwtag  DW_TAG_variable, DW_AT_name("pieHandle")
    1174                      .dwattr $C$DW$104, DW_AT_TI_symbol_name("_pieHandle")
    1175                      .dwattr $C$DW$104, DW_AT_type(*$C$DW$T$63)
    1176                      .dwattr $C$DW$104, DW_AT_location[DW_OP_reg12]
    1177                      .dwcfi  cfa_offset, -2
    1178                      .dwcfi  save_reg_to_mem, 26, 0
    1179                      .dwpsn  file "C:/ti/motorware/motorware_1_01_00_16/sw/drivers/pie/src/32b/f28x/f2802x/pie.c",line 212
    1180 0000009a 5202          CMPB      AL,#2                 ; [CPU_] |212| 
TMS320C2000 Assembler PC v6.4.11 Mon Sep 05 19:06:41 2016

Tools Copyright (c) 1996-2015 Texas Instruments Incorporated
C:\Users\bee25\AppData\Local\Temp\2813610                            PAGE   23

    1181                      .dwpsn  file "C:/ti/motorware/motorware_1_01_00_16/sw/drivers/pie/src/32b/f28x/f2802x/pie.c",line 206
    1182 0000009b 88A9          MOVZ      AR6,AL                ; [CPU_] |206| 
    1183                      .dwpsn  file "C:/ti/motorware/motorware_1_01_00_16/sw/drivers/pie/src/32b/f28x/f2802x/pie.c",line 212
    1184 0000009c 56C8          BF        $C$L4,LO              ; [CPU_] |212| 
         0000009d 0005 
    1185                      ; branchcc occurs ; [] |212| 
    1186                      .dwpsn  file "C:/ti/motorware/motorware_1_01_00_16/sw/drivers/pie/src/32b/f28x/f2802x/pie.c",line 219
    1187 0000009e 9A0A          MOVB      AL,#10                ; [CPU_] |219| 
    1188                      .dwpsn  file "C:/ti/motorware/motorware_1_01_00_16/sw/drivers/pie/src/32b/f28x/f2802x/pie.c",line 220
    1189 0000009f B601          MOVB      XAR7,#1               ; [CPU_] |220| 
    1190 000000a0 6F08          B         $C$L5,UNC             ; [CPU_] |220| 
    1191                      ; branch occurs ; [] |220| 
    1192 000000a1       $C$L4:    
    1193                      .dwpsn  file "C:/ti/motorware/motorware_1_01_00_16/sw/drivers/pie/src/32b/f28x/f2802x/pie.c",line 215
    1194 000000a1 28AC          MOV       T,#3                  ; [CPU_] |215| 
         000000a2 0003 
    1195 000000a3 72AC          ADD       T,AL                  ; [CPU_] |215| 
    1196 000000a4 9A01          MOVB      AL,#1                 ; [CPU_] |215| 
    1197 000000a5 FF66          LSL       AL,T                  ; [CPU_] |215| 
    1198 000000a6 80A9          MOVZ      AR7,AL                ; [CPU_] |215| 
    1199                      .dwpsn  file "C:/ti/motorware/motorware_1_01_00_16/sw/drivers/pie/src/32b/f28x/f2802x/pie.c",line 214
    1200 000000a7 9A00          MOVB      AL,#0                 ; [CPU_] |214| 
    1201 000000a8       $C$L5:    
    1202 000000a8 2901          CLRC      SXM                   ; [CPU_] 
    1203                      .dwpsn  file "C:/ti/motorware/motorware_1_01_00_16/sw/drivers/pie/src/32b/f28x/f2802x/pie.c",line 225
    1204 000000a9 5603          MOV       ACC,AL << 1           ; [CPU_] |225| 
         000000aa 01A9 
    1205 000000ab 07A4          ADDL      ACC,XAR4              ; [CPU_] |225| 
    1206 000000ac 83A9          MOVL      XAR5,ACC              ; [CPU_] |225| 
    1207 000000ad 92A7          MOV       AL,AR7                ; [CPU_] |225| 
    1208 000000ae 98D5          OR        *+XAR5[2],AL          ; [CPU_] |225| 
    1209                      .dwpsn  file "C:/ti/motorware/motorware_1_01_00_16/sw/drivers/pie/src/32b/f28x/f2802x/pie.c",line 229
    1210 000000af A8A9          MOVL      ACC,XAR4              ; [CPU_] |229| 
    1211 000000b0 0DA6          ADDU      ACC,AR6               ; [CPU_] |229| 
    1212 000000b1 FF14          ADD       ACC,#1593 << 4        ; [CPU_] |229| 
         000000b2 0639 
    1213 000000b3 8AA9          MOVL      XAR4,ACC              ; [CPU_] |229| 
    1214 000000b4 1AC4          OR        *+XAR4[0],#0x0001     ; [CPU_] |229| 
         000000b5 0001 
    1215              $C$DW$105       .dwtag  DW_TAG_TI_branch
    1216                      .dwattr $C$DW$105, DW_AT_low_pc(0x00)
    1217                      .dwattr $C$DW$105, DW_AT_TI_return
    1218 000000b6 0006          LRETR     ; [CPU_] 
    1219                      ; return occurs ; [] 
    1220                      .dwattr $C$DW$99, DW_AT_TI_end_file("C:/ti/motorware/motorware_1_01_00_16/sw/drivers/pie/src/32b/f28x
    1221                      .dwattr $C$DW$99, DW_AT_TI_end_line(0xe8)
    1222                      .dwattr $C$DW$99, DW_AT_TI_end_column(0x01)
    1223                      .dwendentry
    1224                      .dwendtag $C$DW$99
    1225              
    1226 000000b7               .sect   ".text"
    1227                      .clink
    1228                      .global _PIE_enableCaptureInt
    1229              
    1230              $C$DW$106       .dwtag  DW_TAG_subprogram, DW_AT_name("PIE_enableCaptureInt")
TMS320C2000 Assembler PC v6.4.11 Mon Sep 05 19:06:41 2016

Tools Copyright (c) 1996-2015 Texas Instruments Incorporated
C:\Users\bee25\AppData\Local\Temp\2813610                            PAGE   24

    1231                      .dwattr $C$DW$106, DW_AT_low_pc(_PIE_enableCaptureInt)
    1232                      .dwattr $C$DW$106, DW_AT_high_pc(0x00)
    1233                      .dwattr $C$DW$106, DW_AT_TI_symbol_name("_PIE_enableCaptureInt")
    1234                      .dwattr $C$DW$106, DW_AT_external
    1235                      .dwattr $C$DW$106, DW_AT_TI_begin_file("C:/ti/motorware/motorware_1_01_00_16/sw/drivers/pie/src/32b/f
    1236                      .dwattr $C$DW$106, DW_AT_TI_begin_line(0xc2)
    1237                      .dwattr $C$DW$106, DW_AT_TI_begin_column(0x06)
    1238                      .dwattr $C$DW$106, DW_AT_TI_max_frame_size(-2)
    1239                      .dwpsn  file "C:/ti/motorware/motorware_1_01_00_16/sw/drivers/pie/src/32b/f28x/f2802x/pie.c",line 195
    1240              
    1241                      .dwfde $C$DW$CIE, _PIE_enableCaptureInt
    1242              $C$DW$107       .dwtag  DW_TAG_formal_parameter, DW_AT_name("pieHandle")
    1243                      .dwattr $C$DW$107, DW_AT_TI_symbol_name("_pieHandle")
    1244                      .dwattr $C$DW$107, DW_AT_type(*$C$DW$T$62)
    1245                      .dwattr $C$DW$107, DW_AT_location[DW_OP_reg12]
    1246              
    1247              ;***************************************************************
    1248              ;* FNAME: _PIE_enableCaptureInt         FR SIZE:   0           *
    1249              ;*                                                             *
    1250              ;* FUNCTION ENVIRONMENT                                        *
    1251              ;*                                                             *
    1252              ;* FUNCTION PROPERTIES                                         *
    1253              ;*                            0 Parameter,  0 Auto,  0 SOE     *
    1254              ;***************************************************************
    1255              
    1256 000000b7       _PIE_enableCaptureInt:
    1257                      .dwcfi  cfa_offset, -2
    1258                      .dwcfi  save_reg_to_mem, 26, 0
    1259                      .dwpsn  file "C:/ti/motorware/motorware_1_01_00_16/sw/drivers/pie/src/32b/f28x/f2802x/pie.c",line 199
    1260 000000b7 DC08          ADDB      XAR4,#8               ; [CPU_] |199| 
    1261 000000b8 1AC4          OR        *+XAR4[0],#0x0001     ; [CPU_] |199| 
         000000b9 0001 
    1262              $C$DW$108       .dwtag  DW_TAG_TI_branch
    1263                      .dwattr $C$DW$108, DW_AT_low_pc(0x00)
    1264                      .dwattr $C$DW$108, DW_AT_TI_return
    1265 000000ba 0006          LRETR     ; [CPU_] 
    1266                      ; return occurs ; [] 
    1267                      .dwattr $C$DW$106, DW_AT_TI_end_file("C:/ti/motorware/motorware_1_01_00_16/sw/drivers/pie/src/32b/f28
    1268                      .dwattr $C$DW$106, DW_AT_TI_end_line(0xca)
    1269                      .dwattr $C$DW$106, DW_AT_TI_end_column(0x01)
    1270                      .dwendentry
    1271                      .dwendtag $C$DW$106
    1272              
    1273 000000bb               .sect   ".text"
    1274                      .clink
    1275                      .global _PIE_enableAdcInt
    1276              
    1277              $C$DW$109       .dwtag  DW_TAG_subprogram, DW_AT_name("PIE_enableAdcInt")
    1278                      .dwattr $C$DW$109, DW_AT_low_pc(_PIE_enableAdcInt)
    1279                      .dwattr $C$DW$109, DW_AT_high_pc(0x00)
    1280                      .dwattr $C$DW$109, DW_AT_TI_symbol_name("_PIE_enableAdcInt")
    1281                      .dwattr $C$DW$109, DW_AT_external
    1282                      .dwattr $C$DW$109, DW_AT_TI_begin_file("C:/ti/motorware/motorware_1_01_00_16/sw/drivers/pie/src/32b/f
    1283                      .dwattr $C$DW$109, DW_AT_TI_begin_line(0x98)
    1284                      .dwattr $C$DW$109, DW_AT_TI_begin_column(0x06)
TMS320C2000 Assembler PC v6.4.11 Mon Sep 05 19:06:41 2016

Tools Copyright (c) 1996-2015 Texas Instruments Incorporated
C:\Users\bee25\AppData\Local\Temp\2813610                            PAGE   25

    1285                      .dwattr $C$DW$109, DW_AT_TI_max_frame_size(-2)
    1286                      .dwpsn  file "C:/ti/motorware/motorware_1_01_00_16/sw/drivers/pie/src/32b/f28x/f2802x/pie.c",line 153
    1287              
    1288                      .dwfde $C$DW$CIE, _PIE_enableAdcInt
    1289              $C$DW$110       .dwtag  DW_TAG_formal_parameter, DW_AT_name("pieHandle")
    1290                      .dwattr $C$DW$110, DW_AT_TI_symbol_name("_pieHandle")
    1291                      .dwattr $C$DW$110, DW_AT_type(*$C$DW$T$62)
    1292                      .dwattr $C$DW$110, DW_AT_location[DW_OP_reg12]
    1293              $C$DW$111       .dwtag  DW_TAG_formal_parameter, DW_AT_name("intNumber")
    1294                      .dwattr $C$DW$111, DW_AT_TI_symbol_name("_intNumber")
    1295                      .dwattr $C$DW$111, DW_AT_type(*$C$DW$T$45)
    1296                      .dwattr $C$DW$111, DW_AT_location[DW_OP_reg0]
    1297              
    1298              ;***************************************************************
    1299              ;* FNAME: _PIE_enableAdcInt             FR SIZE:   0           *
    1300              ;*                                                             *
    1301              ;* FUNCTION ENVIRONMENT                                        *
    1302              ;*                                                             *
    1303              ;* FUNCTION PROPERTIES                                         *
    1304              ;*                            0 Parameter,  0 Auto,  0 SOE     *
    1305              ;***************************************************************
    1306              
    1307              _PIE_enableAdcInt:
    1308              ;* AR6   assigned to _setValue
    1309              $C$DW$112       .dwtag  DW_TAG_variable, DW_AT_name("setValue")
    1310                      .dwattr $C$DW$112, DW_AT_TI_symbol_name("_setValue")
    1311                      .dwattr $C$DW$112, DW_AT_type(*$C$DW$T$19)
    1312                      .dwattr $C$DW$112, DW_AT_location[DW_OP_reg16]
    1313              ;* T     assigned to _intNumber
    1314              $C$DW$113       .dwtag  DW_TAG_variable, DW_AT_name("intNumber")
    1315                      .dwattr $C$DW$113, DW_AT_TI_symbol_name("_intNumber")
    1316                      .dwattr $C$DW$113, DW_AT_type(*$C$DW$T$45)
    1317                      .dwattr $C$DW$113, DW_AT_location[DW_OP_reg22]
    1318              ;* AR4   assigned to _pieHandle
    1319              $C$DW$114       .dwtag  DW_TAG_variable, DW_AT_name("pieHandle")
    1320                      .dwattr $C$DW$114, DW_AT_TI_symbol_name("_pieHandle")
    1321                      .dwattr $C$DW$114, DW_AT_type(*$C$DW$T$63)
    1322                      .dwattr $C$DW$114, DW_AT_location[DW_OP_reg12]
    1323                      .dwcfi  cfa_offset, -2
    1324                      .dwcfi  save_reg_to_mem, 26, 0
    1325                      .dwpsn  file "C:/ti/motorware/motorware_1_01_00_16/sw/drivers/pie/src/32b/f28x/f2802x/pie.c",line 159
    1326 000000bb 5208          CMPB      AL,#8                 ; [CPU_] |159| 
    1327                      .dwpsn  file "C:/ti/motorware/motorware_1_01_00_16/sw/drivers/pie/src/32b/f28x/f2802x/pie.c",line 153
    1328 000000bc 2DA9          MOV       T,AL                  ; [CPU_] |153| 
    1329                      .dwpsn  file "C:/ti/motorware/motorware_1_01_00_16/sw/drivers/pie/src/32b/f28x/f2802x/pie.c",line 159
    1330 000000bd 56C8          BF        $C$L8,LO              ; [CPU_] |159| 
         000000be 000F 
    1331                      ; branchcc occurs ; [] |159| 
    1332                      .dwpsn  file "C:/ti/motorware/motorware_1_01_00_16/sw/drivers/pie/src/32b/f28x/f2802x/pie.c",line 164
    1333 000000bf 5208          CMPB      AL,#8                 ; [CPU_] |164| 
    1334 000000c0 EC0A          BF        $C$L7,EQ              ; [CPU_] |164| 
    1335                      ; branchcc occurs ; [] |164| 
    1336                      .dwpsn  file "C:/ti/motorware/motorware_1_01_00_16/sw/drivers/pie/src/32b/f28x/f2802x/pie.c",line 172
    1337 000000c1 CCAC          AND       AL,T,#0x0007          ; [CPU_] |172| 
         000000c2 0007 
TMS320C2000 Assembler PC v6.4.11 Mon Sep 05 19:06:41 2016

Tools Copyright (c) 1996-2015 Texas Instruments Incorporated
C:\Users\bee25\AppData\Local\Temp\2813610                            PAGE   26

    1338 000000c3 9CFF          ADDB      AL,#-1                ; [CPU_] |172| 
    1339 000000c4 2DA9          MOV       T,AL                  ; [CPU_] |172| 
    1340 000000c5 9A01          MOVB      AL,#1                 ; [CPU_] |172| 
    1341 000000c6 FF66          LSL       AL,T                  ; [CPU_] |172| 
    1342 000000c7 88A9          MOVZ      AR6,AL                ; [CPU_] |172| 
    1343 000000c8       $C$L6:    
    1344                      .dwpsn  file "C:/ti/motorware/motorware_1_01_00_16/sw/drivers/pie/src/32b/f28x/f2802x/pie.c",line 171
    1345 000000c8 9A00          MOVB      AL,#0                 ; [CPU_] |171| 
    1346                      .dwpsn  file "C:/ti/motorware/motorware_1_01_00_16/sw/drivers/pie/src/32b/f28x/f2802x/pie.c",line 172
    1347 000000c9 6F07          B         $C$L9,UNC             ; [CPU_] |172| 
    1348                      ; branch occurs ; [] |172| 
    1349 000000ca       $C$L7:    
    1350                      .dwpsn  file "C:/ti/motorware/motorware_1_01_00_16/sw/drivers/pie/src/32b/f28x/f2802x/pie.c",line 167
    1351 000000ca BE20          MOVB      XAR6,#32              ; [CPU_] |167| 
    1352                      .dwpsn  file "C:/ti/motorware/motorware_1_01_00_16/sw/drivers/pie/src/32b/f28x/f2802x/pie.c",line 168
    1353 000000cb 6FFD          B         $C$L6,UNC             ; [CPU_] |168| 
    1354                      ; branch occurs ; [] |168| 
    1355 000000cc       $C$L8:    
    1356                      .dwpsn  file "C:/ti/motorware/motorware_1_01_00_16/sw/drivers/pie/src/32b/f28x/f2802x/pie.c",line 162
    1357 000000cc 9A01          MOVB      AL,#1                 ; [CPU_] |162| 
    1358 000000cd FF66          LSL       AL,T                  ; [CPU_] |162| 
    1359 000000ce 88A9          MOVZ      AR6,AL                ; [CPU_] |162| 
    1360                      .dwpsn  file "C:/ti/motorware/motorware_1_01_00_16/sw/drivers/pie/src/32b/f28x/f2802x/pie.c",line 161
    1361 000000cf 9A09          MOVB      AL,#9                 ; [CPU_] |161| 
    1362 000000d0       $C$L9:    
    1363 000000d0 2901          CLRC      SXM                   ; [CPU_] 
    1364                      .dwpsn  file "C:/ti/motorware/motorware_1_01_00_16/sw/drivers/pie/src/32b/f28x/f2802x/pie.c",line 176
    1365 000000d1 5603          MOV       ACC,AL << 1           ; [CPU_] |176| 
         000000d2 01A9 
    1366 000000d3 5601          ADDL      XAR4,ACC              ; [CPU_] |176| 
         000000d4 00A4 
    1367 000000d5 92A6          MOV       AL,AR6                ; [CPU_] |176| 
    1368 000000d6 98D4          OR        *+XAR4[2],AL          ; [CPU_] |176| 
    1369              $C$DW$115       .dwtag  DW_TAG_TI_branch
    1370                      .dwattr $C$DW$115, DW_AT_low_pc(0x00)
    1371                      .dwattr $C$DW$115, DW_AT_TI_return
    1372 000000d7 0006          LRETR     ; [CPU_] 
    1373                      ; return occurs ; [] 
    1374                      .dwattr $C$DW$109, DW_AT_TI_end_file("C:/ti/motorware/motorware_1_01_00_16/sw/drivers/pie/src/32b/f28
    1375                      .dwattr $C$DW$109, DW_AT_TI_end_line(0xb3)
    1376                      .dwattr $C$DW$109, DW_AT_TI_end_column(0x01)
    1377                      .dwendentry
    1378                      .dwendtag $C$DW$109
    1379              
    1380 000000d8               .sect   ".text"
    1381                      .clink
    1382                      .global _PIE_enable
    1383              
    1384              $C$DW$116       .dwtag  DW_TAG_subprogram, DW_AT_name("PIE_enable")
    1385                      .dwattr $C$DW$116, DW_AT_low_pc(_PIE_enable)
    1386                      .dwattr $C$DW$116, DW_AT_high_pc(0x00)
    1387                      .dwattr $C$DW$116, DW_AT_TI_symbol_name("_PIE_enable")
    1388                      .dwattr $C$DW$116, DW_AT_external
    1389                      .dwattr $C$DW$116, DW_AT_TI_begin_file("C:/ti/motorware/motorware_1_01_00_16/sw/drivers/pie/src/32b/f
    1390                      .dwattr $C$DW$116, DW_AT_TI_begin_line(0x8c)
TMS320C2000 Assembler PC v6.4.11 Mon Sep 05 19:06:41 2016

Tools Copyright (c) 1996-2015 Texas Instruments Incorporated
C:\Users\bee25\AppData\Local\Temp\2813610                            PAGE   27

    1391                      .dwattr $C$DW$116, DW_AT_TI_begin_column(0x06)
    1392                      .dwattr $C$DW$116, DW_AT_TI_max_frame_size(-2)
    1393                      .dwpsn  file "C:/ti/motorware/motorware_1_01_00_16/sw/drivers/pie/src/32b/f28x/f2802x/pie.c",line 141
    1394              
    1395                      .dwfde $C$DW$CIE, _PIE_enable
    1396              $C$DW$117       .dwtag  DW_TAG_formal_parameter, DW_AT_name("pieHandle")
    1397                      .dwattr $C$DW$117, DW_AT_TI_symbol_name("_pieHandle")
    1398                      .dwattr $C$DW$117, DW_AT_type(*$C$DW$T$62)
    1399                      .dwattr $C$DW$117, DW_AT_location[DW_OP_reg12]
    1400              
    1401              ;***************************************************************
    1402              ;* FNAME: _PIE_enable                   FR SIZE:   0           *
    1403              ;*                                                             *
    1404              ;* FUNCTION ENVIRONMENT                                        *
    1405              ;*                                                             *
    1406              ;* FUNCTION PROPERTIES                                         *
    1407              ;*                            0 Parameter,  0 Auto,  0 SOE     *
    1408              ;***************************************************************
    1409              
    1410              _PIE_enable:
    1411              ;* AR4   assigned to _pieHandle
    1412              $C$DW$118       .dwtag  DW_TAG_variable, DW_AT_name("pieHandle")
    1413                      .dwattr $C$DW$118, DW_AT_TI_symbol_name("_pieHandle")
    1414                      .dwattr $C$DW$118, DW_AT_type(*$C$DW$T$63)
    1415                      .dwattr $C$DW$118, DW_AT_location[DW_OP_reg12]
    1416                      .dwcfi  cfa_offset, -2
    1417                      .dwcfi  save_reg_to_mem, 26, 0
    1418                      .dwpsn  file "C:/ti/motorware/motorware_1_01_00_16/sw/drivers/pie/src/32b/f28x/f2802x/pie.c",line 146
    1419 000000d8 1AC4          OR        *+XAR4[0],#0x0001     ; [CPU_] |146| 
         000000d9 0001 
    1420              $C$DW$119       .dwtag  DW_TAG_TI_branch
    1421                      .dwattr $C$DW$119, DW_AT_low_pc(0x00)
    1422                      .dwattr $C$DW$119, DW_AT_TI_return
    1423 000000da 0006          LRETR     ; [CPU_] 
    1424                      ; return occurs ; [] 
    1425                      .dwattr $C$DW$116, DW_AT_TI_end_file("C:/ti/motorware/motorware_1_01_00_16/sw/drivers/pie/src/32b/f28
    1426                      .dwattr $C$DW$116, DW_AT_TI_end_line(0x95)
    1427                      .dwattr $C$DW$116, DW_AT_TI_end_column(0x01)
    1428                      .dwendentry
    1429                      .dwendtag $C$DW$116
    1430              
    1431 000000db               .sect   ".text"
    1432                      .clink
    1433                      .global _PIE_disableInt
    1434              
    1435              $C$DW$120       .dwtag  DW_TAG_subprogram, DW_AT_name("PIE_disableInt")
    1436                      .dwattr $C$DW$120, DW_AT_low_pc(_PIE_disableInt)
    1437                      .dwattr $C$DW$120, DW_AT_high_pc(0x00)
    1438                      .dwattr $C$DW$120, DW_AT_TI_symbol_name("_PIE_disableInt")
    1439                      .dwattr $C$DW$120, DW_AT_external
    1440                      .dwattr $C$DW$120, DW_AT_TI_begin_file("C:/ti/motorware/motorware_1_01_00_16/sw/drivers/pie/src/32b/f
    1441                      .dwattr $C$DW$120, DW_AT_TI_begin_line(0x82)
    1442                      .dwattr $C$DW$120, DW_AT_TI_begin_column(0x06)
    1443                      .dwattr $C$DW$120, DW_AT_TI_max_frame_size(-2)
    1444                      .dwpsn  file "C:/ti/motorware/motorware_1_01_00_16/sw/drivers/pie/src/32b/f28x/f2802x/pie.c",line 131
TMS320C2000 Assembler PC v6.4.11 Mon Sep 05 19:06:41 2016

Tools Copyright (c) 1996-2015 Texas Instruments Incorporated
C:\Users\bee25\AppData\Local\Temp\2813610                            PAGE   28

    1445              
    1446                      .dwfde $C$DW$CIE, _PIE_disableInt
    1447              $C$DW$121       .dwtag  DW_TAG_formal_parameter, DW_AT_name("pieHandle")
    1448                      .dwattr $C$DW$121, DW_AT_TI_symbol_name("_pieHandle")
    1449                      .dwattr $C$DW$121, DW_AT_type(*$C$DW$T$62)
    1450                      .dwattr $C$DW$121, DW_AT_location[DW_OP_reg12]
    1451              $C$DW$122       .dwtag  DW_TAG_formal_parameter, DW_AT_name("group")
    1452                      .dwattr $C$DW$122, DW_AT_TI_symbol_name("_group")
    1453                      .dwattr $C$DW$122, DW_AT_type(*$C$DW$T$39)
    1454                      .dwattr $C$DW$122, DW_AT_location[DW_OP_reg0]
    1455              $C$DW$123       .dwtag  DW_TAG_formal_parameter, DW_AT_name("intSource")
    1456                      .dwattr $C$DW$123, DW_AT_TI_symbol_name("_intSource")
    1457                      .dwattr $C$DW$123, DW_AT_type(*$C$DW$T$42)
    1458                      .dwattr $C$DW$123, DW_AT_location[DW_OP_reg1]
    1459              
    1460              ;***************************************************************
    1461              ;* FNAME: _PIE_disableInt               FR SIZE:   0           *
    1462              ;*                                                             *
    1463              ;* FUNCTION ENVIRONMENT                                        *
    1464              ;*                                                             *
    1465              ;* FUNCTION PROPERTIES                                         *
    1466              ;*                            0 Parameter,  0 Auto,  0 SOE     *
    1467              ;***************************************************************
    1468              
    1469              _PIE_disableInt:
    1470              ;* AR4   assigned to _pieHandle
    1471              $C$DW$124       .dwtag  DW_TAG_variable, DW_AT_name("pieHandle")
    1472                      .dwattr $C$DW$124, DW_AT_TI_symbol_name("_pieHandle")
    1473                      .dwattr $C$DW$124, DW_AT_type(*$C$DW$T$63)
    1474                      .dwattr $C$DW$124, DW_AT_location[DW_OP_reg12]
    1475              ;* AR6   assigned to _intSource
    1476              $C$DW$125       .dwtag  DW_TAG_variable, DW_AT_name("intSource")
    1477                      .dwattr $C$DW$125, DW_AT_TI_symbol_name("_intSource")
    1478                      .dwattr $C$DW$125, DW_AT_type(*$C$DW$T$42)
    1479                      .dwattr $C$DW$125, DW_AT_location[DW_OP_reg16]
    1480                      .dwcfi  cfa_offset, -2
    1481                      .dwcfi  save_reg_to_mem, 26, 0
    1482 000000db 88A8          MOVZ      AR6,AH                ; [CPU_] |131| 
    1483 000000dc 2901          CLRC      SXM                   ; [CPU_] 
    1484                      .dwpsn  file "C:/ti/motorware/motorware_1_01_00_16/sw/drivers/pie/src/32b/f28x/f2802x/pie.c",line 134
    1485 000000dd 5603          MOV       ACC,AL << 1           ; [CPU_] |134| 
         000000de 01A9 
    1486 000000df 5601          ADDL      XAR4,ACC              ; [CPU_] |134| 
         000000e0 00A4 
    1487 000000e1 92A6          MOV       AL,AR6                ; [CPU_] |134| 
    1488 000000e2 FF5E          NOT       AL                    ; [CPU_] |134| 
    1489 000000e3 C0D4          AND       *+XAR4[2],AL          ; [CPU_] |134| 
    1490              $C$DW$126       .dwtag  DW_TAG_TI_branch
    1491                      .dwattr $C$DW$126, DW_AT_low_pc(0x00)
    1492                      .dwattr $C$DW$126, DW_AT_TI_return
    1493 000000e4 0006          LRETR     ; [CPU_] 
    1494                      ; return occurs ; [] 
    1495                      .dwattr $C$DW$120, DW_AT_TI_end_file("C:/ti/motorware/motorware_1_01_00_16/sw/drivers/pie/src/32b/f28
    1496                      .dwattr $C$DW$120, DW_AT_TI_end_line(0x89)
    1497                      .dwattr $C$DW$120, DW_AT_TI_end_column(0x01)
TMS320C2000 Assembler PC v6.4.11 Mon Sep 05 19:06:41 2016

Tools Copyright (c) 1996-2015 Texas Instruments Incorporated
C:\Users\bee25\AppData\Local\Temp\2813610                            PAGE   29

    1498                      .dwendentry
    1499                      .dwendtag $C$DW$120
    1500              
    1501 000000e5               .sect   ".text"
    1502                      .clink
    1503                      .global _PIE_disableExtInt
    1504              
    1505              $C$DW$127       .dwtag  DW_TAG_subprogram, DW_AT_name("PIE_disableExtInt")
    1506                      .dwattr $C$DW$127, DW_AT_low_pc(_PIE_disableExtInt)
    1507                      .dwattr $C$DW$127, DW_AT_high_pc(0x00)
    1508                      .dwattr $C$DW$127, DW_AT_TI_symbol_name("_PIE_disableExtInt")
    1509                      .dwattr $C$DW$127, DW_AT_external
    1510                      .dwattr $C$DW$127, DW_AT_TI_begin_file("C:/ti/motorware/motorware_1_01_00_16/sw/drivers/pie/src/32b/f
    1511                      .dwattr $C$DW$127, DW_AT_TI_begin_line(0x68)
    1512                      .dwattr $C$DW$127, DW_AT_TI_begin_column(0x06)
    1513                      .dwattr $C$DW$127, DW_AT_TI_max_frame_size(-2)
    1514                      .dwpsn  file "C:/ti/motorware/motorware_1_01_00_16/sw/drivers/pie/src/32b/f28x/f2802x/pie.c",line 105
    1515              
    1516                      .dwfde $C$DW$CIE, _PIE_disableExtInt
    1517              $C$DW$128       .dwtag  DW_TAG_formal_parameter, DW_AT_name("pieHandle")
    1518                      .dwattr $C$DW$128, DW_AT_TI_symbol_name("_pieHandle")
    1519                      .dwattr $C$DW$128, DW_AT_type(*$C$DW$T$62)
    1520                      .dwattr $C$DW$128, DW_AT_location[DW_OP_reg12]
    1521              $C$DW$129       .dwtag  DW_TAG_formal_parameter, DW_AT_name("intNumber")
    1522                      .dwattr $C$DW$129, DW_AT_TI_symbol_name("_intNumber")
    1523                      .dwattr $C$DW$129, DW_AT_type(*$C$DW$T$36)
    1524                      .dwattr $C$DW$129, DW_AT_location[DW_OP_reg0]
    1525              
    1526              ;***************************************************************
    1527              ;* FNAME: _PIE_disableExtInt            FR SIZE:   0           *
    1528              ;*                                                             *
    1529              ;* FUNCTION ENVIRONMENT                                        *
    1530              ;*                                                             *
    1531              ;* FUNCTION PROPERTIES                                         *
    1532              ;*                            0 Parameter,  0 Auto,  0 SOE     *
    1533              ;***************************************************************
    1534              
    1535              _PIE_disableExtInt:
    1536              ;* AR4   assigned to _pieHandle
    1537              $C$DW$130       .dwtag  DW_TAG_variable, DW_AT_name("pieHandle")
    1538                      .dwattr $C$DW$130, DW_AT_TI_symbol_name("_pieHandle")
    1539                      .dwattr $C$DW$130, DW_AT_type(*$C$DW$T$63)
    1540                      .dwattr $C$DW$130, DW_AT_location[DW_OP_reg12]
    1541              ;* AR6   assigned to _intNumber
    1542              $C$DW$131       .dwtag  DW_TAG_variable, DW_AT_name("intNumber")
    1543                      .dwattr $C$DW$131, DW_AT_TI_symbol_name("_intNumber")
    1544                      .dwattr $C$DW$131, DW_AT_type(*$C$DW$T$36)
    1545                      .dwattr $C$DW$131, DW_AT_location[DW_OP_reg16]
    1546                      .dwcfi  cfa_offset, -2
    1547                      .dwcfi  save_reg_to_mem, 26, 0
    1548 000000e5 88A9          MOVZ      AR6,AL                ; [CPU_] |105| 
    1549                      .dwpsn  file "C:/ti/motorware/motorware_1_01_00_16/sw/drivers/pie/src/32b/f28x/f2802x/pie.c",line 110
    1550 000000e6 A8A9          MOVL      ACC,XAR4              ; [CPU_] |110| 
    1551 000000e7 0DA6          ADDU      ACC,AR6               ; [CPU_] |110| 
    1552 000000e8 FF14          ADD       ACC,#1593 << 4        ; [CPU_] |110| 
TMS320C2000 Assembler PC v6.4.11 Mon Sep 05 19:06:41 2016

Tools Copyright (c) 1996-2015 Texas Instruments Incorporated
C:\Users\bee25\AppData\Local\Temp\2813610                            PAGE   30

         000000e9 0639 
    1553 000000ea 8AA9          MOVL      XAR4,ACC              ; [CPU_] |110| 
    1554 000000eb 18C4          AND       *+XAR4[0],#0xfffe     ; [CPU_] |110| 
         000000ec FFFE 
    1555              $C$DW$132       .dwtag  DW_TAG_TI_branch
    1556                      .dwattr $C$DW$132, DW_AT_low_pc(0x00)
    1557                      .dwattr $C$DW$132, DW_AT_TI_return
    1558 000000ed 0006          LRETR     ; [CPU_] 
    1559                      ; return occurs ; [] 
    1560                      .dwattr $C$DW$127, DW_AT_TI_end_file("C:/ti/motorware/motorware_1_01_00_16/sw/drivers/pie/src/32b/f28
    1561                      .dwattr $C$DW$127, DW_AT_TI_end_line(0x71)
    1562                      .dwattr $C$DW$127, DW_AT_TI_end_column(0x01)
    1563                      .dwendentry
    1564                      .dwendtag $C$DW$127
    1565              
    1566 000000ee               .sect   ".text"
    1567                      .clink
    1568                      .global _PIE_disableCaptureInt
    1569              
    1570              $C$DW$133       .dwtag  DW_TAG_subprogram, DW_AT_name("PIE_disableCaptureInt")
    1571                      .dwattr $C$DW$133, DW_AT_low_pc(_PIE_disableCaptureInt)
    1572                      .dwattr $C$DW$133, DW_AT_high_pc(0x00)
    1573                      .dwattr $C$DW$133, DW_AT_TI_symbol_name("_PIE_disableCaptureInt")
    1574                      .dwattr $C$DW$133, DW_AT_external
    1575                      .dwattr $C$DW$133, DW_AT_TI_begin_file("C:/ti/motorware/motorware_1_01_00_16/sw/drivers/pie/src/32b/f
    1576                      .dwattr $C$DW$133, DW_AT_TI_begin_line(0x5d)
    1577                      .dwattr $C$DW$133, DW_AT_TI_begin_column(0x06)
    1578                      .dwattr $C$DW$133, DW_AT_TI_max_frame_size(-2)
    1579                      .dwpsn  file "C:/ti/motorware/motorware_1_01_00_16/sw/drivers/pie/src/32b/f28x/f2802x/pie.c",line 94,
    1580              
    1581                      .dwfde $C$DW$CIE, _PIE_disableCaptureInt
    1582              $C$DW$134       .dwtag  DW_TAG_formal_parameter, DW_AT_name("pieHandle")
    1583                      .dwattr $C$DW$134, DW_AT_TI_symbol_name("_pieHandle")
    1584                      .dwattr $C$DW$134, DW_AT_type(*$C$DW$T$62)
    1585                      .dwattr $C$DW$134, DW_AT_location[DW_OP_reg12]
    1586              
    1587              ;***************************************************************
    1588              ;* FNAME: _PIE_disableCaptureInt        FR SIZE:   0           *
    1589              ;*                                                             *
    1590              ;* FUNCTION ENVIRONMENT                                        *
    1591              ;*                                                             *
    1592              ;* FUNCTION PROPERTIES                                         *
    1593              ;*                            0 Parameter,  0 Auto,  0 SOE     *
    1594              ;***************************************************************
    1595              
    1596 000000ee       _PIE_disableCaptureInt:
    1597                      .dwcfi  cfa_offset, -2
    1598                      .dwcfi  save_reg_to_mem, 26, 0
    1599                      .dwpsn  file "C:/ti/motorware/motorware_1_01_00_16/sw/drivers/pie/src/32b/f28x/f2802x/pie.c",line 98,
    1600 000000ee DC08          ADDB      XAR4,#8               ; [CPU_] |98| 
    1601 000000ef 18C4          AND       *+XAR4[0],#0xfffe     ; [CPU_] |98| 
         000000f0 FFFE 
    1602              $C$DW$135       .dwtag  DW_TAG_TI_branch
    1603                      .dwattr $C$DW$135, DW_AT_low_pc(0x00)
    1604                      .dwattr $C$DW$135, DW_AT_TI_return
TMS320C2000 Assembler PC v6.4.11 Mon Sep 05 19:06:41 2016

Tools Copyright (c) 1996-2015 Texas Instruments Incorporated
C:\Users\bee25\AppData\Local\Temp\2813610                            PAGE   31

    1605 000000f1 0006          LRETR     ; [CPU_] 
    1606                      ; return occurs ; [] 
    1607                      .dwattr $C$DW$133, DW_AT_TI_end_file("C:/ti/motorware/motorware_1_01_00_16/sw/drivers/pie/src/32b/f28
    1608                      .dwattr $C$DW$133, DW_AT_TI_end_line(0x65)
    1609                      .dwattr $C$DW$133, DW_AT_TI_end_column(0x01)
    1610                      .dwendentry
    1611                      .dwendtag $C$DW$133
    1612              
    1613 000000f2               .sect   ".text"
    1614                      .clink
    1615                      .global _PIE_disableAllInts
    1616              
    1617              $C$DW$136       .dwtag  DW_TAG_subprogram, DW_AT_name("PIE_disableAllInts")
    1618                      .dwattr $C$DW$136, DW_AT_low_pc(_PIE_disableAllInts)
    1619                      .dwattr $C$DW$136, DW_AT_high_pc(0x00)
    1620                      .dwattr $C$DW$136, DW_AT_TI_symbol_name("_PIE_disableAllInts")
    1621                      .dwattr $C$DW$136, DW_AT_external
    1622                      .dwattr $C$DW$136, DW_AT_TI_begin_file("C:/ti/motorware/motorware_1_01_00_16/sw/drivers/pie/src/32b/f
    1623                      .dwattr $C$DW$136, DW_AT_TI_begin_line(0x74)
    1624                      .dwattr $C$DW$136, DW_AT_TI_begin_column(0x06)
    1625                      .dwattr $C$DW$136, DW_AT_TI_max_frame_size(-2)
    1626                      .dwpsn  file "C:/ti/motorware/motorware_1_01_00_16/sw/drivers/pie/src/32b/f28x/f2802x/pie.c",line 117
    1627              
    1628                      .dwfde $C$DW$CIE, _PIE_disableAllInts
    1629              $C$DW$137       .dwtag  DW_TAG_formal_parameter, DW_AT_name("pieHandle")
    1630                      .dwattr $C$DW$137, DW_AT_TI_symbol_name("_pieHandle")
    1631                      .dwattr $C$DW$137, DW_AT_type(*$C$DW$T$62)
    1632                      .dwattr $C$DW$137, DW_AT_location[DW_OP_reg12]
    1633              
    1634              ;***************************************************************
    1635              ;* FNAME: _PIE_disableAllInts           FR SIZE:   0           *
    1636              ;*                                                             *
    1637              ;* FUNCTION ENVIRONMENT                                        *
    1638              ;*                                                             *
    1639              ;* FUNCTION PROPERTIES                                         *
    1640              ;*                            0 Parameter,  0 Auto,  0 SOE     *
    1641              ;***************************************************************
    1642              
    1643 000000f2       _PIE_disableAllInts:
    1644              ;* AR4   assigned to $O$U7
    1645                      .dwcfi  cfa_offset, -2
    1646                      .dwcfi  save_reg_to_mem, 26, 0
    1647 000000f2 DC02          ADDB      XAR4,#2               ; [CPU_] 
    1648 000000f3 BE0B          MOVB      XAR6,#11              ; [CPU_] 
    1649 000000f4       $C$L10:    
    1650                      .dwpsn  file "C:/ti/motorware/motorware_1_01_00_16/sw/drivers/pie/src/32b/f28x/f2802x/pie.c",line 124
    1651 000000f4 2BC4          MOV       *+XAR4[0],#0          ; [CPU_] |124| 
    1652                      .dwpsn  file "C:/ti/motorware/motorware_1_01_00_16/sw/drivers/pie/src/32b/f28x/f2802x/pie.c",line 122
    1653 000000f5 DC02          ADDB      XAR4,#2               ; [CPU_] |122| 
    1654 000000f6 000E          BANZ      $C$L10,AR6--          ; [CPU_] |122| 
         000000f7 FFFE 
    1655                      ; branchcc occurs ; [] |122| 
    1656              $C$DW$138       .dwtag  DW_TAG_TI_branch
    1657                      .dwattr $C$DW$138, DW_AT_low_pc(0x00)
    1658                      .dwattr $C$DW$138, DW_AT_TI_return
TMS320C2000 Assembler PC v6.4.11 Mon Sep 05 19:06:41 2016

Tools Copyright (c) 1996-2015 Texas Instruments Incorporated
C:\Users\bee25\AppData\Local\Temp\2813610                            PAGE   32

    1659 000000f8 0006          LRETR     ; [CPU_] 
    1660                      ; return occurs ; [] 
    1661                      .dwattr $C$DW$136, DW_AT_TI_end_file("C:/ti/motorware/motorware_1_01_00_16/sw/drivers/pie/src/32b/f28
    1662                      .dwattr $C$DW$136, DW_AT_TI_end_line(0x80)
    1663                      .dwattr $C$DW$136, DW_AT_TI_end_column(0x01)
    1664                      .dwendentry
    1665                      .dwendtag $C$DW$136
    1666              
    1667 000000f9               .sect   ".text"
    1668                      .clink
    1669                      .global _PIE_disable
    1670              
    1671              $C$DW$139       .dwtag  DW_TAG_subprogram, DW_AT_name("PIE_disable")
    1672                      .dwattr $C$DW$139, DW_AT_low_pc(_PIE_disable)
    1673                      .dwattr $C$DW$139, DW_AT_high_pc(0x00)
    1674                      .dwattr $C$DW$139, DW_AT_TI_symbol_name("_PIE_disable")
    1675                      .dwattr $C$DW$139, DW_AT_external
    1676                      .dwattr $C$DW$139, DW_AT_TI_begin_file("C:/ti/motorware/motorware_1_01_00_16/sw/drivers/pie/src/32b/f
    1677                      .dwattr $C$DW$139, DW_AT_TI_begin_line(0x52)
    1678                      .dwattr $C$DW$139, DW_AT_TI_begin_column(0x06)
    1679                      .dwattr $C$DW$139, DW_AT_TI_max_frame_size(-2)
    1680                      .dwpsn  file "C:/ti/motorware/motorware_1_01_00_16/sw/drivers/pie/src/32b/f28x/f2802x/pie.c",line 83,
    1681              
    1682                      .dwfde $C$DW$CIE, _PIE_disable
    1683              $C$DW$140       .dwtag  DW_TAG_formal_parameter, DW_AT_name("pieHandle")
    1684                      .dwattr $C$DW$140, DW_AT_TI_symbol_name("_pieHandle")
    1685                      .dwattr $C$DW$140, DW_AT_type(*$C$DW$T$62)
    1686                      .dwattr $C$DW$140, DW_AT_location[DW_OP_reg12]
    1687              
    1688              ;***************************************************************
    1689              ;* FNAME: _PIE_disable                  FR SIZE:   0           *
    1690              ;*                                                             *
    1691              ;* FUNCTION ENVIRONMENT                                        *
    1692              ;*                                                             *
    1693              ;* FUNCTION PROPERTIES                                         *
    1694              ;*                            0 Parameter,  0 Auto,  0 SOE     *
    1695              ;***************************************************************
    1696              
    1697              _PIE_disable:
    1698              ;* AR4   assigned to _pieHandle
    1699              $C$DW$141       .dwtag  DW_TAG_variable, DW_AT_name("pieHandle")
    1700                      .dwattr $C$DW$141, DW_AT_TI_symbol_name("_pieHandle")
    1701                      .dwattr $C$DW$141, DW_AT_type(*$C$DW$T$63)
    1702                      .dwattr $C$DW$141, DW_AT_location[DW_OP_reg12]
    1703                      .dwcfi  cfa_offset, -2
    1704                      .dwcfi  save_reg_to_mem, 26, 0
    1705                      .dwpsn  file "C:/ti/motorware/motorware_1_01_00_16/sw/drivers/pie/src/32b/f28x/f2802x/pie.c",line 88,
    1706 000000f9 18C4          AND       *+XAR4[0],#0xfffe     ; [CPU_] |88| 
         000000fa FFFE 
    1707              $C$DW$142       .dwtag  DW_TAG_TI_branch
    1708                      .dwattr $C$DW$142, DW_AT_low_pc(0x00)
    1709                      .dwattr $C$DW$142, DW_AT_TI_return
    1710 000000fb 0006          LRETR     ; [CPU_] 
    1711                      ; return occurs ; [] 
    1712                      .dwattr $C$DW$139, DW_AT_TI_end_file("C:/ti/motorware/motorware_1_01_00_16/sw/drivers/pie/src/32b/f28
TMS320C2000 Assembler PC v6.4.11 Mon Sep 05 19:06:41 2016

Tools Copyright (c) 1996-2015 Texas Instruments Incorporated
C:\Users\bee25\AppData\Local\Temp\2813610                            PAGE   33

    1713                      .dwattr $C$DW$139, DW_AT_TI_end_line(0x5b)
    1714                      .dwattr $C$DW$139, DW_AT_TI_end_column(0x01)
    1715                      .dwendentry
    1716                      .dwendtag $C$DW$139
    1717              
    1718 000000fc               .sect   ".text"
    1719                      .clink
    1720                      .global _PIE_clearAllInts
    1721              
    1722              $C$DW$143       .dwtag  DW_TAG_subprogram, DW_AT_name("PIE_clearAllInts")
    1723                      .dwattr $C$DW$143, DW_AT_low_pc(_PIE_clearAllInts)
    1724                      .dwattr $C$DW$143, DW_AT_high_pc(0x00)
    1725                      .dwattr $C$DW$143, DW_AT_TI_symbol_name("_PIE_clearAllInts")
    1726                      .dwattr $C$DW$143, DW_AT_external
    1727                      .dwattr $C$DW$143, DW_AT_TI_begin_file("C:/ti/motorware/motorware_1_01_00_16/sw/drivers/pie/src/32b/f
    1728                      .dwattr $C$DW$143, DW_AT_TI_begin_line(0x46)
    1729                      .dwattr $C$DW$143, DW_AT_TI_begin_column(0x06)
    1730                      .dwattr $C$DW$143, DW_AT_TI_max_frame_size(-2)
    1731                      .dwpsn  file "C:/ti/motorware/motorware_1_01_00_16/sw/drivers/pie/src/32b/f28x/f2802x/pie.c",line 71,
    1732              
    1733                      .dwfde $C$DW$CIE, _PIE_clearAllInts
    1734              $C$DW$144       .dwtag  DW_TAG_formal_parameter, DW_AT_name("pieHandle")
    1735                      .dwattr $C$DW$144, DW_AT_TI_symbol_name("_pieHandle")
    1736                      .dwattr $C$DW$144, DW_AT_type(*$C$DW$T$62)
    1737                      .dwattr $C$DW$144, DW_AT_location[DW_OP_reg12]
    1738              
    1739              ;***************************************************************
    1740              ;* FNAME: _PIE_clearAllInts             FR SIZE:   0           *
    1741              ;*                                                             *
    1742              ;* FUNCTION ENVIRONMENT                                        *
    1743              ;*                                                             *
    1744              ;* FUNCTION PROPERTIES                                         *
    1745              ;*                            0 Parameter,  0 Auto,  0 SOE     *
    1746              ;***************************************************************
    1747              
    1748              _PIE_clearAllInts:
    1749              ;* AR4   assigned to _pieHandle
    1750              $C$DW$145       .dwtag  DW_TAG_variable, DW_AT_name("pieHandle")
    1751                      .dwattr $C$DW$145, DW_AT_TI_symbol_name("_pieHandle")
    1752                      .dwattr $C$DW$145, DW_AT_type(*$C$DW$T$63)
    1753                      .dwattr $C$DW$145, DW_AT_location[DW_OP_reg12]
    1754                      .dwcfi  cfa_offset, -2
    1755                      .dwcfi  save_reg_to_mem, 26, 0
    1756                      .dwpsn  file "C:/ti/motorware/motorware_1_01_00_16/sw/drivers/pie/src/32b/f28x/f2802x/pie.c",line 76,
    1757 000000fc 1ACC          OR        *+XAR4[1],#0xffff     ; [CPU_] |76| 
         000000fd FFFF 
    1758              $C$DW$146       .dwtag  DW_TAG_TI_branch
    1759                      .dwattr $C$DW$146, DW_AT_low_pc(0x00)
    1760                      .dwattr $C$DW$146, DW_AT_TI_return
    1761 000000fe 0006          LRETR     ; [CPU_] 
    1762                      ; return occurs ; [] 
    1763                      .dwattr $C$DW$143, DW_AT_TI_end_file("C:/ti/motorware/motorware_1_01_00_16/sw/drivers/pie/src/32b/f28
    1764                      .dwattr $C$DW$143, DW_AT_TI_end_line(0x4f)
    1765                      .dwattr $C$DW$143, DW_AT_TI_end_column(0x01)
    1766                      .dwendentry
TMS320C2000 Assembler PC v6.4.11 Mon Sep 05 19:06:41 2016

Tools Copyright (c) 1996-2015 Texas Instruments Incorporated
C:\Users\bee25\AppData\Local\Temp\2813610                            PAGE   34

    1767                      .dwendtag $C$DW$143
    1768              
    1769 000000ff               .sect   ".text"
    1770                      .clink
    1771                      .global _PIE_clearAllFlags
    1772              
    1773              $C$DW$147       .dwtag  DW_TAG_subprogram, DW_AT_name("PIE_clearAllFlags")
    1774                      .dwattr $C$DW$147, DW_AT_low_pc(_PIE_clearAllFlags)
    1775                      .dwattr $C$DW$147, DW_AT_high_pc(0x00)
    1776                      .dwattr $C$DW$147, DW_AT_TI_symbol_name("_PIE_clearAllFlags")
    1777                      .dwattr $C$DW$147, DW_AT_external
    1778                      .dwattr $C$DW$147, DW_AT_TI_begin_file("C:/ti/motorware/motorware_1_01_00_16/sw/drivers/pie/src/32b/f
    1779                      .dwattr $C$DW$147, DW_AT_TI_begin_line(0x37)
    1780                      .dwattr $C$DW$147, DW_AT_TI_begin_column(0x06)
    1781                      .dwattr $C$DW$147, DW_AT_TI_max_frame_size(-2)
    1782                      .dwpsn  file "C:/ti/motorware/motorware_1_01_00_16/sw/drivers/pie/src/32b/f28x/f2802x/pie.c",line 56,
    1783              
    1784                      .dwfde $C$DW$CIE, _PIE_clearAllFlags
    1785              $C$DW$148       .dwtag  DW_TAG_formal_parameter, DW_AT_name("pieHandle")
    1786                      .dwattr $C$DW$148, DW_AT_TI_symbol_name("_pieHandle")
    1787                      .dwattr $C$DW$148, DW_AT_type(*$C$DW$T$62)
    1788                      .dwattr $C$DW$148, DW_AT_location[DW_OP_reg12]
    1789              
    1790              ;***************************************************************
    1791              ;* FNAME: _PIE_clearAllFlags            FR SIZE:   0           *
    1792              ;*                                                             *
    1793              ;* FUNCTION ENVIRONMENT                                        *
    1794              ;*                                                             *
    1795              ;* FUNCTION PROPERTIES                                         *
    1796              ;*                            0 Parameter,  0 Auto,  0 SOE     *
    1797              ;***************************************************************
    1798              
    1799 000000ff       _PIE_clearAllFlags:
    1800              ;* AR4   assigned to $O$U7
    1801                      .dwcfi  cfa_offset, -2
    1802                      .dwcfi  save_reg_to_mem, 26, 0
    1803 000000ff DC03          ADDB      XAR4,#3               ; [CPU_] 
    1804 00000100 BE0B          MOVB      XAR6,#11              ; [CPU_] 
    1805 00000101       $C$L11:    
    1806                      .dwpsn  file "C:/ti/motorware/motorware_1_01_00_16/sw/drivers/pie/src/32b/f28x/f2802x/pie.c",line 63,
    1807 00000101 2BC4          MOV       *+XAR4[0],#0          ; [CPU_] |63| 
    1808                      .dwpsn  file "C:/ti/motorware/motorware_1_01_00_16/sw/drivers/pie/src/32b/f28x/f2802x/pie.c",line 61,
    1809 00000102 DC02          ADDB      XAR4,#2               ; [CPU_] |61| 
    1810 00000103 000E          BANZ      $C$L11,AR6--          ; [CPU_] |61| 
         00000104 FFFE 
    1811                      ; branchcc occurs ; [] |61| 
    1812              $C$DW$149       .dwtag  DW_TAG_TI_branch
    1813                      .dwattr $C$DW$149, DW_AT_low_pc(0x00)
    1814                      .dwattr $C$DW$149, DW_AT_TI_return
    1815 00000105 0006          LRETR     ; [CPU_] 
    1816                      ; return occurs ; [] 
    1817                      .dwattr $C$DW$147, DW_AT_TI_end_file("C:/ti/motorware/motorware_1_01_00_16/sw/drivers/pie/src/32b/f28
    1818                      .dwattr $C$DW$147, DW_AT_TI_end_line(0x43)
    1819                      .dwattr $C$DW$147, DW_AT_TI_end_column(0x01)
    1820                      .dwendentry
TMS320C2000 Assembler PC v6.4.11 Mon Sep 05 19:06:41 2016

Tools Copyright (c) 1996-2015 Texas Instruments Incorporated
C:\Users\bee25\AppData\Local\Temp\2813610                            PAGE   35

    1821                      .dwendtag $C$DW$147
    1822              
    1823              
    1824              ;***************************************************************
    1825              ;* TYPE INFORMATION                                            *
    1826              ;***************************************************************
    1827              
    1828              $C$DW$T$34      .dwtag  DW_TAG_enumeration_type
    1829                      .dwattr $C$DW$T$34, DW_AT_byte_size(0x01)
    1830              $C$DW$150       .dwtag  DW_TAG_enumerator, DW_AT_name("CPU_ExtIntNumber_1"), DW_AT_const_value(0x00)
    1831              $C$DW$151       .dwtag  DW_TAG_enumerator, DW_AT_name("CPU_ExtIntNumber_2"), DW_AT_const_value(0x01)
    1832              $C$DW$152       .dwtag  DW_TAG_enumerator, DW_AT_name("CPU_ExtIntNumber_3"), DW_AT_const_value(0x02)
    1833                      .dwendtag $C$DW$T$34
    1834              
    1835              $C$DW$T$35      .dwtag  DW_TAG_typedef, DW_AT_name("CPU_ExtIntNumber_e")
    1836                      .dwattr $C$DW$T$35, DW_AT_type(*$C$DW$T$34)
    1837                      .dwattr $C$DW$T$35, DW_AT_language(DW_LANG_C)
    1838              $C$DW$153       .dwtag  DW_TAG_TI_far_type
    1839                      .dwattr $C$DW$153, DW_AT_type(*$C$DW$T$35)
    1840              $C$DW$T$36      .dwtag  DW_TAG_const_type
    1841                      .dwattr $C$DW$T$36, DW_AT_type(*$C$DW$153)
    1842              
    1843              $C$DW$T$37      .dwtag  DW_TAG_enumeration_type
    1844                      .dwattr $C$DW$T$37, DW_AT_byte_size(0x01)
    1845              $C$DW$154       .dwtag  DW_TAG_enumerator, DW_AT_name("PIE_GroupNumber_1"), DW_AT_const_value(0x00)
    1846              $C$DW$155       .dwtag  DW_TAG_enumerator, DW_AT_name("PIE_GroupNumber_2"), DW_AT_const_value(0x01)
    1847              $C$DW$156       .dwtag  DW_TAG_enumerator, DW_AT_name("PIE_GroupNumber_3"), DW_AT_const_value(0x02)
    1848              $C$DW$157       .dwtag  DW_TAG_enumerator, DW_AT_name("PIE_GroupNumber_4"), DW_AT_const_value(0x03)
    1849              $C$DW$158       .dwtag  DW_TAG_enumerator, DW_AT_name("PIE_GroupNumber_5"), DW_AT_const_value(0x04)
    1850              $C$DW$159       .dwtag  DW_TAG_enumerator, DW_AT_name("PIE_GroupNumber_6"), DW_AT_const_value(0x05)
    1851              $C$DW$160       .dwtag  DW_TAG_enumerator, DW_AT_name("PIE_GroupNumber_7"), DW_AT_const_value(0x06)
    1852              $C$DW$161       .dwtag  DW_TAG_enumerator, DW_AT_name("PIE_GroupNumber_8"), DW_AT_const_value(0x07)
    1853              $C$DW$162       .dwtag  DW_TAG_enumerator, DW_AT_name("PIE_GroupNumber_9"), DW_AT_const_value(0x08)
    1854              $C$DW$163       .dwtag  DW_TAG_enumerator, DW_AT_name("PIE_GroupNumber_10"), DW_AT_const_value(0x09)
    1855              $C$DW$164       .dwtag  DW_TAG_enumerator, DW_AT_name("PIE_GroupNumber_11"), DW_AT_const_value(0x0a)
    1856              $C$DW$165       .dwtag  DW_TAG_enumerator, DW_AT_name("PIE_GroupNumber_12"), DW_AT_const_value(0x0b)
    1857                      .dwendtag $C$DW$T$37
    1858              
    1859              $C$DW$T$38      .dwtag  DW_TAG_typedef, DW_AT_name("PIE_GroupNumber_e")
    1860                      .dwattr $C$DW$T$38, DW_AT_type(*$C$DW$T$37)
    1861                      .dwattr $C$DW$T$38, DW_AT_language(DW_LANG_C)
    1862              $C$DW$166       .dwtag  DW_TAG_TI_far_type
    1863                      .dwattr $C$DW$166, DW_AT_type(*$C$DW$T$38)
    1864              $C$DW$T$39      .dwtag  DW_TAG_const_type
    1865                      .dwattr $C$DW$T$39, DW_AT_type(*$C$DW$166)
    1866              
    1867              $C$DW$T$40      .dwtag  DW_TAG_enumeration_type
    1868                      .dwattr $C$DW$T$40, DW_AT_byte_size(0x01)
    1869              $C$DW$167       .dwtag  DW_TAG_enumerator, DW_AT_name("PIE_InterruptSource_ADCINT_1_1"), DW_AT_const_value(0x
    1870              $C$DW$168       .dwtag  DW_TAG_enumerator, DW_AT_name("PIE_InterruptSource_ADCINT_1_2"), DW_AT_const_value(0x
    1871              $C$DW$169       .dwtag  DW_TAG_enumerator, DW_AT_name("PIE_InterruptSource_XINT_1"), DW_AT_const_value(0x08)
    1872              $C$DW$170       .dwtag  DW_TAG_enumerator, DW_AT_name("PIE_InterruptSource_XINT_2"), DW_AT_const_value(0x10)
    1873              $C$DW$171       .dwtag  DW_TAG_enumerator, DW_AT_name("PIE_InterruptSource_ADCINT_9"), DW_AT_const_value(0x20
    1874              $C$DW$172       .dwtag  DW_TAG_enumerator, DW_AT_name("PIE_InterruptSource_TIMER_0"), DW_AT_const_value(0x40)
    1875              $C$DW$173       .dwtag  DW_TAG_enumerator, DW_AT_name("PIE_InterruptSource_WAKE"), DW_AT_const_value(0x80)
TMS320C2000 Assembler PC v6.4.11 Mon Sep 05 19:06:41 2016

Tools Copyright (c) 1996-2015 Texas Instruments Incorporated
C:\Users\bee25\AppData\Local\Temp\2813610                            PAGE   36

    1876              $C$DW$174       .dwtag  DW_TAG_enumerator, DW_AT_name("PIE_InterruptSource_TZ1"), DW_AT_const_value(0x01)
    1877              $C$DW$175       .dwtag  DW_TAG_enumerator, DW_AT_name("PIE_InterruptSource_TZ2"), DW_AT_const_value(0x02)
    1878              $C$DW$176       .dwtag  DW_TAG_enumerator, DW_AT_name("PIE_InterruptSource_TZ3"), DW_AT_const_value(0x04)
    1879              $C$DW$177       .dwtag  DW_TAG_enumerator, DW_AT_name("PIE_InterruptSource_TZ4"), DW_AT_const_value(0x08)
    1880              $C$DW$178       .dwtag  DW_TAG_enumerator, DW_AT_name("PIE_InterruptSource_EPWM1"), DW_AT_const_value(0x01)
    1881              $C$DW$179       .dwtag  DW_TAG_enumerator, DW_AT_name("PIE_InterruptSource_EPWM2"), DW_AT_const_value(0x02)
    1882              $C$DW$180       .dwtag  DW_TAG_enumerator, DW_AT_name("PIE_InterruptSource_EPWM3"), DW_AT_const_value(0x04)
    1883              $C$DW$181       .dwtag  DW_TAG_enumerator, DW_AT_name("PIE_InterruptSource_EPWM4"), DW_AT_const_value(0x08)
    1884              $C$DW$182       .dwtag  DW_TAG_enumerator, DW_AT_name("PIE_InterruptSource_ECAP1"), DW_AT_const_value(0x01)
    1885              $C$DW$183       .dwtag  DW_TAG_enumerator, DW_AT_name("PIE_InterruptSource_EQEP1"), DW_AT_const_value(0x01)
    1886              $C$DW$184       .dwtag  DW_TAG_enumerator, DW_AT_name("PIE_InterruptSource_SPIARX"), DW_AT_const_value(0x01)
    1887              $C$DW$185       .dwtag  DW_TAG_enumerator, DW_AT_name("PIE_InterruptSource_SPIATX"), DW_AT_const_value(0x02)
    1888              $C$DW$186       .dwtag  DW_TAG_enumerator, DW_AT_name("PIE_InterruptSource_I2CA1"), DW_AT_const_value(0x01)
    1889              $C$DW$187       .dwtag  DW_TAG_enumerator, DW_AT_name("PIE_InterruptSource_I2CA2"), DW_AT_const_value(0x02)
    1890              $C$DW$188       .dwtag  DW_TAG_enumerator, DW_AT_name("PIE_InterruptSource_SCIARX"), DW_AT_const_value(0x01)
    1891              $C$DW$189       .dwtag  DW_TAG_enumerator, DW_AT_name("PIE_InterruptSource_SCIATX"), DW_AT_const_value(0x02)
    1892              $C$DW$190       .dwtag  DW_TAG_enumerator, DW_AT_name("PIE_InterruptSource_ADCINT_10_1"), DW_AT_const_value(0
    1893              $C$DW$191       .dwtag  DW_TAG_enumerator, DW_AT_name("PIE_InterruptSource_ADCINT_10_2"), DW_AT_const_value(0
    1894              $C$DW$192       .dwtag  DW_TAG_enumerator, DW_AT_name("PIE_InterruptSource_ADCINT_3"), DW_AT_const_value(0x04
    1895              $C$DW$193       .dwtag  DW_TAG_enumerator, DW_AT_name("PIE_InterruptSource_ADCINT_4"), DW_AT_const_value(0x08
    1896              $C$DW$194       .dwtag  DW_TAG_enumerator, DW_AT_name("PIE_InterruptSource_ADCINT_5"), DW_AT_const_value(0x10
    1897              $C$DW$195       .dwtag  DW_TAG_enumerator, DW_AT_name("PIE_InterruptSource_ADCINT_6"), DW_AT_const_value(0x20
    1898              $C$DW$196       .dwtag  DW_TAG_enumerator, DW_AT_name("PIE_InterruptSource_ADCINT_7"), DW_AT_const_value(0x40
    1899              $C$DW$197       .dwtag  DW_TAG_enumerator, DW_AT_name("PIE_InterruptSource_ADCINT_8"), DW_AT_const_value(0x80
    1900              $C$DW$198       .dwtag  DW_TAG_enumerator, DW_AT_name("PIE_InterruptSource_XINT_3"), DW_AT_const_value(0x01)
    1901                      .dwendtag $C$DW$T$40
    1902              
    1903              $C$DW$T$41      .dwtag  DW_TAG_typedef, DW_AT_name("PIE_InterruptSource_e")
    1904                      .dwattr $C$DW$T$41, DW_AT_type(*$C$DW$T$40)
    1905                      .dwattr $C$DW$T$41, DW_AT_language(DW_LANG_C)
    1906              $C$DW$199       .dwtag  DW_TAG_TI_far_type
    1907                      .dwattr $C$DW$199, DW_AT_type(*$C$DW$T$41)
    1908              $C$DW$T$42      .dwtag  DW_TAG_const_type
    1909                      .dwattr $C$DW$T$42, DW_AT_type(*$C$DW$199)
    1910              
    1911              $C$DW$T$43      .dwtag  DW_TAG_enumeration_type
    1912                      .dwattr $C$DW$T$43, DW_AT_byte_size(0x01)
    1913              $C$DW$200       .dwtag  DW_TAG_enumerator, DW_AT_name("ADC_IntNumber_1"), DW_AT_const_value(0x00)
    1914              $C$DW$201       .dwtag  DW_TAG_enumerator, DW_AT_name("ADC_IntNumber_2"), DW_AT_const_value(0x01)
    1915              $C$DW$202       .dwtag  DW_TAG_enumerator, DW_AT_name("ADC_IntNumber_3"), DW_AT_const_value(0x02)
    1916              $C$DW$203       .dwtag  DW_TAG_enumerator, DW_AT_name("ADC_IntNumber_4"), DW_AT_const_value(0x03)
    1917              $C$DW$204       .dwtag  DW_TAG_enumerator, DW_AT_name("ADC_IntNumber_5"), DW_AT_const_value(0x04)
    1918              $C$DW$205       .dwtag  DW_TAG_enumerator, DW_AT_name("ADC_IntNumber_6"), DW_AT_const_value(0x05)
    1919              $C$DW$206       .dwtag  DW_TAG_enumerator, DW_AT_name("ADC_IntNumber_7"), DW_AT_const_value(0x06)
    1920              $C$DW$207       .dwtag  DW_TAG_enumerator, DW_AT_name("ADC_IntNumber_8"), DW_AT_const_value(0x07)
    1921              $C$DW$208       .dwtag  DW_TAG_enumerator, DW_AT_name("ADC_IntNumber_9"), DW_AT_const_value(0x08)
    1922              $C$DW$209       .dwtag  DW_TAG_enumerator, DW_AT_name("ADC_IntNumber_1HP"), DW_AT_const_value(0x09)
    1923              $C$DW$210       .dwtag  DW_TAG_enumerator, DW_AT_name("ADC_IntNumber_2HP"), DW_AT_const_value(0x0a)
    1924              $C$DW$211       .dwtag  DW_TAG_enumerator, DW_AT_name("ADC_IntNumber_9HP"), DW_AT_const_value(0x0e)
    1925                      .dwendtag $C$DW$T$43
    1926              
    1927              $C$DW$T$44      .dwtag  DW_TAG_typedef, DW_AT_name("ADC_IntNumber_e")
    1928                      .dwattr $C$DW$T$44, DW_AT_type(*$C$DW$T$43)
    1929                      .dwattr $C$DW$T$44, DW_AT_language(DW_LANG_C)
    1930              $C$DW$212       .dwtag  DW_TAG_TI_far_type
TMS320C2000 Assembler PC v6.4.11 Mon Sep 05 19:06:41 2016

Tools Copyright (c) 1996-2015 Texas Instruments Incorporated
C:\Users\bee25\AppData\Local\Temp\2813610                            PAGE   37

    1931                      .dwattr $C$DW$212, DW_AT_type(*$C$DW$T$44)
    1932              $C$DW$T$45      .dwtag  DW_TAG_const_type
    1933                      .dwattr $C$DW$T$45, DW_AT_type(*$C$DW$212)
    1934              
    1935              $C$DW$T$46      .dwtag  DW_TAG_enumeration_type
    1936                      .dwattr $C$DW$T$46, DW_AT_byte_size(0x01)
    1937              $C$DW$213       .dwtag  DW_TAG_enumerator, DW_AT_name("PWM_Number_1"), DW_AT_const_value(0x00)
    1938              $C$DW$214       .dwtag  DW_TAG_enumerator, DW_AT_name("PWM_Number_2"), DW_AT_const_value(0x01)
    1939              $C$DW$215       .dwtag  DW_TAG_enumerator, DW_AT_name("PWM_Number_3"), DW_AT_const_value(0x02)
    1940              $C$DW$216       .dwtag  DW_TAG_enumerator, DW_AT_name("PWM_Number_4"), DW_AT_const_value(0x03)
    1941                      .dwendtag $C$DW$T$46
    1942              
    1943              $C$DW$T$47      .dwtag  DW_TAG_typedef, DW_AT_name("PWM_Number_e")
    1944                      .dwattr $C$DW$T$47, DW_AT_type(*$C$DW$T$46)
    1945                      .dwattr $C$DW$T$47, DW_AT_language(DW_LANG_C)
    1946              $C$DW$217       .dwtag  DW_TAG_TI_far_type
    1947                      .dwattr $C$DW$217, DW_AT_type(*$C$DW$T$47)
    1948              $C$DW$T$48      .dwtag  DW_TAG_const_type
    1949                      .dwattr $C$DW$T$48, DW_AT_type(*$C$DW$217)
    1950              
    1951              $C$DW$T$49      .dwtag  DW_TAG_enumeration_type
    1952                      .dwattr $C$DW$T$49, DW_AT_byte_size(0x01)
    1953              $C$DW$218       .dwtag  DW_TAG_enumerator, DW_AT_name("PIE_SubGroupNumber_1"), DW_AT_const_value(0x00)
    1954              $C$DW$219       .dwtag  DW_TAG_enumerator, DW_AT_name("PIE_SubGroupNumber_2"), DW_AT_const_value(0x01)
    1955              $C$DW$220       .dwtag  DW_TAG_enumerator, DW_AT_name("PIE_SubGroupNumber_3"), DW_AT_const_value(0x02)
    1956              $C$DW$221       .dwtag  DW_TAG_enumerator, DW_AT_name("PIE_SubGroupNumber_4"), DW_AT_const_value(0x03)
    1957              $C$DW$222       .dwtag  DW_TAG_enumerator, DW_AT_name("PIE_SubGroupNumber_5"), DW_AT_const_value(0x04)
    1958              $C$DW$223       .dwtag  DW_TAG_enumerator, DW_AT_name("PIE_SubGroupNumber_6"), DW_AT_const_value(0x05)
    1959              $C$DW$224       .dwtag  DW_TAG_enumerator, DW_AT_name("PIE_SubGroupNumber_7"), DW_AT_const_value(0x06)
    1960              $C$DW$225       .dwtag  DW_TAG_enumerator, DW_AT_name("PIE_SubGroupNumber_8"), DW_AT_const_value(0x07)
    1961                      .dwendtag $C$DW$T$49
    1962              
    1963              $C$DW$T$50      .dwtag  DW_TAG_typedef, DW_AT_name("PIE_SubGroupNumber_e")
    1964                      .dwattr $C$DW$T$50, DW_AT_type(*$C$DW$T$49)
    1965                      .dwattr $C$DW$T$50, DW_AT_language(DW_LANG_C)
    1966              $C$DW$226       .dwtag  DW_TAG_TI_far_type
    1967                      .dwattr $C$DW$226, DW_AT_type(*$C$DW$T$50)
    1968              $C$DW$T$51      .dwtag  DW_TAG_const_type
    1969                      .dwattr $C$DW$T$51, DW_AT_type(*$C$DW$226)
    1970              
    1971              $C$DW$T$52      .dwtag  DW_TAG_enumeration_type
    1972                      .dwattr $C$DW$T$52, DW_AT_byte_size(0x01)
    1973              $C$DW$227       .dwtag  DW_TAG_enumerator, DW_AT_name("PIE_SystemInterrupts_Reset"), DW_AT_const_value(0x00)
    1974              $C$DW$228       .dwtag  DW_TAG_enumerator, DW_AT_name("PIE_SystemInterrupts_INT1"), DW_AT_const_value(0x01)
    1975              $C$DW$229       .dwtag  DW_TAG_enumerator, DW_AT_name("PIE_SystemInterrupts_INT2"), DW_AT_const_value(0x02)
    1976              $C$DW$230       .dwtag  DW_TAG_enumerator, DW_AT_name("PIE_SystemInterrupts_INT3"), DW_AT_const_value(0x03)
    1977              $C$DW$231       .dwtag  DW_TAG_enumerator, DW_AT_name("PIE_SystemInterrupts_INT4"), DW_AT_const_value(0x04)
    1978              $C$DW$232       .dwtag  DW_TAG_enumerator, DW_AT_name("PIE_SystemInterrupts_INT5"), DW_AT_const_value(0x05)
    1979              $C$DW$233       .dwtag  DW_TAG_enumerator, DW_AT_name("PIE_SystemInterrupts_INT6"), DW_AT_const_value(0x06)
    1980              $C$DW$234       .dwtag  DW_TAG_enumerator, DW_AT_name("PIE_SystemInterrupts_INT7"), DW_AT_const_value(0x07)
    1981              $C$DW$235       .dwtag  DW_TAG_enumerator, DW_AT_name("PIE_SystemInterrupts_INT8"), DW_AT_const_value(0x08)
    1982              $C$DW$236       .dwtag  DW_TAG_enumerator, DW_AT_name("PIE_SystemInterrupts_INT9"), DW_AT_const_value(0x09)
    1983              $C$DW$237       .dwtag  DW_TAG_enumerator, DW_AT_name("PIE_SystemInterrupts_INT10"), DW_AT_const_value(0x0a)
    1984              $C$DW$238       .dwtag  DW_TAG_enumerator, DW_AT_name("PIE_SystemInterrupts_INT11"), DW_AT_const_value(0x0b)
    1985              $C$DW$239       .dwtag  DW_TAG_enumerator, DW_AT_name("PIE_SystemInterrupts_INT12"), DW_AT_const_value(0x0c)
TMS320C2000 Assembler PC v6.4.11 Mon Sep 05 19:06:41 2016

Tools Copyright (c) 1996-2015 Texas Instruments Incorporated
C:\Users\bee25\AppData\Local\Temp\2813610                            PAGE   38

    1986              $C$DW$240       .dwtag  DW_TAG_enumerator, DW_AT_name("PIE_SystemInterrupts_TINT1"), DW_AT_const_value(0x0d)
    1987              $C$DW$241       .dwtag  DW_TAG_enumerator, DW_AT_name("PIE_SystemInterrupts_TINT2"), DW_AT_const_value(0x0e)
    1988              $C$DW$242       .dwtag  DW_TAG_enumerator, DW_AT_name("PIE_SystemInterrupts_DATALOG"), DW_AT_const_value(0x0f
    1989              $C$DW$243       .dwtag  DW_TAG_enumerator, DW_AT_name("PIE_SystemInterrupts_RTOSINT"), DW_AT_const_value(0x10
    1990              $C$DW$244       .dwtag  DW_TAG_enumerator, DW_AT_name("PIE_SystemInterrupts_EMUINT"), DW_AT_const_value(0x11)
    1991              $C$DW$245       .dwtag  DW_TAG_enumerator, DW_AT_name("PIE_SystemInterrupts_NMI"), DW_AT_const_value(0x12)
    1992              $C$DW$246       .dwtag  DW_TAG_enumerator, DW_AT_name("PIE_SystemInterrupts_ILLEGAL"), DW_AT_const_value(0x13
    1993              $C$DW$247       .dwtag  DW_TAG_enumerator, DW_AT_name("PIE_SystemInterrupts_USER1"), DW_AT_const_value(0x14)
    1994              $C$DW$248       .dwtag  DW_TAG_enumerator, DW_AT_name("PIE_SystemInterrupts_USER2"), DW_AT_const_value(0x15)
    1995              $C$DW$249       .dwtag  DW_TAG_enumerator, DW_AT_name("PIE_SystemInterrupts_USER3"), DW_AT_const_value(0x16)
    1996              $C$DW$250       .dwtag  DW_TAG_enumerator, DW_AT_name("PIE_SystemInterrupts_USER4"), DW_AT_const_value(0x17)
    1997              $C$DW$251       .dwtag  DW_TAG_enumerator, DW_AT_name("PIE_SystemInterrupts_USER5"), DW_AT_const_value(0x18)
    1998              $C$DW$252       .dwtag  DW_TAG_enumerator, DW_AT_name("PIE_SystemInterrupts_USER6"), DW_AT_const_value(0x19)
    1999              $C$DW$253       .dwtag  DW_TAG_enumerator, DW_AT_name("PIE_SystemInterrupts_USER7"), DW_AT_const_value(0x1a)
    2000              $C$DW$254       .dwtag  DW_TAG_enumerator, DW_AT_name("PIE_SystemInterrupts_USER8"), DW_AT_const_value(0x1b)
    2001              $C$DW$255       .dwtag  DW_TAG_enumerator, DW_AT_name("PIE_SystemInterrupts_USER9"), DW_AT_const_value(0x1c)
    2002              $C$DW$256       .dwtag  DW_TAG_enumerator, DW_AT_name("PIE_SystemInterrupts_USER10"), DW_AT_const_value(0x1d)
    2003              $C$DW$257       .dwtag  DW_TAG_enumerator, DW_AT_name("PIE_SystemInterrupts_USER11"), DW_AT_const_value(0x1e)
    2004              $C$DW$258       .dwtag  DW_TAG_enumerator, DW_AT_name("PIE_SystemInterrupts_USER12"), DW_AT_const_value(0x1f)
    2005                      .dwendtag $C$DW$T$52
    2006              
    2007              $C$DW$T$53      .dwtag  DW_TAG_typedef, DW_AT_name("PIE_SystemInterrupts_e")
    2008                      .dwattr $C$DW$T$53, DW_AT_type(*$C$DW$T$52)
    2009                      .dwattr $C$DW$T$53, DW_AT_language(DW_LANG_C)
    2010              $C$DW$259       .dwtag  DW_TAG_TI_far_type
    2011                      .dwattr $C$DW$259, DW_AT_type(*$C$DW$T$53)
    2012              $C$DW$T$54      .dwtag  DW_TAG_const_type
    2013                      .dwattr $C$DW$T$54, DW_AT_type(*$C$DW$259)
    2014              
    2015              $C$DW$T$55      .dwtag  DW_TAG_enumeration_type
    2016                      .dwattr $C$DW$T$55, DW_AT_byte_size(0x01)
    2017              $C$DW$260       .dwtag  DW_TAG_enumerator, DW_AT_name("PIE_ExtIntPolarity_FallingEdge"), DW_AT_const_value(0x
    2018              $C$DW$261       .dwtag  DW_TAG_enumerator, DW_AT_name("PIE_ExtIntPolarity_RisingEdge"), DW_AT_const_value(0x0
    2019              $C$DW$262       .dwtag  DW_TAG_enumerator, DW_AT_name("PIE_ExtIntPolarity_RisingAndFallingEdge"), DW_AT_const
    2020                      .dwendtag $C$DW$T$55
    2021              
    2022              $C$DW$T$56      .dwtag  DW_TAG_typedef, DW_AT_name("PIE_ExtIntPolarity_e")
    2023                      .dwattr $C$DW$T$56, DW_AT_type(*$C$DW$T$55)
    2024                      .dwattr $C$DW$T$56, DW_AT_language(DW_LANG_C)
    2025              $C$DW$263       .dwtag  DW_TAG_TI_far_type
    2026                      .dwattr $C$DW$263, DW_AT_type(*$C$DW$T$56)
    2027              $C$DW$T$57      .dwtag  DW_TAG_const_type
    2028                      .dwattr $C$DW$T$57, DW_AT_type(*$C$DW$263)
    2029              
    2030              $C$DW$T$21      .dwtag  DW_TAG_structure_type
    2031                      .dwattr $C$DW$T$21, DW_AT_name("_PIE_IERIFR_t")
    2032                      .dwattr $C$DW$T$21, DW_AT_byte_size(0x02)
    2033              $C$DW$264       .dwtag  DW_TAG_member
    2034                      .dwattr $C$DW$264, DW_AT_type(*$C$DW$T$20)
    2035                      .dwattr $C$DW$264, DW_AT_name("IER")
    2036                      .dwattr $C$DW$264, DW_AT_TI_symbol_name("_IER")
    2037                      .dwattr $C$DW$264, DW_AT_data_member_location[DW_OP_plus_uconst 0x0]
    2038                      .dwattr $C$DW$264, DW_AT_accessibility(DW_ACCESS_public)
    2039              $C$DW$265       .dwtag  DW_TAG_member
    2040                      .dwattr $C$DW$265, DW_AT_type(*$C$DW$T$20)
TMS320C2000 Assembler PC v6.4.11 Mon Sep 05 19:06:41 2016

Tools Copyright (c) 1996-2015 Texas Instruments Incorporated
C:\Users\bee25\AppData\Local\Temp\2813610                            PAGE   39

    2041                      .dwattr $C$DW$265, DW_AT_name("IFR")
    2042                      .dwattr $C$DW$265, DW_AT_TI_symbol_name("_IFR")
    2043                      .dwattr $C$DW$265, DW_AT_data_member_location[DW_OP_plus_uconst 0x1]
    2044                      .dwattr $C$DW$265, DW_AT_accessibility(DW_ACCESS_public)
    2045                      .dwendtag $C$DW$T$21
    2046              
    2047              $C$DW$T$22      .dwtag  DW_TAG_typedef, DW_AT_name("PIE_IERIFR_t")
    2048                      .dwattr $C$DW$T$22, DW_AT_type(*$C$DW$T$21)
    2049                      .dwattr $C$DW$T$22, DW_AT_language(DW_LANG_C)
    2050              $C$DW$266       .dwtag  DW_TAG_TI_far_type
    2051                      .dwattr $C$DW$266, DW_AT_type(*$C$DW$T$22)
    2052              $C$DW$T$23      .dwtag  DW_TAG_volatile_type
    2053                      .dwattr $C$DW$T$23, DW_AT_type(*$C$DW$266)
    2054              
    2055              $C$DW$T$24      .dwtag  DW_TAG_array_type
    2056                      .dwattr $C$DW$T$24, DW_AT_type(*$C$DW$T$23)
    2057                      .dwattr $C$DW$T$24, DW_AT_language(DW_LANG_C)
    2058                      .dwattr $C$DW$T$24, DW_AT_byte_size(0x18)
    2059              $C$DW$267       .dwtag  DW_TAG_subrange_type
    2060                      .dwattr $C$DW$267, DW_AT_upper_bound(0x0b)
    2061                      .dwendtag $C$DW$T$24
    2062              
    2063              
    2064              $C$DW$T$33      .dwtag  DW_TAG_structure_type
    2065                      .dwattr $C$DW$T$33, DW_AT_name("_PIE_Obj_")
    2066                      .dwattr $C$DW$T$33, DW_AT_byte_size(0x639c)
    2067              $C$DW$268       .dwtag  DW_TAG_member
    2068                      .dwattr $C$DW$268, DW_AT_type(*$C$DW$T$20)
    2069                      .dwattr $C$DW$268, DW_AT_name("PIECTRL")
    2070                      .dwattr $C$DW$268, DW_AT_TI_symbol_name("_PIECTRL")
    2071                      .dwattr $C$DW$268, DW_AT_data_member_location[DW_OP_plus_uconst 0x0]
    2072                      .dwattr $C$DW$268, DW_AT_accessibility(DW_ACCESS_public)
    2073              $C$DW$269       .dwtag  DW_TAG_member
    2074                      .dwattr $C$DW$269, DW_AT_type(*$C$DW$T$20)
    2075                      .dwattr $C$DW$269, DW_AT_name("PIEACK")
    2076                      .dwattr $C$DW$269, DW_AT_TI_symbol_name("_PIEACK")
    2077                      .dwattr $C$DW$269, DW_AT_data_member_location[DW_OP_plus_uconst 0x1]
    2078                      .dwattr $C$DW$269, DW_AT_accessibility(DW_ACCESS_public)
    2079              $C$DW$270       .dwtag  DW_TAG_member
    2080                      .dwattr $C$DW$270, DW_AT_type(*$C$DW$T$24)
    2081                      .dwattr $C$DW$270, DW_AT_name("PIEIER_PIEIFR")
    2082                      .dwattr $C$DW$270, DW_AT_TI_symbol_name("_PIEIER_PIEIFR")
    2083                      .dwattr $C$DW$270, DW_AT_data_member_location[DW_OP_plus_uconst 0x2]
    2084                      .dwattr $C$DW$270, DW_AT_accessibility(DW_ACCESS_public)
    2085              $C$DW$271       .dwtag  DW_TAG_member
    2086                      .dwattr $C$DW$271, DW_AT_type(*$C$DW$T$25)
    2087                      .dwattr $C$DW$271, DW_AT_name("rsvd_1")
    2088                      .dwattr $C$DW$271, DW_AT_TI_symbol_name("_rsvd_1")
    2089                      .dwattr $C$DW$271, DW_AT_data_member_location[DW_OP_plus_uconst 0x1a]
    2090                      .dwattr $C$DW$271, DW_AT_accessibility(DW_ACCESS_public)
    2091              $C$DW$272       .dwtag  DW_TAG_member
    2092                      .dwattr $C$DW$272, DW_AT_type(*$C$DW$T$29)
    2093                      .dwattr $C$DW$272, DW_AT_name("Reset")
    2094                      .dwattr $C$DW$272, DW_AT_TI_symbol_name("_Reset")
    2095                      .dwattr $C$DW$272, DW_AT_data_member_location[DW_OP_plus_uconst 0x20]
TMS320C2000 Assembler PC v6.4.11 Mon Sep 05 19:06:41 2016

Tools Copyright (c) 1996-2015 Texas Instruments Incorporated
C:\Users\bee25\AppData\Local\Temp\2813610                            PAGE   40

    2096                      .dwattr $C$DW$272, DW_AT_accessibility(DW_ACCESS_public)
    2097              $C$DW$273       .dwtag  DW_TAG_member
    2098                      .dwattr $C$DW$273, DW_AT_type(*$C$DW$T$29)
    2099                      .dwattr $C$DW$273, DW_AT_name("INT1")
    2100                      .dwattr $C$DW$273, DW_AT_TI_symbol_name("_INT1")
    2101                      .dwattr $C$DW$273, DW_AT_data_member_location[DW_OP_plus_uconst 0x22]
    2102                      .dwattr $C$DW$273, DW_AT_accessibility(DW_ACCESS_public)
    2103              $C$DW$274       .dwtag  DW_TAG_member
    2104                      .dwattr $C$DW$274, DW_AT_type(*$C$DW$T$29)
    2105                      .dwattr $C$DW$274, DW_AT_name("INT2")
    2106                      .dwattr $C$DW$274, DW_AT_TI_symbol_name("_INT2")
    2107                      .dwattr $C$DW$274, DW_AT_data_member_location[DW_OP_plus_uconst 0x24]
    2108                      .dwattr $C$DW$274, DW_AT_accessibility(DW_ACCESS_public)
    2109              $C$DW$275       .dwtag  DW_TAG_member
    2110                      .dwattr $C$DW$275, DW_AT_type(*$C$DW$T$29)
    2111                      .dwattr $C$DW$275, DW_AT_name("INT3")
    2112                      .dwattr $C$DW$275, DW_AT_TI_symbol_name("_INT3")
    2113                      .dwattr $C$DW$275, DW_AT_data_member_location[DW_OP_plus_uconst 0x26]
    2114                      .dwattr $C$DW$275, DW_AT_accessibility(DW_ACCESS_public)
    2115              $C$DW$276       .dwtag  DW_TAG_member
    2116                      .dwattr $C$DW$276, DW_AT_type(*$C$DW$T$29)
    2117                      .dwattr $C$DW$276, DW_AT_name("INT4")
    2118                      .dwattr $C$DW$276, DW_AT_TI_symbol_name("_INT4")
    2119                      .dwattr $C$DW$276, DW_AT_data_member_location[DW_OP_plus_uconst 0x28]
    2120                      .dwattr $C$DW$276, DW_AT_accessibility(DW_ACCESS_public)
    2121              $C$DW$277       .dwtag  DW_TAG_member
    2122                      .dwattr $C$DW$277, DW_AT_type(*$C$DW$T$29)
    2123                      .dwattr $C$DW$277, DW_AT_name("INT5")
    2124                      .dwattr $C$DW$277, DW_AT_TI_symbol_name("_INT5")
    2125                      .dwattr $C$DW$277, DW_AT_data_member_location[DW_OP_plus_uconst 0x2a]
    2126                      .dwattr $C$DW$277, DW_AT_accessibility(DW_ACCESS_public)
    2127              $C$DW$278       .dwtag  DW_TAG_member
    2128                      .dwattr $C$DW$278, DW_AT_type(*$C$DW$T$29)
    2129                      .dwattr $C$DW$278, DW_AT_name("INT6")
    2130                      .dwattr $C$DW$278, DW_AT_TI_symbol_name("_INT6")
    2131                      .dwattr $C$DW$278, DW_AT_data_member_location[DW_OP_plus_uconst 0x2c]
    2132                      .dwattr $C$DW$278, DW_AT_accessibility(DW_ACCESS_public)
    2133              $C$DW$279       .dwtag  DW_TAG_member
    2134                      .dwattr $C$DW$279, DW_AT_type(*$C$DW$T$29)
    2135                      .dwattr $C$DW$279, DW_AT_name("INT7")
    2136                      .dwattr $C$DW$279, DW_AT_TI_symbol_name("_INT7")
    2137                      .dwattr $C$DW$279, DW_AT_data_member_location[DW_OP_plus_uconst 0x2e]
    2138                      .dwattr $C$DW$279, DW_AT_accessibility(DW_ACCESS_public)
    2139              $C$DW$280       .dwtag  DW_TAG_member
    2140                      .dwattr $C$DW$280, DW_AT_type(*$C$DW$T$29)
    2141                      .dwattr $C$DW$280, DW_AT_name("INT8")
    2142                      .dwattr $C$DW$280, DW_AT_TI_symbol_name("_INT8")
    2143                      .dwattr $C$DW$280, DW_AT_data_member_location[DW_OP_plus_uconst 0x30]
    2144                      .dwattr $C$DW$280, DW_AT_accessibility(DW_ACCESS_public)
    2145              $C$DW$281       .dwtag  DW_TAG_member
    2146                      .dwattr $C$DW$281, DW_AT_type(*$C$DW$T$29)
    2147                      .dwattr $C$DW$281, DW_AT_name("INT9")
    2148                      .dwattr $C$DW$281, DW_AT_TI_symbol_name("_INT9")
    2149                      .dwattr $C$DW$281, DW_AT_data_member_location[DW_OP_plus_uconst 0x32]
    2150                      .dwattr $C$DW$281, DW_AT_accessibility(DW_ACCESS_public)
TMS320C2000 Assembler PC v6.4.11 Mon Sep 05 19:06:41 2016

Tools Copyright (c) 1996-2015 Texas Instruments Incorporated
C:\Users\bee25\AppData\Local\Temp\2813610                            PAGE   41

    2151              $C$DW$282       .dwtag  DW_TAG_member
    2152                      .dwattr $C$DW$282, DW_AT_type(*$C$DW$T$29)
    2153                      .dwattr $C$DW$282, DW_AT_name("INT10")
    2154                      .dwattr $C$DW$282, DW_AT_TI_symbol_name("_INT10")
    2155                      .dwattr $C$DW$282, DW_AT_data_member_location[DW_OP_plus_uconst 0x34]
    2156                      .dwattr $C$DW$282, DW_AT_accessibility(DW_ACCESS_public)
    2157              $C$DW$283       .dwtag  DW_TAG_member
    2158                      .dwattr $C$DW$283, DW_AT_type(*$C$DW$T$29)
    2159                      .dwattr $C$DW$283, DW_AT_name("INT11")
    2160                      .dwattr $C$DW$283, DW_AT_TI_symbol_name("_INT11")
    2161                      .dwattr $C$DW$283, DW_AT_data_member_location[DW_OP_plus_uconst 0x36]
    2162                      .dwattr $C$DW$283, DW_AT_accessibility(DW_ACCESS_public)
    2163              $C$DW$284       .dwtag  DW_TAG_member
    2164                      .dwattr $C$DW$284, DW_AT_type(*$C$DW$T$29)
    2165                      .dwattr $C$DW$284, DW_AT_name("INT12")
    2166                      .dwattr $C$DW$284, DW_AT_TI_symbol_name("_INT12")
    2167                      .dwattr $C$DW$284, DW_AT_data_member_location[DW_OP_plus_uconst 0x38]
    2168                      .dwattr $C$DW$284, DW_AT_accessibility(DW_ACCESS_public)
    2169              $C$DW$285       .dwtag  DW_TAG_member
    2170                      .dwattr $C$DW$285, DW_AT_type(*$C$DW$T$29)
    2171                      .dwattr $C$DW$285, DW_AT_name("TINT1")
    2172                      .dwattr $C$DW$285, DW_AT_TI_symbol_name("_TINT1")
    2173                      .dwattr $C$DW$285, DW_AT_data_member_location[DW_OP_plus_uconst 0x3a]
    2174                      .dwattr $C$DW$285, DW_AT_accessibility(DW_ACCESS_public)
    2175              $C$DW$286       .dwtag  DW_TAG_member
    2176                      .dwattr $C$DW$286, DW_AT_type(*$C$DW$T$29)
    2177                      .dwattr $C$DW$286, DW_AT_name("TINT2")
    2178                      .dwattr $C$DW$286, DW_AT_TI_symbol_name("_TINT2")
    2179                      .dwattr $C$DW$286, DW_AT_data_member_location[DW_OP_plus_uconst 0x3c]
    2180                      .dwattr $C$DW$286, DW_AT_accessibility(DW_ACCESS_public)
    2181              $C$DW$287       .dwtag  DW_TAG_member
    2182                      .dwattr $C$DW$287, DW_AT_type(*$C$DW$T$29)
    2183                      .dwattr $C$DW$287, DW_AT_name("DATALOG")
    2184                      .dwattr $C$DW$287, DW_AT_TI_symbol_name("_DATALOG")
    2185                      .dwattr $C$DW$287, DW_AT_data_member_location[DW_OP_plus_uconst 0x3e]
    2186                      .dwattr $C$DW$287, DW_AT_accessibility(DW_ACCESS_public)
    2187              $C$DW$288       .dwtag  DW_TAG_member
    2188                      .dwattr $C$DW$288, DW_AT_type(*$C$DW$T$29)
    2189                      .dwattr $C$DW$288, DW_AT_name("RTOSINT")
    2190                      .dwattr $C$DW$288, DW_AT_TI_symbol_name("_RTOSINT")
    2191                      .dwattr $C$DW$288, DW_AT_data_member_location[DW_OP_plus_uconst 0x40]
    2192                      .dwattr $C$DW$288, DW_AT_accessibility(DW_ACCESS_public)
    2193              $C$DW$289       .dwtag  DW_TAG_member
    2194                      .dwattr $C$DW$289, DW_AT_type(*$C$DW$T$29)
    2195                      .dwattr $C$DW$289, DW_AT_name("EMUINT")
    2196                      .dwattr $C$DW$289, DW_AT_TI_symbol_name("_EMUINT")
    2197                      .dwattr $C$DW$289, DW_AT_data_member_location[DW_OP_plus_uconst 0x42]
    2198                      .dwattr $C$DW$289, DW_AT_accessibility(DW_ACCESS_public)
    2199              $C$DW$290       .dwtag  DW_TAG_member
    2200                      .dwattr $C$DW$290, DW_AT_type(*$C$DW$T$29)
    2201                      .dwattr $C$DW$290, DW_AT_name("NMI")
    2202                      .dwattr $C$DW$290, DW_AT_TI_symbol_name("_NMI")
    2203                      .dwattr $C$DW$290, DW_AT_data_member_location[DW_OP_plus_uconst 0x44]
    2204                      .dwattr $C$DW$290, DW_AT_accessibility(DW_ACCESS_public)
    2205              $C$DW$291       .dwtag  DW_TAG_member
TMS320C2000 Assembler PC v6.4.11 Mon Sep 05 19:06:41 2016

Tools Copyright (c) 1996-2015 Texas Instruments Incorporated
C:\Users\bee25\AppData\Local\Temp\2813610                            PAGE   42

    2206                      .dwattr $C$DW$291, DW_AT_type(*$C$DW$T$29)
    2207                      .dwattr $C$DW$291, DW_AT_name("ILLEGAL")
    2208                      .dwattr $C$DW$291, DW_AT_TI_symbol_name("_ILLEGAL")
    2209                      .dwattr $C$DW$291, DW_AT_data_member_location[DW_OP_plus_uconst 0x46]
    2210                      .dwattr $C$DW$291, DW_AT_accessibility(DW_ACCESS_public)
    2211              $C$DW$292       .dwtag  DW_TAG_member
    2212                      .dwattr $C$DW$292, DW_AT_type(*$C$DW$T$29)
    2213                      .dwattr $C$DW$292, DW_AT_name("USER1")
    2214                      .dwattr $C$DW$292, DW_AT_TI_symbol_name("_USER1")
    2215                      .dwattr $C$DW$292, DW_AT_data_member_location[DW_OP_plus_uconst 0x48]
    2216                      .dwattr $C$DW$292, DW_AT_accessibility(DW_ACCESS_public)
    2217              $C$DW$293       .dwtag  DW_TAG_member
    2218                      .dwattr $C$DW$293, DW_AT_type(*$C$DW$T$29)
    2219                      .dwattr $C$DW$293, DW_AT_name("USER2")
    2220                      .dwattr $C$DW$293, DW_AT_TI_symbol_name("_USER2")
    2221                      .dwattr $C$DW$293, DW_AT_data_member_location[DW_OP_plus_uconst 0x4a]
    2222                      .dwattr $C$DW$293, DW_AT_accessibility(DW_ACCESS_public)
    2223              $C$DW$294       .dwtag  DW_TAG_member
    2224                      .dwattr $C$DW$294, DW_AT_type(*$C$DW$T$29)
    2225                      .dwattr $C$DW$294, DW_AT_name("USER3")
    2226                      .dwattr $C$DW$294, DW_AT_TI_symbol_name("_USER3")
    2227                      .dwattr $C$DW$294, DW_AT_data_member_location[DW_OP_plus_uconst 0x4c]
    2228                      .dwattr $C$DW$294, DW_AT_accessibility(DW_ACCESS_public)
    2229              $C$DW$295       .dwtag  DW_TAG_member
    2230                      .dwattr $C$DW$295, DW_AT_type(*$C$DW$T$29)
    2231                      .dwattr $C$DW$295, DW_AT_name("USER4")
    2232                      .dwattr $C$DW$295, DW_AT_TI_symbol_name("_USER4")
    2233                      .dwattr $C$DW$295, DW_AT_data_member_location[DW_OP_plus_uconst 0x4e]
    2234                      .dwattr $C$DW$295, DW_AT_accessibility(DW_ACCESS_public)
    2235              $C$DW$296       .dwtag  DW_TAG_member
    2236                      .dwattr $C$DW$296, DW_AT_type(*$C$DW$T$29)
    2237                      .dwattr $C$DW$296, DW_AT_name("USER5")
    2238                      .dwattr $C$DW$296, DW_AT_TI_symbol_name("_USER5")
    2239                      .dwattr $C$DW$296, DW_AT_data_member_location[DW_OP_plus_uconst 0x50]
    2240                      .dwattr $C$DW$296, DW_AT_accessibility(DW_ACCESS_public)
    2241              $C$DW$297       .dwtag  DW_TAG_member
    2242                      .dwattr $C$DW$297, DW_AT_type(*$C$DW$T$29)
    2243                      .dwattr $C$DW$297, DW_AT_name("USER6")
    2244                      .dwattr $C$DW$297, DW_AT_TI_symbol_name("_USER6")
    2245                      .dwattr $C$DW$297, DW_AT_data_member_location[DW_OP_plus_uconst 0x52]
    2246                      .dwattr $C$DW$297, DW_AT_accessibility(DW_ACCESS_public)
    2247              $C$DW$298       .dwtag  DW_TAG_member
    2248                      .dwattr $C$DW$298, DW_AT_type(*$C$DW$T$29)
    2249                      .dwattr $C$DW$298, DW_AT_name("USER7")
    2250                      .dwattr $C$DW$298, DW_AT_TI_symbol_name("_USER7")
    2251                      .dwattr $C$DW$298, DW_AT_data_member_location[DW_OP_plus_uconst 0x54]
    2252                      .dwattr $C$DW$298, DW_AT_accessibility(DW_ACCESS_public)
    2253              $C$DW$299       .dwtag  DW_TAG_member
    2254                      .dwattr $C$DW$299, DW_AT_type(*$C$DW$T$29)
    2255                      .dwattr $C$DW$299, DW_AT_name("USER8")
    2256                      .dwattr $C$DW$299, DW_AT_TI_symbol_name("_USER8")
    2257                      .dwattr $C$DW$299, DW_AT_data_member_location[DW_OP_plus_uconst 0x56]
    2258                      .dwattr $C$DW$299, DW_AT_accessibility(DW_ACCESS_public)
    2259              $C$DW$300       .dwtag  DW_TAG_member
    2260                      .dwattr $C$DW$300, DW_AT_type(*$C$DW$T$29)
TMS320C2000 Assembler PC v6.4.11 Mon Sep 05 19:06:41 2016

Tools Copyright (c) 1996-2015 Texas Instruments Incorporated
C:\Users\bee25\AppData\Local\Temp\2813610                            PAGE   43

    2261                      .dwattr $C$DW$300, DW_AT_name("USER9")
    2262                      .dwattr $C$DW$300, DW_AT_TI_symbol_name("_USER9")
    2263                      .dwattr $C$DW$300, DW_AT_data_member_location[DW_OP_plus_uconst 0x58]
    2264                      .dwattr $C$DW$300, DW_AT_accessibility(DW_ACCESS_public)
    2265              $C$DW$301       .dwtag  DW_TAG_member
    2266                      .dwattr $C$DW$301, DW_AT_type(*$C$DW$T$29)
    2267                      .dwattr $C$DW$301, DW_AT_name("USER10")
    2268                      .dwattr $C$DW$301, DW_AT_TI_symbol_name("_USER10")
    2269                      .dwattr $C$DW$301, DW_AT_data_member_location[DW_OP_plus_uconst 0x5a]
    2270                      .dwattr $C$DW$301, DW_AT_accessibility(DW_ACCESS_public)
    2271              $C$DW$302       .dwtag  DW_TAG_member
    2272                      .dwattr $C$DW$302, DW_AT_type(*$C$DW$T$29)
    2273                      .dwattr $C$DW$302, DW_AT_name("USER11")
    2274                      .dwattr $C$DW$302, DW_AT_TI_symbol_name("_USER11")
    2275                      .dwattr $C$DW$302, DW_AT_data_member_location[DW_OP_plus_uconst 0x5c]
    2276                      .dwattr $C$DW$302, DW_AT_accessibility(DW_ACCESS_public)
    2277              $C$DW$303       .dwtag  DW_TAG_member
    2278                      .dwattr $C$DW$303, DW_AT_type(*$C$DW$T$29)
    2279                      .dwattr $C$DW$303, DW_AT_name("USER12")
    2280                      .dwattr $C$DW$303, DW_AT_TI_symbol_name("_USER12")
    2281                      .dwattr $C$DW$303, DW_AT_data_member_location[DW_OP_plus_uconst 0x5e]
    2282                      .dwattr $C$DW$303, DW_AT_accessibility(DW_ACCESS_public)
    2283              $C$DW$304       .dwtag  DW_TAG_member
    2284                      .dwattr $C$DW$304, DW_AT_type(*$C$DW$T$29)
    2285                      .dwattr $C$DW$304, DW_AT_name("ADCINT1_HP")
    2286                      .dwattr $C$DW$304, DW_AT_TI_symbol_name("_ADCINT1_HP")
    2287                      .dwattr $C$DW$304, DW_AT_data_member_location[DW_OP_plus_uconst 0x60]
    2288                      .dwattr $C$DW$304, DW_AT_accessibility(DW_ACCESS_public)
    2289              $C$DW$305       .dwtag  DW_TAG_member
    2290                      .dwattr $C$DW$305, DW_AT_type(*$C$DW$T$29)
    2291                      .dwattr $C$DW$305, DW_AT_name("ADCINT2_HP")
    2292                      .dwattr $C$DW$305, DW_AT_TI_symbol_name("_ADCINT2_HP")
    2293                      .dwattr $C$DW$305, DW_AT_data_member_location[DW_OP_plus_uconst 0x62]
    2294                      .dwattr $C$DW$305, DW_AT_accessibility(DW_ACCESS_public)
    2295              $C$DW$306       .dwtag  DW_TAG_member
    2296                      .dwattr $C$DW$306, DW_AT_type(*$C$DW$T$29)
    2297                      .dwattr $C$DW$306, DW_AT_name("rsvd1_3")
    2298                      .dwattr $C$DW$306, DW_AT_TI_symbol_name("_rsvd1_3")
    2299                      .dwattr $C$DW$306, DW_AT_data_member_location[DW_OP_plus_uconst 0x64]
    2300                      .dwattr $C$DW$306, DW_AT_accessibility(DW_ACCESS_public)
    2301              $C$DW$307       .dwtag  DW_TAG_member
    2302                      .dwattr $C$DW$307, DW_AT_type(*$C$DW$T$29)
    2303                      .dwattr $C$DW$307, DW_AT_name("XINT1")
    2304                      .dwattr $C$DW$307, DW_AT_TI_symbol_name("_XINT1")
    2305                      .dwattr $C$DW$307, DW_AT_data_member_location[DW_OP_plus_uconst 0x66]
    2306                      .dwattr $C$DW$307, DW_AT_accessibility(DW_ACCESS_public)
    2307              $C$DW$308       .dwtag  DW_TAG_member
    2308                      .dwattr $C$DW$308, DW_AT_type(*$C$DW$T$29)
    2309                      .dwattr $C$DW$308, DW_AT_name("XINT2")
    2310                      .dwattr $C$DW$308, DW_AT_TI_symbol_name("_XINT2")
    2311                      .dwattr $C$DW$308, DW_AT_data_member_location[DW_OP_plus_uconst 0x68]
    2312                      .dwattr $C$DW$308, DW_AT_accessibility(DW_ACCESS_public)
    2313              $C$DW$309       .dwtag  DW_TAG_member
    2314                      .dwattr $C$DW$309, DW_AT_type(*$C$DW$T$29)
    2315                      .dwattr $C$DW$309, DW_AT_name("ADCINT9")
TMS320C2000 Assembler PC v6.4.11 Mon Sep 05 19:06:41 2016

Tools Copyright (c) 1996-2015 Texas Instruments Incorporated
C:\Users\bee25\AppData\Local\Temp\2813610                            PAGE   44

    2316                      .dwattr $C$DW$309, DW_AT_TI_symbol_name("_ADCINT9")
    2317                      .dwattr $C$DW$309, DW_AT_data_member_location[DW_OP_plus_uconst 0x6a]
    2318                      .dwattr $C$DW$309, DW_AT_accessibility(DW_ACCESS_public)
    2319              $C$DW$310       .dwtag  DW_TAG_member
    2320                      .dwattr $C$DW$310, DW_AT_type(*$C$DW$T$29)
    2321                      .dwattr $C$DW$310, DW_AT_name("TINT0")
    2322                      .dwattr $C$DW$310, DW_AT_TI_symbol_name("_TINT0")
    2323                      .dwattr $C$DW$310, DW_AT_data_member_location[DW_OP_plus_uconst 0x6c]
    2324                      .dwattr $C$DW$310, DW_AT_accessibility(DW_ACCESS_public)
    2325              $C$DW$311       .dwtag  DW_TAG_member
    2326                      .dwattr $C$DW$311, DW_AT_type(*$C$DW$T$29)
    2327                      .dwattr $C$DW$311, DW_AT_name("WAKEINT")
    2328                      .dwattr $C$DW$311, DW_AT_TI_symbol_name("_WAKEINT")
    2329                      .dwattr $C$DW$311, DW_AT_data_member_location[DW_OP_plus_uconst 0x6e]
    2330                      .dwattr $C$DW$311, DW_AT_accessibility(DW_ACCESS_public)
    2331              $C$DW$312       .dwtag  DW_TAG_member
    2332                      .dwattr $C$DW$312, DW_AT_type(*$C$DW$T$29)
    2333                      .dwattr $C$DW$312, DW_AT_name("EPWM1_TZINT")
    2334                      .dwattr $C$DW$312, DW_AT_TI_symbol_name("_EPWM1_TZINT")
    2335                      .dwattr $C$DW$312, DW_AT_data_member_location[DW_OP_plus_uconst 0x70]
    2336                      .dwattr $C$DW$312, DW_AT_accessibility(DW_ACCESS_public)
    2337              $C$DW$313       .dwtag  DW_TAG_member
    2338                      .dwattr $C$DW$313, DW_AT_type(*$C$DW$T$29)
    2339                      .dwattr $C$DW$313, DW_AT_name("EPWM2_TZINT")
    2340                      .dwattr $C$DW$313, DW_AT_TI_symbol_name("_EPWM2_TZINT")
    2341                      .dwattr $C$DW$313, DW_AT_data_member_location[DW_OP_plus_uconst 0x72]
    2342                      .dwattr $C$DW$313, DW_AT_accessibility(DW_ACCESS_public)
    2343              $C$DW$314       .dwtag  DW_TAG_member
    2344                      .dwattr $C$DW$314, DW_AT_type(*$C$DW$T$29)
    2345                      .dwattr $C$DW$314, DW_AT_name("EPWM3_TZINT")
    2346                      .dwattr $C$DW$314, DW_AT_TI_symbol_name("_EPWM3_TZINT")
    2347                      .dwattr $C$DW$314, DW_AT_data_member_location[DW_OP_plus_uconst 0x74]
    2348                      .dwattr $C$DW$314, DW_AT_accessibility(DW_ACCESS_public)
    2349              $C$DW$315       .dwtag  DW_TAG_member
    2350                      .dwattr $C$DW$315, DW_AT_type(*$C$DW$T$29)
    2351                      .dwattr $C$DW$315, DW_AT_name("EPWM4_TZINT")
    2352                      .dwattr $C$DW$315, DW_AT_TI_symbol_name("_EPWM4_TZINT")
    2353                      .dwattr $C$DW$315, DW_AT_data_member_location[DW_OP_plus_uconst 0x76]
    2354                      .dwattr $C$DW$315, DW_AT_accessibility(DW_ACCESS_public)
    2355              $C$DW$316       .dwtag  DW_TAG_member
    2356                      .dwattr $C$DW$316, DW_AT_type(*$C$DW$T$29)
    2357                      .dwattr $C$DW$316, DW_AT_name("rsvd2_5")
    2358                      .dwattr $C$DW$316, DW_AT_TI_symbol_name("_rsvd2_5")
    2359                      .dwattr $C$DW$316, DW_AT_data_member_location[DW_OP_plus_uconst 0x78]
    2360                      .dwattr $C$DW$316, DW_AT_accessibility(DW_ACCESS_public)
    2361              $C$DW$317       .dwtag  DW_TAG_member
    2362                      .dwattr $C$DW$317, DW_AT_type(*$C$DW$T$29)
    2363                      .dwattr $C$DW$317, DW_AT_name("rsvd2_6")
    2364                      .dwattr $C$DW$317, DW_AT_TI_symbol_name("_rsvd2_6")
    2365                      .dwattr $C$DW$317, DW_AT_data_member_location[DW_OP_plus_uconst 0x7a]
    2366                      .dwattr $C$DW$317, DW_AT_accessibility(DW_ACCESS_public)
    2367              $C$DW$318       .dwtag  DW_TAG_member
    2368                      .dwattr $C$DW$318, DW_AT_type(*$C$DW$T$29)
    2369                      .dwattr $C$DW$318, DW_AT_name("rsvd2_7")
    2370                      .dwattr $C$DW$318, DW_AT_TI_symbol_name("_rsvd2_7")
TMS320C2000 Assembler PC v6.4.11 Mon Sep 05 19:06:41 2016

Tools Copyright (c) 1996-2015 Texas Instruments Incorporated
C:\Users\bee25\AppData\Local\Temp\2813610                            PAGE   45

    2371                      .dwattr $C$DW$318, DW_AT_data_member_location[DW_OP_plus_uconst 0x7c]
    2372                      .dwattr $C$DW$318, DW_AT_accessibility(DW_ACCESS_public)
    2373              $C$DW$319       .dwtag  DW_TAG_member
    2374                      .dwattr $C$DW$319, DW_AT_type(*$C$DW$T$29)
    2375                      .dwattr $C$DW$319, DW_AT_name("rsvd2_8")
    2376                      .dwattr $C$DW$319, DW_AT_TI_symbol_name("_rsvd2_8")
    2377                      .dwattr $C$DW$319, DW_AT_data_member_location[DW_OP_plus_uconst 0x7e]
    2378                      .dwattr $C$DW$319, DW_AT_accessibility(DW_ACCESS_public)
    2379              $C$DW$320       .dwtag  DW_TAG_member
    2380                      .dwattr $C$DW$320, DW_AT_type(*$C$DW$T$29)
    2381                      .dwattr $C$DW$320, DW_AT_name("EPWM1_INT")
    2382                      .dwattr $C$DW$320, DW_AT_TI_symbol_name("_EPWM1_INT")
    2383                      .dwattr $C$DW$320, DW_AT_data_member_location[DW_OP_plus_uconst 0x80]
    2384                      .dwattr $C$DW$320, DW_AT_accessibility(DW_ACCESS_public)
    2385              $C$DW$321       .dwtag  DW_TAG_member
    2386                      .dwattr $C$DW$321, DW_AT_type(*$C$DW$T$29)
    2387                      .dwattr $C$DW$321, DW_AT_name("EPWM2_INT")
    2388                      .dwattr $C$DW$321, DW_AT_TI_symbol_name("_EPWM2_INT")
    2389                      .dwattr $C$DW$321, DW_AT_data_member_location[DW_OP_plus_uconst 0x82]
    2390                      .dwattr $C$DW$321, DW_AT_accessibility(DW_ACCESS_public)
    2391              $C$DW$322       .dwtag  DW_TAG_member
    2392                      .dwattr $C$DW$322, DW_AT_type(*$C$DW$T$29)
    2393                      .dwattr $C$DW$322, DW_AT_name("EPWM3_INT")
    2394                      .dwattr $C$DW$322, DW_AT_TI_symbol_name("_EPWM3_INT")
    2395                      .dwattr $C$DW$322, DW_AT_data_member_location[DW_OP_plus_uconst 0x84]
    2396                      .dwattr $C$DW$322, DW_AT_accessibility(DW_ACCESS_public)
    2397              $C$DW$323       .dwtag  DW_TAG_member
    2398                      .dwattr $C$DW$323, DW_AT_type(*$C$DW$T$29)
    2399                      .dwattr $C$DW$323, DW_AT_name("EPWM4_INT")
    2400                      .dwattr $C$DW$323, DW_AT_TI_symbol_name("_EPWM4_INT")
    2401                      .dwattr $C$DW$323, DW_AT_data_member_location[DW_OP_plus_uconst 0x86]
    2402                      .dwattr $C$DW$323, DW_AT_accessibility(DW_ACCESS_public)
    2403              $C$DW$324       .dwtag  DW_TAG_member
    2404                      .dwattr $C$DW$324, DW_AT_type(*$C$DW$T$29)
    2405                      .dwattr $C$DW$324, DW_AT_name("rsvd3_5")
    2406                      .dwattr $C$DW$324, DW_AT_TI_symbol_name("_rsvd3_5")
    2407                      .dwattr $C$DW$324, DW_AT_data_member_location[DW_OP_plus_uconst 0x88]
    2408                      .dwattr $C$DW$324, DW_AT_accessibility(DW_ACCESS_public)
    2409              $C$DW$325       .dwtag  DW_TAG_member
    2410                      .dwattr $C$DW$325, DW_AT_type(*$C$DW$T$29)
    2411                      .dwattr $C$DW$325, DW_AT_name("rsvd3_6")
    2412                      .dwattr $C$DW$325, DW_AT_TI_symbol_name("_rsvd3_6")
    2413                      .dwattr $C$DW$325, DW_AT_data_member_location[DW_OP_plus_uconst 0x8a]
    2414                      .dwattr $C$DW$325, DW_AT_accessibility(DW_ACCESS_public)
    2415              $C$DW$326       .dwtag  DW_TAG_member
    2416                      .dwattr $C$DW$326, DW_AT_type(*$C$DW$T$29)
    2417                      .dwattr $C$DW$326, DW_AT_name("rsvd3_7")
    2418                      .dwattr $C$DW$326, DW_AT_TI_symbol_name("_rsvd3_7")
    2419                      .dwattr $C$DW$326, DW_AT_data_member_location[DW_OP_plus_uconst 0x8c]
    2420                      .dwattr $C$DW$326, DW_AT_accessibility(DW_ACCESS_public)
    2421              $C$DW$327       .dwtag  DW_TAG_member
    2422                      .dwattr $C$DW$327, DW_AT_type(*$C$DW$T$29)
    2423                      .dwattr $C$DW$327, DW_AT_name("rsvd3_8")
    2424                      .dwattr $C$DW$327, DW_AT_TI_symbol_name("_rsvd3_8")
    2425                      .dwattr $C$DW$327, DW_AT_data_member_location[DW_OP_plus_uconst 0x8e]
TMS320C2000 Assembler PC v6.4.11 Mon Sep 05 19:06:41 2016

Tools Copyright (c) 1996-2015 Texas Instruments Incorporated
C:\Users\bee25\AppData\Local\Temp\2813610                            PAGE   46

    2426                      .dwattr $C$DW$327, DW_AT_accessibility(DW_ACCESS_public)
    2427              $C$DW$328       .dwtag  DW_TAG_member
    2428                      .dwattr $C$DW$328, DW_AT_type(*$C$DW$T$29)
    2429                      .dwattr $C$DW$328, DW_AT_name("ECAP1_INT")
    2430                      .dwattr $C$DW$328, DW_AT_TI_symbol_name("_ECAP1_INT")
    2431                      .dwattr $C$DW$328, DW_AT_data_member_location[DW_OP_plus_uconst 0x90]
    2432                      .dwattr $C$DW$328, DW_AT_accessibility(DW_ACCESS_public)
    2433              $C$DW$329       .dwtag  DW_TAG_member
    2434                      .dwattr $C$DW$329, DW_AT_type(*$C$DW$T$29)
    2435                      .dwattr $C$DW$329, DW_AT_name("rsvd4_2")
    2436                      .dwattr $C$DW$329, DW_AT_TI_symbol_name("_rsvd4_2")
    2437                      .dwattr $C$DW$329, DW_AT_data_member_location[DW_OP_plus_uconst 0x92]
    2438                      .dwattr $C$DW$329, DW_AT_accessibility(DW_ACCESS_public)
    2439              $C$DW$330       .dwtag  DW_TAG_member
    2440                      .dwattr $C$DW$330, DW_AT_type(*$C$DW$T$29)
    2441                      .dwattr $C$DW$330, DW_AT_name("rsvd4_3")
    2442                      .dwattr $C$DW$330, DW_AT_TI_symbol_name("_rsvd4_3")
    2443                      .dwattr $C$DW$330, DW_AT_data_member_location[DW_OP_plus_uconst 0x94]
    2444                      .dwattr $C$DW$330, DW_AT_accessibility(DW_ACCESS_public)
    2445              $C$DW$331       .dwtag  DW_TAG_member
    2446                      .dwattr $C$DW$331, DW_AT_type(*$C$DW$T$29)
    2447                      .dwattr $C$DW$331, DW_AT_name("rsvd4_4")
    2448                      .dwattr $C$DW$331, DW_AT_TI_symbol_name("_rsvd4_4")
    2449                      .dwattr $C$DW$331, DW_AT_data_member_location[DW_OP_plus_uconst 0x96]
    2450                      .dwattr $C$DW$331, DW_AT_accessibility(DW_ACCESS_public)
    2451              $C$DW$332       .dwtag  DW_TAG_member
    2452                      .dwattr $C$DW$332, DW_AT_type(*$C$DW$T$29)
    2453                      .dwattr $C$DW$332, DW_AT_name("rsvd4_5")
    2454                      .dwattr $C$DW$332, DW_AT_TI_symbol_name("_rsvd4_5")
    2455                      .dwattr $C$DW$332, DW_AT_data_member_location[DW_OP_plus_uconst 0x98]
    2456                      .dwattr $C$DW$332, DW_AT_accessibility(DW_ACCESS_public)
    2457              $C$DW$333       .dwtag  DW_TAG_member
    2458                      .dwattr $C$DW$333, DW_AT_type(*$C$DW$T$29)
    2459                      .dwattr $C$DW$333, DW_AT_name("rsvd4_6")
    2460                      .dwattr $C$DW$333, DW_AT_TI_symbol_name("_rsvd4_6")
    2461                      .dwattr $C$DW$333, DW_AT_data_member_location[DW_OP_plus_uconst 0x9a]
    2462                      .dwattr $C$DW$333, DW_AT_accessibility(DW_ACCESS_public)
    2463              $C$DW$334       .dwtag  DW_TAG_member
    2464                      .dwattr $C$DW$334, DW_AT_type(*$C$DW$T$29)
    2465                      .dwattr $C$DW$334, DW_AT_name("rsvd4_7")
    2466                      .dwattr $C$DW$334, DW_AT_TI_symbol_name("_rsvd4_7")
    2467                      .dwattr $C$DW$334, DW_AT_data_member_location[DW_OP_plus_uconst 0x9c]
    2468                      .dwattr $C$DW$334, DW_AT_accessibility(DW_ACCESS_public)
    2469              $C$DW$335       .dwtag  DW_TAG_member
    2470                      .dwattr $C$DW$335, DW_AT_type(*$C$DW$T$29)
    2471                      .dwattr $C$DW$335, DW_AT_name("rsvd4_8")
    2472                      .dwattr $C$DW$335, DW_AT_TI_symbol_name("_rsvd4_8")
    2473                      .dwattr $C$DW$335, DW_AT_data_member_location[DW_OP_plus_uconst 0x9e]
    2474                      .dwattr $C$DW$335, DW_AT_accessibility(DW_ACCESS_public)
    2475              $C$DW$336       .dwtag  DW_TAG_member
    2476                      .dwattr $C$DW$336, DW_AT_type(*$C$DW$T$29)
    2477                      .dwattr $C$DW$336, DW_AT_name("rsvd5_1")
    2478                      .dwattr $C$DW$336, DW_AT_TI_symbol_name("_rsvd5_1")
    2479                      .dwattr $C$DW$336, DW_AT_data_member_location[DW_OP_plus_uconst 0xa0]
    2480                      .dwattr $C$DW$336, DW_AT_accessibility(DW_ACCESS_public)
TMS320C2000 Assembler PC v6.4.11 Mon Sep 05 19:06:41 2016

Tools Copyright (c) 1996-2015 Texas Instruments Incorporated
C:\Users\bee25\AppData\Local\Temp\2813610                            PAGE   47

    2481              $C$DW$337       .dwtag  DW_TAG_member
    2482                      .dwattr $C$DW$337, DW_AT_type(*$C$DW$T$29)
    2483                      .dwattr $C$DW$337, DW_AT_name("rsvd5_2")
    2484                      .dwattr $C$DW$337, DW_AT_TI_symbol_name("_rsvd5_2")
    2485                      .dwattr $C$DW$337, DW_AT_data_member_location[DW_OP_plus_uconst 0xa2]
    2486                      .dwattr $C$DW$337, DW_AT_accessibility(DW_ACCESS_public)
    2487              $C$DW$338       .dwtag  DW_TAG_member
    2488                      .dwattr $C$DW$338, DW_AT_type(*$C$DW$T$29)
    2489                      .dwattr $C$DW$338, DW_AT_name("rsvd5_3")
    2490                      .dwattr $C$DW$338, DW_AT_TI_symbol_name("_rsvd5_3")
    2491                      .dwattr $C$DW$338, DW_AT_data_member_location[DW_OP_plus_uconst 0xa4]
    2492                      .dwattr $C$DW$338, DW_AT_accessibility(DW_ACCESS_public)
    2493              $C$DW$339       .dwtag  DW_TAG_member
    2494                      .dwattr $C$DW$339, DW_AT_type(*$C$DW$T$29)
    2495                      .dwattr $C$DW$339, DW_AT_name("rsvd5_4")
    2496                      .dwattr $C$DW$339, DW_AT_TI_symbol_name("_rsvd5_4")
    2497                      .dwattr $C$DW$339, DW_AT_data_member_location[DW_OP_plus_uconst 0xa6]
    2498                      .dwattr $C$DW$339, DW_AT_accessibility(DW_ACCESS_public)
    2499              $C$DW$340       .dwtag  DW_TAG_member
    2500                      .dwattr $C$DW$340, DW_AT_type(*$C$DW$T$29)
    2501                      .dwattr $C$DW$340, DW_AT_name("rsvd5_5")
    2502                      .dwattr $C$DW$340, DW_AT_TI_symbol_name("_rsvd5_5")
    2503                      .dwattr $C$DW$340, DW_AT_data_member_location[DW_OP_plus_uconst 0xa8]
    2504                      .dwattr $C$DW$340, DW_AT_accessibility(DW_ACCESS_public)
    2505              $C$DW$341       .dwtag  DW_TAG_member
    2506                      .dwattr $C$DW$341, DW_AT_type(*$C$DW$T$29)
    2507                      .dwattr $C$DW$341, DW_AT_name("rsvd5_6")
    2508                      .dwattr $C$DW$341, DW_AT_TI_symbol_name("_rsvd5_6")
    2509                      .dwattr $C$DW$341, DW_AT_data_member_location[DW_OP_plus_uconst 0xaa]
    2510                      .dwattr $C$DW$341, DW_AT_accessibility(DW_ACCESS_public)
    2511              $C$DW$342       .dwtag  DW_TAG_member
    2512                      .dwattr $C$DW$342, DW_AT_type(*$C$DW$T$29)
    2513                      .dwattr $C$DW$342, DW_AT_name("rsvd5_7")
    2514                      .dwattr $C$DW$342, DW_AT_TI_symbol_name("_rsvd5_7")
    2515                      .dwattr $C$DW$342, DW_AT_data_member_location[DW_OP_plus_uconst 0xac]
    2516                      .dwattr $C$DW$342, DW_AT_accessibility(DW_ACCESS_public)
    2517              $C$DW$343       .dwtag  DW_TAG_member
    2518                      .dwattr $C$DW$343, DW_AT_type(*$C$DW$T$29)
    2519                      .dwattr $C$DW$343, DW_AT_name("rsvd5_8")
    2520                      .dwattr $C$DW$343, DW_AT_TI_symbol_name("_rsvd5_8")
    2521                      .dwattr $C$DW$343, DW_AT_data_member_location[DW_OP_plus_uconst 0xae]
    2522                      .dwattr $C$DW$343, DW_AT_accessibility(DW_ACCESS_public)
    2523              $C$DW$344       .dwtag  DW_TAG_member
    2524                      .dwattr $C$DW$344, DW_AT_type(*$C$DW$T$29)
    2525                      .dwattr $C$DW$344, DW_AT_name("SPIRXINTA")
    2526                      .dwattr $C$DW$344, DW_AT_TI_symbol_name("_SPIRXINTA")
    2527                      .dwattr $C$DW$344, DW_AT_data_member_location[DW_OP_plus_uconst 0xb0]
    2528                      .dwattr $C$DW$344, DW_AT_accessibility(DW_ACCESS_public)
    2529              $C$DW$345       .dwtag  DW_TAG_member
    2530                      .dwattr $C$DW$345, DW_AT_type(*$C$DW$T$29)
    2531                      .dwattr $C$DW$345, DW_AT_name("SPITXINTA")
    2532                      .dwattr $C$DW$345, DW_AT_TI_symbol_name("_SPITXINTA")
    2533                      .dwattr $C$DW$345, DW_AT_data_member_location[DW_OP_plus_uconst 0xb2]
    2534                      .dwattr $C$DW$345, DW_AT_accessibility(DW_ACCESS_public)
    2535              $C$DW$346       .dwtag  DW_TAG_member
TMS320C2000 Assembler PC v6.4.11 Mon Sep 05 19:06:41 2016

Tools Copyright (c) 1996-2015 Texas Instruments Incorporated
C:\Users\bee25\AppData\Local\Temp\2813610                            PAGE   48

    2536                      .dwattr $C$DW$346, DW_AT_type(*$C$DW$T$29)
    2537                      .dwattr $C$DW$346, DW_AT_name("rsvd6_3")
    2538                      .dwattr $C$DW$346, DW_AT_TI_symbol_name("_rsvd6_3")
    2539                      .dwattr $C$DW$346, DW_AT_data_member_location[DW_OP_plus_uconst 0xb4]
    2540                      .dwattr $C$DW$346, DW_AT_accessibility(DW_ACCESS_public)
    2541              $C$DW$347       .dwtag  DW_TAG_member
    2542                      .dwattr $C$DW$347, DW_AT_type(*$C$DW$T$29)
    2543                      .dwattr $C$DW$347, DW_AT_name("rsvd6_4")
    2544                      .dwattr $C$DW$347, DW_AT_TI_symbol_name("_rsvd6_4")
    2545                      .dwattr $C$DW$347, DW_AT_data_member_location[DW_OP_plus_uconst 0xb6]
    2546                      .dwattr $C$DW$347, DW_AT_accessibility(DW_ACCESS_public)
    2547              $C$DW$348       .dwtag  DW_TAG_member
    2548                      .dwattr $C$DW$348, DW_AT_type(*$C$DW$T$29)
    2549                      .dwattr $C$DW$348, DW_AT_name("rsvd6_5")
    2550                      .dwattr $C$DW$348, DW_AT_TI_symbol_name("_rsvd6_5")
    2551                      .dwattr $C$DW$348, DW_AT_data_member_location[DW_OP_plus_uconst 0xb8]
    2552                      .dwattr $C$DW$348, DW_AT_accessibility(DW_ACCESS_public)
    2553              $C$DW$349       .dwtag  DW_TAG_member
    2554                      .dwattr $C$DW$349, DW_AT_type(*$C$DW$T$29)
    2555                      .dwattr $C$DW$349, DW_AT_name("rsvd6_6")
    2556                      .dwattr $C$DW$349, DW_AT_TI_symbol_name("_rsvd6_6")
    2557                      .dwattr $C$DW$349, DW_AT_data_member_location[DW_OP_plus_uconst 0xba]
    2558                      .dwattr $C$DW$349, DW_AT_accessibility(DW_ACCESS_public)
    2559              $C$DW$350       .dwtag  DW_TAG_member
    2560                      .dwattr $C$DW$350, DW_AT_type(*$C$DW$T$29)
    2561                      .dwattr $C$DW$350, DW_AT_name("rsvd6_7")
    2562                      .dwattr $C$DW$350, DW_AT_TI_symbol_name("_rsvd6_7")
    2563                      .dwattr $C$DW$350, DW_AT_data_member_location[DW_OP_plus_uconst 0xbc]
    2564                      .dwattr $C$DW$350, DW_AT_accessibility(DW_ACCESS_public)
    2565              $C$DW$351       .dwtag  DW_TAG_member
    2566                      .dwattr $C$DW$351, DW_AT_type(*$C$DW$T$29)
    2567                      .dwattr $C$DW$351, DW_AT_name("rsvd6_8")
    2568                      .dwattr $C$DW$351, DW_AT_TI_symbol_name("_rsvd6_8")
    2569                      .dwattr $C$DW$351, DW_AT_data_member_location[DW_OP_plus_uconst 0xbe]
    2570                      .dwattr $C$DW$351, DW_AT_accessibility(DW_ACCESS_public)
    2571              $C$DW$352       .dwtag  DW_TAG_member
    2572                      .dwattr $C$DW$352, DW_AT_type(*$C$DW$T$29)
    2573                      .dwattr $C$DW$352, DW_AT_name("rsvd7_1")
    2574                      .dwattr $C$DW$352, DW_AT_TI_symbol_name("_rsvd7_1")
    2575                      .dwattr $C$DW$352, DW_AT_data_member_location[DW_OP_plus_uconst 0xc0]
    2576                      .dwattr $C$DW$352, DW_AT_accessibility(DW_ACCESS_public)
    2577              $C$DW$353       .dwtag  DW_TAG_member
    2578                      .dwattr $C$DW$353, DW_AT_type(*$C$DW$T$29)
    2579                      .dwattr $C$DW$353, DW_AT_name("rsvd7_2")
    2580                      .dwattr $C$DW$353, DW_AT_TI_symbol_name("_rsvd7_2")
    2581                      .dwattr $C$DW$353, DW_AT_data_member_location[DW_OP_plus_uconst 0xc2]
    2582                      .dwattr $C$DW$353, DW_AT_accessibility(DW_ACCESS_public)
    2583              $C$DW$354       .dwtag  DW_TAG_member
    2584                      .dwattr $C$DW$354, DW_AT_type(*$C$DW$T$29)
    2585                      .dwattr $C$DW$354, DW_AT_name("rsvd7_3")
    2586                      .dwattr $C$DW$354, DW_AT_TI_symbol_name("_rsvd7_3")
    2587                      .dwattr $C$DW$354, DW_AT_data_member_location[DW_OP_plus_uconst 0xc4]
    2588                      .dwattr $C$DW$354, DW_AT_accessibility(DW_ACCESS_public)
    2589              $C$DW$355       .dwtag  DW_TAG_member
    2590                      .dwattr $C$DW$355, DW_AT_type(*$C$DW$T$29)
TMS320C2000 Assembler PC v6.4.11 Mon Sep 05 19:06:41 2016

Tools Copyright (c) 1996-2015 Texas Instruments Incorporated
C:\Users\bee25\AppData\Local\Temp\2813610                            PAGE   49

    2591                      .dwattr $C$DW$355, DW_AT_name("rsvd7_4")
    2592                      .dwattr $C$DW$355, DW_AT_TI_symbol_name("_rsvd7_4")
    2593                      .dwattr $C$DW$355, DW_AT_data_member_location[DW_OP_plus_uconst 0xc6]
    2594                      .dwattr $C$DW$355, DW_AT_accessibility(DW_ACCESS_public)
    2595              $C$DW$356       .dwtag  DW_TAG_member
    2596                      .dwattr $C$DW$356, DW_AT_type(*$C$DW$T$29)
    2597                      .dwattr $C$DW$356, DW_AT_name("rsvd7_5")
    2598                      .dwattr $C$DW$356, DW_AT_TI_symbol_name("_rsvd7_5")
    2599                      .dwattr $C$DW$356, DW_AT_data_member_location[DW_OP_plus_uconst 0xc8]
    2600                      .dwattr $C$DW$356, DW_AT_accessibility(DW_ACCESS_public)
    2601              $C$DW$357       .dwtag  DW_TAG_member
    2602                      .dwattr $C$DW$357, DW_AT_type(*$C$DW$T$29)
    2603                      .dwattr $C$DW$357, DW_AT_name("rsvd7_6")
    2604                      .dwattr $C$DW$357, DW_AT_TI_symbol_name("_rsvd7_6")
    2605                      .dwattr $C$DW$357, DW_AT_data_member_location[DW_OP_plus_uconst 0xca]
    2606                      .dwattr $C$DW$357, DW_AT_accessibility(DW_ACCESS_public)
    2607              $C$DW$358       .dwtag  DW_TAG_member
    2608                      .dwattr $C$DW$358, DW_AT_type(*$C$DW$T$29)
    2609                      .dwattr $C$DW$358, DW_AT_name("rsvd7_7")
    2610                      .dwattr $C$DW$358, DW_AT_TI_symbol_name("_rsvd7_7")
    2611                      .dwattr $C$DW$358, DW_AT_data_member_location[DW_OP_plus_uconst 0xcc]
    2612                      .dwattr $C$DW$358, DW_AT_accessibility(DW_ACCESS_public)
    2613              $C$DW$359       .dwtag  DW_TAG_member
    2614                      .dwattr $C$DW$359, DW_AT_type(*$C$DW$T$29)
    2615                      .dwattr $C$DW$359, DW_AT_name("rsvd7_8")
    2616                      .dwattr $C$DW$359, DW_AT_TI_symbol_name("_rsvd7_8")
    2617                      .dwattr $C$DW$359, DW_AT_data_member_location[DW_OP_plus_uconst 0xce]
    2618                      .dwattr $C$DW$359, DW_AT_accessibility(DW_ACCESS_public)
    2619              $C$DW$360       .dwtag  DW_TAG_member
    2620                      .dwattr $C$DW$360, DW_AT_type(*$C$DW$T$29)
    2621                      .dwattr $C$DW$360, DW_AT_name("I2CINT1A")
    2622                      .dwattr $C$DW$360, DW_AT_TI_symbol_name("_I2CINT1A")
    2623                      .dwattr $C$DW$360, DW_AT_data_member_location[DW_OP_plus_uconst 0xd0]
    2624                      .dwattr $C$DW$360, DW_AT_accessibility(DW_ACCESS_public)
    2625              $C$DW$361       .dwtag  DW_TAG_member
    2626                      .dwattr $C$DW$361, DW_AT_type(*$C$DW$T$29)
    2627                      .dwattr $C$DW$361, DW_AT_name("I2CINT2A")
    2628                      .dwattr $C$DW$361, DW_AT_TI_symbol_name("_I2CINT2A")
    2629                      .dwattr $C$DW$361, DW_AT_data_member_location[DW_OP_plus_uconst 0xd2]
    2630                      .dwattr $C$DW$361, DW_AT_accessibility(DW_ACCESS_public)
    2631              $C$DW$362       .dwtag  DW_TAG_member
    2632                      .dwattr $C$DW$362, DW_AT_type(*$C$DW$T$29)
    2633                      .dwattr $C$DW$362, DW_AT_name("rsvd8_3")
    2634                      .dwattr $C$DW$362, DW_AT_TI_symbol_name("_rsvd8_3")
    2635                      .dwattr $C$DW$362, DW_AT_data_member_location[DW_OP_plus_uconst 0xd4]
    2636                      .dwattr $C$DW$362, DW_AT_accessibility(DW_ACCESS_public)
    2637              $C$DW$363       .dwtag  DW_TAG_member
    2638                      .dwattr $C$DW$363, DW_AT_type(*$C$DW$T$29)
    2639                      .dwattr $C$DW$363, DW_AT_name("rsvd8_4")
    2640                      .dwattr $C$DW$363, DW_AT_TI_symbol_name("_rsvd8_4")
    2641                      .dwattr $C$DW$363, DW_AT_data_member_location[DW_OP_plus_uconst 0xd6]
    2642                      .dwattr $C$DW$363, DW_AT_accessibility(DW_ACCESS_public)
    2643              $C$DW$364       .dwtag  DW_TAG_member
    2644                      .dwattr $C$DW$364, DW_AT_type(*$C$DW$T$29)
    2645                      .dwattr $C$DW$364, DW_AT_name("rsvd8_5")
TMS320C2000 Assembler PC v6.4.11 Mon Sep 05 19:06:41 2016

Tools Copyright (c) 1996-2015 Texas Instruments Incorporated
C:\Users\bee25\AppData\Local\Temp\2813610                            PAGE   50

    2646                      .dwattr $C$DW$364, DW_AT_TI_symbol_name("_rsvd8_5")
    2647                      .dwattr $C$DW$364, DW_AT_data_member_location[DW_OP_plus_uconst 0xd8]
    2648                      .dwattr $C$DW$364, DW_AT_accessibility(DW_ACCESS_public)
    2649              $C$DW$365       .dwtag  DW_TAG_member
    2650                      .dwattr $C$DW$365, DW_AT_type(*$C$DW$T$29)
    2651                      .dwattr $C$DW$365, DW_AT_name("rsvd8_6")
    2652                      .dwattr $C$DW$365, DW_AT_TI_symbol_name("_rsvd8_6")
    2653                      .dwattr $C$DW$365, DW_AT_data_member_location[DW_OP_plus_uconst 0xda]
    2654                      .dwattr $C$DW$365, DW_AT_accessibility(DW_ACCESS_public)
    2655              $C$DW$366       .dwtag  DW_TAG_member
    2656                      .dwattr $C$DW$366, DW_AT_type(*$C$DW$T$29)
    2657                      .dwattr $C$DW$366, DW_AT_name("rsvd8_7")
    2658                      .dwattr $C$DW$366, DW_AT_TI_symbol_name("_rsvd8_7")
    2659                      .dwattr $C$DW$366, DW_AT_data_member_location[DW_OP_plus_uconst 0xdc]
    2660                      .dwattr $C$DW$366, DW_AT_accessibility(DW_ACCESS_public)
    2661              $C$DW$367       .dwtag  DW_TAG_member
    2662                      .dwattr $C$DW$367, DW_AT_type(*$C$DW$T$29)
    2663                      .dwattr $C$DW$367, DW_AT_name("rsvd8_8")
    2664                      .dwattr $C$DW$367, DW_AT_TI_symbol_name("_rsvd8_8")
    2665                      .dwattr $C$DW$367, DW_AT_data_member_location[DW_OP_plus_uconst 0xde]
    2666                      .dwattr $C$DW$367, DW_AT_accessibility(DW_ACCESS_public)
    2667              $C$DW$368       .dwtag  DW_TAG_member
    2668                      .dwattr $C$DW$368, DW_AT_type(*$C$DW$T$29)
    2669                      .dwattr $C$DW$368, DW_AT_name("SCIRXINTA")
    2670                      .dwattr $C$DW$368, DW_AT_TI_symbol_name("_SCIRXINTA")
    2671                      .dwattr $C$DW$368, DW_AT_data_member_location[DW_OP_plus_uconst 0xe0]
    2672                      .dwattr $C$DW$368, DW_AT_accessibility(DW_ACCESS_public)
    2673              $C$DW$369       .dwtag  DW_TAG_member
    2674                      .dwattr $C$DW$369, DW_AT_type(*$C$DW$T$29)
    2675                      .dwattr $C$DW$369, DW_AT_name("SCITXINTA")
    2676                      .dwattr $C$DW$369, DW_AT_TI_symbol_name("_SCITXINTA")
    2677                      .dwattr $C$DW$369, DW_AT_data_member_location[DW_OP_plus_uconst 0xe2]
    2678                      .dwattr $C$DW$369, DW_AT_accessibility(DW_ACCESS_public)
    2679              $C$DW$370       .dwtag  DW_TAG_member
    2680                      .dwattr $C$DW$370, DW_AT_type(*$C$DW$T$29)
    2681                      .dwattr $C$DW$370, DW_AT_name("rsvd9_3")
    2682                      .dwattr $C$DW$370, DW_AT_TI_symbol_name("_rsvd9_3")
    2683                      .dwattr $C$DW$370, DW_AT_data_member_location[DW_OP_plus_uconst 0xe4]
    2684                      .dwattr $C$DW$370, DW_AT_accessibility(DW_ACCESS_public)
    2685              $C$DW$371       .dwtag  DW_TAG_member
    2686                      .dwattr $C$DW$371, DW_AT_type(*$C$DW$T$29)
    2687                      .dwattr $C$DW$371, DW_AT_name("rsvd9_4")
    2688                      .dwattr $C$DW$371, DW_AT_TI_symbol_name("_rsvd9_4")
    2689                      .dwattr $C$DW$371, DW_AT_data_member_location[DW_OP_plus_uconst 0xe6]
    2690                      .dwattr $C$DW$371, DW_AT_accessibility(DW_ACCESS_public)
    2691              $C$DW$372       .dwtag  DW_TAG_member
    2692                      .dwattr $C$DW$372, DW_AT_type(*$C$DW$T$29)
    2693                      .dwattr $C$DW$372, DW_AT_name("rsvd9_5")
    2694                      .dwattr $C$DW$372, DW_AT_TI_symbol_name("_rsvd9_5")
    2695                      .dwattr $C$DW$372, DW_AT_data_member_location[DW_OP_plus_uconst 0xe8]
    2696                      .dwattr $C$DW$372, DW_AT_accessibility(DW_ACCESS_public)
    2697              $C$DW$373       .dwtag  DW_TAG_member
    2698                      .dwattr $C$DW$373, DW_AT_type(*$C$DW$T$29)
    2699                      .dwattr $C$DW$373, DW_AT_name("rsvd9_6")
    2700                      .dwattr $C$DW$373, DW_AT_TI_symbol_name("_rsvd9_6")
TMS320C2000 Assembler PC v6.4.11 Mon Sep 05 19:06:41 2016

Tools Copyright (c) 1996-2015 Texas Instruments Incorporated
C:\Users\bee25\AppData\Local\Temp\2813610                            PAGE   51

    2701                      .dwattr $C$DW$373, DW_AT_data_member_location[DW_OP_plus_uconst 0xea]
    2702                      .dwattr $C$DW$373, DW_AT_accessibility(DW_ACCESS_public)
    2703              $C$DW$374       .dwtag  DW_TAG_member
    2704                      .dwattr $C$DW$374, DW_AT_type(*$C$DW$T$29)
    2705                      .dwattr $C$DW$374, DW_AT_name("rsvd9_7")
    2706                      .dwattr $C$DW$374, DW_AT_TI_symbol_name("_rsvd9_7")
    2707                      .dwattr $C$DW$374, DW_AT_data_member_location[DW_OP_plus_uconst 0xec]
    2708                      .dwattr $C$DW$374, DW_AT_accessibility(DW_ACCESS_public)
    2709              $C$DW$375       .dwtag  DW_TAG_member
    2710                      .dwattr $C$DW$375, DW_AT_type(*$C$DW$T$29)
    2711                      .dwattr $C$DW$375, DW_AT_name("rsvd9_8")
    2712                      .dwattr $C$DW$375, DW_AT_TI_symbol_name("_rsvd9_8")
    2713                      .dwattr $C$DW$375, DW_AT_data_member_location[DW_OP_plus_uconst 0xee]
    2714                      .dwattr $C$DW$375, DW_AT_accessibility(DW_ACCESS_public)
    2715              $C$DW$376       .dwtag  DW_TAG_member
    2716                      .dwattr $C$DW$376, DW_AT_type(*$C$DW$T$29)
    2717                      .dwattr $C$DW$376, DW_AT_name("ADCINT1")
    2718                      .dwattr $C$DW$376, DW_AT_TI_symbol_name("_ADCINT1")
    2719                      .dwattr $C$DW$376, DW_AT_data_member_location[DW_OP_plus_uconst 0xf0]
    2720                      .dwattr $C$DW$376, DW_AT_accessibility(DW_ACCESS_public)
    2721              $C$DW$377       .dwtag  DW_TAG_member
    2722                      .dwattr $C$DW$377, DW_AT_type(*$C$DW$T$29)
    2723                      .dwattr $C$DW$377, DW_AT_name("ADCINT2")
    2724                      .dwattr $C$DW$377, DW_AT_TI_symbol_name("_ADCINT2")
    2725                      .dwattr $C$DW$377, DW_AT_data_member_location[DW_OP_plus_uconst 0xf2]
    2726                      .dwattr $C$DW$377, DW_AT_accessibility(DW_ACCESS_public)
    2727              $C$DW$378       .dwtag  DW_TAG_member
    2728                      .dwattr $C$DW$378, DW_AT_type(*$C$DW$T$29)
    2729                      .dwattr $C$DW$378, DW_AT_name("ADCINT3")
    2730                      .dwattr $C$DW$378, DW_AT_TI_symbol_name("_ADCINT3")
    2731                      .dwattr $C$DW$378, DW_AT_data_member_location[DW_OP_plus_uconst 0xf4]
    2732                      .dwattr $C$DW$378, DW_AT_accessibility(DW_ACCESS_public)
    2733              $C$DW$379       .dwtag  DW_TAG_member
    2734                      .dwattr $C$DW$379, DW_AT_type(*$C$DW$T$29)
    2735                      .dwattr $C$DW$379, DW_AT_name("ADCINT4")
    2736                      .dwattr $C$DW$379, DW_AT_TI_symbol_name("_ADCINT4")
    2737                      .dwattr $C$DW$379, DW_AT_data_member_location[DW_OP_plus_uconst 0xf6]
    2738                      .dwattr $C$DW$379, DW_AT_accessibility(DW_ACCESS_public)
    2739              $C$DW$380       .dwtag  DW_TAG_member
    2740                      .dwattr $C$DW$380, DW_AT_type(*$C$DW$T$29)
    2741                      .dwattr $C$DW$380, DW_AT_name("ADCINT5")
    2742                      .dwattr $C$DW$380, DW_AT_TI_symbol_name("_ADCINT5")
    2743                      .dwattr $C$DW$380, DW_AT_data_member_location[DW_OP_plus_uconst 0xf8]
    2744                      .dwattr $C$DW$380, DW_AT_accessibility(DW_ACCESS_public)
    2745              $C$DW$381       .dwtag  DW_TAG_member
    2746                      .dwattr $C$DW$381, DW_AT_type(*$C$DW$T$29)
    2747                      .dwattr $C$DW$381, DW_AT_name("ADCINT6")
    2748                      .dwattr $C$DW$381, DW_AT_TI_symbol_name("_ADCINT6")
    2749                      .dwattr $C$DW$381, DW_AT_data_member_location[DW_OP_plus_uconst 0xfa]
    2750                      .dwattr $C$DW$381, DW_AT_accessibility(DW_ACCESS_public)
    2751              $C$DW$382       .dwtag  DW_TAG_member
    2752                      .dwattr $C$DW$382, DW_AT_type(*$C$DW$T$29)
    2753                      .dwattr $C$DW$382, DW_AT_name("ADCINT7")
    2754                      .dwattr $C$DW$382, DW_AT_TI_symbol_name("_ADCINT7")
    2755                      .dwattr $C$DW$382, DW_AT_data_member_location[DW_OP_plus_uconst 0xfc]
TMS320C2000 Assembler PC v6.4.11 Mon Sep 05 19:06:41 2016

Tools Copyright (c) 1996-2015 Texas Instruments Incorporated
C:\Users\bee25\AppData\Local\Temp\2813610                            PAGE   52

    2756                      .dwattr $C$DW$382, DW_AT_accessibility(DW_ACCESS_public)
    2757              $C$DW$383       .dwtag  DW_TAG_member
    2758                      .dwattr $C$DW$383, DW_AT_type(*$C$DW$T$29)
    2759                      .dwattr $C$DW$383, DW_AT_name("ADCINT8")
    2760                      .dwattr $C$DW$383, DW_AT_TI_symbol_name("_ADCINT8")
    2761                      .dwattr $C$DW$383, DW_AT_data_member_location[DW_OP_plus_uconst 0xfe]
    2762                      .dwattr $C$DW$383, DW_AT_accessibility(DW_ACCESS_public)
    2763              $C$DW$384       .dwtag  DW_TAG_member
    2764                      .dwattr $C$DW$384, DW_AT_type(*$C$DW$T$29)
    2765                      .dwattr $C$DW$384, DW_AT_name("rsvd11_1")
    2766                      .dwattr $C$DW$384, DW_AT_TI_symbol_name("_rsvd11_1")
    2767                      .dwattr $C$DW$384, DW_AT_data_member_location[DW_OP_plus_uconst 0x100]
    2768                      .dwattr $C$DW$384, DW_AT_accessibility(DW_ACCESS_public)
    2769              $C$DW$385       .dwtag  DW_TAG_member
    2770                      .dwattr $C$DW$385, DW_AT_type(*$C$DW$T$29)
    2771                      .dwattr $C$DW$385, DW_AT_name("rsvd11_2")
    2772                      .dwattr $C$DW$385, DW_AT_TI_symbol_name("_rsvd11_2")
    2773                      .dwattr $C$DW$385, DW_AT_data_member_location[DW_OP_plus_uconst 0x102]
    2774                      .dwattr $C$DW$385, DW_AT_accessibility(DW_ACCESS_public)
    2775              $C$DW$386       .dwtag  DW_TAG_member
    2776                      .dwattr $C$DW$386, DW_AT_type(*$C$DW$T$29)
    2777                      .dwattr $C$DW$386, DW_AT_name("rsvd11_3")
    2778                      .dwattr $C$DW$386, DW_AT_TI_symbol_name("_rsvd11_3")
    2779                      .dwattr $C$DW$386, DW_AT_data_member_location[DW_OP_plus_uconst 0x104]
    2780                      .dwattr $C$DW$386, DW_AT_accessibility(DW_ACCESS_public)
    2781              $C$DW$387       .dwtag  DW_TAG_member
    2782                      .dwattr $C$DW$387, DW_AT_type(*$C$DW$T$29)
    2783                      .dwattr $C$DW$387, DW_AT_name("rsvd11_4")
    2784                      .dwattr $C$DW$387, DW_AT_TI_symbol_name("_rsvd11_4")
    2785                      .dwattr $C$DW$387, DW_AT_data_member_location[DW_OP_plus_uconst 0x106]
    2786                      .dwattr $C$DW$387, DW_AT_accessibility(DW_ACCESS_public)
    2787              $C$DW$388       .dwtag  DW_TAG_member
    2788                      .dwattr $C$DW$388, DW_AT_type(*$C$DW$T$29)
    2789                      .dwattr $C$DW$388, DW_AT_name("rsvd11_5")
    2790                      .dwattr $C$DW$388, DW_AT_TI_symbol_name("_rsvd11_5")
    2791                      .dwattr $C$DW$388, DW_AT_data_member_location[DW_OP_plus_uconst 0x108]
    2792                      .dwattr $C$DW$388, DW_AT_accessibility(DW_ACCESS_public)
    2793              $C$DW$389       .dwtag  DW_TAG_member
    2794                      .dwattr $C$DW$389, DW_AT_type(*$C$DW$T$29)
    2795                      .dwattr $C$DW$389, DW_AT_name("rsvd11_6")
    2796                      .dwattr $C$DW$389, DW_AT_TI_symbol_name("_rsvd11_6")
    2797                      .dwattr $C$DW$389, DW_AT_data_member_location[DW_OP_plus_uconst 0x10a]
    2798                      .dwattr $C$DW$389, DW_AT_accessibility(DW_ACCESS_public)
    2799              $C$DW$390       .dwtag  DW_TAG_member
    2800                      .dwattr $C$DW$390, DW_AT_type(*$C$DW$T$29)
    2801                      .dwattr $C$DW$390, DW_AT_name("rsvd11_7")
    2802                      .dwattr $C$DW$390, DW_AT_TI_symbol_name("_rsvd11_7")
    2803                      .dwattr $C$DW$390, DW_AT_data_member_location[DW_OP_plus_uconst 0x10c]
    2804                      .dwattr $C$DW$390, DW_AT_accessibility(DW_ACCESS_public)
    2805              $C$DW$391       .dwtag  DW_TAG_member
    2806                      .dwattr $C$DW$391, DW_AT_type(*$C$DW$T$29)
    2807                      .dwattr $C$DW$391, DW_AT_name("rsvd11_8")
    2808                      .dwattr $C$DW$391, DW_AT_TI_symbol_name("_rsvd11_8")
    2809                      .dwattr $C$DW$391, DW_AT_data_member_location[DW_OP_plus_uconst 0x10e]
    2810                      .dwattr $C$DW$391, DW_AT_accessibility(DW_ACCESS_public)
TMS320C2000 Assembler PC v6.4.11 Mon Sep 05 19:06:41 2016

Tools Copyright (c) 1996-2015 Texas Instruments Incorporated
C:\Users\bee25\AppData\Local\Temp\2813610                            PAGE   53

    2811              $C$DW$392       .dwtag  DW_TAG_member
    2812                      .dwattr $C$DW$392, DW_AT_type(*$C$DW$T$29)
    2813                      .dwattr $C$DW$392, DW_AT_name("XINT3")
    2814                      .dwattr $C$DW$392, DW_AT_TI_symbol_name("_XINT3")
    2815                      .dwattr $C$DW$392, DW_AT_data_member_location[DW_OP_plus_uconst 0x110]
    2816                      .dwattr $C$DW$392, DW_AT_accessibility(DW_ACCESS_public)
    2817              $C$DW$393       .dwtag  DW_TAG_member
    2818                      .dwattr $C$DW$393, DW_AT_type(*$C$DW$T$29)
    2819                      .dwattr $C$DW$393, DW_AT_name("rsvd12_2")
    2820                      .dwattr $C$DW$393, DW_AT_TI_symbol_name("_rsvd12_2")
    2821                      .dwattr $C$DW$393, DW_AT_data_member_location[DW_OP_plus_uconst 0x112]
    2822                      .dwattr $C$DW$393, DW_AT_accessibility(DW_ACCESS_public)
    2823              $C$DW$394       .dwtag  DW_TAG_member
    2824                      .dwattr $C$DW$394, DW_AT_type(*$C$DW$T$29)
    2825                      .dwattr $C$DW$394, DW_AT_name("rsvd12_3")
    2826                      .dwattr $C$DW$394, DW_AT_TI_symbol_name("_rsvd12_3")
    2827                      .dwattr $C$DW$394, DW_AT_data_member_location[DW_OP_plus_uconst 0x114]
    2828                      .dwattr $C$DW$394, DW_AT_accessibility(DW_ACCESS_public)
    2829              $C$DW$395       .dwtag  DW_TAG_member
    2830                      .dwattr $C$DW$395, DW_AT_type(*$C$DW$T$29)
    2831                      .dwattr $C$DW$395, DW_AT_name("rsvd12_4")
    2832                      .dwattr $C$DW$395, DW_AT_TI_symbol_name("_rsvd12_4")
    2833                      .dwattr $C$DW$395, DW_AT_data_member_location[DW_OP_plus_uconst 0x116]
    2834                      .dwattr $C$DW$395, DW_AT_accessibility(DW_ACCESS_public)
    2835              $C$DW$396       .dwtag  DW_TAG_member
    2836                      .dwattr $C$DW$396, DW_AT_type(*$C$DW$T$29)
    2837                      .dwattr $C$DW$396, DW_AT_name("rsvd12_5")
    2838                      .dwattr $C$DW$396, DW_AT_TI_symbol_name("_rsvd12_5")
    2839                      .dwattr $C$DW$396, DW_AT_data_member_location[DW_OP_plus_uconst 0x118]
    2840                      .dwattr $C$DW$396, DW_AT_accessibility(DW_ACCESS_public)
    2841              $C$DW$397       .dwtag  DW_TAG_member
    2842                      .dwattr $C$DW$397, DW_AT_type(*$C$DW$T$29)
    2843                      .dwattr $C$DW$397, DW_AT_name("rsvd12_6")
    2844                      .dwattr $C$DW$397, DW_AT_TI_symbol_name("_rsvd12_6")
    2845                      .dwattr $C$DW$397, DW_AT_data_member_location[DW_OP_plus_uconst 0x11a]
    2846                      .dwattr $C$DW$397, DW_AT_accessibility(DW_ACCESS_public)
    2847              $C$DW$398       .dwtag  DW_TAG_member
    2848                      .dwattr $C$DW$398, DW_AT_type(*$C$DW$T$29)
    2849                      .dwattr $C$DW$398, DW_AT_name("rsvd12_7")
    2850                      .dwattr $C$DW$398, DW_AT_TI_symbol_name("_rsvd12_7")
    2851                      .dwattr $C$DW$398, DW_AT_data_member_location[DW_OP_plus_uconst 0x11c]
    2852                      .dwattr $C$DW$398, DW_AT_accessibility(DW_ACCESS_public)
    2853              $C$DW$399       .dwtag  DW_TAG_member
    2854                      .dwattr $C$DW$399, DW_AT_type(*$C$DW$T$29)
    2855                      .dwattr $C$DW$399, DW_AT_name("rsvd12_8")
    2856                      .dwattr $C$DW$399, DW_AT_TI_symbol_name("_rsvd12_8")
    2857                      .dwattr $C$DW$399, DW_AT_data_member_location[DW_OP_plus_uconst 0x11e]
    2858                      .dwattr $C$DW$399, DW_AT_accessibility(DW_ACCESS_public)
    2859              $C$DW$400       .dwtag  DW_TAG_member
    2860                      .dwattr $C$DW$400, DW_AT_type(*$C$DW$T$30)
    2861                      .dwattr $C$DW$400, DW_AT_name("rsvd13")
    2862                      .dwattr $C$DW$400, DW_AT_TI_symbol_name("_rsvd13")
    2863                      .dwattr $C$DW$400, DW_AT_data_member_location[DW_OP_plus_uconst 0x120]
    2864                      .dwattr $C$DW$400, DW_AT_accessibility(DW_ACCESS_public)
    2865              $C$DW$401       .dwtag  DW_TAG_member
TMS320C2000 Assembler PC v6.4.11 Mon Sep 05 19:06:41 2016

Tools Copyright (c) 1996-2015 Texas Instruments Incorporated
C:\Users\bee25\AppData\Local\Temp\2813610                            PAGE   54

    2866                      .dwattr $C$DW$401, DW_AT_type(*$C$DW$T$31)
    2867                      .dwattr $C$DW$401, DW_AT_name("XINTnCR")
    2868                      .dwattr $C$DW$401, DW_AT_TI_symbol_name("_XINTnCR")
    2869                      .dwattr $C$DW$401, DW_AT_data_member_location[DW_OP_plus_uconst 0x6390]
    2870                      .dwattr $C$DW$401, DW_AT_accessibility(DW_ACCESS_public)
    2871              $C$DW$402       .dwtag  DW_TAG_member
    2872                      .dwattr $C$DW$402, DW_AT_type(*$C$DW$T$32)
    2873                      .dwattr $C$DW$402, DW_AT_name("rsvd14")
    2874                      .dwattr $C$DW$402, DW_AT_TI_symbol_name("_rsvd14")
    2875                      .dwattr $C$DW$402, DW_AT_data_member_location[DW_OP_plus_uconst 0x6393]
    2876                      .dwattr $C$DW$402, DW_AT_accessibility(DW_ACCESS_public)
    2877              $C$DW$403       .dwtag  DW_TAG_member
    2878                      .dwattr $C$DW$403, DW_AT_type(*$C$DW$T$31)
    2879                      .dwattr $C$DW$403, DW_AT_name("XINTnCTR")
    2880                      .dwattr $C$DW$403, DW_AT_TI_symbol_name("_XINTnCTR")
    2881                      .dwattr $C$DW$403, DW_AT_data_member_location[DW_OP_plus_uconst 0x6398]
    2882                      .dwattr $C$DW$403, DW_AT_accessibility(DW_ACCESS_public)
    2883                      .dwendtag $C$DW$T$33
    2884              
    2885              $C$DW$T$60      .dwtag  DW_TAG_typedef, DW_AT_name("PIE_Obj")
    2886                      .dwattr $C$DW$T$60, DW_AT_type(*$C$DW$T$33)
    2887                      .dwattr $C$DW$T$60, DW_AT_language(DW_LANG_C)
    2888              $C$DW$T$61      .dwtag  DW_TAG_pointer_type
    2889                      .dwattr $C$DW$T$61, DW_AT_type(*$C$DW$T$33)
    2890                      .dwattr $C$DW$T$61, DW_AT_address_class(0x20)
    2891              $C$DW$T$62      .dwtag  DW_TAG_typedef, DW_AT_name("PIE_Handle")
    2892                      .dwattr $C$DW$T$62, DW_AT_type(*$C$DW$T$61)
    2893                      .dwattr $C$DW$T$62, DW_AT_language(DW_LANG_C)
    2894              $C$DW$404       .dwtag  DW_TAG_TI_far_type
    2895                      .dwattr $C$DW$404, DW_AT_type(*$C$DW$T$62)
    2896              $C$DW$T$63      .dwtag  DW_TAG_const_type
    2897                      .dwattr $C$DW$T$63, DW_AT_type(*$C$DW$404)
    2898              $C$DW$T$2       .dwtag  DW_TAG_unspecified_type
    2899                      .dwattr $C$DW$T$2, DW_AT_name("void")
    2900              $C$DW$T$3       .dwtag  DW_TAG_pointer_type
    2901                      .dwattr $C$DW$T$3, DW_AT_type(*$C$DW$T$2)
    2902                      .dwattr $C$DW$T$3, DW_AT_address_class(0x20)
    2903              
    2904              $C$DW$T$26      .dwtag  DW_TAG_subroutine_type
    2905                      .dwattr $C$DW$T$26, DW_AT_language(DW_LANG_C)
    2906              $C$DW$T$27      .dwtag  DW_TAG_pointer_type
    2907                      .dwattr $C$DW$T$27, DW_AT_type(*$C$DW$T$26)
    2908                      .dwattr $C$DW$T$27, DW_AT_address_class(0x20)
    2909              $C$DW$T$28      .dwtag  DW_TAG_typedef, DW_AT_name("PIE_IntVec_t")
    2910                      .dwattr $C$DW$T$28, DW_AT_type(*$C$DW$T$27)
    2911                      .dwattr $C$DW$T$28, DW_AT_language(DW_LANG_C)
    2912              $C$DW$405       .dwtag  DW_TAG_TI_far_type
    2913                      .dwattr $C$DW$405, DW_AT_type(*$C$DW$T$28)
    2914              $C$DW$T$29      .dwtag  DW_TAG_volatile_type
    2915                      .dwattr $C$DW$T$29, DW_AT_type(*$C$DW$405)
    2916              $C$DW$406       .dwtag  DW_TAG_TI_far_type
    2917                      .dwattr $C$DW$406, DW_AT_type(*$C$DW$T$28)
    2918              $C$DW$T$70      .dwtag  DW_TAG_const_type
    2919                      .dwattr $C$DW$T$70, DW_AT_type(*$C$DW$406)
    2920              $C$DW$T$71      .dwtag  DW_TAG_pointer_type
TMS320C2000 Assembler PC v6.4.11 Mon Sep 05 19:06:41 2016

Tools Copyright (c) 1996-2015 Texas Instruments Incorporated
C:\Users\bee25\AppData\Local\Temp\2813610                            PAGE   55

    2921                      .dwattr $C$DW$T$71, DW_AT_type(*$C$DW$T$28)
    2922                      .dwattr $C$DW$T$71, DW_AT_address_class(0x20)
    2923              $C$DW$T$4       .dwtag  DW_TAG_base_type
    2924                      .dwattr $C$DW$T$4, DW_AT_encoding(DW_ATE_boolean)
    2925                      .dwattr $C$DW$T$4, DW_AT_name("bool")
    2926                      .dwattr $C$DW$T$4, DW_AT_byte_size(0x01)
    2927              $C$DW$T$5       .dwtag  DW_TAG_base_type
    2928                      .dwattr $C$DW$T$5, DW_AT_encoding(DW_ATE_signed_char)
    2929                      .dwattr $C$DW$T$5, DW_AT_name("signed char")
    2930                      .dwattr $C$DW$T$5, DW_AT_byte_size(0x01)
    2931              $C$DW$T$6       .dwtag  DW_TAG_base_type
    2932                      .dwattr $C$DW$T$6, DW_AT_encoding(DW_ATE_unsigned_char)
    2933                      .dwattr $C$DW$T$6, DW_AT_name("unsigned char")
    2934                      .dwattr $C$DW$T$6, DW_AT_byte_size(0x01)
    2935              $C$DW$T$7       .dwtag  DW_TAG_base_type
    2936                      .dwattr $C$DW$T$7, DW_AT_encoding(DW_ATE_signed_char)
    2937                      .dwattr $C$DW$T$7, DW_AT_name("wchar_t")
    2938                      .dwattr $C$DW$T$7, DW_AT_byte_size(0x01)
    2939              $C$DW$T$8       .dwtag  DW_TAG_base_type
    2940                      .dwattr $C$DW$T$8, DW_AT_encoding(DW_ATE_signed)
    2941                      .dwattr $C$DW$T$8, DW_AT_name("short")
    2942                      .dwattr $C$DW$T$8, DW_AT_byte_size(0x01)
    2943              $C$DW$T$9       .dwtag  DW_TAG_base_type
    2944                      .dwattr $C$DW$T$9, DW_AT_encoding(DW_ATE_unsigned)
    2945                      .dwattr $C$DW$T$9, DW_AT_name("unsigned short")
    2946                      .dwattr $C$DW$T$9, DW_AT_byte_size(0x01)
    2947              $C$DW$T$10      .dwtag  DW_TAG_base_type
    2948                      .dwattr $C$DW$T$10, DW_AT_encoding(DW_ATE_signed)
    2949                      .dwattr $C$DW$T$10, DW_AT_name("int")
    2950                      .dwattr $C$DW$T$10, DW_AT_byte_size(0x01)
    2951              $C$DW$T$11      .dwtag  DW_TAG_base_type
    2952                      .dwattr $C$DW$T$11, DW_AT_encoding(DW_ATE_unsigned)
    2953                      .dwattr $C$DW$T$11, DW_AT_name("unsigned int")
    2954                      .dwattr $C$DW$T$11, DW_AT_byte_size(0x01)
    2955              $C$DW$T$19      .dwtag  DW_TAG_typedef, DW_AT_name("uint16_t")
    2956                      .dwattr $C$DW$T$19, DW_AT_type(*$C$DW$T$11)
    2957                      .dwattr $C$DW$T$19, DW_AT_language(DW_LANG_C)
    2958              $C$DW$407       .dwtag  DW_TAG_TI_far_type
    2959                      .dwattr $C$DW$407, DW_AT_type(*$C$DW$T$19)
    2960              $C$DW$T$20      .dwtag  DW_TAG_volatile_type
    2961                      .dwattr $C$DW$T$20, DW_AT_type(*$C$DW$407)
    2962              
    2963              $C$DW$T$25      .dwtag  DW_TAG_array_type
    2964                      .dwattr $C$DW$T$25, DW_AT_type(*$C$DW$T$20)
    2965                      .dwattr $C$DW$T$25, DW_AT_language(DW_LANG_C)
    2966                      .dwattr $C$DW$T$25, DW_AT_byte_size(0x06)
    2967              $C$DW$408       .dwtag  DW_TAG_subrange_type
    2968                      .dwattr $C$DW$408, DW_AT_upper_bound(0x05)
    2969                      .dwendtag $C$DW$T$25
    2970              
    2971              
    2972              $C$DW$T$30      .dwtag  DW_TAG_array_type
    2973                      .dwattr $C$DW$T$30, DW_AT_type(*$C$DW$T$20)
    2974                      .dwattr $C$DW$T$30, DW_AT_language(DW_LANG_C)
    2975                      .dwattr $C$DW$T$30, DW_AT_byte_size(0x6270)
TMS320C2000 Assembler PC v6.4.11 Mon Sep 05 19:06:41 2016

Tools Copyright (c) 1996-2015 Texas Instruments Incorporated
C:\Users\bee25\AppData\Local\Temp\2813610                            PAGE   56

    2976              $C$DW$409       .dwtag  DW_TAG_subrange_type
    2977                      .dwattr $C$DW$409, DW_AT_upper_bound(0x626f)
    2978                      .dwendtag $C$DW$T$30
    2979              
    2980              
    2981              $C$DW$T$31      .dwtag  DW_TAG_array_type
    2982                      .dwattr $C$DW$T$31, DW_AT_type(*$C$DW$T$20)
    2983                      .dwattr $C$DW$T$31, DW_AT_language(DW_LANG_C)
    2984                      .dwattr $C$DW$T$31, DW_AT_byte_size(0x03)
    2985              $C$DW$410       .dwtag  DW_TAG_subrange_type
    2986                      .dwattr $C$DW$410, DW_AT_upper_bound(0x02)
    2987                      .dwendtag $C$DW$T$31
    2988              
    2989              
    2990              $C$DW$T$32      .dwtag  DW_TAG_array_type
    2991                      .dwattr $C$DW$T$32, DW_AT_type(*$C$DW$T$20)
    2992                      .dwattr $C$DW$T$32, DW_AT_language(DW_LANG_C)
    2993                      .dwattr $C$DW$T$32, DW_AT_byte_size(0x05)
    2994              $C$DW$411       .dwtag  DW_TAG_subrange_type
    2995                      .dwattr $C$DW$411, DW_AT_upper_bound(0x04)
    2996                      .dwendtag $C$DW$T$32
    2997              
    2998              $C$DW$T$94      .dwtag  DW_TAG_typedef, DW_AT_name("uint_least8_t")
    2999                      .dwattr $C$DW$T$94, DW_AT_type(*$C$DW$T$19)
    3000                      .dwattr $C$DW$T$94, DW_AT_language(DW_LANG_C)
    3001              $C$DW$T$12      .dwtag  DW_TAG_base_type
    3002                      .dwattr $C$DW$T$12, DW_AT_encoding(DW_ATE_signed)
    3003                      .dwattr $C$DW$T$12, DW_AT_name("long")
    3004                      .dwattr $C$DW$T$12, DW_AT_byte_size(0x02)
    3005              $C$DW$T$13      .dwtag  DW_TAG_base_type
    3006                      .dwattr $C$DW$T$13, DW_AT_encoding(DW_ATE_unsigned)
    3007                      .dwattr $C$DW$T$13, DW_AT_name("unsigned long")
    3008                      .dwattr $C$DW$T$13, DW_AT_byte_size(0x02)
    3009              $C$DW$T$64      .dwtag  DW_TAG_typedef, DW_AT_name("size_t")
    3010                      .dwattr $C$DW$T$64, DW_AT_type(*$C$DW$T$13)
    3011                      .dwattr $C$DW$T$64, DW_AT_language(DW_LANG_C)
    3012              $C$DW$412       .dwtag  DW_TAG_TI_far_type
    3013                      .dwattr $C$DW$412, DW_AT_type(*$C$DW$T$64)
    3014              $C$DW$T$65      .dwtag  DW_TAG_const_type
    3015                      .dwattr $C$DW$T$65, DW_AT_type(*$C$DW$412)
    3016              $C$DW$T$14      .dwtag  DW_TAG_base_type
    3017                      .dwattr $C$DW$T$14, DW_AT_encoding(DW_ATE_signed)
    3018                      .dwattr $C$DW$T$14, DW_AT_name("long long")
    3019                      .dwattr $C$DW$T$14, DW_AT_byte_size(0x04)
    3020              $C$DW$T$15      .dwtag  DW_TAG_base_type
    3021                      .dwattr $C$DW$T$15, DW_AT_encoding(DW_ATE_unsigned)
    3022                      .dwattr $C$DW$T$15, DW_AT_name("unsigned long long")
    3023                      .dwattr $C$DW$T$15, DW_AT_byte_size(0x04)
    3024              $C$DW$T$16      .dwtag  DW_TAG_base_type
    3025                      .dwattr $C$DW$T$16, DW_AT_encoding(DW_ATE_float)
    3026                      .dwattr $C$DW$T$16, DW_AT_name("float")
    3027                      .dwattr $C$DW$T$16, DW_AT_byte_size(0x02)
    3028              $C$DW$T$17      .dwtag  DW_TAG_base_type
    3029                      .dwattr $C$DW$T$17, DW_AT_encoding(DW_ATE_float)
    3030                      .dwattr $C$DW$T$17, DW_AT_name("double")
TMS320C2000 Assembler PC v6.4.11 Mon Sep 05 19:06:41 2016

Tools Copyright (c) 1996-2015 Texas Instruments Incorporated
C:\Users\bee25\AppData\Local\Temp\2813610                            PAGE   57

    3031                      .dwattr $C$DW$T$17, DW_AT_byte_size(0x02)
    3032              $C$DW$T$18      .dwtag  DW_TAG_base_type
    3033                      .dwattr $C$DW$T$18, DW_AT_encoding(DW_ATE_float)
    3034                      .dwattr $C$DW$T$18, DW_AT_name("long double")
    3035                      .dwattr $C$DW$T$18, DW_AT_byte_size(0x04)
    3036                      .dwattr $C$DW$CU, DW_AT_language(DW_LANG_C)
    3037              
    3038              ;***************************************************************
    3039              ;* DWARF CIE ENTRIES                                           *
    3040              ;***************************************************************
    3041              
    3042              $C$DW$CIE       .dwcie 26
    3043                      .dwcfi  cfa_register, 20
    3044                      .dwcfi  cfa_offset, 0
    3045                      .dwcfi  undefined, 0
    3046                      .dwcfi  undefined, 1
    3047                      .dwcfi  undefined, 2
    3048                      .dwcfi  undefined, 3
    3049                      .dwcfi  undefined, 20
    3050                      .dwcfi  undefined, 21
    3051                      .dwcfi  undefined, 22
    3052                      .dwcfi  undefined, 23
    3053                      .dwcfi  undefined, 24
    3054                      .dwcfi  undefined, 25
    3055                      .dwcfi  undefined, 26
    3056                      .dwcfi  same_value, 28
    3057                      .dwcfi  undefined, 29
    3058                      .dwcfi  undefined, 30
    3059                      .dwcfi  undefined, 31
    3060                      .dwcfi  undefined, 32
    3061                      .dwcfi  undefined, 33
    3062                      .dwcfi  undefined, 34
    3063                      .dwcfi  undefined, 35
    3064                      .dwcfi  undefined, 36
    3065                      .dwcfi  undefined, 37
    3066                      .dwcfi  undefined, 38
    3067                      .dwcfi  undefined, 75
    3068                      .dwcfi  undefined, 76
    3069                      .dwcfi  undefined, 77
    3070                      .dwcfi  undefined, 4
    3071                      .dwcfi  undefined, 5
    3072                      .dwcfi  same_value, 6
    3073                      .dwcfi  same_value, 7
    3074                      .dwcfi  same_value, 8
    3075                      .dwcfi  same_value, 9
    3076                      .dwcfi  same_value, 10
    3077                      .dwcfi  same_value, 11
    3078                      .dwcfi  undefined, 12
    3079                      .dwcfi  undefined, 13
    3080                      .dwcfi  undefined, 14
    3081                      .dwcfi  undefined, 15
    3082                      .dwcfi  undefined, 16
    3083                      .dwcfi  undefined, 17
    3084                      .dwcfi  undefined, 18
    3085                      .dwcfi  undefined, 19
TMS320C2000 Assembler PC v6.4.11 Mon Sep 05 19:06:41 2016

Tools Copyright (c) 1996-2015 Texas Instruments Incorporated
C:\Users\bee25\AppData\Local\Temp\2813610                            PAGE   58

    3086                      .dwendentry
    3087              
    3088              ;***************************************************************
    3089              ;* DWARF REGISTER MAP                                          *
    3090              ;***************************************************************
    3091              
    3092              $C$DW$413       .dwtag  DW_TAG_TI_assign_register, DW_AT_name("AL")
    3093                      .dwattr $C$DW$413, DW_AT_location[DW_OP_reg0]
    3094              $C$DW$414       .dwtag  DW_TAG_TI_assign_register, DW_AT_name("AH")
    3095                      .dwattr $C$DW$414, DW_AT_location[DW_OP_reg1]
    3096              $C$DW$415       .dwtag  DW_TAG_TI_assign_register, DW_AT_name("PL")
    3097                      .dwattr $C$DW$415, DW_AT_location[DW_OP_reg2]
    3098              $C$DW$416       .dwtag  DW_TAG_TI_assign_register, DW_AT_name("PH")
    3099                      .dwattr $C$DW$416, DW_AT_location[DW_OP_reg3]
    3100              $C$DW$417       .dwtag  DW_TAG_TI_assign_register, DW_AT_name("SP")
    3101                      .dwattr $C$DW$417, DW_AT_location[DW_OP_reg20]
    3102              $C$DW$418       .dwtag  DW_TAG_TI_assign_register, DW_AT_name("XT")
    3103                      .dwattr $C$DW$418, DW_AT_location[DW_OP_reg21]
    3104              $C$DW$419       .dwtag  DW_TAG_TI_assign_register, DW_AT_name("T")
    3105                      .dwattr $C$DW$419, DW_AT_location[DW_OP_reg22]
    3106              $C$DW$420       .dwtag  DW_TAG_TI_assign_register, DW_AT_name("ST0")
    3107                      .dwattr $C$DW$420, DW_AT_location[DW_OP_reg23]
    3108              $C$DW$421       .dwtag  DW_TAG_TI_assign_register, DW_AT_name("ST1")
    3109                      .dwattr $C$DW$421, DW_AT_location[DW_OP_reg24]
    3110              $C$DW$422       .dwtag  DW_TAG_TI_assign_register, DW_AT_name("PC")
    3111                      .dwattr $C$DW$422, DW_AT_location[DW_OP_reg25]
    3112              $C$DW$423       .dwtag  DW_TAG_TI_assign_register, DW_AT_name("RPC")
    3113                      .dwattr $C$DW$423, DW_AT_location[DW_OP_reg26]
    3114              $C$DW$424       .dwtag  DW_TAG_TI_assign_register, DW_AT_name("FP")
    3115                      .dwattr $C$DW$424, DW_AT_location[DW_OP_reg28]
    3116              $C$DW$425       .dwtag  DW_TAG_TI_assign_register, DW_AT_name("DP")
    3117                      .dwattr $C$DW$425, DW_AT_location[DW_OP_reg29]
    3118              $C$DW$426       .dwtag  DW_TAG_TI_assign_register, DW_AT_name("SXM")
    3119                      .dwattr $C$DW$426, DW_AT_location[DW_OP_reg30]
    3120              $C$DW$427       .dwtag  DW_TAG_TI_assign_register, DW_AT_name("PM")
    3121                      .dwattr $C$DW$427, DW_AT_location[DW_OP_reg31]
    3122              $C$DW$428       .dwtag  DW_TAG_TI_assign_register, DW_AT_name("OVM")
    3123                      .dwattr $C$DW$428, DW_AT_location[DW_OP_regx 0x20]
    3124              $C$DW$429       .dwtag  DW_TAG_TI_assign_register, DW_AT_name("PAGE0")
    3125                      .dwattr $C$DW$429, DW_AT_location[DW_OP_regx 0x21]
    3126              $C$DW$430       .dwtag  DW_TAG_TI_assign_register, DW_AT_name("AMODE")
    3127                      .dwattr $C$DW$430, DW_AT_location[DW_OP_regx 0x22]
    3128              $C$DW$431       .dwtag  DW_TAG_TI_assign_register, DW_AT_name("INTM")
    3129                      .dwattr $C$DW$431, DW_AT_location[DW_OP_regx 0x23]
    3130              $C$DW$432       .dwtag  DW_TAG_TI_assign_register, DW_AT_name("IFR")
    3131                      .dwattr $C$DW$432, DW_AT_location[DW_OP_regx 0x24]
