TMS320C2000 Assembler PC v6.4.11 Wed Nov 23 09:26:04 2016

Tools Copyright (c) 1996-2015 Texas Instruments Incorporated
C:\Users\bee25\AppData\Local\Temp\3596410                            PAGE    1

       1              ;***************************************************************
       2              ;* TMS320C2000 C/C++ Codegen                        PC v6.4.11 *
       3              ;* Date/Time created: Wed Nov 23 09:26:04 2016                 *
       4              ;***************************************************************
       5                      .compiler_opts --float_support=softlib --hll_source=on --mem_model:code=flat --mem_model:data=large -
       6        0002  FP      .set    XAR2
       7              
       8              $C$DW$CU        .dwtag  DW_TAG_compile_unit
       9                      .dwattr $C$DW$CU, DW_AT_name("C:/ti/motorware/motorware_1_01_00_16/sw/solutions/instaspin_foc/src/pro
      10                      .dwattr $C$DW$CU, DW_AT_producer("TI TMS320C2000 C/C++ Codegen PC v6.4.11 Copyright (c) 1996-2015 Tex
      11                      .dwattr $C$DW$CU, DW_AT_TI_version(0x01)
      12                      .dwattr $C$DW$CU, DW_AT_comp_dir("C:\ti\motorware\motorware_1_01_00_16\sw\solutions\instaspin_foc\boa
      13              ;**************************************************************
      14              ;* CINIT RECORDS                                              *
      15              ;**************************************************************
      16 00000000               .sect   ".cinit"
      17                      .align  1
      18 00000000 FFFF          .field          -1,16
      19 00000001 0000-         .field          _Flag_Latch_softwareUpdate+0,32
         00000002 0000 
      20 00000003 0001          .bits   1,16                    ; _Flag_Latch_softwareUpdate @ 0
      21              
      22 00000004               .sect   ".cinit"
      23                      .align  1
      24 00000004 FFFF          .field          -1,16
      25 00000005 0001-         .field          _gCounter_updateGlobals+0,32
         00000006 0000 
      26 00000007 0000          .bits   0,16                    ; _gCounter_updateGlobals @ 0
      27              
      28 00000008               .sect   ".cinit"
      29                      .align  1
      30 00000008 FFFF          .field          -1,16
      31 00000009 0002-         .field          _gLEDcnt+0,32
         0000000a 0000 
      32 0000000b 0000          .bits   0,16                    ; _gLEDcnt @ 0
      33              
      34 0000000c               .sect   ".cinit"
      35                      .align  1
      36 0000000c FFFE          .field          -2,16
      37 0000000d 0004-         .field          _gMaxCurrentSlope+0,32
         0000000e 0000 
      38 0000000f 0000          .bits   0,32                    ; _gMaxCurrentSlope @ 0
         00000010 0000 
      39              
      40 00000011               .sect   ".cinit"
      41                      .align  1
      42 00000011 FFFE          .field          -2,16
      43 00000012 0008-         .field          _current$1+0,32
         00000013 0000 
      44 00000014 0000          .bits   0,32                    ; _current$1 @ 0
         00000015 0000 
      45              
      46 00000016               .sect   ".cinit"
      47                      .align  1
      48 00000016 FFFA          .field          -$C$IR_1,16
TMS320C2000 Assembler PC v6.4.11 Wed Nov 23 09:26:04 2016

Tools Copyright (c) 1996-2015 Texas Instruments Incorporated
C:\Users\bee25\AppData\Local\Temp\3596410                            PAGE    2

      49 00000017 000A-         .field          _gPwmData+0,32
         00000018 0000 
      50 00000019 0000          .bits   0,32                    ; _gPwmData._Tabc._value[0] @ 0
         0000001a 0000 
      51 0000001b 0000          .bits   0,32                    ; _gPwmData._Tabc._value[1] @ 32
         0000001c 0000 
      52 0000001d 0000          .bits   0,32                    ; _gPwmData._Tabc._value[2] @ 64
         0000001e 0000 
      53        0006  $C$IR_1:        .set    6
      54              
      55 0000001f               .sect   ".cinit"
      56                      .align  1
      57 0000001f FFA8          .field          -$C$IR_2,16
      58 00000020 0040-         .field          _gMotorVars+0,32
         00000021 0000 
      59 00000022 0000          .bits   0,16                    ; _gMotorVars._Flag_enableSys @ 0
      60 00000023 0000          .bits   0,16                    ; _gMotorVars._Flag_Run_Identify @ 16
      61 00000024 0000          .bits   0,16                    ; _gMotorVars._Flag_MotorIdentified @ 32
      62 00000025 0001          .bits   1,16                    ; _gMotorVars._Flag_enableForceAngle @ 48
      63 00000026 0000          .bits   0,16                    ; _gMotorVars._Flag_enableFieldWeakening @ 64
      64 00000027 0000          .bits   0,16                    ; _gMotorVars._Flag_enableRsRecalc @ 80
      65 00000028 0001          .bits   1,16                    ; _gMotorVars._Flag_enableUserParams @ 96
      66 00000029 0001          .bits   1,16                    ; _gMotorVars._Flag_enableOffsetcalc @ 112
      67 0000002a 0000          .bits   0,16                    ; _gMotorVars._Flag_enablePowerWarp @ 128
      68 0000002b 0000          .bits   0,16                    ; _gMotorVars._Flag_enableSpeedCtrl @ 144
      69 0000002c 0001          .bits   1,16                    ; _gMotorVars._startup @ 160
      70 0000002d 0001          .bits   1,16                    ; _gMotorVars._CtrlState @ 176
      71 0000002e 0000          .bits   0,16                    ; _gMotorVars._EstState @ 192
      72 0000002f 0000          .bits   0,16                    ; _gMotorVars._UserErrorCode @ 208
      73 00000030 0000          .bits   0,16                    ; _gMotorVars._CtrlVersion._rsvd @ 224
      74 00000031 0000          .bits   0,16                    ; _gMotorVars._CtrlVersion._targetProc @ 240
      75 00000032 0000          .bits   0,16                    ; _gMotorVars._CtrlVersion._major @ 256
      76 00000033 9999          .bits   39321,16                        ; _gMotorVars._CtrlVersion._minor @ 272
      77 00000034 0000          .bits   0,32                    ; _gMotorVars._IdRef_A @ 288
         00000035 0000 
      78 00000036 3333          .bits   3355443,32                      ; _gMotorVars._IqRef_A @ 320
         00000037 0033 
      79 00000038 0000          .bits   0,32                    ; _gMotorVars._SpeedRef_pu @ 352
         00000039 0000 
      80 0000003a 0000          .bits   8388608,32                      ; _gMotorVars._SpeedRef_krpm @ 384
         0000003b 0080 
      81 0000003c CCCE          .bits   30198990,32                     ; _gMotorVars._SpeedTraj_krpm @ 416
         0000003d 01CC 
      82 0000003e 0190          .bits   400,32                  ; _gMotorVars._MaxAccel_krpmps @ 448
         0000003f 0000 
      83 00000040 0000          .bits   0,32                    ; _gMotorVars._Speed_krpm @ 480
         00000041 0000 
      84 00000042 0000          .bits   0,32                    ; _gMotorVars._OverModulation @ 512
         00000043 0000 
      85 00000044 0000          .bits   0,32                    ; _gMotorVars._RsOnLineCurrent_A @ 544
         00000045 0000 
      86 00000046 0000          .bits   0,32                    ; _gMotorVars._SvgenMaxModulation_ticks @ 576
         00000047 0000 
      87 00000048 0000          .bits   0,32                    ; _gMotorVars._Flux_Wb @ 608
         00000049 0000 
TMS320C2000 Assembler PC v6.4.11 Wed Nov 23 09:26:04 2016

Tools Copyright (c) 1996-2015 Texas Instruments Incorporated
C:\Users\bee25\AppData\Local\Temp\3596410                            PAGE    3

      88 0000004a 0000          .bits   0,32                    ; _gMotorVars._Torque_Nm @ 640
         0000004b 0000 
      89 0000004c 0000          .xfloat $strtod("0x0p+0")               ; _gMotorVars._MagnCurr_A @ 672
         0000004d 0000 
      90 0000004e 0000          .xfloat $strtod("0x0p+0")               ; _gMotorVars._Rr_Ohm @ 704
         0000004f 0000 
      91 00000050 0000          .xfloat $strtod("0x0p+0")               ; _gMotorVars._Rs_Ohm @ 736
         00000051 0000 
      92 00000052 0000          .xfloat $strtod("0x0p+0")               ; _gMotorVars._RsOnLine_Ohm @ 768
         00000053 0000 
      93 00000054 0000          .xfloat $strtod("0x0p+0")               ; _gMotorVars._Lsd_H @ 800
         00000055 0000 
      94 00000056 0000          .xfloat $strtod("0x0p+0")               ; _gMotorVars._Lsq_H @ 832
         00000057 0000 
      95 00000058 0000          .xfloat $strtod("0x0p+0")               ; _gMotorVars._Flux_VpHz @ 864
         00000059 0000 
      96 0000005a 0000          .xfloat $strtod("0x0p+0")               ; _gMotorVars._ipd_excFreq_Hz @ 896
         0000005b 0000 
      97 0000005c 0000          .bits   0,32                    ; _gMotorVars._ipd_Kspd @ 928
         0000005d 0000 
      98 0000005e 0000          .bits   0,32                    ; _gMotorVars._ipd_excMag_coarse_pu @ 960
         0000005f 0000 
      99 00000060 0000          .bits   0,32                    ; _gMotorVars._ipd_excMag_fine_pu @ 992
         00000061 0000 
     100 00000062 0000          .xfloat $strtod("0x0p+0")               ; _gMotorVars._ipd_waitTime_coarse_sec @ 1024
         00000063 0000 
     101 00000064 0000          .xfloat $strtod("0x0p+0")               ; _gMotorVars._ipd_waitTime_fine_sec @ 1056
         00000065 0000 
     102 00000066 0000          .bits   0,32                    ; _gMotorVars._Kp_spd @ 1088
         00000067 0000 
     103 00000068 0000          .bits   0,32                    ; _gMotorVars._Ki_spd @ 1120
         00000069 0000 
     104 0000006a 0000          .bits   0,32                    ; _gMotorVars._Kp_Idq @ 1152
         0000006b 0000 
     105 0000006c 6666          .bits   6710886,32                      ; _gMotorVars._Ki_Idq @ 1184
         0000006d 0066 
     106 0000006e 0000          .bits   0,32                    ; _gMotorVars._Vd @ 1216
         0000006f 0000 
     107 00000070 0000          .bits   0,32                    ; _gMotorVars._Vq @ 1248
         00000071 0000 
     108 00000072 0000          .bits   0,32                    ; _gMotorVars._Vs @ 1280
         00000073 0000 
     109 00000074 0000          .bits   0,32                    ; _gMotorVars._VsRef @ 1312
         00000075 0000 
     110 00000076 0000          .bits   0,32                    ; _gMotorVars._VdcBus_kV @ 1344
         00000077 0000 
     111 00000078 0000          .bits   0,32                    ; _gMotorVars._Id_A @ 1376
         00000079 0000 
     112        0058  $C$IR_2:        .set    88
     113              
     114              
     115              $C$DW$1 .dwtag  DW_TAG_subprogram, DW_AT_name("CTRL_setSpd_ref_krpm")
     116                      .dwattr $C$DW$1, DW_AT_TI_symbol_name("_CTRL_setSpd_ref_krpm")
     117                      .dwattr $C$DW$1, DW_AT_declaration
     118                      .dwattr $C$DW$1, DW_AT_external
TMS320C2000 Assembler PC v6.4.11 Wed Nov 23 09:26:04 2016

Tools Copyright (c) 1996-2015 Texas Instruments Incorporated
C:\Users\bee25\AppData\Local\Temp\3596410                            PAGE    4

     119              $C$DW$2 .dwtag  DW_TAG_formal_parameter
     120                      .dwattr $C$DW$2, DW_AT_type(*$C$DW$T$200)
     121              $C$DW$3 .dwtag  DW_TAG_formal_parameter
     122                      .dwattr $C$DW$3, DW_AT_type(*$C$DW$T$281)
     123                      .dwendtag $C$DW$1
     124              
     125              
     126              $C$DW$4 .dwtag  DW_TAG_subprogram, DW_AT_name("CTRL_setup")
     127                      .dwattr $C$DW$4, DW_AT_TI_symbol_name("_CTRL_setup")
     128                      .dwattr $C$DW$4, DW_AT_declaration
     129                      .dwattr $C$DW$4, DW_AT_external
     130              $C$DW$5 .dwtag  DW_TAG_formal_parameter
     131                      .dwattr $C$DW$5, DW_AT_type(*$C$DW$T$200)
     132                      .dwendtag $C$DW$4
     133              
     134              
     135              $C$DW$6 .dwtag  DW_TAG_subprogram, DW_AT_name("HAL_enableGlobalInts")
     136                      .dwattr $C$DW$6, DW_AT_TI_symbol_name("_HAL_enableGlobalInts")
     137                      .dwattr $C$DW$6, DW_AT_declaration
     138                      .dwattr $C$DW$6, DW_AT_external
     139              $C$DW$7 .dwtag  DW_TAG_formal_parameter
     140                      .dwattr $C$DW$7, DW_AT_type(*$C$DW$T$253)
     141                      .dwendtag $C$DW$6
     142              
     143              
     144              $C$DW$8 .dwtag  DW_TAG_subprogram, DW_AT_name("HAL_enableDrv")
     145                      .dwattr $C$DW$8, DW_AT_TI_symbol_name("_HAL_enableDrv")
     146                      .dwattr $C$DW$8, DW_AT_declaration
     147                      .dwattr $C$DW$8, DW_AT_external
     148              $C$DW$9 .dwtag  DW_TAG_formal_parameter
     149                      .dwattr $C$DW$9, DW_AT_type(*$C$DW$T$253)
     150                      .dwendtag $C$DW$8
     151              
     152              
     153              $C$DW$10        .dwtag  DW_TAG_subprogram, DW_AT_name("HAL_enableAdcInts")
     154                      .dwattr $C$DW$10, DW_AT_TI_symbol_name("_HAL_enableAdcInts")
     155                      .dwattr $C$DW$10, DW_AT_declaration
     156                      .dwattr $C$DW$10, DW_AT_external
     157              $C$DW$11        .dwtag  DW_TAG_formal_parameter
     158                      .dwattr $C$DW$11, DW_AT_type(*$C$DW$T$253)
     159                      .dwendtag $C$DW$10
     160              
     161              
     162              $C$DW$12        .dwtag  DW_TAG_subprogram, DW_AT_name("HAL_enableDebugInt")
     163                      .dwattr $C$DW$12, DW_AT_TI_symbol_name("_HAL_enableDebugInt")
     164                      .dwattr $C$DW$12, DW_AT_declaration
     165                      .dwattr $C$DW$12, DW_AT_external
     166              $C$DW$13        .dwtag  DW_TAG_formal_parameter
     167                      .dwattr $C$DW$13, DW_AT_type(*$C$DW$T$253)
     168                      .dwendtag $C$DW$12
     169              
     170              
     171              $C$DW$14        .dwtag  DW_TAG_subprogram, DW_AT_name("CTRL_run")
     172                      .dwattr $C$DW$14, DW_AT_TI_symbol_name("_CTRL_run")
     173                      .dwattr $C$DW$14, DW_AT_declaration
TMS320C2000 Assembler PC v6.4.11 Wed Nov 23 09:26:04 2016

Tools Copyright (c) 1996-2015 Texas Instruments Incorporated
C:\Users\bee25\AppData\Local\Temp\3596410                            PAGE    5

     174                      .dwattr $C$DW$14, DW_AT_external
     175              $C$DW$15        .dwtag  DW_TAG_formal_parameter
     176                      .dwattr $C$DW$15, DW_AT_type(*$C$DW$T$200)
     177              $C$DW$16        .dwtag  DW_TAG_formal_parameter
     178                      .dwattr $C$DW$16, DW_AT_type(*$C$DW$T$253)
     179              $C$DW$17        .dwtag  DW_TAG_formal_parameter
     180                      .dwattr $C$DW$17, DW_AT_type(*$C$DW$T$245)
     181              $C$DW$18        .dwtag  DW_TAG_formal_parameter
     182                      .dwattr $C$DW$18, DW_AT_type(*$C$DW$T$260)
     183                      .dwendtag $C$DW$14
     184              
     185              
     186              $C$DW$19        .dwtag  DW_TAG_subprogram, DW_AT_name("CTRL_setParams")
     187                      .dwattr $C$DW$19, DW_AT_TI_symbol_name("_CTRL_setParams")
     188                      .dwattr $C$DW$19, DW_AT_declaration
     189                      .dwattr $C$DW$19, DW_AT_external
     190              $C$DW$20        .dwtag  DW_TAG_formal_parameter
     191                      .dwattr $C$DW$20, DW_AT_type(*$C$DW$T$200)
     192              $C$DW$21        .dwtag  DW_TAG_formal_parameter
     193                      .dwattr $C$DW$21, DW_AT_type(*$C$DW$T$208)
     194                      .dwendtag $C$DW$19
     195              
     196              
     197              $C$DW$22        .dwtag  DW_TAG_subprogram, DW_AT_name("CTRL_getVersion")
     198                      .dwattr $C$DW$22, DW_AT_TI_symbol_name("_CTRL_getVersion")
     199                      .dwattr $C$DW$22, DW_AT_declaration
     200                      .dwattr $C$DW$22, DW_AT_external
     201              $C$DW$23        .dwtag  DW_TAG_formal_parameter
     202                      .dwattr $C$DW$23, DW_AT_type(*$C$DW$T$200)
     203              $C$DW$24        .dwtag  DW_TAG_formal_parameter
     204                      .dwattr $C$DW$24, DW_AT_type(*$C$DW$T$238)
     205                      .dwendtag $C$DW$22
     206              
     207              
     208              $C$DW$25        .dwtag  DW_TAG_subprogram, DW_AT_name("HAL_readDrvData")
     209                      .dwattr $C$DW$25, DW_AT_TI_symbol_name("_HAL_readDrvData")
     210                      .dwattr $C$DW$25, DW_AT_declaration
     211                      .dwattr $C$DW$25, DW_AT_external
     212              $C$DW$26        .dwtag  DW_TAG_formal_parameter
     213                      .dwattr $C$DW$26, DW_AT_type(*$C$DW$T$253)
     214              $C$DW$27        .dwtag  DW_TAG_formal_parameter
     215                      .dwattr $C$DW$27, DW_AT_type(*$C$DW$T$242)
     216                      .dwendtag $C$DW$25
     217              
     218              
     219              $C$DW$28        .dwtag  DW_TAG_subprogram, DW_AT_name("HAL_setupDrvSpi")
     220                      .dwattr $C$DW$28, DW_AT_TI_symbol_name("_HAL_setupDrvSpi")
     221                      .dwattr $C$DW$28, DW_AT_declaration
     222                      .dwattr $C$DW$28, DW_AT_external
     223              $C$DW$29        .dwtag  DW_TAG_formal_parameter
     224                      .dwattr $C$DW$29, DW_AT_type(*$C$DW$T$253)
     225              $C$DW$30        .dwtag  DW_TAG_formal_parameter
     226                      .dwattr $C$DW$30, DW_AT_type(*$C$DW$T$242)
     227                      .dwendtag $C$DW$28
     228              
TMS320C2000 Assembler PC v6.4.11 Wed Nov 23 09:26:04 2016

Tools Copyright (c) 1996-2015 Texas Instruments Incorporated
C:\Users\bee25\AppData\Local\Temp\3596410                            PAGE    6

     229              
     230              $C$DW$31        .dwtag  DW_TAG_subprogram, DW_AT_name("HAL_writeDrvData")
     231                      .dwattr $C$DW$31, DW_AT_TI_symbol_name("_HAL_writeDrvData")
     232                      .dwattr $C$DW$31, DW_AT_declaration
     233                      .dwattr $C$DW$31, DW_AT_external
     234              $C$DW$32        .dwtag  DW_TAG_formal_parameter
     235                      .dwattr $C$DW$32, DW_AT_type(*$C$DW$T$253)
     236              $C$DW$33        .dwtag  DW_TAG_formal_parameter
     237                      .dwattr $C$DW$33, DW_AT_type(*$C$DW$T$242)
     238                      .dwendtag $C$DW$31
     239              
     240              
     241              $C$DW$34        .dwtag  DW_TAG_subprogram, DW_AT_name("HAL_setupFaults")
     242                      .dwattr $C$DW$34, DW_AT_TI_symbol_name("_HAL_setupFaults")
     243                      .dwattr $C$DW$34, DW_AT_declaration
     244                      .dwattr $C$DW$34, DW_AT_external
     245              $C$DW$35        .dwtag  DW_TAG_formal_parameter
     246                      .dwattr $C$DW$35, DW_AT_type(*$C$DW$T$253)
     247                      .dwendtag $C$DW$34
     248              
     249              
     250              $C$DW$36        .dwtag  DW_TAG_subprogram, DW_AT_name("HAL_setParams")
     251                      .dwattr $C$DW$36, DW_AT_TI_symbol_name("_HAL_setParams")
     252                      .dwattr $C$DW$36, DW_AT_declaration
     253                      .dwattr $C$DW$36, DW_AT_external
     254              $C$DW$37        .dwtag  DW_TAG_formal_parameter
     255                      .dwattr $C$DW$37, DW_AT_type(*$C$DW$T$253)
     256              $C$DW$38        .dwtag  DW_TAG_formal_parameter
     257                      .dwattr $C$DW$38, DW_AT_type(*$C$DW$T$272)
     258                      .dwendtag $C$DW$36
     259              
     260              
     261              $C$DW$39        .dwtag  DW_TAG_subprogram, DW_AT_name("GPIO_toggle")
     262                      .dwattr $C$DW$39, DW_AT_TI_symbol_name("_GPIO_toggle")
     263                      .dwattr $C$DW$39, DW_AT_declaration
     264                      .dwattr $C$DW$39, DW_AT_external
     265              $C$DW$40        .dwtag  DW_TAG_formal_parameter
     266                      .dwattr $C$DW$40, DW_AT_type(*$C$DW$T$78)
     267              $C$DW$41        .dwtag  DW_TAG_formal_parameter
     268                      .dwattr $C$DW$41, DW_AT_type(*$C$DW$T$202)
     269                      .dwendtag $C$DW$39
     270              
     271              
     272              $C$DW$42        .dwtag  DW_TAG_subprogram, DW_AT_name("USER_setParams")
     273                      .dwattr $C$DW$42, DW_AT_TI_symbol_name("_USER_setParams")
     274                      .dwattr $C$DW$42, DW_AT_declaration
     275                      .dwattr $C$DW$42, DW_AT_external
     276              $C$DW$43        .dwtag  DW_TAG_formal_parameter
     277                      .dwattr $C$DW$43, DW_AT_type(*$C$DW$T$208)
     278                      .dwendtag $C$DW$42
     279              
     280              
     281              $C$DW$44        .dwtag  DW_TAG_subprogram, DW_AT_name("USER_checkForErrors")
     282                      .dwattr $C$DW$44, DW_AT_TI_symbol_name("_USER_checkForErrors")
     283                      .dwattr $C$DW$44, DW_AT_declaration
TMS320C2000 Assembler PC v6.4.11 Wed Nov 23 09:26:04 2016

Tools Copyright (c) 1996-2015 Texas Instruments Incorporated
C:\Users\bee25\AppData\Local\Temp\3596410                            PAGE    7

     284                      .dwattr $C$DW$44, DW_AT_external
     285              $C$DW$45        .dwtag  DW_TAG_formal_parameter
     286                      .dwattr $C$DW$45, DW_AT_type(*$C$DW$T$208)
     287                      .dwendtag $C$DW$44
     288              
     289              
     290              $C$DW$46        .dwtag  DW_TAG_subprogram, DW_AT_name("EST_setFe_neg_max_pu")
     291                      .dwattr $C$DW$46, DW_AT_TI_symbol_name("_EST_setFe_neg_max_pu")
     292                      .dwattr $C$DW$46, DW_AT_declaration
     293                      .dwattr $C$DW$46, DW_AT_external
     294              $C$DW$47        .dwtag  DW_TAG_formal_parameter
     295                      .dwattr $C$DW$47, DW_AT_type(*$C$DW$T$47)
     296              $C$DW$48        .dwtag  DW_TAG_formal_parameter
     297                      .dwattr $C$DW$48, DW_AT_type(*$C$DW$T$281)
     298                      .dwendtag $C$DW$46
     299              
     300              
     301              $C$DW$49        .dwtag  DW_TAG_subprogram, DW_AT_name("EST_setFe_pos_min_pu")
     302                      .dwattr $C$DW$49, DW_AT_TI_symbol_name("_EST_setFe_pos_min_pu")
     303                      .dwattr $C$DW$49, DW_AT_declaration
     304                      .dwattr $C$DW$49, DW_AT_external
     305              $C$DW$50        .dwtag  DW_TAG_formal_parameter
     306                      .dwattr $C$DW$50, DW_AT_type(*$C$DW$T$47)
     307              $C$DW$51        .dwtag  DW_TAG_formal_parameter
     308                      .dwattr $C$DW$51, DW_AT_type(*$C$DW$T$281)
     309                      .dwendtag $C$DW$49
     310              
     311              
     312              $C$DW$52        .dwtag  DW_TAG_subprogram, DW_AT_name("EST_setDir_qFmt")
     313                      .dwattr $C$DW$52, DW_AT_TI_symbol_name("_EST_setDir_qFmt")
     314                      .dwattr $C$DW$52, DW_AT_declaration
     315                      .dwattr $C$DW$52, DW_AT_external
     316              $C$DW$53        .dwtag  DW_TAG_formal_parameter
     317                      .dwattr $C$DW$53, DW_AT_type(*$C$DW$T$47)
     318              $C$DW$54        .dwtag  DW_TAG_formal_parameter
     319                      .dwattr $C$DW$54, DW_AT_type(*$C$DW$T$231)
     320                      .dwendtag $C$DW$52
     321              
     322              
     323              $C$DW$55        .dwtag  DW_TAG_subprogram, DW_AT_name("EST_setMaxCurrentSlope_pu")
     324                      .dwattr $C$DW$55, DW_AT_TI_symbol_name("_EST_setMaxCurrentSlope_pu")
     325                      .dwattr $C$DW$55, DW_AT_declaration
     326                      .dwattr $C$DW$55, DW_AT_external
     327              $C$DW$56        .dwtag  DW_TAG_formal_parameter
     328                      .dwattr $C$DW$56, DW_AT_type(*$C$DW$T$47)
     329              $C$DW$57        .dwtag  DW_TAG_formal_parameter
     330                      .dwattr $C$DW$57, DW_AT_type(*$C$DW$T$281)
     331                      .dwendtag $C$DW$55
     332              
     333              
     334              $C$DW$58        .dwtag  DW_TAG_subprogram, DW_AT_name("USER_calcPIgains")
     335                      .dwattr $C$DW$58, DW_AT_TI_symbol_name("_USER_calcPIgains")
     336                      .dwattr $C$DW$58, DW_AT_declaration
     337                      .dwattr $C$DW$58, DW_AT_external
     338              $C$DW$59        .dwtag  DW_TAG_formal_parameter
TMS320C2000 Assembler PC v6.4.11 Wed Nov 23 09:26:04 2016

Tools Copyright (c) 1996-2015 Texas Instruments Incorporated
C:\Users\bee25\AppData\Local\Temp\3596410                            PAGE    8

     339                      .dwattr $C$DW$59, DW_AT_type(*$C$DW$T$200)
     340                      .dwendtag $C$DW$58
     341              
     342              
     343              $C$DW$60        .dwtag  DW_TAG_subprogram, DW_AT_name("memCopy")
     344                      .dwattr $C$DW$60, DW_AT_TI_symbol_name("_memCopy")
     345                      .dwattr $C$DW$60, DW_AT_declaration
     346                      .dwattr $C$DW$60, DW_AT_external
     347              $C$DW$61        .dwtag  DW_TAG_formal_parameter
     348                      .dwattr $C$DW$61, DW_AT_type(*$C$DW$T$275)
     349              $C$DW$62        .dwtag  DW_TAG_formal_parameter
     350                      .dwattr $C$DW$62, DW_AT_type(*$C$DW$T$275)
     351              $C$DW$63        .dwtag  DW_TAG_formal_parameter
     352                      .dwattr $C$DW$63, DW_AT_type(*$C$DW$T$275)
     353                      .dwendtag $C$DW$60
     354              
     355              
     356              $C$DW$64        .dwtag  DW_TAG_subprogram, DW_AT_name("USER_softwareUpdate1p6")
     357                      .dwattr $C$DW$64, DW_AT_TI_symbol_name("_USER_softwareUpdate1p6")
     358                      .dwattr $C$DW$64, DW_AT_declaration
     359                      .dwattr $C$DW$64, DW_AT_external
     360              $C$DW$65        .dwtag  DW_TAG_formal_parameter
     361                      .dwattr $C$DW$65, DW_AT_type(*$C$DW$T$200)
     362                      .dwendtag $C$DW$64
     363              
     364              
     365              $C$DW$66        .dwtag  DW_TAG_subprogram, DW_AT_name("EST_setFlag_enableForceAngle")
     366                      .dwattr $C$DW$66, DW_AT_TI_symbol_name("_EST_setFlag_enableForceAngle")
     367                      .dwattr $C$DW$66, DW_AT_declaration
     368                      .dwattr $C$DW$66, DW_AT_external
     369              $C$DW$67        .dwtag  DW_TAG_formal_parameter
     370                      .dwattr $C$DW$67, DW_AT_type(*$C$DW$T$47)
     371              $C$DW$68        .dwtag  DW_TAG_formal_parameter
     372                      .dwattr $C$DW$68, DW_AT_type(*$C$DW$T$278)
     373                      .dwendtag $C$DW$66
     374              
     375              
     376              $C$DW$69        .dwtag  DW_TAG_subprogram, DW_AT_name("EST_getState")
     377                      .dwattr $C$DW$69, DW_AT_TI_symbol_name("_EST_getState")
     378                      .dwattr $C$DW$69, DW_AT_type(*$C$DW$T$164)
     379                      .dwattr $C$DW$69, DW_AT_declaration
     380                      .dwattr $C$DW$69, DW_AT_external
     381              $C$DW$70        .dwtag  DW_TAG_formal_parameter
     382                      .dwattr $C$DW$70, DW_AT_type(*$C$DW$T$47)
     383                      .dwendtag $C$DW$69
     384              
     385                      .global _Flag_Latch_softwareUpdate
     386 00000000       _Flag_Latch_softwareUpdate:     .usect  ".ebss",1,1,0
     387              $C$DW$71        .dwtag  DW_TAG_variable, DW_AT_name("Flag_Latch_softwareUpdate")
     388                      .dwattr $C$DW$71, DW_AT_TI_symbol_name("_Flag_Latch_softwareUpdate")
     389                      .dwattr $C$DW$71, DW_AT_location[DW_OP_addr _Flag_Latch_softwareUpdate]
     390                      .dwattr $C$DW$71, DW_AT_type(*$C$DW$T$70)
     391                      .dwattr $C$DW$71, DW_AT_external
     392                      .global _gCounter_updateGlobals
     393 00000001       _gCounter_updateGlobals:        .usect  ".ebss",1,1,0
TMS320C2000 Assembler PC v6.4.11 Wed Nov 23 09:26:04 2016

Tools Copyright (c) 1996-2015 Texas Instruments Incorporated
C:\Users\bee25\AppData\Local\Temp\3596410                            PAGE    9

     394              $C$DW$72        .dwtag  DW_TAG_variable, DW_AT_name("gCounter_updateGlobals")
     395                      .dwattr $C$DW$72, DW_AT_TI_symbol_name("_gCounter_updateGlobals")
     396                      .dwattr $C$DW$72, DW_AT_location[DW_OP_addr _gCounter_updateGlobals]
     397                      .dwattr $C$DW$72, DW_AT_type(*$C$DW$T$67)
     398                      .dwattr $C$DW$72, DW_AT_external
     399              
     400              $C$DW$73        .dwtag  DW_TAG_subprogram, DW_AT_name("EST_isMotorIdentified")
     401                      .dwattr $C$DW$73, DW_AT_TI_symbol_name("_EST_isMotorIdentified")
     402                      .dwattr $C$DW$73, DW_AT_type(*$C$DW$T$70)
     403                      .dwattr $C$DW$73, DW_AT_declaration
     404                      .dwattr $C$DW$73, DW_AT_external
     405              $C$DW$74        .dwtag  DW_TAG_formal_parameter
     406                      .dwattr $C$DW$74, DW_AT_type(*$C$DW$T$47)
     407                      .dwendtag $C$DW$73
     408              
     409              
     410              $C$DW$75        .dwtag  DW_TAG_subprogram, DW_AT_name("EST_computeDirection_qFmt")
     411                      .dwattr $C$DW$75, DW_AT_TI_symbol_name("_EST_computeDirection_qFmt")
     412                      .dwattr $C$DW$75, DW_AT_type(*$C$DW$T$33)
     413                      .dwattr $C$DW$75, DW_AT_declaration
     414                      .dwattr $C$DW$75, DW_AT_external
     415              $C$DW$76        .dwtag  DW_TAG_formal_parameter
     416                      .dwattr $C$DW$76, DW_AT_type(*$C$DW$T$47)
     417              $C$DW$77        .dwtag  DW_TAG_formal_parameter
     418                      .dwattr $C$DW$77, DW_AT_type(*$C$DW$T$308)
     419                      .dwendtag $C$DW$75
     420              
     421              
     422              $C$DW$78        .dwtag  DW_TAG_subprogram, DW_AT_name("USER_getErrorCode")
     423                      .dwattr $C$DW$78, DW_AT_TI_symbol_name("_USER_getErrorCode")
     424                      .dwattr $C$DW$78, DW_AT_type(*$C$DW$T$166)
     425                      .dwattr $C$DW$78, DW_AT_declaration
     426                      .dwattr $C$DW$78, DW_AT_external
     427              $C$DW$79        .dwtag  DW_TAG_formal_parameter
     428                      .dwattr $C$DW$79, DW_AT_type(*$C$DW$T$208)
     429                      .dwendtag $C$DW$78
     430              
     431                      .global _gLEDcnt
     432 00000002       _gLEDcnt:       .usect  ".ebss",1,1,0
     433              $C$DW$80        .dwtag  DW_TAG_variable, DW_AT_name("gLEDcnt")
     434                      .dwattr $C$DW$80, DW_AT_TI_symbol_name("_gLEDcnt")
     435                      .dwattr $C$DW$80, DW_AT_location[DW_OP_addr _gLEDcnt]
     436                      .dwattr $C$DW$80, DW_AT_type(*$C$DW$T$23)
     437                      .dwattr $C$DW$80, DW_AT_external
     438              
     439              $C$DW$81        .dwtag  DW_TAG_subprogram, DW_AT_name("CTRL_updateState")
     440                      .dwattr $C$DW$81, DW_AT_TI_symbol_name("_CTRL_updateState")
     441                      .dwattr $C$DW$81, DW_AT_type(*$C$DW$T$70)
     442                      .dwattr $C$DW$81, DW_AT_declaration
     443                      .dwattr $C$DW$81, DW_AT_external
     444              $C$DW$82        .dwtag  DW_TAG_formal_parameter
     445                      .dwattr $C$DW$82, DW_AT_type(*$C$DW$T$200)
     446                      .dwendtag $C$DW$81
     447              
     448                      .global _gMaxCurrentSlope
TMS320C2000 Assembler PC v6.4.11 Wed Nov 23 09:26:04 2016

Tools Copyright (c) 1996-2015 Texas Instruments Incorporated
C:\Users\bee25\AppData\Local\Temp\3596410                            PAGE   10

     449 00000004       _gMaxCurrentSlope:      .usect  ".ebss",2,1,1
     450              $C$DW$83        .dwtag  DW_TAG_variable, DW_AT_name("gMaxCurrentSlope")
     451                      .dwattr $C$DW$83, DW_AT_TI_symbol_name("_gMaxCurrentSlope")
     452                      .dwattr $C$DW$83, DW_AT_location[DW_OP_addr _gMaxCurrentSlope]
     453                      .dwattr $C$DW$83, DW_AT_type(*$C$DW$T$32)
     454                      .dwattr $C$DW$83, DW_AT_external
     455                      .global _halHandle
     456 00000000       _halHandle:     .usect  "rom_accessed_data",2,1,1
     457              $C$DW$84        .dwtag  DW_TAG_variable, DW_AT_name("halHandle")
     458                      .dwattr $C$DW$84, DW_AT_TI_symbol_name("_halHandle")
     459                      .dwattr $C$DW$84, DW_AT_location[DW_OP_addr _halHandle]
     460                      .dwattr $C$DW$84, DW_AT_type(*$C$DW$T$253)
     461                      .dwattr $C$DW$84, DW_AT_external
     462              $C$DW$85        .dwtag  DW_TAG_variable, DW_AT_name("RamfuncsLoadStart")
     463                      .dwattr $C$DW$85, DW_AT_TI_symbol_name("_RamfuncsLoadStart")
     464                      .dwattr $C$DW$85, DW_AT_type(*$C$DW$T$275)
     465                      .dwattr $C$DW$85, DW_AT_declaration
     466                      .dwattr $C$DW$85, DW_AT_external
     467              
     468              $C$DW$86        .dwtag  DW_TAG_subprogram, DW_AT_name("__IQmpy")
     469                      .dwattr $C$DW$86, DW_AT_TI_symbol_name("___IQmpy")
     470                      .dwattr $C$DW$86, DW_AT_type(*$C$DW$T$12)
     471                      .dwattr $C$DW$86, DW_AT_declaration
     472                      .dwattr $C$DW$86, DW_AT_external
     473              $C$DW$87        .dwtag  DW_TAG_formal_parameter
     474                      .dwattr $C$DW$87, DW_AT_type(*$C$DW$T$12)
     475              $C$DW$88        .dwtag  DW_TAG_formal_parameter
     476                      .dwattr $C$DW$88, DW_AT_type(*$C$DW$T$12)
     477              $C$DW$89        .dwtag  DW_TAG_formal_parameter
     478                      .dwattr $C$DW$89, DW_AT_type(*$C$DW$T$10)
     479                      .dwendtag $C$DW$86
     480              
     481              
     482              $C$DW$90        .dwtag  DW_TAG_subprogram, DW_AT_name("__IQsat")
     483                      .dwattr $C$DW$90, DW_AT_TI_symbol_name("___IQsat")
     484                      .dwattr $C$DW$90, DW_AT_type(*$C$DW$T$12)
     485                      .dwattr $C$DW$90, DW_AT_declaration
     486                      .dwattr $C$DW$90, DW_AT_external
     487              $C$DW$91        .dwtag  DW_TAG_formal_parameter
     488                      .dwattr $C$DW$91, DW_AT_type(*$C$DW$T$12)
     489              $C$DW$92        .dwtag  DW_TAG_formal_parameter
     490                      .dwattr $C$DW$92, DW_AT_type(*$C$DW$T$12)
     491              $C$DW$93        .dwtag  DW_TAG_formal_parameter
     492                      .dwattr $C$DW$93, DW_AT_type(*$C$DW$T$12)
     493                      .dwendtag $C$DW$90
     494              
     495                      .global _ctrlHandle
     496 00000006       _ctrlHandle:    .usect  ".ebss",2,1,1
     497              $C$DW$94        .dwtag  DW_TAG_variable, DW_AT_name("ctrlHandle")
     498                      .dwattr $C$DW$94, DW_AT_TI_symbol_name("_ctrlHandle")
     499                      .dwattr $C$DW$94, DW_AT_location[DW_OP_addr _ctrlHandle]
     500                      .dwattr $C$DW$94, DW_AT_type(*$C$DW$T$200)
     501                      .dwattr $C$DW$94, DW_AT_external
     502              $C$DW$95        .dwtag  DW_TAG_variable, DW_AT_name("switch_end")
     503                      .dwattr $C$DW$95, DW_AT_TI_symbol_name("_switch_end")
TMS320C2000 Assembler PC v6.4.11 Wed Nov 23 09:26:04 2016

Tools Copyright (c) 1996-2015 Texas Instruments Incorporated
C:\Users\bee25\AppData\Local\Temp\3596410                            PAGE   11

     504                      .dwattr $C$DW$95, DW_AT_type(*$C$DW$T$275)
     505                      .dwattr $C$DW$95, DW_AT_declaration
     506                      .dwattr $C$DW$95, DW_AT_external
     507              $C$DW$96        .dwtag  DW_TAG_variable, DW_AT_name("econst_start")
     508                      .dwattr $C$DW$96, DW_AT_TI_symbol_name("_econst_start")
     509                      .dwattr $C$DW$96, DW_AT_type(*$C$DW$T$275)
     510                      .dwattr $C$DW$96, DW_AT_declaration
     511                      .dwattr $C$DW$96, DW_AT_external
     512              $C$DW$97        .dwtag  DW_TAG_variable, DW_AT_name("switch_start")
     513                      .dwattr $C$DW$97, DW_AT_TI_symbol_name("_switch_start")
     514                      .dwattr $C$DW$97, DW_AT_type(*$C$DW$T$275)
     515                      .dwattr $C$DW$97, DW_AT_declaration
     516                      .dwattr $C$DW$97, DW_AT_external
     517              $C$DW$98        .dwtag  DW_TAG_variable, DW_AT_name("econst_end")
     518                      .dwattr $C$DW$98, DW_AT_TI_symbol_name("_econst_end")
     519                      .dwattr $C$DW$98, DW_AT_type(*$C$DW$T$275)
     520                      .dwattr $C$DW$98, DW_AT_declaration
     521                      .dwattr $C$DW$98, DW_AT_external
     522              $C$DW$99        .dwtag  DW_TAG_variable, DW_AT_name("RamfuncsRunStart")
     523                      .dwattr $C$DW$99, DW_AT_TI_symbol_name("_RamfuncsRunStart")
     524                      .dwattr $C$DW$99, DW_AT_type(*$C$DW$T$275)
     525                      .dwattr $C$DW$99, DW_AT_declaration
     526                      .dwattr $C$DW$99, DW_AT_external
     527              $C$DW$100       .dwtag  DW_TAG_variable, DW_AT_name("RamfuncsLoadEnd")
     528                      .dwattr $C$DW$100, DW_AT_TI_symbol_name("_RamfuncsLoadEnd")
     529                      .dwattr $C$DW$100, DW_AT_type(*$C$DW$T$275)
     530                      .dwattr $C$DW$100, DW_AT_declaration
     531                      .dwattr $C$DW$100, DW_AT_external
     532              $C$DW$101       .dwtag  DW_TAG_variable, DW_AT_name("switch_ram_load")
     533                      .dwattr $C$DW$101, DW_AT_TI_symbol_name("_switch_ram_load")
     534                      .dwattr $C$DW$101, DW_AT_type(*$C$DW$T$275)
     535                      .dwattr $C$DW$101, DW_AT_declaration
     536                      .dwattr $C$DW$101, DW_AT_external
     537 00000008       _current$1:     .usect  ".ebss",2,1,1
     538              
     539              $C$DW$102       .dwtag  DW_TAG_subprogram, DW_AT_name("CTRL_initCtrl")
     540                      .dwattr $C$DW$102, DW_AT_TI_symbol_name("_CTRL_initCtrl")
     541                      .dwattr $C$DW$102, DW_AT_type(*$C$DW$T$200)
     542                      .dwattr $C$DW$102, DW_AT_declaration
     543                      .dwattr $C$DW$102, DW_AT_external
     544              $C$DW$103       .dwtag  DW_TAG_formal_parameter
     545                      .dwattr $C$DW$103, DW_AT_type(*$C$DW$T$231)
     546              $C$DW$104       .dwtag  DW_TAG_formal_parameter
     547                      .dwattr $C$DW$104, DW_AT_type(*$C$DW$T$3)
     548              $C$DW$105       .dwtag  DW_TAG_formal_parameter
     549                      .dwattr $C$DW$105, DW_AT_type(*$C$DW$T$233)
     550                      .dwendtag $C$DW$102
     551              
     552              
     553              $C$DW$106       .dwtag  DW_TAG_subprogram, DW_AT_name("HAL_init")
     554                      .dwattr $C$DW$106, DW_AT_TI_symbol_name("_HAL_init")
     555                      .dwattr $C$DW$106, DW_AT_type(*$C$DW$T$253)
     556                      .dwattr $C$DW$106, DW_AT_declaration
     557                      .dwattr $C$DW$106, DW_AT_external
     558              $C$DW$107       .dwtag  DW_TAG_formal_parameter
TMS320C2000 Assembler PC v6.4.11 Wed Nov 23 09:26:04 2016

Tools Copyright (c) 1996-2015 Texas Instruments Incorporated
C:\Users\bee25\AppData\Local\Temp\3596410                            PAGE   12

     559                      .dwattr $C$DW$107, DW_AT_type(*$C$DW$T$3)
     560              $C$DW$108       .dwtag  DW_TAG_formal_parameter
     561                      .dwattr $C$DW$108, DW_AT_type(*$C$DW$T$233)
     562                      .dwendtag $C$DW$106
     563              
     564              
     565              $C$DW$109       .dwtag  DW_TAG_subprogram, DW_AT_name("EST_getSpeed_krpm")
     566                      .dwattr $C$DW$109, DW_AT_TI_symbol_name("_EST_getSpeed_krpm")
     567                      .dwattr $C$DW$109, DW_AT_type(*$C$DW$T$32)
     568                      .dwattr $C$DW$109, DW_AT_declaration
     569                      .dwattr $C$DW$109, DW_AT_external
     570              $C$DW$110       .dwtag  DW_TAG_formal_parameter
     571                      .dwattr $C$DW$110, DW_AT_type(*$C$DW$T$47)
     572                      .dwendtag $C$DW$109
     573              
     574              
     575              $C$DW$111       .dwtag  DW_TAG_subprogram, DW_AT_name("EST_getRr_Ohm")
     576                      .dwattr $C$DW$111, DW_AT_TI_symbol_name("_EST_getRr_Ohm")
     577                      .dwattr $C$DW$111, DW_AT_type(*$C$DW$T$68)
     578                      .dwattr $C$DW$111, DW_AT_declaration
     579                      .dwattr $C$DW$111, DW_AT_external
     580              $C$DW$112       .dwtag  DW_TAG_formal_parameter
     581                      .dwattr $C$DW$112, DW_AT_type(*$C$DW$T$47)
     582                      .dwendtag $C$DW$111
     583              
     584              
     585              $C$DW$113       .dwtag  DW_TAG_subprogram, DW_AT_name("EST_getRs_Ohm")
     586                      .dwattr $C$DW$113, DW_AT_TI_symbol_name("_EST_getRs_Ohm")
     587                      .dwattr $C$DW$113, DW_AT_type(*$C$DW$T$68)
     588                      .dwattr $C$DW$113, DW_AT_declaration
     589                      .dwattr $C$DW$113, DW_AT_external
     590              $C$DW$114       .dwtag  DW_TAG_formal_parameter
     591                      .dwattr $C$DW$114, DW_AT_type(*$C$DW$T$47)
     592                      .dwendtag $C$DW$113
     593              
     594              
     595              $C$DW$115       .dwtag  DW_TAG_subprogram, DW_AT_name("EST_getMaxCurrentSlope_pu")
     596                      .dwattr $C$DW$115, DW_AT_TI_symbol_name("_EST_getMaxCurrentSlope_pu")
     597                      .dwattr $C$DW$115, DW_AT_type(*$C$DW$T$32)
     598                      .dwattr $C$DW$115, DW_AT_declaration
     599                      .dwattr $C$DW$115, DW_AT_external
     600              $C$DW$116       .dwtag  DW_TAG_formal_parameter
     601                      .dwattr $C$DW$116, DW_AT_type(*$C$DW$T$47)
     602                      .dwendtag $C$DW$115
     603              
     604              
     605              $C$DW$117       .dwtag  DW_TAG_subprogram, DW_AT_name("EST_getIdRated")
     606                      .dwattr $C$DW$117, DW_AT_TI_symbol_name("_EST_getIdRated")
     607                      .dwattr $C$DW$117, DW_AT_type(*$C$DW$T$68)
     608                      .dwattr $C$DW$117, DW_AT_declaration
     609                      .dwattr $C$DW$117, DW_AT_external
     610              $C$DW$118       .dwtag  DW_TAG_formal_parameter
     611                      .dwattr $C$DW$118, DW_AT_type(*$C$DW$T$47)
     612                      .dwendtag $C$DW$117
     613              
TMS320C2000 Assembler PC v6.4.11 Wed Nov 23 09:26:04 2016

Tools Copyright (c) 1996-2015 Texas Instruments Incorporated
C:\Users\bee25\AppData\Local\Temp\3596410                            PAGE   13

     614              
     615              $C$DW$119       .dwtag  DW_TAG_subprogram, DW_AT_name("EST_getLs_d_H")
     616                      .dwattr $C$DW$119, DW_AT_TI_symbol_name("_EST_getLs_d_H")
     617                      .dwattr $C$DW$119, DW_AT_type(*$C$DW$T$68)
     618                      .dwattr $C$DW$119, DW_AT_declaration
     619                      .dwattr $C$DW$119, DW_AT_external
     620              $C$DW$120       .dwtag  DW_TAG_formal_parameter
     621                      .dwattr $C$DW$120, DW_AT_type(*$C$DW$T$47)
     622                      .dwendtag $C$DW$119
     623              
     624              
     625              $C$DW$121       .dwtag  DW_TAG_subprogram, DW_AT_name("EST_getFlux_VpHz")
     626                      .dwattr $C$DW$121, DW_AT_TI_symbol_name("_EST_getFlux_VpHz")
     627                      .dwattr $C$DW$121, DW_AT_type(*$C$DW$T$68)
     628                      .dwattr $C$DW$121, DW_AT_declaration
     629                      .dwattr $C$DW$121, DW_AT_external
     630              $C$DW$122       .dwtag  DW_TAG_formal_parameter
     631                      .dwattr $C$DW$122, DW_AT_type(*$C$DW$T$47)
     632                      .dwendtag $C$DW$121
     633              
     634              
     635              $C$DW$123       .dwtag  DW_TAG_subprogram, DW_AT_name("EST_get_pu_to_krpm_sf")
     636                      .dwattr $C$DW$123, DW_AT_TI_symbol_name("_EST_get_pu_to_krpm_sf")
     637                      .dwattr $C$DW$123, DW_AT_type(*$C$DW$T$32)
     638                      .dwattr $C$DW$123, DW_AT_declaration
     639                      .dwattr $C$DW$123, DW_AT_external
     640              $C$DW$124       .dwtag  DW_TAG_formal_parameter
     641                      .dwattr $C$DW$124, DW_AT_type(*$C$DW$T$47)
     642                      .dwendtag $C$DW$123
     643              
     644              $C$DW$125       .dwtag  DW_TAG_variable, DW_AT_name("econst_ram_load")
     645                      .dwattr $C$DW$125, DW_AT_TI_symbol_name("_econst_ram_load")
     646                      .dwattr $C$DW$125, DW_AT_type(*$C$DW$T$275)
     647                      .dwattr $C$DW$125, DW_AT_declaration
     648                      .dwattr $C$DW$125, DW_AT_external
     649              
     650              $C$DW$126       .dwtag  DW_TAG_subprogram, DW_AT_name("EST_getLs_q_H")
     651                      .dwattr $C$DW$126, DW_AT_TI_symbol_name("_EST_getLs_q_H")
     652                      .dwattr $C$DW$126, DW_AT_type(*$C$DW$T$68)
     653                      .dwattr $C$DW$126, DW_AT_declaration
     654                      .dwattr $C$DW$126, DW_AT_external
     655              $C$DW$127       .dwtag  DW_TAG_formal_parameter
     656                      .dwattr $C$DW$127, DW_AT_type(*$C$DW$T$47)
     657                      .dwendtag $C$DW$126
     658              
     659                      .global _gPwmData
     660 0000000a       _gPwmData:      .usect  ".ebss",6,1,1
     661              $C$DW$128       .dwtag  DW_TAG_variable, DW_AT_name("gPwmData")
     662                      .dwattr $C$DW$128, DW_AT_TI_symbol_name("_gPwmData")
     663                      .dwattr $C$DW$128, DW_AT_location[DW_OP_addr _gPwmData]
     664                      .dwattr $C$DW$128, DW_AT_type(*$C$DW$T$259)
     665                      .dwattr $C$DW$128, DW_AT_external
     666                      .global _gAdcData
     667 00000010       _gAdcData:      .usect  ".ebss",16,1,1
     668              $C$DW$129       .dwtag  DW_TAG_variable, DW_AT_name("gAdcData")
TMS320C2000 Assembler PC v6.4.11 Wed Nov 23 09:26:04 2016

Tools Copyright (c) 1996-2015 Texas Instruments Incorporated
C:\Users\bee25\AppData\Local\Temp\3596410                            PAGE   14

     669                      .dwattr $C$DW$129, DW_AT_TI_symbol_name("_gAdcData")
     670                      .dwattr $C$DW$129, DW_AT_location[DW_OP_addr _gAdcData]
     671                      .dwattr $C$DW$129, DW_AT_type(*$C$DW$T$146)
     672                      .dwattr $C$DW$129, DW_AT_external
     673                      .global _gDrvSpi8301Vars
     674 00000020       _gDrvSpi8301Vars:       .usect  ".ebss",24,1,0
     675              $C$DW$130       .dwtag  DW_TAG_variable, DW_AT_name("gDrvSpi8301Vars")
     676                      .dwattr $C$DW$130, DW_AT_TI_symbol_name("_gDrvSpi8301Vars")
     677                      .dwattr $C$DW$130, DW_AT_location[DW_OP_addr _gDrvSpi8301Vars]
     678                      .dwattr $C$DW$130, DW_AT_type(*$C$DW$T$241)
     679                      .dwattr $C$DW$130, DW_AT_external
     680                      .global _gMotorVars
     681 00000040       _gMotorVars:    .usect  ".ebss",104,1,1
     682              $C$DW$131       .dwtag  DW_TAG_variable, DW_AT_name("gMotorVars")
     683                      .dwattr $C$DW$131, DW_AT_TI_symbol_name("_gMotorVars")
     684                      .dwattr $C$DW$131, DW_AT_location[DW_OP_addr _gMotorVars]
     685                      .dwattr $C$DW$131, DW_AT_type(*$C$DW$T$263)
     686                      .dwattr $C$DW$131, DW_AT_external
     687                      .global _gUserParams
     688 00000040       _gUserParams:   .usect  "rom_accessed_data",172,1,1
     689              $C$DW$132       .dwtag  DW_TAG_variable, DW_AT_name("gUserParams")
     690                      .dwattr $C$DW$132, DW_AT_TI_symbol_name("_gUserParams")
     691                      .dwattr $C$DW$132, DW_AT_location[DW_OP_addr _gUserParams]
     692                      .dwattr $C$DW$132, DW_AT_type(*$C$DW$T$207)
     693                      .dwattr $C$DW$132, DW_AT_external
     694              $C$DW$133       .dwtag  DW_TAG_variable, DW_AT_name("hal")
     695                      .dwattr $C$DW$133, DW_AT_TI_symbol_name("_hal")
     696                      .dwattr $C$DW$133, DW_AT_type(*$C$DW$T$250)
     697                      .dwattr $C$DW$133, DW_AT_declaration
     698                      .dwattr $C$DW$133, DW_AT_external
     699                      .global _ctrl
     700 00000100       _ctrl:  .usect  "rom_accessed_data",264,1,1
     701              $C$DW$134       .dwtag  DW_TAG_variable, DW_AT_name("ctrl")
     702                      .dwattr $C$DW$134, DW_AT_TI_symbol_name("_ctrl")
     703                      .dwattr $C$DW$134, DW_AT_location[DW_OP_addr _ctrl]
     704                      .dwattr $C$DW$134, DW_AT_type(*$C$DW$T$228)
     705                      .dwattr $C$DW$134, DW_AT_external
     706              ;       C:\ti\ccsv6\tools\compiler\c2000_6.4.11\bin\opt2000.exe C:\\Users\\bee25\\AppData\\Local\\Temp\\35964
     707              ;       C:\ti\ccsv6\tools\compiler\c2000_6.4.11\bin\ac2000.exe -@C:\\Users\\bee25\\AppData\\Local\\Temp\\3596
     708 00000000               .sect   ".text"
     709                      .clink
     710                      .global _updateGlobalVariables_motor
     711              
     712              $C$DW$135       .dwtag  DW_TAG_subprogram, DW_AT_name("updateGlobalVariables_motor")
     713                      .dwattr $C$DW$135, DW_AT_low_pc(_updateGlobalVariables_motor)
     714                      .dwattr $C$DW$135, DW_AT_high_pc(0x00)
     715                      .dwattr $C$DW$135, DW_AT_TI_symbol_name("_updateGlobalVariables_motor")
     716                      .dwattr $C$DW$135, DW_AT_external
     717                      .dwattr $C$DW$135, DW_AT_TI_begin_file("C:/ti/motorware/motorware_1_01_00_16/sw/solutions/instaspin_f
     718                      .dwattr $C$DW$135, DW_AT_TI_begin_line(0x1c6)
     719                      .dwattr $C$DW$135, DW_AT_TI_begin_column(0x06)
     720                      .dwattr $C$DW$135, DW_AT_TI_max_frame_size(-6)
     721                      .dwpsn  file "C:/ti/motorware/motorware_1_01_00_16/sw/solutions/instaspin_foc/src/proj_lab02b.c",line
     722              
     723                      .dwfde $C$DW$CIE, _updateGlobalVariables_motor
TMS320C2000 Assembler PC v6.4.11 Wed Nov 23 09:26:04 2016

Tools Copyright (c) 1996-2015 Texas Instruments Incorporated
C:\Users\bee25\AppData\Local\Temp\3596410                            PAGE   15

     724              $C$DW$136       .dwtag  DW_TAG_formal_parameter, DW_AT_name("handle")
     725                      .dwattr $C$DW$136, DW_AT_TI_symbol_name("_handle")
     726                      .dwattr $C$DW$136, DW_AT_type(*$C$DW$T$200)
     727                      .dwattr $C$DW$136, DW_AT_location[DW_OP_reg12]
     728              
     729              ;***************************************************************
     730              ;* FNAME: _updateGlobalVariables_motor  FR SIZE:   4           *
     731              ;*                                                             *
     732              ;* FUNCTION ENVIRONMENT                                        *
     733              ;*                                                             *
     734              ;* FUNCTION PROPERTIES                                         *
     735              ;*                            0 Parameter,  0 Auto,  4 SOE     *
     736              ;***************************************************************
     737              
     738              _updateGlobalVariables_motor:
     739              ;* XT    assigned to $O$R2
     740              ;* AR2   assigned to _handle
     741              $C$DW$137       .dwtag  DW_TAG_variable, DW_AT_name("handle")
     742                      .dwattr $C$DW$137, DW_AT_TI_symbol_name("_handle")
     743                      .dwattr $C$DW$137, DW_AT_type(*$C$DW$T$230)
     744                      .dwattr $C$DW$137, DW_AT_location[DW_OP_reg8]
     745                      .dwcfi  cfa_offset, -2
     746                      .dwcfi  save_reg_to_mem, 26, 0
     747 00000000 B2BD          MOVL      *SP++,XAR1            ; [CPU_] 
     748                      .dwcfi  save_reg_to_mem, 7, 2
     749                      .dwcfi  cfa_offset, -4
     750 00000001 AABD          MOVL      *SP++,XAR2            ; [CPU_] 
     751                      .dwcfi  save_reg_to_mem, 9, 4
     752                      .dwcfi  cfa_offset, -6
     753 00000002 86A4          MOVL      XAR2,XAR4             ; [CPU_] |455| 
     754                      .dwpsn  file "C:/ti/motorware/motorware_1_01_00_16/sw/solutions/instaspin_foc/src/proj_lab02b.c",line
     755 00000003 D018          MOVB      XAR0,#24              ; [CPU_] |459| 
     756 00000004 8A92          MOVL      XAR4,*+XAR2[AR0]      ; [CPU_] |459| 
     757              $C$DW$138       .dwtag  DW_TAG_TI_branch
     758                      .dwattr $C$DW$138, DW_AT_low_pc(0x00)
     759                      .dwattr $C$DW$138, DW_AT_name("_EST_getSpeed_krpm")
     760                      .dwattr $C$DW$138, DW_AT_TI_call
     761 00000005 7640!         LCR       #_EST_getSpeed_krpm   ; [CPU_] |459| 
         00000006 0000 
     762                      ; call occurs [#_EST_getSpeed_krpm] ; [] |459| 
     763 00000007 761F-         MOVW      DP,#_gMotorVars+30    ; [CPU_U] 
         00000008 0001 
     764                      .dwpsn  file "C:/ti/motorware/motorware_1_01_00_16/sw/modules/traj/src/32b/traj.h",line 96,column 3,i
     765 00000009 D06C          MOVB      XAR0,#108             ; [CPU_] |96| 
     766                      .dwpsn  file "C:/ti/motorware/motorware_1_01_00_16/sw/solutions/instaspin_foc/src/proj_lab02b.c",line
     767 0000000a 1E1E-         MOVL      @_gMotorVars+30,ACC   ; [CPU_] |459| 
     768                      .dwpsn  file "C:/ti/motorware/motorware_1_01_00_16/sw/modules/traj/src/32b/traj.h",line 96,column 3,i
     769 0000000b 8A92          MOVL      XAR4,*+XAR2[AR0]      ; [CPU_] |96| 
     770                      .dwpsn  file "C:/ti/motorware/motorware_1_01_00_16/sw/solutions/instaspin_foc/src/proj_lab02b.c",line
     771 0000000c D018          MOVB      XAR0,#24              ; [CPU_] |462| 
     772                      .dwpsn  file "C:/ti/motorware/motorware_1_01_00_16/sw/modules/traj/src/32b/traj.h",line 96,column 3,i
     773 0000000d 8BD4          MOVL      XAR1,*+XAR4[2]        ; [CPU_] |96| 
     774                      .dwpsn  file "C:/ti/motorware/motorware_1_01_00_16/sw/solutions/instaspin_foc/src/proj_lab02b.c",line
     775 0000000e 8A92          MOVL      XAR4,*+XAR2[AR0]      ; [CPU_] |462| 
     776              $C$DW$139       .dwtag  DW_TAG_TI_branch
TMS320C2000 Assembler PC v6.4.11 Wed Nov 23 09:26:04 2016

Tools Copyright (c) 1996-2015 Texas Instruments Incorporated
C:\Users\bee25\AppData\Local\Temp\3596410                            PAGE   16

     777                      .dwattr $C$DW$139, DW_AT_low_pc(0x00)
     778                      .dwattr $C$DW$139, DW_AT_name("_EST_get_pu_to_krpm_sf")
     779                      .dwattr $C$DW$139, DW_AT_TI_call
     780 0000000f 7640!         LCR       #_EST_get_pu_to_krpm_sf ; [CPU_] |462| 
         00000010 0000 
     781                      ; call occurs [#_EST_get_pu_to_krpm_sf] ; [] |462| 
     782 00000011 761F-         MOVW      DP,#_gMotorVars+26    ; [CPU_U] 
         00000012 0001 
     783                      .dwpsn  file "C:/ti/motorware/motorware_1_01_00_16/sw/solutions/instaspin_foc/src/proj_lab02b.c",line
     784 00000013 D018          MOVB      XAR0,#24              ; [CPU_] |465| 
     785                      .dwpsn  file "C:/ti/motorware/motorware_1_01_00_16/sw/solutions/instaspin_foc/src/proj_lab02b.c",line
     786 00000014 B2AC          MOVL      XT,XAR1               ; [CPU_] |462| 
     787 00000015 5605          IMPYL     P,XT,ACC              ; [CPU_] |462| 
         00000016 00A9 
     788 00000017 5663          QMPYL     ACC,XT,ACC            ; [CPU_] |462| 
         00000018 00A9 
     789 00000019 56A7          LSL64     ACC:P,#8              ; [CPU_] |462| 
     790 0000001a 1E1A-         MOVL      @_gMotorVars+26,ACC   ; [CPU_] |462| 
     791                      .dwpsn  file "C:/ti/motorware/motorware_1_01_00_16/sw/solutions/instaspin_foc/src/proj_lab02b.c",line
     792 0000001b 8A92          MOVL      XAR4,*+XAR2[AR0]      ; [CPU_] |465| 
     793              $C$DW$140       .dwtag  DW_TAG_TI_branch
     794                      .dwattr $C$DW$140, DW_AT_low_pc(0x00)
     795                      .dwattr $C$DW$140, DW_AT_name("_EST_getIdRated")
     796                      .dwattr $C$DW$140, DW_AT_TI_call
     797 0000001c 7640!         LCR       #_EST_getIdRated      ; [CPU_] |465| 
         0000001d 0000 
     798                      ; call occurs [#_EST_getIdRated] ; [] |465| 
     799 0000001e 761F-         MOVW      DP,#_gMotorVars+42    ; [CPU_U] 
         0000001f 0001 
     800                      .dwpsn  file "C:/ti/motorware/motorware_1_01_00_16/sw/solutions/instaspin_foc/src/proj_lab02b.c",line
     801 00000020 D018          MOVB      XAR0,#24              ; [CPU_] |468| 
     802                      .dwpsn  file "C:/ti/motorware/motorware_1_01_00_16/sw/solutions/instaspin_foc/src/proj_lab02b.c",line
     803 00000021 1E2A-         MOVL      @_gMotorVars+42,ACC   ; [CPU_] |465| 
     804                      .dwpsn  file "C:/ti/motorware/motorware_1_01_00_16/sw/solutions/instaspin_foc/src/proj_lab02b.c",line
     805 00000022 8A92          MOVL      XAR4,*+XAR2[AR0]      ; [CPU_] |468| 
     806              $C$DW$141       .dwtag  DW_TAG_TI_branch
     807                      .dwattr $C$DW$141, DW_AT_low_pc(0x00)
     808                      .dwattr $C$DW$141, DW_AT_name("_EST_getRr_Ohm")
     809                      .dwattr $C$DW$141, DW_AT_TI_call
     810 00000023 7640!         LCR       #_EST_getRr_Ohm       ; [CPU_] |468| 
         00000024 0000 
     811                      ; call occurs [#_EST_getRr_Ohm] ; [] |468| 
     812 00000025 761F-         MOVW      DP,#_gMotorVars+44    ; [CPU_U] 
         00000026 0001 
     813                      .dwpsn  file "C:/ti/motorware/motorware_1_01_00_16/sw/solutions/instaspin_foc/src/proj_lab02b.c",line
     814 00000027 D018          MOVB      XAR0,#24              ; [CPU_] |471| 
     815                      .dwpsn  file "C:/ti/motorware/motorware_1_01_00_16/sw/solutions/instaspin_foc/src/proj_lab02b.c",line
     816 00000028 1E2C-         MOVL      @_gMotorVars+44,ACC   ; [CPU_] |468| 
     817                      .dwpsn  file "C:/ti/motorware/motorware_1_01_00_16/sw/solutions/instaspin_foc/src/proj_lab02b.c",line
     818 00000029 8A92          MOVL      XAR4,*+XAR2[AR0]      ; [CPU_] |471| 
     819              $C$DW$142       .dwtag  DW_TAG_TI_branch
     820                      .dwattr $C$DW$142, DW_AT_low_pc(0x00)
     821                      .dwattr $C$DW$142, DW_AT_name("_EST_getRs_Ohm")
     822                      .dwattr $C$DW$142, DW_AT_TI_call
     823 0000002a 7640!         LCR       #_EST_getRs_Ohm       ; [CPU_] |471| 
TMS320C2000 Assembler PC v6.4.11 Wed Nov 23 09:26:04 2016

Tools Copyright (c) 1996-2015 Texas Instruments Incorporated
C:\Users\bee25\AppData\Local\Temp\3596410                            PAGE   17

         0000002b 0000 
     824                      ; call occurs [#_EST_getRs_Ohm] ; [] |471| 
     825 0000002c 761F-         MOVW      DP,#_gMotorVars+46    ; [CPU_U] 
         0000002d 0001 
     826                      .dwpsn  file "C:/ti/motorware/motorware_1_01_00_16/sw/solutions/instaspin_foc/src/proj_lab02b.c",line
     827 0000002e D018          MOVB      XAR0,#24              ; [CPU_] |474| 
     828                      .dwpsn  file "C:/ti/motorware/motorware_1_01_00_16/sw/solutions/instaspin_foc/src/proj_lab02b.c",line
     829 0000002f 1E2E-         MOVL      @_gMotorVars+46,ACC   ; [CPU_] |471| 
     830                      .dwpsn  file "C:/ti/motorware/motorware_1_01_00_16/sw/solutions/instaspin_foc/src/proj_lab02b.c",line
     831 00000030 8A92          MOVL      XAR4,*+XAR2[AR0]      ; [CPU_] |474| 
     832              $C$DW$143       .dwtag  DW_TAG_TI_branch
     833                      .dwattr $C$DW$143, DW_AT_low_pc(0x00)
     834                      .dwattr $C$DW$143, DW_AT_name("_EST_getLs_d_H")
     835                      .dwattr $C$DW$143, DW_AT_TI_call
     836 00000031 7640!         LCR       #_EST_getLs_d_H       ; [CPU_] |474| 
         00000032 0000 
     837                      ; call occurs [#_EST_getLs_d_H] ; [] |474| 
     838 00000033 761F-         MOVW      DP,#_gMotorVars+50    ; [CPU_U] 
         00000034 0001 
     839                      .dwpsn  file "C:/ti/motorware/motorware_1_01_00_16/sw/solutions/instaspin_foc/src/proj_lab02b.c",line
     840 00000035 D018          MOVB      XAR0,#24              ; [CPU_] |477| 
     841                      .dwpsn  file "C:/ti/motorware/motorware_1_01_00_16/sw/solutions/instaspin_foc/src/proj_lab02b.c",line
     842 00000036 1E32-         MOVL      @_gMotorVars+50,ACC   ; [CPU_] |474| 
     843                      .dwpsn  file "C:/ti/motorware/motorware_1_01_00_16/sw/solutions/instaspin_foc/src/proj_lab02b.c",line
     844 00000037 8A92          MOVL      XAR4,*+XAR2[AR0]      ; [CPU_] |477| 
     845              $C$DW$144       .dwtag  DW_TAG_TI_branch
     846                      .dwattr $C$DW$144, DW_AT_low_pc(0x00)
     847                      .dwattr $C$DW$144, DW_AT_name("_EST_getLs_q_H")
     848                      .dwattr $C$DW$144, DW_AT_TI_call
     849 00000038 7640!         LCR       #_EST_getLs_q_H       ; [CPU_] |477| 
         00000039 0000 
     850                      ; call occurs [#_EST_getLs_q_H] ; [] |477| 
     851 0000003a 761F-         MOVW      DP,#_gMotorVars+52    ; [CPU_U] 
         0000003b 0001 
     852                      .dwpsn  file "C:/ti/motorware/motorware_1_01_00_16/sw/solutions/instaspin_foc/src/proj_lab02b.c",line
     853 0000003c D018          MOVB      XAR0,#24              ; [CPU_] |480| 
     854                      .dwpsn  file "C:/ti/motorware/motorware_1_01_00_16/sw/solutions/instaspin_foc/src/proj_lab02b.c",line
     855 0000003d 1E34-         MOVL      @_gMotorVars+52,ACC   ; [CPU_] |477| 
     856                      .dwpsn  file "C:/ti/motorware/motorware_1_01_00_16/sw/solutions/instaspin_foc/src/proj_lab02b.c",line
     857 0000003e 8A92          MOVL      XAR4,*+XAR2[AR0]      ; [CPU_] |480| 
     858              $C$DW$145       .dwtag  DW_TAG_TI_branch
     859                      .dwattr $C$DW$145, DW_AT_low_pc(0x00)
     860                      .dwattr $C$DW$145, DW_AT_name("_EST_getFlux_VpHz")
     861                      .dwattr $C$DW$145, DW_AT_TI_call
     862 0000003f 7640!         LCR       #_EST_getFlux_VpHz    ; [CPU_] |480| 
         00000040 0000 
     863                      ; call occurs [#_EST_getFlux_VpHz] ; [] |480| 
     864 00000041 761F-         MOVW      DP,#_gMotorVars+54    ; [CPU_U] 
         00000042 0001 
     865                      .dwpsn  file "C:/ti/motorware/motorware_1_01_00_16/sw/solutions/instaspin_foc/src/proj_lab02b.c",line
     866 00000043 D018          MOVB      XAR0,#24              ; [CPU_] |486| 
     867                      .dwpsn  file "C:/ti/motorware/motorware_1_01_00_16/sw/solutions/instaspin_foc/src/proj_lab02b.c",line
     868 00000044 1E36-         MOVL      @_gMotorVars+54,ACC   ; [CPU_] |480| 
     869                      .dwpsn  file "C:/ti/motorware/motorware_1_01_00_16/sw/solutions/instaspin_foc/src/proj_lab02b.c",line
     870 00000045 92E2          MOV       AL,*+XAR2[4]          ; [CPU_] |483| 
TMS320C2000 Assembler PC v6.4.11 Wed Nov 23 09:26:04 2016

Tools Copyright (c) 1996-2015 Texas Instruments Incorporated
C:\Users\bee25\AppData\Local\Temp\3596410                            PAGE   18

     871 00000046 960B-         MOV       @_gMotorVars+11,AL    ; [CPU_] |483| 
     872                      .dwpsn  file "C:/ti/motorware/motorware_1_01_00_16/sw/solutions/instaspin_foc/src/proj_lab02b.c",line
     873 00000047 8A92          MOVL      XAR4,*+XAR2[AR0]      ; [CPU_] |486| 
     874              $C$DW$146       .dwtag  DW_TAG_TI_branch
     875                      .dwattr $C$DW$146, DW_AT_low_pc(0x00)
     876                      .dwattr $C$DW$146, DW_AT_name("_EST_getState")
     877                      .dwattr $C$DW$146, DW_AT_TI_call
     878 00000048 7640!         LCR       #_EST_getState        ; [CPU_] |486| 
         00000049 0000 
     879                      ; call occurs [#_EST_getState] ; [] |486| 
     880 0000004a 761F-         MOVW      DP,#_gMotorVars+12    ; [CPU_U] 
         0000004b 0001 
     881                      .dwpsn  file "C:/ti/motorware/motorware_1_01_00_16/sw/solutions/instaspin_foc/src/proj_lab02b.c",line
     882 0000004c 8F0C          MOVL      XAR4,#838860          ; [CPU_U] |489| 
         0000004d CCCC 
     883                      .dwpsn  file "C:/ti/motorware/motorware_1_01_00_16/sw/solutions/instaspin_foc/src/proj_lab02b.c",line
     884 0000004e 960C-         MOV       @_gMotorVars+12,AL    ; [CPU_] |486| 
     885 0000004f 761F-         MOVW      DP,#_gAdcData+12      ; [CPU_U] 
         00000050 0000 
     886                      .dwpsn  file "C:/ti/motorware/motorware_1_01_00_16/sw/solutions/instaspin_foc/src/proj_lab02b.c",line
     887 00000051 871C-         MOVL      XT,@_gAdcData+12      ; [CPU_] |489| 
     888 00000052 5663          QMPYL     ACC,XT,XAR4           ; [CPU_] |489| 
         00000053 00A4 
     889 00000054 5605          IMPYL     P,XT,XAR4             ; [CPU_] |489| 
         00000055 00A4 
     890 00000056 56A7          LSL64     ACC:P,#8              ; [CPU_] |489| 
     891 00000057 86BE          MOVL      XAR2,*--SP            ; [CPU_] 
     892                      .dwcfi  cfa_offset, -4
     893                      .dwcfi  restore_reg, 9
     894 00000058 8BBE          MOVL      XAR1,*--SP            ; [CPU_] 
     895                      .dwcfi  cfa_offset, -2
     896                      .dwcfi  restore_reg, 7
     897 00000059 761F-         MOVW      DP,#_gMotorVars+84    ; [CPU_U] 
         0000005a 0002 
     898 0000005b 1E14-         MOVL      @_gMotorVars+84,ACC   ; [CPU_] |489| 
     899              $C$DW$147       .dwtag  DW_TAG_TI_branch
     900                      .dwattr $C$DW$147, DW_AT_low_pc(0x00)
     901                      .dwattr $C$DW$147, DW_AT_TI_return
     902 0000005c 0006          LRETR     ; [CPU_] 
     903                      ; return occurs ; [] 
     904                      .dwattr $C$DW$135, DW_AT_TI_end_file("C:/ti/motorware/motorware_1_01_00_16/sw/solutions/instaspin_foc
     905                      .dwattr $C$DW$135, DW_AT_TI_end_line(0x1ec)
     906                      .dwattr $C$DW$135, DW_AT_TI_end_column(0x01)
     907                      .dwendentry
     908                      .dwendtag $C$DW$135
     909              
     910 0000005d               .sect   ".text"
     911                      .clink
     912                      .global _setFeLimitZero
     913              
     914              $C$DW$148       .dwtag  DW_TAG_subprogram, DW_AT_name("setFeLimitZero")
     915                      .dwattr $C$DW$148, DW_AT_low_pc(_setFeLimitZero)
     916                      .dwattr $C$DW$148, DW_AT_high_pc(0x00)
     917                      .dwattr $C$DW$148, DW_AT_TI_symbol_name("_setFeLimitZero")
     918                      .dwattr $C$DW$148, DW_AT_external
TMS320C2000 Assembler PC v6.4.11 Wed Nov 23 09:26:04 2016

Tools Copyright (c) 1996-2015 Texas Instruments Incorporated
C:\Users\bee25\AppData\Local\Temp\3596410                            PAGE   19

     919                      .dwattr $C$DW$148, DW_AT_TI_begin_file("C:/ti/motorware/motorware_1_01_00_16/sw/solutions/instaspin_f
     920                      .dwattr $C$DW$148, DW_AT_TI_begin_line(0x210)
     921                      .dwattr $C$DW$148, DW_AT_TI_begin_column(0x06)
     922                      .dwattr $C$DW$148, DW_AT_TI_max_frame_size(-6)
     923                      .dwpsn  file "C:/ti/motorware/motorware_1_01_00_16/sw/solutions/instaspin_foc/src/proj_lab02b.c",line
     924              
     925                      .dwfde $C$DW$CIE, _setFeLimitZero
     926              $C$DW$149       .dwtag  DW_TAG_formal_parameter, DW_AT_name("handle")
     927                      .dwattr $C$DW$149, DW_AT_TI_symbol_name("_handle")
     928                      .dwattr $C$DW$149, DW_AT_type(*$C$DW$T$200)
     929                      .dwattr $C$DW$149, DW_AT_location[DW_OP_reg12]
     930              
     931              ;***************************************************************
     932              ;* FNAME: _setFeLimitZero               FR SIZE:   4           *
     933              ;*                                                             *
     934              ;* FUNCTION ENVIRONMENT                                        *
     935              ;*                                                             *
     936              ;* FUNCTION PROPERTIES                                         *
     937              ;*                            0 Parameter,  0 Auto,  4 SOE     *
     938              ;***************************************************************
     939              
     940              _setFeLimitZero:
     941              ;* AR2   assigned to _fe_pos_min_pu
     942              $C$DW$150       .dwtag  DW_TAG_variable, DW_AT_name("fe_pos_min_pu")
     943                      .dwattr $C$DW$150, DW_AT_TI_symbol_name("_fe_pos_min_pu")
     944                      .dwattr $C$DW$150, DW_AT_type(*$C$DW$T$32)
     945                      .dwattr $C$DW$150, DW_AT_location[DW_OP_reg8]
     946              ;* AR1   assigned to _handle
     947              $C$DW$151       .dwtag  DW_TAG_variable, DW_AT_name("handle")
     948                      .dwattr $C$DW$151, DW_AT_TI_symbol_name("_handle")
     949                      .dwattr $C$DW$151, DW_AT_type(*$C$DW$T$230)
     950                      .dwattr $C$DW$151, DW_AT_location[DW_OP_reg6]
     951                      .dwcfi  cfa_offset, -2
     952                      .dwcfi  save_reg_to_mem, 26, 0
     953 0000005d B2BD          MOVL      *SP++,XAR1            ; [CPU_] 
     954                      .dwcfi  save_reg_to_mem, 7, 2
     955                      .dwcfi  cfa_offset, -4
     956 0000005e 8BA4          MOVL      XAR1,XAR4             ; [CPU_] |529| 
     957                      .dwpsn  file "C:/ti/motorware/motorware_1_01_00_16/sw/solutions/instaspin_foc/src/proj_lab02b.c",line
     958 0000005f D018          MOVB      XAR0,#24              ; [CPU_] |531| 
     959 00000060 AABD          MOVL      *SP++,XAR2            ; [CPU_] 
     960                      .dwcfi  save_reg_to_mem, 9, 4
     961                      .dwcfi  cfa_offset, -6
     962 00000061 8A91          MOVL      XAR4,*+XAR1[AR0]      ; [CPU_] |531| 
     963              $C$DW$152       .dwtag  DW_TAG_TI_branch
     964                      .dwattr $C$DW$152, DW_AT_low_pc(0x00)
     965                      .dwattr $C$DW$152, DW_AT_name("_EST_getState")
     966                      .dwattr $C$DW$152, DW_AT_TI_call
     967 00000062 7640!         LCR       #_EST_getState        ; [CPU_] |531| 
         00000063 0000 
     968                      ; call occurs [#_EST_getState] ; [] |531| 
     969                      .dwpsn  file "C:/ti/motorware/motorware_1_01_00_16/sw/solutions/instaspin_foc/src/proj_lab02b.c",line
     970 00000064 D018          MOVB      XAR0,#24              ; [CPU_] |536| 
     971 00000065 8A91          MOVL      XAR4,*+XAR1[AR0]      ; [CPU_] |536| 
     972              $C$DW$153       .dwtag  DW_TAG_TI_branch
TMS320C2000 Assembler PC v6.4.11 Wed Nov 23 09:26:04 2016

Tools Copyright (c) 1996-2015 Texas Instruments Incorporated
C:\Users\bee25\AppData\Local\Temp\3596410                            PAGE   20

     973                      .dwattr $C$DW$153, DW_AT_low_pc(0x00)
     974                      .dwattr $C$DW$153, DW_AT_name("_EST_isMotorIdentified")
     975                      .dwattr $C$DW$153, DW_AT_TI_call
     976 00000066 7640!         LCR       #_EST_isMotorIdentified ; [CPU_] |536| 
         00000067 0000 
     977                      ; call occurs [#_EST_isMotorIdentified] ; [] |536| 
     978 00000068 5200          CMPB      AL,#0                 ; [CPU_] |536| 
     979 00000069 ED07          BF        $C$L1,NEQ             ; [CPU_] |536| 
     980                      ; branchcc occurs ; [] |536| 
     981 0000006a D084          MOVB      XAR0,#132             ; [CPU_] |536| 
     982 0000006b 9291          MOV       AL,*+XAR1[AR0]        ; [CPU_] |536| 
     983 0000006c ED04          BF        $C$L1,NEQ             ; [CPU_] |536| 
     984                      ; branchcc occurs ; [] |536| 
     985                      .dwpsn  file "C:/ti/motorware/motorware_1_01_00_16/sw/solutions/instaspin_foc/src/proj_lab02b.c",line
     986 0000006d 0200          MOVB      ACC,#0                ; [CPU_] |538| 
     987                      .dwpsn  file "C:/ti/motorware/motorware_1_01_00_16/sw/solutions/instaspin_foc/src/proj_lab02b.c",line
     988 0000006e D200          MOVB      XAR2,#0               ; [CPU_] |540| 
     989                      .dwpsn  file "C:/ti/motorware/motorware_1_01_00_16/sw/solutions/instaspin_foc/src/proj_lab02b.c",line
     990 0000006f 6F07          B         $C$L2,UNC             ; [CPU_] |541| 
     991                      ; branch occurs ; [] |541| 
     992 00000070       $C$L1:    
     993                      .dwpsn  file "C:/ti/motorware/motorware_1_01_00_16/sw/solutions/instaspin_foc/src/proj_lab02b.c",line
     994 00000070 28A9          MOV       AL,#23662             ; [CPU_] |544| 
         00000071 5C6E 
     995 00000072 28A8          MOV       AH,#65525             ; [CPU_] |544| 
         00000073 FFF5 
     996                      .dwpsn  file "C:/ti/motorware/motorware_1_01_00_16/sw/solutions/instaspin_foc/src/proj_lab02b.c",line
     997 00000074 8D8A          MOVL      XAR2,#697234          ; [CPU_U] |546| 
         00000075 A392 
     998 00000076       $C$L2:    
     999                      .dwpsn  file "C:/ti/motorware/motorware_1_01_00_16/sw/solutions/instaspin_foc/src/proj_lab02b.c",line
    1000 00000076 D018          MOVB      XAR0,#24              ; [CPU_] |549| 
    1001 00000077 8A91          MOVL      XAR4,*+XAR1[AR0]      ; [CPU_] |549| 
    1002              $C$DW$154       .dwtag  DW_TAG_TI_branch
    1003                      .dwattr $C$DW$154, DW_AT_low_pc(0x00)
    1004                      .dwattr $C$DW$154, DW_AT_name("_EST_setFe_neg_max_pu")
    1005                      .dwattr $C$DW$154, DW_AT_TI_call
    1006 00000078 7640!         LCR       #_EST_setFe_neg_max_pu ; [CPU_] |549| 
         00000079 0000 
    1007                      ; call occurs [#_EST_setFe_neg_max_pu] ; [] |549| 
    1008                      .dwpsn  file "C:/ti/motorware/motorware_1_01_00_16/sw/solutions/instaspin_foc/src/proj_lab02b.c",line
    1009 0000007a D018          MOVB      XAR0,#24              ; [CPU_] |551| 
    1010 0000007b AAA9          MOVL      ACC,XAR2              ; [CPU_] |551| 
    1011 0000007c 8A91          MOVL      XAR4,*+XAR1[AR0]      ; [CPU_] |551| 
    1012              $C$DW$155       .dwtag  DW_TAG_TI_branch
    1013                      .dwattr $C$DW$155, DW_AT_low_pc(0x00)
    1014                      .dwattr $C$DW$155, DW_AT_name("_EST_setFe_pos_min_pu")
    1015                      .dwattr $C$DW$155, DW_AT_TI_call
    1016 0000007d 7640!         LCR       #_EST_setFe_pos_min_pu ; [CPU_] |551| 
         0000007e 0000 
    1017                      ; call occurs [#_EST_setFe_pos_min_pu] ; [] |551| 
    1018 0000007f 86BE          MOVL      XAR2,*--SP            ; [CPU_] 
    1019                      .dwcfi  cfa_offset, -4
    1020                      .dwcfi  restore_reg, 9
    1021 00000080 8BBE          MOVL      XAR1,*--SP            ; [CPU_] 
TMS320C2000 Assembler PC v6.4.11 Wed Nov 23 09:26:04 2016

Tools Copyright (c) 1996-2015 Texas Instruments Incorporated
C:\Users\bee25\AppData\Local\Temp\3596410                            PAGE   21

    1022                      .dwcfi  cfa_offset, -2
    1023                      .dwcfi  restore_reg, 7
    1024              $C$DW$156       .dwtag  DW_TAG_TI_branch
    1025                      .dwattr $C$DW$156, DW_AT_low_pc(0x00)
    1026                      .dwattr $C$DW$156, DW_AT_TI_return
    1027 00000081 0006          LRETR     ; [CPU_] 
    1028                      ; return occurs ; [] 
    1029                      .dwattr $C$DW$148, DW_AT_TI_end_file("C:/ti/motorware/motorware_1_01_00_16/sw/solutions/instaspin_foc
    1030                      .dwattr $C$DW$148, DW_AT_TI_end_line(0x22a)
    1031                      .dwattr $C$DW$148, DW_AT_TI_end_column(0x01)
    1032                      .dwendentry
    1033                      .dwendtag $C$DW$148
    1034              
    1035 00000082               .sect   ".text"
    1036                      .clink
    1037                      .global _recalcKpKi
    1038              
    1039              $C$DW$157       .dwtag  DW_TAG_subprogram, DW_AT_name("recalcKpKi")
    1040                      .dwattr $C$DW$157, DW_AT_low_pc(_recalcKpKi)
    1041                      .dwattr $C$DW$157, DW_AT_high_pc(0x00)
    1042                      .dwattr $C$DW$157, DW_AT_TI_symbol_name("_recalcKpKi")
    1043                      .dwattr $C$DW$157, DW_AT_external
    1044                      .dwattr $C$DW$157, DW_AT_TI_begin_file("C:/ti/motorware/motorware_1_01_00_16/sw/solutions/instaspin_f
    1045                      .dwattr $C$DW$157, DW_AT_TI_begin_line(0x1ef)
    1046                      .dwattr $C$DW$157, DW_AT_TI_begin_column(0x06)
    1047                      .dwattr $C$DW$157, DW_AT_TI_max_frame_size(-18)
    1048                      .dwpsn  file "C:/ti/motorware/motorware_1_01_00_16/sw/solutions/instaspin_foc/src/proj_lab02b.c",line
    1049              
    1050                      .dwfde $C$DW$CIE, _recalcKpKi
    1051              $C$DW$158       .dwtag  DW_TAG_formal_parameter, DW_AT_name("handle")
    1052                      .dwattr $C$DW$158, DW_AT_TI_symbol_name("_handle")
    1053                      .dwattr $C$DW$158, DW_AT_type(*$C$DW$T$200)
    1054                      .dwattr $C$DW$158, DW_AT_location[DW_OP_reg12]
    1055              
    1056              ;***************************************************************
    1057              ;* FNAME: _recalcKpKi                   FR SIZE:  16           *
    1058              ;*                                                             *
    1059              ;* FUNCTION ENVIRONMENT                                        *
    1060              ;*                                                             *
    1061              ;* FUNCTION PROPERTIES                                         *
    1062              ;*                            2 Parameter,  8 Auto,  6 SOE     *
    1063              ;***************************************************************
    1064              
    1065              _recalcKpKi:
    1066              ;* AR2   assigned to $O$C1
    1067              ;* AR2   assigned to $O$C2
    1068              ;* AR3   assigned to _handle
    1069              $C$DW$159       .dwtag  DW_TAG_variable, DW_AT_name("handle")
    1070                      .dwattr $C$DW$159, DW_AT_TI_symbol_name("_handle")
    1071                      .dwattr $C$DW$159, DW_AT_type(*$C$DW$T$230)
    1072                      .dwattr $C$DW$159, DW_AT_location[DW_OP_reg10]
    1073              ;* AR1   assigned to _EstState
    1074              $C$DW$160       .dwtag  DW_TAG_variable, DW_AT_name("EstState")
    1075                      .dwattr $C$DW$160, DW_AT_TI_symbol_name("_EstState")
    1076                      .dwattr $C$DW$160, DW_AT_type(*$C$DW$T$164)
TMS320C2000 Assembler PC v6.4.11 Wed Nov 23 09:26:04 2016

Tools Copyright (c) 1996-2015 Texas Instruments Incorporated
C:\Users\bee25\AppData\Local\Temp\3596410                            PAGE   22

    1077                      .dwattr $C$DW$160, DW_AT_location[DW_OP_reg6]
    1078              ;* AR1   assigned to _Kp
    1079              $C$DW$161       .dwtag  DW_TAG_variable, DW_AT_name("Kp")
    1080                      .dwattr $C$DW$161, DW_AT_TI_symbol_name("_Kp")
    1081                      .dwattr $C$DW$161, DW_AT_type(*$C$DW$T$32)
    1082                      .dwattr $C$DW$161, DW_AT_location[DW_OP_reg6]
    1083              ;* AL    assigned to _Ki
    1084              $C$DW$162       .dwtag  DW_TAG_variable, DW_AT_name("Ki")
    1085                      .dwattr $C$DW$162, DW_AT_TI_symbol_name("_Ki")
    1086                      .dwattr $C$DW$162, DW_AT_type(*$C$DW$T$32)
    1087                      .dwattr $C$DW$162, DW_AT_location[DW_OP_reg0]
    1088                      .dwcfi  cfa_offset, -2
    1089                      .dwcfi  save_reg_to_mem, 26, 0
    1090 00000082 B2BD          MOVL      *SP++,XAR1            ; [CPU_] 
    1091                      .dwcfi  save_reg_to_mem, 7, 2
    1092                      .dwcfi  cfa_offset, -4
    1093 00000083 AABD          MOVL      *SP++,XAR2            ; [CPU_] 
    1094                      .dwcfi  save_reg_to_mem, 9, 4
    1095                      .dwcfi  cfa_offset, -6
    1096 00000084 A2BD          MOVL      *SP++,XAR3            ; [CPU_] 
    1097                      .dwcfi  save_reg_to_mem, 11, 6
    1098                      .dwcfi  cfa_offset, -8
    1099 00000085 FE0A          ADDB      SP,#10                ; [CPU_U] 
    1100                      .dwcfi  cfa_offset, -18
    1101 00000086 82A4          MOVL      XAR3,XAR4             ; [CPU_] |496| 
    1102                      .dwpsn  file "C:/ti/motorware/motorware_1_01_00_16/sw/solutions/instaspin_foc/src/proj_lab02b.c",line
    1103 00000087 D018          MOVB      XAR0,#24              ; [CPU_] |498| 
    1104 00000088 8A93          MOVL      XAR4,*+XAR3[AR0]      ; [CPU_] |498| 
    1105              $C$DW$163       .dwtag  DW_TAG_TI_branch
    1106                      .dwattr $C$DW$163, DW_AT_low_pc(0x00)
    1107                      .dwattr $C$DW$163, DW_AT_name("_EST_getState")
    1108                      .dwattr $C$DW$163, DW_AT_TI_call
    1109 00000089 7640!         LCR       #_EST_getState        ; [CPU_] |498| 
         0000008a 0000 
    1110                      ; call occurs [#_EST_getState] ; [] |498| 
    1111                      .dwpsn  file "C:/ti/motorware/motorware_1_01_00_16/sw/solutions/instaspin_foc/src/proj_lab02b.c",line
    1112 0000008b D018          MOVB      XAR0,#24              ; [CPU_] |500| 
    1113                      .dwpsn  file "C:/ti/motorware/motorware_1_01_00_16/sw/solutions/instaspin_foc/src/proj_lab02b.c",line
    1114 0000008c 59A9          MOVZ      AR1,AL                ; [CPU_] |498| 
    1115                      .dwpsn  file "C:/ti/motorware/motorware_1_01_00_16/sw/solutions/instaspin_foc/src/proj_lab02b.c",line
    1116 0000008d 8A93          MOVL      XAR4,*+XAR3[AR0]      ; [CPU_] |500| 
    1117              $C$DW$164       .dwtag  DW_TAG_TI_branch
    1118                      .dwattr $C$DW$164, DW_AT_low_pc(0x00)
    1119                      .dwattr $C$DW$164, DW_AT_name("_EST_isMotorIdentified")
    1120                      .dwattr $C$DW$164, DW_AT_TI_call
    1121 0000008e 7640!         LCR       #_EST_isMotorIdentified ; [CPU_] |500| 
         0000008f 0000 
    1122                      ; call occurs [#_EST_isMotorIdentified] ; [] |500| 
    1123 00000090 5200          CMPB      AL,#0                 ; [CPU_] |500| 
    1124 00000091 ED64          BF        $C$L3,NEQ             ; [CPU_] |500| 
    1125                      ; branchcc occurs ; [] |500| 
    1126 00000092 92A1          MOV       AL,AR1                ; [CPU_] 
    1127 00000093 5203          CMPB      AL,#3                 ; [CPU_] |500| 
    1128 00000094 ED61          BF        $C$L3,NEQ             ; [CPU_] |500| 
    1129                      ; branchcc occurs ; [] |500| 
TMS320C2000 Assembler PC v6.4.11 Wed Nov 23 09:26:04 2016

Tools Copyright (c) 1996-2015 Texas Instruments Incorporated
C:\Users\bee25\AppData\Local\Temp\3596410                            PAGE   23

    1130                      .dwpsn  file "C:/ti/motorware/motorware_1_01_00_16/sw/solutions/instaspin_foc/src/proj_lab02b.c",line
    1131 00000095 D0C6          MOVB      XAR0,#198             ; [CPU_] |505| 
    1132 00000096 8693          MOVL      XAR2,*+XAR3[AR0]      ; [CPU_] |505| 
    1133 00000097 FF2F          MOV       ACC,#32000 << 15      ; [CPU_] |505| 
         00000098 7D00 
    1134 00000099 1E42          MOVL      *-SP[2],ACC           ; [CPU_] |505| 
    1135 0000009a AAA9          MOVL      ACC,XAR2              ; [CPU_] |505| 
    1136              $C$DW$165       .dwtag  DW_TAG_TI_branch
    1137                      .dwattr $C$DW$165, DW_AT_low_pc(0x00)
    1138                      .dwattr $C$DW$165, DW_AT_name("FS$$MPY")
    1139                      .dwattr $C$DW$165, DW_AT_TI_call
    1140 0000009b 7640!         LCR       #FS$$MPY              ; [CPU_] |505| 
         0000009c 0000 
    1141                      ; call occurs [#FS$$MPY] ; [] |505| 
    1142 0000009d 1EA6          MOVL      XAR6,ACC              ; [CPU_] |505| 
    1143 0000009e 9A00          MOV       AL,#0                 ; [CPU_] |505| 
    1144 0000009f 28A8          MOV       AH,#16800             ; [CPU_] |505| 
         000000a0 41A0 
    1145 000000a1 1E42          MOVL      *-SP[2],ACC           ; [CPU_] |505| 
    1146 000000a2 06A6          MOVL      ACC,XAR6              ; [CPU_] |505| 
    1147              $C$DW$166       .dwtag  DW_TAG_TI_branch
    1148                      .dwattr $C$DW$166, DW_AT_low_pc(0x00)
    1149                      .dwattr $C$DW$166, DW_AT_name("FS$$MPY")
    1150                      .dwattr $C$DW$166, DW_AT_TI_call
    1151 000000a3 7640!         LCR       #FS$$MPY              ; [CPU_] |505| 
         000000a4 0000 
    1152                      ; call occurs [#FS$$MPY] ; [] |505| 
    1153 000000a5 1EA6          MOVL      XAR6,ACC              ; [CPU_] |505| 
    1154 000000a6 28A9          MOV       AL,#49808             ; [CPU_] |505| 
         000000a7 C290 
    1155 000000a8 28A8          MOV       AH,#15349             ; [CPU_] |505| 
         000000a9 3BF5 
    1156 000000aa 1E42          MOVL      *-SP[2],ACC           ; [CPU_] |505| 
    1157 000000ab 06A6          MOVL      ACC,XAR6              ; [CPU_] |505| 
    1158              $C$DW$167       .dwtag  DW_TAG_TI_branch
    1159                      .dwattr $C$DW$167, DW_AT_low_pc(0x00)
    1160                      .dwattr $C$DW$167, DW_AT_name("FS$$DIV")
    1161                      .dwattr $C$DW$167, DW_AT_TI_call
    1162 000000ac 7640!         LCR       #FS$$DIV              ; [CPU_] |505| 
         000000ad 0000 
    1163                      ; call occurs [#FS$$DIV] ; [] |505| 
    1164 000000ae 5CAD          MOVZ      AR4,SP                ; [CPU_] |505| 
    1165 000000af DC8A          SUBB      XAR4,#10              ; [CPU_U] |505| 
    1166 000000b0 88A4          MOVZ      AR6,AR4               ; [CPU_] |505| 
    1167              $C$DW$168       .dwtag  DW_TAG_TI_branch
    1168                      .dwattr $C$DW$168, DW_AT_low_pc(0x00)
    1169                      .dwattr $C$DW$168, DW_AT_name("FS$$TOFD")
    1170                      .dwattr $C$DW$168, DW_AT_TI_call
    1171 000000b1 7640!         LCR       #FS$$TOFD             ; [CPU_] |505| 
         000000b2 0000 
    1172                      ; call occurs [#FS$$TOFD] ; [] |505| 
    1173 000000b3 5DAD          MOVZ      AR5,SP                ; [CPU_] |505| 
    1174 000000b4 5CAD          MOVZ      AR4,SP                ; [CPU_] |505| 
    1175 000000b5 DD86          SUBB      XAR5,#6               ; [CPU_U] |505| 
    1176 000000b6 DC8A          SUBB      XAR4,#10              ; [CPU_U] |505| 
TMS320C2000 Assembler PC v6.4.11 Wed Nov 23 09:26:04 2016

Tools Copyright (c) 1996-2015 Texas Instruments Incorporated
C:\Users\bee25\AppData\Local\Temp\3596410                            PAGE   24

    1177 000000b7 88A5          MOVZ      AR6,AR5               ; [CPU_] |505| 
    1178 000000b8 5CA4          MOVZ      AR4,AR4               ; [CPU_] |505| 
    1179 000000b9 8F40+         MOVL      XAR5,#$C$FL1          ; [CPU_U] |505| 
         000000ba 0000 
    1180              $C$DW$169       .dwtag  DW_TAG_TI_branch
    1181                      .dwattr $C$DW$169, DW_AT_low_pc(0x00)
    1182                      .dwattr $C$DW$169, DW_AT_name("FD$$MPY")
    1183                      .dwattr $C$DW$169, DW_AT_TI_call
    1184 000000bb 7640!         LCR       #FD$$MPY              ; [CPU_] |505| 
         000000bc 0000 
    1185                      ; call occurs [#FD$$MPY] ; [] |505| 
    1186 000000bd 5CAD          MOVZ      AR4,SP                ; [CPU_] |505| 
    1187 000000be DC86          SUBB      XAR4,#6               ; [CPU_U] |505| 
    1188 000000bf 5CA4          MOVZ      AR4,AR4               ; [CPU_] |505| 
    1189              $C$DW$170       .dwtag  DW_TAG_TI_branch
    1190                      .dwattr $C$DW$170, DW_AT_low_pc(0x00)
    1191                      .dwattr $C$DW$170, DW_AT_name("FD$$TOL")
    1192                      .dwattr $C$DW$170, DW_AT_TI_call
    1193 000000c0 7640!         LCR       #FD$$TOL              ; [CPU_] |505| 
         000000c1 0000 
    1194                      ; call occurs [#FD$$TOL] ; [] |505| 
    1195                      .dwpsn  file "C:/ti/motorware/motorware_1_01_00_16/sw/solutions/instaspin_foc/src/proj_lab02b.c",line
    1196 000000c2 D0C4          MOVB      XAR0,#196             ; [CPU_] |506| 
    1197                      .dwpsn  file "C:/ti/motorware/motorware_1_01_00_16/sw/solutions/instaspin_foc/src/proj_lab02b.c",line
    1198 000000c3 8BA9          MOVL      XAR1,ACC              ; [CPU_] |505| 
    1199                      .dwpsn  file "C:/ti/motorware/motorware_1_01_00_16/sw/solutions/instaspin_foc/src/proj_lab02b.c",line
    1200 000000c4 AA42          MOVL      *-SP[2],XAR2          ; [CPU_] |506| 
    1201 000000c5 0693          MOVL      ACC,*+XAR3[AR0]       ; [CPU_] |506| 
    1202              $C$DW$171       .dwtag  DW_TAG_TI_branch
    1203                      .dwattr $C$DW$171, DW_AT_low_pc(0x00)
    1204                      .dwattr $C$DW$171, DW_AT_name("FS$$DIV")
    1205                      .dwattr $C$DW$171, DW_AT_TI_call
    1206 000000c6 7640!         LCR       #FS$$DIV              ; [CPU_] |506| 
         000000c7 0000 
    1207                      ; call occurs [#FS$$DIV] ; [] |506| 
    1208 000000c8 86A9          MOVL      XAR2,ACC              ; [CPU_] |506| 
    1209 000000c9 28A9          MOV       AL,#18770             ; [CPU_] |506| 
         000000ca 4952 
    1210 000000cb 28A8          MOV       AH,#14621             ; [CPU_] |506| 
         000000cc 391D 
    1211 000000cd 1E42          MOVL      *-SP[2],ACC           ; [CPU_] |506| 
    1212 000000ce AAA9          MOVL      ACC,XAR2              ; [CPU_] |506| 
    1213              $C$DW$172       .dwtag  DW_TAG_TI_branch
    1214                      .dwattr $C$DW$172, DW_AT_low_pc(0x00)
    1215                      .dwattr $C$DW$172, DW_AT_name("FS$$MPY")
    1216                      .dwattr $C$DW$172, DW_AT_TI_call
    1217 000000cf 7640!         LCR       #FS$$MPY              ; [CPU_] |506| 
         000000d0 0000 
    1218                      ; call occurs [#FS$$MPY] ; [] |506| 
    1219 000000d1 5CAD          MOVZ      AR4,SP                ; [CPU_] |506| 
    1220 000000d2 DC8A          SUBB      XAR4,#10              ; [CPU_U] |506| 
    1221 000000d3 88A4          MOVZ      AR6,AR4               ; [CPU_] |506| 
    1222              $C$DW$173       .dwtag  DW_TAG_TI_branch
    1223                      .dwattr $C$DW$173, DW_AT_low_pc(0x00)
    1224                      .dwattr $C$DW$173, DW_AT_name("FS$$TOFD")
TMS320C2000 Assembler PC v6.4.11 Wed Nov 23 09:26:04 2016

Tools Copyright (c) 1996-2015 Texas Instruments Incorporated
C:\Users\bee25\AppData\Local\Temp\3596410                            PAGE   25

    1225                      .dwattr $C$DW$173, DW_AT_TI_call
    1226 000000d4 7640!         LCR       #FS$$TOFD             ; [CPU_] |506| 
         000000d5 0000 
    1227                      ; call occurs [#FS$$TOFD] ; [] |506| 
    1228 000000d6 5DAD          MOVZ      AR5,SP                ; [CPU_] |506| 
    1229 000000d7 5CAD          MOVZ      AR4,SP                ; [CPU_] |506| 
    1230 000000d8 DD86          SUBB      XAR5,#6               ; [CPU_U] |506| 
    1231 000000d9 DC8A          SUBB      XAR4,#10              ; [CPU_U] |506| 
    1232 000000da 88A5          MOVZ      AR6,AR5               ; [CPU_] |506| 
    1233 000000db 5CA4          MOVZ      AR4,AR4               ; [CPU_] |506| 
    1234 000000dc 8F40+         MOVL      XAR5,#$C$FL1          ; [CPU_U] |506| 
         000000dd 0000 
    1235              $C$DW$174       .dwtag  DW_TAG_TI_branch
    1236                      .dwattr $C$DW$174, DW_AT_low_pc(0x00)
    1237                      .dwattr $C$DW$174, DW_AT_name("FD$$MPY")
    1238                      .dwattr $C$DW$174, DW_AT_TI_call
    1239 000000de 7640!         LCR       #FD$$MPY              ; [CPU_] |506| 
         000000df 0000 
    1240                      ; call occurs [#FD$$MPY] ; [] |506| 
    1241 000000e0 5CAD          MOVZ      AR4,SP                ; [CPU_] |506| 
    1242 000000e1 DC86          SUBB      XAR4,#6               ; [CPU_U] |506| 
    1243 000000e2 5CA4          MOVZ      AR4,AR4               ; [CPU_] |506| 
    1244              $C$DW$175       .dwtag  DW_TAG_TI_branch
    1245                      .dwattr $C$DW$175, DW_AT_low_pc(0x00)
    1246                      .dwattr $C$DW$175, DW_AT_name("FD$$TOL")
    1247                      .dwattr $C$DW$175, DW_AT_TI_call
    1248 000000e3 7640!         LCR       #FD$$TOL              ; [CPU_] |506| 
         000000e4 0000 
    1249                      ; call occurs [#FD$$TOL] ; [] |506| 
    1250                      .dwpsn  file "C:/ti/motorware/motorware_1_01_00_16/sw/modules/ctrl/src/32b/ctrl.h",line 1688,column 3
    1251 000000e5 D0C8          MOVB      XAR0,#200             ; [CPU_] |1688| 
    1252 000000e6 AA93          MOVL      *+XAR3[AR0],XAR2      ; [CPU_] |1688| 
    1253                      .dwpsn  file "C:/ti/motorware/motorware_1_01_00_16/sw/modules/ctrl/src/32b/ctrl.h",line 1509,column 7
    1254 000000e7 D0CA          MOVB      XAR0,#202             ; [CPU_] |1509| 
    1255 000000e8 B293          MOVL      *+XAR3[AR0],XAR1      ; [CPU_] |1509| 
    1256                      .dwpsn  file "C:/ti/motorware/motorware_1_01_00_16/sw/modules/ctrl/src/32b/ctrl.h",line 1513,column 7
    1257 000000e9 D0CC          MOVB      XAR0,#204             ; [CPU_] |1513| 
    1258 000000ea B293          MOVL      *+XAR3[AR0],XAR1      ; [CPU_] |1513| 
    1259                      .dwpsn  file "C:/ti/motorware/motorware_1_01_00_16/sw/modules/ctrl/src/32b/ctrl.h",line 1484,column 7
    1260 000000eb D0D0          MOVB      XAR0,#208             ; [CPU_] |1484| 
    1261 000000ec 1E93          MOVL      *+XAR3[AR0],ACC       ; [CPU_] |1484| 
    1262                      .dwpsn  file "C:/ti/motorware/motorware_1_01_00_16/sw/modules/pid/src/32b/pid.h",line 333,column 3,is
    1263 000000ed D020          MOVB      XAR0,#32              ; [CPU_] |333| 
    1264 000000ee 8A93          MOVL      XAR4,*+XAR3[AR0]      ; [CPU_] |333| 
    1265                      .dwpsn  file "C:/ti/motorware/motorware_1_01_00_16/sw/modules/ctrl/src/32b/ctrl.h",line 1488,column 7
    1266 000000ef D0D2          MOVB      XAR0,#210             ; [CPU_] |1488| 
    1267                      .dwpsn  file "C:/ti/motorware/motorware_1_01_00_16/sw/modules/pid/src/32b/pid.h",line 333,column 3,is
    1268 000000f0 1ED4          MOVL      *+XAR4[2],ACC         ; [CPU_] |333| 
    1269                      .dwpsn  file "C:/ti/motorware/motorware_1_01_00_16/sw/modules/ctrl/src/32b/ctrl.h",line 1488,column 7
    1270 000000f1 1E93          MOVL      *+XAR3[AR0],ACC       ; [CPU_] |1488| 
    1271                      .dwpsn  file "C:/ti/motorware/motorware_1_01_00_16/sw/modules/pid/src/32b/pid.h",line 333,column 3,is
    1272 000000f2 D032          MOVB      XAR0,#50              ; [CPU_] |333| 
    1273 000000f3 8A93          MOVL      XAR4,*+XAR3[AR0]      ; [CPU_] |333| 
    1274 000000f4 1ED4          MOVL      *+XAR4[2],ACC         ; [CPU_] |333| 
    1275 000000f5       $C$L3:    
TMS320C2000 Assembler PC v6.4.11 Wed Nov 23 09:26:04 2016

Tools Copyright (c) 1996-2015 Texas Instruments Incorporated
C:\Users\bee25\AppData\Local\Temp\3596410                            PAGE   26

    1276 000000f5 FE8A          SUBB      SP,#10                ; [CPU_U] 
    1277                      .dwcfi  cfa_offset, -8
    1278 000000f6 82BE          MOVL      XAR3,*--SP            ; [CPU_] 
    1279                      .dwcfi  cfa_offset, -6
    1280                      .dwcfi  restore_reg, 11
    1281 000000f7 86BE          MOVL      XAR2,*--SP            ; [CPU_] 
    1282                      .dwcfi  cfa_offset, -4
    1283                      .dwcfi  restore_reg, 9
    1284 000000f8 8BBE          MOVL      XAR1,*--SP            ; [CPU_] 
    1285                      .dwcfi  cfa_offset, -2
    1286                      .dwcfi  restore_reg, 7
    1287              $C$DW$176       .dwtag  DW_TAG_TI_branch
    1288                      .dwattr $C$DW$176, DW_AT_low_pc(0x00)
    1289                      .dwattr $C$DW$176, DW_AT_TI_return
    1290 000000f9 0006          LRETR     ; [CPU_] 
    1291                      ; return occurs ; [] 
    1292                      .dwattr $C$DW$157, DW_AT_TI_end_file("C:/ti/motorware/motorware_1_01_00_16/sw/solutions/instaspin_foc
    1293                      .dwattr $C$DW$157, DW_AT_TI_end_line(0x20d)
    1294                      .dwattr $C$DW$157, DW_AT_TI_end_column(0x01)
    1295                      .dwendentry
    1296                      .dwendtag $C$DW$157
    1297              
    1298 000000fa               .sect   ".text"
    1299                      .clink
    1300              
    1301              $C$DW$177       .dwtag  DW_TAG_subprogram, DW_AT_name("HAL_readAdcData")
    1302                      .dwattr $C$DW$177, DW_AT_low_pc(_HAL_readAdcData)
    1303                      .dwattr $C$DW$177, DW_AT_high_pc(0x00)
    1304                      .dwattr $C$DW$177, DW_AT_TI_symbol_name("_HAL_readAdcData")
    1305                      .dwattr $C$DW$177, DW_AT_TI_begin_file("C:/ti/motorware/motorware_1_01_00_16/sw/modules/hal/boards/bo
    1306                      .dwattr $C$DW$177, DW_AT_TI_begin_line(0x1fb)
    1307                      .dwattr $C$DW$177, DW_AT_TI_begin_column(0x14)
    1308                      .dwattr $C$DW$177, DW_AT_TI_max_frame_size(-6)
    1309                      .dwpsn  file "C:/ti/motorware/motorware_1_01_00_16/sw/modules/hal/boards/boostxldrv8301_revB/f28x/f28
    1310              
    1311                      .dwfde $C$DW$CIE, _HAL_readAdcData
    1312              $C$DW$178       .dwtag  DW_TAG_variable, DW_AT_name("current")
    1313                      .dwattr $C$DW$178, DW_AT_TI_symbol_name("_current$1")
    1314                      .dwattr $C$DW$178, DW_AT_type(*$C$DW$T$12)
    1315                      .dwattr $C$DW$178, DW_AT_location[DW_OP_addr _current$1]
    1316              $C$DW$179       .dwtag  DW_TAG_formal_parameter, DW_AT_name("handle")
    1317                      .dwattr $C$DW$179, DW_AT_TI_symbol_name("_handle")
    1318                      .dwattr $C$DW$179, DW_AT_type(*$C$DW$T$253)
    1319                      .dwattr $C$DW$179, DW_AT_location[DW_OP_reg12]
    1320              $C$DW$180       .dwtag  DW_TAG_formal_parameter, DW_AT_name("pAdcData")
    1321                      .dwattr $C$DW$180, DW_AT_TI_symbol_name("_pAdcData")
    1322                      .dwattr $C$DW$180, DW_AT_type(*$C$DW$T$246)
    1323                      .dwattr $C$DW$180, DW_AT_location[DW_OP_reg14]
    1324              
    1325              ;***************************************************************
    1326              ;* FNAME: _HAL_readAdcData              FR SIZE:   4           *
    1327              ;*                                                             *
    1328              ;* FUNCTION ENVIRONMENT                                        *
    1329              ;*                                                             *
    1330              ;* FUNCTION PROPERTIES                                         *
TMS320C2000 Assembler PC v6.4.11 Wed Nov 23 09:26:04 2016

Tools Copyright (c) 1996-2015 Texas Instruments Incorporated
C:\Users\bee25\AppData\Local\Temp\3596410                            PAGE   27

    1331              ;*                            2 Parameter,  0 Auto,  2 SOE     *
    1332              ;***************************************************************
    1333              
    1334              _HAL_readAdcData:
    1335              ;* AL    assigned to $O$C1
    1336              ;* AR4   assigned to _handle
    1337              $C$DW$181       .dwtag  DW_TAG_variable, DW_AT_name("handle")
    1338                      .dwattr $C$DW$181, DW_AT_TI_symbol_name("_handle")
    1339                      .dwattr $C$DW$181, DW_AT_type(*$C$DW$T$254)
    1340                      .dwattr $C$DW$181, DW_AT_location[DW_OP_reg12]
    1341              ;* AR1   assigned to _pAdcData
    1342              $C$DW$182       .dwtag  DW_TAG_variable, DW_AT_name("pAdcData")
    1343                      .dwattr $C$DW$182, DW_AT_TI_symbol_name("_pAdcData")
    1344                      .dwattr $C$DW$182, DW_AT_type(*$C$DW$T$247)
    1345                      .dwattr $C$DW$182, DW_AT_location[DW_OP_reg6]
    1346              ;* AR6   assigned to _current_sf
    1347              $C$DW$183       .dwtag  DW_TAG_variable, DW_AT_name("current_sf")
    1348                      .dwattr $C$DW$183, DW_AT_TI_symbol_name("_current_sf")
    1349                      .dwattr $C$DW$183, DW_AT_type(*$C$DW$T$32)
    1350                      .dwattr $C$DW$183, DW_AT_location[DW_OP_reg16]
    1351              ;* AR7   assigned to _voltage_sf
    1352              $C$DW$184       .dwtag  DW_TAG_variable, DW_AT_name("voltage_sf")
    1353                      .dwattr $C$DW$184, DW_AT_TI_symbol_name("_voltage_sf")
    1354                      .dwattr $C$DW$184, DW_AT_type(*$C$DW$T$32)
    1355                      .dwattr $C$DW$184, DW_AT_location[DW_OP_reg18]
    1356              ;* AL    assigned to _throttle
    1357              $C$DW$185       .dwtag  DW_TAG_variable, DW_AT_name("throttle")
    1358                      .dwattr $C$DW$185, DW_AT_TI_symbol_name("_throttle")
    1359                      .dwattr $C$DW$185, DW_AT_type(*$C$DW$T$12)
    1360                      .dwattr $C$DW$185, DW_AT_location[DW_OP_reg0]
    1361              ;* XT    assigned to _value
    1362              $C$DW$186       .dwtag  DW_TAG_variable, DW_AT_name("value")
    1363                      .dwattr $C$DW$186, DW_AT_TI_symbol_name("_value")
    1364                      .dwattr $C$DW$186, DW_AT_type(*$C$DW$T$32)
    1365                      .dwattr $C$DW$186, DW_AT_location[DW_OP_reg21]
    1366              ;* XT    assigned to _value
    1367              $C$DW$187       .dwtag  DW_TAG_variable, DW_AT_name("value")
    1368                      .dwattr $C$DW$187, DW_AT_TI_symbol_name("_value")
    1369                      .dwattr $C$DW$187, DW_AT_type(*$C$DW$T$32)
    1370                      .dwattr $C$DW$187, DW_AT_location[DW_OP_reg21]
    1371              ;* XT    assigned to _value
    1372              $C$DW$188       .dwtag  DW_TAG_variable, DW_AT_name("value")
    1373                      .dwattr $C$DW$188, DW_AT_TI_symbol_name("_value")
    1374                      .dwattr $C$DW$188, DW_AT_type(*$C$DW$T$32)
    1375                      .dwattr $C$DW$188, DW_AT_location[DW_OP_reg21]
    1376              ;* XT    assigned to _value
    1377              $C$DW$189       .dwtag  DW_TAG_variable, DW_AT_name("value")
    1378                      .dwattr $C$DW$189, DW_AT_TI_symbol_name("_value")
    1379                      .dwattr $C$DW$189, DW_AT_type(*$C$DW$T$32)
    1380                      .dwattr $C$DW$189, DW_AT_location[DW_OP_reg21]
    1381              ;* XT    assigned to _value
    1382              $C$DW$190       .dwtag  DW_TAG_variable, DW_AT_name("value")
    1383                      .dwattr $C$DW$190, DW_AT_TI_symbol_name("_value")
    1384                      .dwattr $C$DW$190, DW_AT_type(*$C$DW$T$32)
    1385                      .dwattr $C$DW$190, DW_AT_location[DW_OP_reg21]
TMS320C2000 Assembler PC v6.4.11 Wed Nov 23 09:26:04 2016

Tools Copyright (c) 1996-2015 Texas Instruments Incorporated
C:\Users\bee25\AppData\Local\Temp\3596410                            PAGE   28

    1386              ;* XT    assigned to _value
    1387              $C$DW$191       .dwtag  DW_TAG_variable, DW_AT_name("value")
    1388                      .dwattr $C$DW$191, DW_AT_TI_symbol_name("_value")
    1389                      .dwattr $C$DW$191, DW_AT_type(*$C$DW$T$32)
    1390                      .dwattr $C$DW$191, DW_AT_location[DW_OP_reg21]
    1391              ;* XT    assigned to _value
    1392              $C$DW$192       .dwtag  DW_TAG_variable, DW_AT_name("value")
    1393                      .dwattr $C$DW$192, DW_AT_TI_symbol_name("_value")
    1394                      .dwattr $C$DW$192, DW_AT_type(*$C$DW$T$32)
    1395                      .dwattr $C$DW$192, DW_AT_location[DW_OP_reg21]
    1396                      .dwcfi  cfa_offset, -2
    1397                      .dwcfi  save_reg_to_mem, 26, 0
    1398 000000fa B2BD          MOVL      *SP++,XAR1            ; [CPU_] 
    1399                      .dwcfi  save_reg_to_mem, 7, 2
    1400                      .dwcfi  cfa_offset, -4
    1401 000000fb FE02          ADDB      SP,#2                 ; [CPU_U] 
    1402                      .dwcfi  cfa_offset, -6
    1403                      .dwpsn  file "C:/ti/motorware/motorware_1_01_00_16/sw/modules/hal/boards/boostxldrv8301_revB/f28x/f28
    1404 000000fc D0A2          MOVB      XAR0,#162             ; [CPU_] |364| 
    1405                      .dwpsn  file "C:/ti/motorware/motorware_1_01_00_16/sw/modules/hal/boards/boostxldrv8301_revB/f28x/f28
    1406 000000fd 8BA5          MOVL      XAR1,XAR5             ; [CPU_] |508| 
    1407                      .dwpsn  file "C:/ti/motorware/motorware_1_01_00_16/sw/drivers/adc/src/32b/f28x/f2802x/adc.h",line 684
    1408 000000fe 83C4          MOVL      XAR5,*+XAR4[0]        ; [CPU_] |684| 
    1409                      .dwpsn  file "C:/ti/motorware/motorware_1_01_00_16/sw/modules/hal/boards/boostxldrv8301_revB/f28x/f28
    1410 000000ff C494          MOVL      XAR6,*+XAR4[AR0]      ; [CPU_] |364| 
    1411                      .dwpsn  file "C:/ti/motorware/motorware_1_01_00_16/sw/modules/hal/boards/boostxldrv8301_revB/f28x/f28
    1412 00000100 D0A4          MOVB      XAR0,#164             ; [CPU_] |459| 
    1413 00000101 C594          MOVL      XAR7,*+XAR4[AR0]      ; [CPU_] |459| 
    1414                      .dwpsn  file "C:/ti/motorware/motorware_1_01_00_16/sw/drivers/adc/src/32b/f28x/f2802x/adc.h",line 684
    1415 00000102 0ECD          MOVU      ACC,*+XAR5[1]         ; [CPU_] |684| 
    1416                      .dwpsn  file "C:/ti/motorware/motorware_1_01_00_16/sw/modules/hal/boards/boostxldrv8301_revB/f28x/f28
    1417 00000103 D092          MOVB      XAR0,#146             ; [CPU_] |523| 
    1418                      .dwpsn  file "C:/ti/motorware/motorware_1_01_00_16/sw/drivers/adc/src/32b/f28x/f2802x/adc.h",line 684
    1419 00000104 1EAC          MOVL      XT,ACC                ; [CPU_] |684| 
    1420                      .dwpsn  file "C:/ti/motorware/motorware_1_01_00_16/sw/modules/hal/boards/boostxldrv8301_revB/f28x/f28
    1421 00000105 5605          IMPYL     P,XT,XAR6             ; [CPU_] |523| 
         00000106 00A6 
    1422 00000107 5663          QMPYL     ACC,XT,XAR6           ; [CPU_] |523| 
         00000108 00A6 
    1423 00000109 568B          ASR64     ACC:P,#12             ; [CPU_] |523| 
    1424 0000010a A9A9          MOVL      ACC,P                 ; [CPU_] |523| 
    1425 0000010b 0394          SUBL      ACC,*+XAR4[AR0]       ; [CPU_] |523| 
    1426                      .dwpsn  file "C:/ti/motorware/motorware_1_01_00_16/sw/modules/hal/boards/boostxldrv8301_revB/f28x/f28
    1427 0000010c 1EC1          MOVL      *+XAR1[0],ACC         ; [CPU_] |524| 
    1428                      .dwpsn  file "C:/ti/motorware/motorware_1_01_00_16/sw/drivers/adc/src/32b/f28x/f2802x/adc.h",line 684
    1429 0000010d 83C4          MOVL      XAR5,*+XAR4[0]        ; [CPU_] |684| 
    1430                      .dwpsn  file "C:/ti/motorware/motorware_1_01_00_16/sw/modules/hal/boards/boostxldrv8301_revB/f28x/f28
    1431 0000010e D094          MOVB      XAR0,#148             ; [CPU_] |528| 
    1432                      .dwpsn  file "C:/ti/motorware/motorware_1_01_00_16/sw/drivers/adc/src/32b/f28x/f2802x/adc.h",line 684
    1433 0000010f 0ED5          MOVU      ACC,*+XAR5[2]         ; [CPU_] |684| 
    1434 00000110 1EAC          MOVL      XT,ACC                ; [CPU_] |684| 
    1435                      .dwpsn  file "C:/ti/motorware/motorware_1_01_00_16/sw/modules/hal/boards/boostxldrv8301_revB/f28x/f28
    1436 00000111 5605          IMPYL     P,XT,XAR6             ; [CPU_] |528| 
         00000112 00A6 
    1437 00000113 5663          QMPYL     ACC,XT,XAR6           ; [CPU_] |528| 
TMS320C2000 Assembler PC v6.4.11 Wed Nov 23 09:26:04 2016

Tools Copyright (c) 1996-2015 Texas Instruments Incorporated
C:\Users\bee25\AppData\Local\Temp\3596410                            PAGE   29

         00000114 00A6 
    1438 00000115 568B          ASR64     ACC:P,#12             ; [CPU_] |528| 
    1439 00000116 A9A9          MOVL      ACC,P                 ; [CPU_] |528| 
    1440 00000117 0394          SUBL      ACC,*+XAR4[AR0]       ; [CPU_] |528| 
    1441                      .dwpsn  file "C:/ti/motorware/motorware_1_01_00_16/sw/modules/hal/boards/boostxldrv8301_revB/f28x/f28
    1442 00000118 1ED1          MOVL      *+XAR1[2],ACC         ; [CPU_] |529| 
    1443                      .dwpsn  file "C:/ti/motorware/motorware_1_01_00_16/sw/drivers/adc/src/32b/f28x/f2802x/adc.h",line 684
    1444 00000119 83C4          MOVL      XAR5,*+XAR4[0]        ; [CPU_] |684| 
    1445                      .dwpsn  file "C:/ti/motorware/motorware_1_01_00_16/sw/modules/hal/boards/boostxldrv8301_revB/f28x/f28
    1446 0000011a D096          MOVB      XAR0,#150             ; [CPU_] |533| 
    1447                      .dwpsn  file "C:/ti/motorware/motorware_1_01_00_16/sw/drivers/adc/src/32b/f28x/f2802x/adc.h",line 684
    1448 0000011b 0EDD          MOVU      ACC,*+XAR5[3]         ; [CPU_] |684| 
    1449 0000011c 1EAC          MOVL      XT,ACC                ; [CPU_] |684| 
    1450                      .dwpsn  file "C:/ti/motorware/motorware_1_01_00_16/sw/modules/hal/boards/boostxldrv8301_revB/f28x/f28
    1451 0000011d 5605          IMPYL     P,XT,XAR6             ; [CPU_] |533| 
         0000011e 00A6 
    1452 0000011f 5663          QMPYL     ACC,XT,XAR6           ; [CPU_] |533| 
         00000120 00A6 
    1453 00000121 568B          ASR64     ACC:P,#12             ; [CPU_] |533| 
    1454 00000122 A9A9          MOVL      ACC,P                 ; [CPU_] |533| 
    1455 00000123 0394          SUBL      ACC,*+XAR4[AR0]       ; [CPU_] |533| 
    1456                      .dwpsn  file "C:/ti/motorware/motorware_1_01_00_16/sw/modules/hal/boards/boostxldrv8301_revB/f28x/f28
    1457 00000124 1EE1          MOVL      *+XAR1[4],ACC         ; [CPU_] |534| 
    1458                      .dwpsn  file "C:/ti/motorware/motorware_1_01_00_16/sw/drivers/adc/src/32b/f28x/f2802x/adc.h",line 684
    1459 00000125 83C4          MOVL      XAR5,*+XAR4[0]        ; [CPU_] |684| 
    1460                      .dwpsn  file "C:/ti/motorware/motorware_1_01_00_16/sw/modules/hal/boards/boostxldrv8301_revB/f28x/f28
    1461 00000126 D098          MOVB      XAR0,#152             ; [CPU_] |538| 
    1462                      .dwpsn  file "C:/ti/motorware/motorware_1_01_00_16/sw/drivers/adc/src/32b/f28x/f2802x/adc.h",line 684
    1463 00000127 0EE5          MOVU      ACC,*+XAR5[4]         ; [CPU_] |684| 
    1464 00000128 1EAC          MOVL      XT,ACC                ; [CPU_] |684| 
    1465                      .dwpsn  file "C:/ti/motorware/motorware_1_01_00_16/sw/modules/hal/boards/boostxldrv8301_revB/f28x/f28
    1466 00000129 5605          IMPYL     P,XT,XAR7             ; [CPU_] |538| 
         0000012a 00A7 
    1467 0000012b 5663          QMPYL     ACC,XT,XAR7           ; [CPU_] |538| 
         0000012c 00A7 
    1468 0000012d 568B          ASR64     ACC:P,#12             ; [CPU_] |538| 
    1469 0000012e A9A9          MOVL      ACC,P                 ; [CPU_] |538| 
    1470 0000012f 0394          SUBL      ACC,*+XAR4[AR0]       ; [CPU_] |538| 
    1471                      .dwpsn  file "C:/ti/motorware/motorware_1_01_00_16/sw/modules/hal/boards/boostxldrv8301_revB/f28x/f28
    1472 00000130 1EF1          MOVL      *+XAR1[6],ACC         ; [CPU_] |539| 
    1473                      .dwpsn  file "C:/ti/motorware/motorware_1_01_00_16/sw/drivers/adc/src/32b/f28x/f2802x/adc.h",line 684
    1474 00000131 83C4          MOVL      XAR5,*+XAR4[0]        ; [CPU_] |684| 
    1475                      .dwpsn  file "C:/ti/motorware/motorware_1_01_00_16/sw/modules/hal/boards/boostxldrv8301_revB/f28x/f28
    1476 00000132 D09A          MOVB      XAR0,#154             ; [CPU_] |543| 
    1477                      .dwpsn  file "C:/ti/motorware/motorware_1_01_00_16/sw/drivers/adc/src/32b/f28x/f2802x/adc.h",line 684
    1478 00000133 0EED          MOVU      ACC,*+XAR5[5]         ; [CPU_] |684| 
    1479 00000134 1EAC          MOVL      XT,ACC                ; [CPU_] |684| 
    1480                      .dwpsn  file "C:/ti/motorware/motorware_1_01_00_16/sw/modules/hal/boards/boostxldrv8301_revB/f28x/f28
    1481 00000135 5605          IMPYL     P,XT,XAR7             ; [CPU_] |543| 
         00000136 00A7 
    1482 00000137 5663          QMPYL     ACC,XT,XAR7           ; [CPU_] |543| 
         00000138 00A7 
    1483 00000139 568B          ASR64     ACC:P,#12             ; [CPU_] |543| 
    1484 0000013a A9A9          MOVL      ACC,P                 ; [CPU_] |543| 
    1485 0000013b 0394          SUBL      ACC,*+XAR4[AR0]       ; [CPU_] |543| 
TMS320C2000 Assembler PC v6.4.11 Wed Nov 23 09:26:04 2016

Tools Copyright (c) 1996-2015 Texas Instruments Incorporated
C:\Users\bee25\AppData\Local\Temp\3596410                            PAGE   30

    1486                      .dwpsn  file "C:/ti/motorware/motorware_1_01_00_16/sw/modules/hal/boards/boostxldrv8301_revB/f28x/f28
    1487 0000013c D008          MOVB      XAR0,#8               ; [CPU_] |544| 
    1488 0000013d 1E91          MOVL      *+XAR1[AR0],ACC       ; [CPU_] |544| 
    1489                      .dwpsn  file "C:/ti/motorware/motorware_1_01_00_16/sw/drivers/adc/src/32b/f28x/f2802x/adc.h",line 684
    1490 0000013e 83C4          MOVL      XAR5,*+XAR4[0]        ; [CPU_] |684| 
    1491                      .dwpsn  file "C:/ti/motorware/motorware_1_01_00_16/sw/modules/hal/boards/boostxldrv8301_revB/f28x/f28
    1492 0000013f D09C          MOVB      XAR0,#156             ; [CPU_] |548| 
    1493                      .dwpsn  file "C:/ti/motorware/motorware_1_01_00_16/sw/drivers/adc/src/32b/f28x/f2802x/adc.h",line 684
    1494 00000140 0EF5          MOVU      ACC,*+XAR5[6]         ; [CPU_] |684| 
    1495 00000141 1EAC          MOVL      XT,ACC                ; [CPU_] |684| 
    1496                      .dwpsn  file "C:/ti/motorware/motorware_1_01_00_16/sw/modules/hal/boards/boostxldrv8301_revB/f28x/f28
    1497 00000142 5605          IMPYL     P,XT,XAR7             ; [CPU_] |548| 
         00000143 00A7 
    1498 00000144 5663          QMPYL     ACC,XT,XAR7           ; [CPU_] |548| 
         00000145 00A7 
    1499 00000146 568B          ASR64     ACC:P,#12             ; [CPU_] |548| 
    1500 00000147 A9A9          MOVL      ACC,P                 ; [CPU_] |548| 
    1501 00000148 0394          SUBL      ACC,*+XAR4[AR0]       ; [CPU_] |548| 
    1502                      .dwpsn  file "C:/ti/motorware/motorware_1_01_00_16/sw/modules/hal/boards/boostxldrv8301_revB/f28x/f28
    1503 00000149 D00A          MOVB      XAR0,#10              ; [CPU_] |549| 
    1504 0000014a 1E91          MOVL      *+XAR1[AR0],ACC       ; [CPU_] |549| 
    1505                      .dwpsn  file "C:/ti/motorware/motorware_1_01_00_16/sw/drivers/adc/src/32b/f28x/f2802x/adc.h",line 684
    1506 0000014b 83C4          MOVL      XAR5,*+XAR4[0]        ; [CPU_] |684| 
    1507                      .dwpsn  file "C:/ti/motorware/motorware_1_01_00_16/sw/modules/hal/boards/boostxldrv8301_revB/f28x/f28
    1508 0000014c D00C          MOVB      XAR0,#12              ; [CPU_] |554| 
    1509                      .dwpsn  file "C:/ti/motorware/motorware_1_01_00_16/sw/drivers/adc/src/32b/f28x/f2802x/adc.h",line 684
    1510 0000014d 0EFD          MOVU      ACC,*+XAR5[7]         ; [CPU_] |684| 
    1511 0000014e 1EAC          MOVL      XT,ACC                ; [CPU_] |684| 
    1512                      .dwpsn  file "C:/ti/motorware/motorware_1_01_00_16/sw/modules/hal/boards/boostxldrv8301_revB/f28x/f28
    1513 0000014f 5605          IMPYL     P,XT,XAR7             ; [CPU_] |553| 
         00000150 00A7 
    1514 00000151 5663          QMPYL     ACC,XT,XAR7           ; [CPU_] |553| 
         00000152 00A7 
    1515 00000153 568B          ASR64     ACC:P,#12             ; [CPU_] |553| 
    1516                      .dwpsn  file "C:/ti/motorware/motorware_1_01_00_16/sw/drivers/adc/src/32b/f28x/f2802x/adc.h",line 684
    1517 00000154 0208          MOVB      ACC,#8                ; [CPU_] |684| 
    1518                      .dwpsn  file "C:/ti/motorware/motorware_1_01_00_16/sw/modules/hal/boards/boostxldrv8301_revB/f28x/f28
    1519 00000155 A991          MOVL      *+XAR1[AR0],P         ; [CPU_] |554| 
    1520                      .dwpsn  file "C:/ti/motorware/motorware_1_01_00_16/sw/drivers/adc/src/32b/f28x/f2802x/adc.h",line 684
    1521 00000156 07C4          ADDL      ACC,*+XAR4[0]         ; [CPU_] |684| 
    1522 00000157 8AA9          MOVL      XAR4,ACC              ; [CPU_] |684| 
    1523                      .dwpsn  file "C:/ti/motorware/motorware_1_01_00_16/sw/modules/hal/boards/boostxldrv8301_revB/f28x/f28
    1524 00000158 BE14          MOVB      XAR6,#20              ; [CPU_] |561| 
    1525                      .dwpsn  file "C:/ti/motorware/motorware_1_01_00_16/sw/drivers/adc/src/32b/f28x/f2802x/adc.h",line 684
    1526 00000159 0EC4          MOVU      ACC,*+XAR4[0]         ; [CPU_] |684| 
    1527                      .dwpsn  file "C:/ti/motorware/motorware_1_01_00_16/sw/modules/hal/boards/boostxldrv8301_revB/f28x/f28
    1528 0000015a C242          MOVL      *-SP[2],XAR6          ; [CPU_] |561| 
    1529 0000015b BE13          MOVB      XAR6,#19              ; [CPU_] |561| 
    1530 0000015c D00E          MOVB      XAR0,#14              ; [CPU_] |561| 
    1531 0000015d FF00          SUB       ACC,#345 << 0         ; [CPU_] |561| 
         0000015e 0159 
    1532 0000015f 87A6          MOVL      XT,XAR6               ; [CPU_] |561| 
    1533 00000160 5605          IMPYL     P,XT,*+XAR1[AR0]      ; [CPU_] |561| 
         00000161 0091 
    1534 00000162 07AB          ADDL      ACC,P                 ; [CPU_] |561| 
TMS320C2000 Assembler PC v6.4.11 Wed Nov 23 09:26:04 2016

Tools Copyright (c) 1996-2015 Texas Instruments Incorporated
C:\Users\bee25\AppData\Local\Temp\3596410                            PAGE   31

    1535              $C$DW$193       .dwtag  DW_TAG_TI_branch
    1536                      .dwattr $C$DW$193, DW_AT_low_pc(0x00)
    1537                      .dwattr $C$DW$193, DW_AT_name("L$$DIV")
    1538                      .dwattr $C$DW$193, DW_AT_TI_call
    1539 00000163 00C0!         FFC       XAR7,#L$$DIV          ; [CPU_] |561| 
         00000164 0000 
    1540                      ; call occurs [#L$$DIV] ; [] |561| 
    1541                      .dwpsn  file "C:/ti/motorware/motorware_1_01_00_16/sw/modules/hal/boards/boostxldrv8301_revB/f28x/f28
    1542 00000165 D00E          MOVB      XAR0,#14              ; [CPU_] |562| 
    1543 00000166 761F-         MOVW      DP,#_current$1        ; [CPU_U] 
         00000167 0000 
    1544                      .dwpsn  file "C:/ti/motorware/motorware_1_01_00_16/sw/modules/hal/boards/boostxldrv8301_revB/f28x/f28
    1545 00000168 1E08-         MOVL      @_current$1,ACC       ; [CPU_] |561| 
    1546                      .dwpsn  file "C:/ti/motorware/motorware_1_01_00_16/sw/modules/hal/boards/boostxldrv8301_revB/f28x/f28
    1547 00000169 1E91          MOVL      *+XAR1[AR0],ACC       ; [CPU_] |562| 
    1548                      .dwpsn  file "C:/ti/motorware/motorware_1_01_00_16/sw/modules/hal/boards/boostxldrv8301_revB/f28x/f28
    1549 0000016a D00E          MOVB      XAR0,#14              ; [CPU_] |563| 
    1550 0000016b 0691          MOVL      ACC,*+XAR1[AR0]       ; [CPU_] |563| 
    1551              $C$DW$194       .dwtag  DW_TAG_TI_branch
    1552                      .dwattr $C$DW$194, DW_AT_low_pc(0x00)
    1553                      .dwattr $C$DW$194, DW_AT_name("L$$TOFS")
    1554                      .dwattr $C$DW$194, DW_AT_TI_call
    1555 0000016c 7640!         LCR       #L$$TOFS              ; [CPU_] |563| 
         0000016d 0000 
    1556                      ; call occurs [#L$$TOFS] ; [] |563| 
    1557 0000016e 1EA6          MOVL      XAR6,ACC              ; [CPU_] |563| 
    1558 0000016f 9A00          MOV       AL,#0                 ; [CPU_] |563| 
    1559 00000170 9B00          MOV       AH,#0                 ; [CPU_] |563| 
    1560 00000171 1E42          MOVL      *-SP[2],ACC           ; [CPU_] |563| 
    1561 00000172 06A6          MOVL      ACC,XAR6              ; [CPU_] |563| 
    1562              $C$DW$195       .dwtag  DW_TAG_TI_branch
    1563                      .dwattr $C$DW$195, DW_AT_low_pc(0x00)
    1564                      .dwattr $C$DW$195, DW_AT_name("FS$$CMP")
    1565                      .dwattr $C$DW$195, DW_AT_TI_call
    1566 00000173 7640!         LCR       #FS$$CMP              ; [CPU_] |563| 
         00000174 0000 
    1567                      ; call occurs [#FS$$CMP] ; [] |563| 
    1568 00000175 5200          CMPB      AL,#0                 ; [CPU_] |563| 
    1569 00000176 56C2          BF        $C$L4,GT              ; [CPU_] |563| 
         00000177 0005 
    1570                      ; branchcc occurs ; [] |563| 
    1571                      .dwpsn  file "C:/ti/motorware/motorware_1_01_00_16/sw/modules/hal/boards/boostxldrv8301_revB/f28x/f28
    1572 00000178 D00E          MOVB      XAR0,#14              ; [CPU_] |564| 
    1573 00000179 0200          MOVB      ACC,#0                ; [CPU_] |564| 
    1574 0000017a 1E91          MOVL      *+XAR1[AR0],ACC       ; [CPU_] |564| 
    1575 0000017b       $C$L4:    
    1576 0000017b FE82          SUBB      SP,#2                 ; [CPU_U] 
    1577                      .dwcfi  cfa_offset, -4
    1578 0000017c 8BBE          MOVL      XAR1,*--SP            ; [CPU_] 
    1579                      .dwcfi  cfa_offset, -2
    1580                      .dwcfi  restore_reg, 7
    1581              $C$DW$196       .dwtag  DW_TAG_TI_branch
    1582                      .dwattr $C$DW$196, DW_AT_low_pc(0x00)
    1583                      .dwattr $C$DW$196, DW_AT_TI_return
    1584 0000017d 0006          LRETR     ; [CPU_] 
TMS320C2000 Assembler PC v6.4.11 Wed Nov 23 09:26:04 2016

Tools Copyright (c) 1996-2015 Texas Instruments Incorporated
C:\Users\bee25\AppData\Local\Temp\3596410                            PAGE   32

    1585                      ; return occurs ; [] 
    1586                      .dwattr $C$DW$177, DW_AT_TI_end_file("C:/ti/motorware/motorware_1_01_00_16/sw/modules/hal/boards/boos
    1587                      .dwattr $C$DW$177, DW_AT_TI_end_line(0x237)
    1588                      .dwattr $C$DW$177, DW_AT_TI_end_column(0x01)
    1589                      .dwendentry
    1590                      .dwendtag $C$DW$177
    1591              
    1592 00000000               .sect   "ramfuncs:retain"
    1593                      .retain
    1594                      .retainrefs
    1595                      .global _mainISR
    1596              
    1597              $C$DW$197       .dwtag  DW_TAG_subprogram, DW_AT_name("mainISR")
    1598                      .dwattr $C$DW$197, DW_AT_low_pc(_mainISR)
    1599                      .dwattr $C$DW$197, DW_AT_high_pc(0x00)
    1600                      .dwattr $C$DW$197, DW_AT_TI_symbol_name("_mainISR")
    1601                      .dwattr $C$DW$197, DW_AT_external
    1602                      .dwattr $C$DW$197, DW_AT_TI_begin_file("C:/ti/motorware/motorware_1_01_00_16/sw/solutions/instaspin_f
    1603                      .dwattr $C$DW$197, DW_AT_TI_begin_line(0x1a4)
    1604                      .dwattr $C$DW$197, DW_AT_TI_begin_column(0x10)
    1605                      .dwattr $C$DW$197, DW_AT_TI_interrupt
    1606                      .dwattr $C$DW$197, DW_AT_TI_max_frame_size(-18)
    1607                      .dwpsn  file "C:/ti/motorware/motorware_1_01_00_16/sw/solutions/instaspin_foc/src/proj_lab02b.c",line
    1608              
    1609                      .dwfde $C$DW$CIE, _mainISR
    1610              
    1611              ;***************************************************************
    1612              ;* FNAME: _mainISR                      FR SIZE:  16           *
    1613              ;*                                                             *
    1614              ;* FUNCTION ENVIRONMENT                                        *
    1615              ;*                                                             *
    1616              ;* FUNCTION PROPERTIES                                         *
    1617              ;*                            4 Parameter,  0 Auto, 12 SOE     *
    1618              ;***************************************************************
    1619              
    1620              _mainISR:
    1621              ;* AR5   assigned to $O$C1
    1622              ;* AR1   assigned to $O$C2
    1623              ;* AR1   assigned to $O$C3
    1624              ;* AR4   assigned to $O$v1
    1625              ;* AR7   assigned to _period
    1626              $C$DW$198       .dwtag  DW_TAG_variable, DW_AT_name("period")
    1627                      .dwattr $C$DW$198, DW_AT_TI_symbol_name("_period")
    1628                      .dwattr $C$DW$198, DW_AT_type(*$C$DW$T$32)
    1629                      .dwattr $C$DW$198, DW_AT_location[DW_OP_reg18]
    1630              ;* AR4   assigned to _obj
    1631              $C$DW$199       .dwtag  DW_TAG_variable, DW_AT_name("obj")
    1632                      .dwattr $C$DW$199, DW_AT_TI_symbol_name("_obj")
    1633                      .dwattr $C$DW$199, DW_AT_type(*$C$DW$T$251)
    1634                      .dwattr $C$DW$199, DW_AT_location[DW_OP_reg12]
    1635              ;* AR1   assigned to $O$U39
    1636              ;* AR4   assigned to $O$U31
    1637                      .dwcfi  cfa_offset, -2
    1638                      .dwcfi  save_reg_to_mem, 26, 0
    1639 00000000 761B          ASP       ; [CPU_] 
TMS320C2000 Assembler PC v6.4.11 Wed Nov 23 09:26:04 2016

Tools Copyright (c) 1996-2015 Texas Instruments Incorporated
C:\Users\bee25\AppData\Local\Temp\3596410                            PAGE   33

    1640 00000001 0005          PUSH      AR1H:AR0H             ; [CPU_] 
    1641                      .dwcfi  save_reg_to_mem, 5, 2
    1642                      .dwcfi  save_reg_to_mem, 7, 3
    1643                      .dwcfi  cfa_offset, -4
    1644 00000002 ABBD          MOVL      *SP++,XT              ; [CPU_] 
    1645                      .dwcfi  save_reg_to_mem, 21, 4
    1646                      .dwcfi  save_reg_to_mem, 22, 5
    1647                      .dwcfi  cfa_offset, -6
    1648 00000003 A8BD          MOVL      *SP++,XAR4            ; [CPU_] 
    1649                      .dwcfi  save_reg_to_mem, 12, 6
    1650                      .dwcfi  save_reg_to_mem, 13, 7
    1651                      .dwcfi  cfa_offset, -8
    1652 00000004 A0BD          MOVL      *SP++,XAR5            ; [CPU_] 
    1653                      .dwcfi  save_reg_to_mem, 14, 8
    1654                      .dwcfi  save_reg_to_mem, 15, 9
    1655                      .dwcfi  cfa_offset, -10
    1656 00000005 C2BD          MOVL      *SP++,XAR6            ; [CPU_] 
    1657                      .dwcfi  save_reg_to_mem, 16, 10
    1658                      .dwcfi  save_reg_to_mem, 17, 11
    1659                      .dwcfi  cfa_offset, -12
    1660 00000006 C3BD          MOVL      *SP++,XAR7            ; [CPU_] 
    1661                      .dwcfi  save_reg_to_mem, 18, 12
    1662                      .dwcfi  save_reg_to_mem, 19, 13
    1663                      .dwcfi  cfa_offset, -14
    1664 00000007 FE04          ADDB      SP,#4                 ; [CPU_U] 
    1665                      .dwcfi  cfa_offset, -18
    1666 00000008 FF69          SPM       0                     ; [CPU_] 
    1667 00000009 2942          CLRC      PAGE0,OVM             ; [CPU_] 
    1668 0000000a 5616          CLRC      AMODE                 ; [CPU_] 
    1669 0000000b 761F-         MOVW      DP,#_gLEDcnt          ; [CPU_U] 
         0000000c 0000 
    1670                      .dwpsn  file "C:/ti/motorware/motorware_1_01_00_16/sw/solutions/instaspin_foc/src/proj_lab02b.c",line
    1671 0000000d 0A02-         INC       @_gLEDcnt             ; [CPU_] |423| 
    1672 0000000e 9202-         MOV       AL,@_gLEDcnt          ; [CPU_] |423| 
    1673 0000000f 9CFF          ADDB      AL,#-1                ; [CPU_] |423| 
    1674 00000010 1BA9          CMP       AL,#1333              ; [CPU_] |423| 
         00000011 0535 
    1675 00000012 56C9          BF        $C$L5,LOS             ; [CPU_] |423| 
         00000013 000E 
    1676                      ; branchcc occurs ; [] |423| 
    1677                      .dwpsn  file "C:/ti/motorware/motorware_1_01_00_16/sw/modules/hal/boards/boostxldrv8301_revB/f28x/f28
    1678 00000014 0208          MOVB      ACC,#8                ; [CPU_] |785| 
    1679 00000015 761F-         MOVW      DP,#_halHandle        ; [CPU_U] 
         00000016 0000 
    1680 00000017 0700-         ADDL      ACC,@_halHandle       ; [CPU_] |785| 
    1681 00000018 8AA9          MOVL      XAR4,ACC              ; [CPU_] |785| 
    1682 00000019 9A00          MOVB      AL,#0                 ; [CPU_] |785| 
    1683 0000001a 8AC4          MOVL      XAR4,*+XAR4[0]        ; [CPU_] |785| 
    1684              $C$DW$200       .dwtag  DW_TAG_TI_branch
    1685                      .dwattr $C$DW$200, DW_AT_low_pc(0x00)
    1686                      .dwattr $C$DW$200, DW_AT_name("_GPIO_toggle")
    1687                      .dwattr $C$DW$200, DW_AT_TI_call
    1688 0000001b 7640!         LCR       #_GPIO_toggle         ; [CPU_] |785| 
         0000001c 0000 
    1689                      ; call occurs [#_GPIO_toggle] ; [] |785| 
TMS320C2000 Assembler PC v6.4.11 Wed Nov 23 09:26:04 2016

Tools Copyright (c) 1996-2015 Texas Instruments Incorporated
C:\Users\bee25\AppData\Local\Temp\3596410                            PAGE   34

    1690 0000001d 761F-         MOVW      DP,#_gLEDcnt          ; [CPU_U] 
         0000001e 0000 
    1691                      .dwpsn  file "C:/ti/motorware/motorware_1_01_00_16/sw/solutions/instaspin_foc/src/proj_lab02b.c",line
    1692 0000001f 2B02-         MOV       @_gLEDcnt,#0          ; [CPU_] |426| 
    1693 00000020       $C$L5:    
    1694 00000020 761F-         MOVW      DP,#_halHandle        ; [CPU_U] 
         00000021 0000 
    1695                      .dwpsn  file "C:/ti/motorware/motorware_1_01_00_16/sw/solutions/instaspin_foc/src/proj_lab02b.c",line
    1696 00000022 8A00-         MOVL      XAR4,@_halHandle      ; [CPU_] |431| 
    1697                      .dwpsn  file "C:/ti/motorware/motorware_1_01_00_16/sw/drivers/adc/src/32b/f28x/f2802x/adc.h",line 571
    1698 00000023 8F40          MOVL      XAR5,#26117           ; [CPU_U] |571| 
         00000024 6605 
    1699 00000025 A0A9          MOVL      ACC,XAR5              ; [CPU_] |571| 
    1700 00000026 07C4          ADDL      ACC,*+XAR4[0]         ; [CPU_] |571| 
    1701 00000027 83A9          MOVL      XAR5,ACC              ; [CPU_] |571| 
    1702                      .dwpsn  file "C:/ti/motorware/motorware_1_01_00_16/sw/drivers/pie/src/32b/f28x/f2802x/pie.h",line 757
    1703 00000028 D078          MOVB      XAR0,#120             ; [CPU_] |757| 
    1704                      .dwpsn  file "C:/ti/motorware/motorware_1_01_00_16/sw/drivers/adc/src/32b/f28x/f2802x/adc.h",line 571
    1705 00000029 56BF          MOVB      *+XAR5[0],#1,UNC      ; [CPU_] |571| 
         0000002a 01C5 
    1706                      .dwpsn  file "C:/ti/motorware/motorware_1_01_00_16/sw/drivers/pie/src/32b/f28x/f2802x/pie.h",line 757
    1707 0000002b 8394          MOVL      XAR5,*+XAR4[AR0]      ; [CPU_] |757| 
    1708                      .dwpsn  file "C:/ti/motorware/motorware_1_01_00_16/sw/solutions/instaspin_foc/src/proj_lab02b.c",line
    1709 0000002c 8D40-         MOVL      XAR1,#_gAdcData       ; [CPU_U] |435| 
         0000002d 0010 
    1710                      .dwpsn  file "C:/ti/motorware/motorware_1_01_00_16/sw/drivers/pie/src/32b/f28x/f2802x/pie.h",line 757
    1711 0000002e 28CD          MOV       *+XAR5[1],#512        ; [CPU_] |757| 
         0000002f 0200 
    1712                      .dwpsn  file "C:/ti/motorware/motorware_1_01_00_16/sw/solutions/instaspin_foc/src/proj_lab02b.c",line
    1713 00000030 83A1          MOVL      XAR5,XAR1             ; [CPU_] |435| 
    1714              $C$DW$201       .dwtag  DW_TAG_TI_branch
    1715                      .dwattr $C$DW$201, DW_AT_low_pc(0x00)
    1716                      .dwattr $C$DW$201, DW_AT_name("_HAL_readAdcData")
    1717                      .dwattr $C$DW$201, DW_AT_TI_call
    1718 00000031 7640'         LCR       #_HAL_readAdcData     ; [CPU_] |435| 
         00000032 00FA 
    1719                      ; call occurs [#_HAL_readAdcData] ; [] |435| 
    1720 00000033 761F-         MOVW      DP,#_ctrlHandle       ; [CPU_U] 
         00000034 0000 
    1721                      .dwpsn  file "C:/ti/motorware/motorware_1_01_00_16/sw/solutions/instaspin_foc/src/proj_lab02b.c",line
    1722 00000035 B242          MOVL      *-SP[2],XAR1          ; [CPU_] |439| 
    1723 00000036 8A06-         MOVL      XAR4,@_ctrlHandle     ; [CPU_] |439| 
    1724 00000037 761F-         MOVW      DP,#_halHandle        ; [CPU_U] 
         00000038 0000 
    1725 00000039 8D40-         MOVL      XAR1,#_gPwmData       ; [CPU_U] |439| 
         0000003a 000A 
    1726 0000003b 8300-         MOVL      XAR5,@_halHandle      ; [CPU_] |439| 
    1727 0000003c B244          MOVL      *-SP[4],XAR1          ; [CPU_] |439| 
    1728              $C$DW$202       .dwtag  DW_TAG_TI_branch
    1729                      .dwattr $C$DW$202, DW_AT_low_pc(0x00)
    1730                      .dwattr $C$DW$202, DW_AT_name("_CTRL_run")
    1731                      .dwattr $C$DW$202, DW_AT_TI_call
    1732 0000003d 7640!         LCR       #_CTRL_run            ; [CPU_] |439| 
         0000003e 0000 
    1733                      ; call occurs [#_CTRL_run] ; [] |439| 
TMS320C2000 Assembler PC v6.4.11 Wed Nov 23 09:26:04 2016

Tools Copyright (c) 1996-2015 Texas Instruments Incorporated
C:\Users\bee25\AppData\Local\Temp\3596410                            PAGE   35

    1734 0000003f 761F-         MOVW      DP,#_halHandle        ; [CPU_U] 
         00000040 0000 
    1735 00000041 027C          MOVB      ACC,#124              ; [CPU_] 
    1736 00000042 BE02          MOVB      XAR6,#2               ; [CPU_] 
    1737 00000043 0700-         ADDL      ACC,@_halHandle       ; [CPU_] 
    1738 00000044 8AA9          MOVL      XAR4,ACC              ; [CPU_] 
    1739 00000045 3B01          SETC      SXM                   ; [CPU_] 
    1740 00000046       $C$L6:    
    1741                      .dwpsn  file "C:/ti/motorware/motorware_1_01_00_16/sw/drivers/pwm/src/32b/f28x/f2802x/pwm.h",line 171
    1742 00000046 FF2F          MOV       ACC,#-512 << 15       ; [CPU_] |1717| 
         00000047 FE00 
    1743 00000048 8781          MOVL      XT,*XAR1++            ; [CPU_] |1717| 
    1744                      .dwpsn  file "C:/ti/motorware/motorware_1_01_00_16/sw/modules/hal/boards/boostxldrv8301_revB/f28x/f28
    1745 00000049 8384          MOVL      XAR5,*XAR4++          ; [CPU_] |1092| 
    1746                      .dwpsn  file "C:/ti/motorware/motorware_1_01_00_16/sw/drivers/pwm/src/32b/f28x/f2802x/pwm.h",line 171
    1747 0000004a 5605          IMPYL     P,XT,ACC              ; [CPU_] |1717| 
         0000004b 00A9 
    1748 0000004c 5663          QMPYL     ACC,XT,ACC            ; [CPU_] |1717| 
         0000004d 00A9 
    1749 0000004e 56A7          LSL64     ACC:P,#8              ; [CPU_] |1717| 
    1750 0000004f 2BAB          MOV       PL,#0                 ; [CPU_] |1717| 
    1751 00000050 28AA          MOV       PH,#128               ; [CPU_] |1717| 
         00000051 0080 
    1752 00000052 A9A0          MOVL      XAR0,P                ; [CPU_] |1717| 
    1753                      .dwpsn  file "C:/ti/motorware/motorware_1_01_00_16/sw/modules/hal/boards/boostxldrv8301_revB/f28x/f28
    1754 00000053 80ED          MOVZ      AR7,*+XAR5[5]         ; [CPU_] |1092| 
    1755                      .dwpsn  file "C:/ti/motorware/motorware_1_01_00_16/sw/drivers/pwm/src/32b/f28x/f2802x/pwm.h",line 171
    1756 00000054 2BAB          MOV       PL,#0                 ; [CPU_] |1717| 
    1757 00000055 28AA          MOV       PH,#65408             ; [CPU_] |1717| 
         00000056 FF80 
    1758 00000057 5650          MINL      ACC,XAR0              ; [CPU_] |1717| 
         00000058 00A0 
    1759 00000059 5661          MAXL      ACC,P                 ; [CPU_] |1717| 
         0000005a 00AB 
    1760 0000005b D009          MOVB      XAR0,#9               ; [CPU_] |1717| 
    1761 0000005c FF1F          ADD       ACC,#256 << 15        ; [CPU_] |1717| 
         0000005d 0100 
    1762 0000005e 1EAC          MOVL      XT,ACC                ; [CPU_] |1717| 
    1763 0000005f 5605          IMPYL     P,XT,XAR7             ; [CPU_] |1717| 
         00000060 00A7 
    1764 00000061 5663          QMPYL     ACC,XT,XAR7           ; [CPU_] |1717| 
         00000062 00A7 
    1765 00000063 56A7          LSL64     ACC:P,#8              ; [CPU_] |1717| 
    1766 00000064 3100          MOV       P,#0                  ; [CPU_] |1717| 
    1767 00000065 5650          MINL      ACC,XAR7              ; [CPU_] |1717| 
         00000066 00A7 
    1768 00000067 5661          MAXL      ACC,P                 ; [CPU_] |1717| 
         00000068 00AB 
    1769 00000069 9695          MOV       *+XAR5[AR0],AL        ; [CPU_] |1717| 
    1770                      .dwpsn  file "C:/ti/motorware/motorware_1_01_00_16/sw/modules/hal/boards/boostxldrv8301_revB/f28x/f28
    1771 0000006a 000E          BANZ      $C$L6,AR6--           ; [CPU_] |1089| 
         0000006b FFDC 
    1772                      ; branchcc occurs ; [] |1089| 
    1773 0000006c 761F-         MOVW      DP,#_ctrlHandle       ; [CPU_U] 
         0000006d 0000 
TMS320C2000 Assembler PC v6.4.11 Wed Nov 23 09:26:04 2016

Tools Copyright (c) 1996-2015 Texas Instruments Incorporated
C:\Users\bee25\AppData\Local\Temp\3596410                            PAGE   36

    1774                      .dwpsn  file "C:/ti/motorware/motorware_1_01_00_16/sw/solutions/instaspin_foc/src/proj_lab02b.c",line
    1775 0000006e 8A06-         MOVL      XAR4,@_ctrlHandle     ; [CPU_] |447| 
    1776              $C$DW$203       .dwtag  DW_TAG_TI_branch
    1777                      .dwattr $C$DW$203, DW_AT_low_pc(0x00)
    1778                      .dwattr $C$DW$203, DW_AT_name("_CTRL_setup")
    1779                      .dwattr $C$DW$203, DW_AT_TI_call
    1780 0000006f 7640!         LCR       #_CTRL_setup          ; [CPU_] |447| 
         00000070 0000 
    1781                      ; call occurs [#_CTRL_setup] ; [] |447| 
    1782 00000071 FE84          SUBB      SP,#4                 ; [CPU_U] 
    1783                      .dwcfi  cfa_offset, -14
    1784 00000072 C5BE          MOVL      XAR7,*--SP            ; [CPU_] 
    1785                      .dwcfi  cfa_offset, -12
    1786                      .dwcfi  restore_reg, 18
    1787 00000073 C4BE          MOVL      XAR6,*--SP            ; [CPU_] 
    1788                      .dwcfi  cfa_offset, -10
    1789                      .dwcfi  restore_reg, 16
    1790 00000074 83BE          MOVL      XAR5,*--SP            ; [CPU_] 
    1791                      .dwcfi  cfa_offset, -8
    1792                      .dwcfi  restore_reg, 14
    1793 00000075 8ABE          MOVL      XAR4,*--SP            ; [CPU_] 
    1794                      .dwcfi  cfa_offset, -6
    1795                      .dwcfi  restore_reg, 12
    1796 00000076 87BE          MOVL      XT,*--SP              ; [CPU_] 
    1797                      .dwcfi  cfa_offset, -4
    1798                      .dwcfi  restore_reg, 22
    1799                      .dwcfi  restore_reg, 21
    1800 00000077 0003          POP       AR1H:AR0H             ; [CPU_] 
    1801                      .dwcfi  cfa_offset, -2
    1802                      .dwcfi  restore_reg, 5
    1803                      .dwcfi  restore_reg, 7
    1804 00000078 7617          NASP      ; [CPU_] 
    1805              $C$DW$204       .dwtag  DW_TAG_TI_branch
    1806                      .dwattr $C$DW$204, DW_AT_low_pc(0x00)
    1807                      .dwattr $C$DW$204, DW_AT_TI_return
    1808 00000079 7602          IRET      ; [CPU_] 
    1809                      ; return occurs ; [] 
    1810                      .dwattr $C$DW$197, DW_AT_TI_end_file("C:/ti/motorware/motorware_1_01_00_16/sw/solutions/instaspin_foc
    1811                      .dwattr $C$DW$197, DW_AT_TI_end_line(0x1c3)
    1812                      .dwattr $C$DW$197, DW_AT_TI_end_column(0x01)
    1813                      .dwendentry
    1814                      .dwendtag $C$DW$197
    1815              
    1816 0000017e               .sect   ".text"
    1817                      .clink
    1818                      .global _acim_Dir_qFmtCalc
    1819              
    1820              $C$DW$205       .dwtag  DW_TAG_subprogram, DW_AT_name("acim_Dir_qFmtCalc")
    1821                      .dwattr $C$DW$205, DW_AT_low_pc(_acim_Dir_qFmtCalc)
    1822                      .dwattr $C$DW$205, DW_AT_high_pc(0x00)
    1823                      .dwattr $C$DW$205, DW_AT_TI_symbol_name("_acim_Dir_qFmtCalc")
    1824                      .dwattr $C$DW$205, DW_AT_external
    1825                      .dwattr $C$DW$205, DW_AT_TI_begin_file("C:/ti/motorware/motorware_1_01_00_16/sw/solutions/instaspin_f
    1826                      .dwattr $C$DW$205, DW_AT_TI_begin_line(0x22d)
    1827                      .dwattr $C$DW$205, DW_AT_TI_begin_column(0x06)
TMS320C2000 Assembler PC v6.4.11 Wed Nov 23 09:26:04 2016

Tools Copyright (c) 1996-2015 Texas Instruments Incorporated
C:\Users\bee25\AppData\Local\Temp\3596410                            PAGE   37

    1828                      .dwattr $C$DW$205, DW_AT_TI_max_frame_size(-4)
    1829                      .dwpsn  file "C:/ti/motorware/motorware_1_01_00_16/sw/solutions/instaspin_foc/src/proj_lab02b.c",line
    1830              
    1831                      .dwfde $C$DW$CIE, _acim_Dir_qFmtCalc
    1832              $C$DW$206       .dwtag  DW_TAG_formal_parameter, DW_AT_name("handle")
    1833                      .dwattr $C$DW$206, DW_AT_TI_symbol_name("_handle")
    1834                      .dwattr $C$DW$206, DW_AT_type(*$C$DW$T$200)
    1835                      .dwattr $C$DW$206, DW_AT_location[DW_OP_reg12]
    1836              
    1837              ;***************************************************************
    1838              ;* FNAME: _acim_Dir_qFmtCalc            FR SIZE:   2           *
    1839              ;*                                                             *
    1840              ;* FUNCTION ENVIRONMENT                                        *
    1841              ;*                                                             *
    1842              ;* FUNCTION PROPERTIES                                         *
    1843              ;*                            0 Parameter,  0 Auto,  2 SOE     *
    1844              ;***************************************************************
    1845              
    1846              _acim_Dir_qFmtCalc:
    1847              ;* AR1   assigned to _handle
    1848              $C$DW$207       .dwtag  DW_TAG_variable, DW_AT_name("handle")
    1849                      .dwattr $C$DW$207, DW_AT_TI_symbol_name("_handle")
    1850                      .dwattr $C$DW$207, DW_AT_type(*$C$DW$T$230)
    1851                      .dwattr $C$DW$207, DW_AT_location[DW_OP_reg6]
    1852                      .dwcfi  cfa_offset, -2
    1853                      .dwcfi  save_reg_to_mem, 26, 0
    1854 0000017e B2BD          MOVL      *SP++,XAR1            ; [CPU_] 
    1855                      .dwcfi  save_reg_to_mem, 7, 2
    1856                      .dwcfi  cfa_offset, -4
    1857 0000017f 8BA4          MOVL      XAR1,XAR4             ; [CPU_] |558| 
    1858                      .dwpsn  file "C:/ti/motorware/motorware_1_01_00_16/sw/solutions/instaspin_foc/src/proj_lab02b.c",line
    1859 00000180 D018          MOVB      XAR0,#24              ; [CPU_] |560| 
    1860 00000181 8A91          MOVL      XAR4,*+XAR1[AR0]      ; [CPU_] |560| 
    1861              $C$DW$208       .dwtag  DW_TAG_TI_branch
    1862                      .dwattr $C$DW$208, DW_AT_low_pc(0x00)
    1863                      .dwattr $C$DW$208, DW_AT_name("_EST_getState")
    1864                      .dwattr $C$DW$208, DW_AT_TI_call
    1865 00000182 7640!         LCR       #_EST_getState        ; [CPU_] |560| 
         00000183 0000 
    1866                      ; call occurs [#_EST_getState] ; [] |560| 
    1867 00000184 5205          CMPB      AL,#5                 ; [CPU_] |560| 
    1868 00000185 ED0D          BF        $C$L7,NEQ             ; [CPU_] |560| 
    1869                      ; branchcc occurs ; [] |560| 
    1870                      .dwpsn  file "C:/ti/motorware/motorware_1_01_00_16/sw/solutions/instaspin_foc/src/proj_lab02b.c",line
    1871 00000186 D018          MOVB      XAR0,#24              ; [CPU_] |564| 
    1872 00000187 28A9          MOV       AL,#13107             ; [CPU_] |564| 
         00000188 3333 
    1873 00000189 28A8          MOV       AH,#16179             ; [CPU_] |564| 
         0000018a 3F33 
    1874 0000018b 8A91          MOVL      XAR4,*+XAR1[AR0]      ; [CPU_] |564| 
    1875              $C$DW$209       .dwtag  DW_TAG_TI_branch
    1876                      .dwattr $C$DW$209, DW_AT_low_pc(0x00)
    1877                      .dwattr $C$DW$209, DW_AT_name("_EST_computeDirection_qFmt")
    1878                      .dwattr $C$DW$209, DW_AT_TI_call
    1879 0000018c 7640!         LCR       #_EST_computeDirection_qFmt ; [CPU_] |564| 
TMS320C2000 Assembler PC v6.4.11 Wed Nov 23 09:26:04 2016

Tools Copyright (c) 1996-2015 Texas Instruments Incorporated
C:\Users\bee25\AppData\Local\Temp\3596410                            PAGE   38

         0000018d 0000 
    1880                      ; call occurs [#_EST_computeDirection_qFmt] ; [] |564| 
    1881 0000018e D018          MOVB      XAR0,#24              ; [CPU_] |564| 
    1882 0000018f 8A91          MOVL      XAR4,*+XAR1[AR0]      ; [CPU_] |564| 
    1883              $C$DW$210       .dwtag  DW_TAG_TI_branch
    1884                      .dwattr $C$DW$210, DW_AT_low_pc(0x00)
    1885                      .dwattr $C$DW$210, DW_AT_name("_EST_setDir_qFmt")
    1886                      .dwattr $C$DW$210, DW_AT_TI_call
    1887 00000190 7640!         LCR       #_EST_setDir_qFmt     ; [CPU_] |564| 
         00000191 0000 
    1888                      ; call occurs [#_EST_setDir_qFmt] ; [] |564| 
    1889 00000192       $C$L7:    
    1890 00000192 8BBE          MOVL      XAR1,*--SP            ; [CPU_] 
    1891                      .dwcfi  cfa_offset, -2
    1892                      .dwcfi  restore_reg, 7
    1893              $C$DW$211       .dwtag  DW_TAG_TI_branch
    1894                      .dwattr $C$DW$211, DW_AT_low_pc(0x00)
    1895                      .dwattr $C$DW$211, DW_AT_TI_return
    1896 00000193 0006          LRETR     ; [CPU_] 
    1897                      ; return occurs ; [] 
    1898                      .dwattr $C$DW$205, DW_AT_TI_end_file("C:/ti/motorware/motorware_1_01_00_16/sw/solutions/instaspin_foc
    1899                      .dwattr $C$DW$205, DW_AT_TI_end_line(0x238)
    1900                      .dwattr $C$DW$205, DW_AT_TI_end_column(0x01)
    1901                      .dwendentry
    1902                      .dwendtag $C$DW$205
    1903              
    1904 00000194               .sect   ".text"
    1905                      .clink
    1906                      .global _main
    1907              
    1908              $C$DW$212       .dwtag  DW_TAG_subprogram, DW_AT_name("main")
    1909                      .dwattr $C$DW$212, DW_AT_low_pc(_main)
    1910                      .dwattr $C$DW$212, DW_AT_high_pc(0x00)
    1911                      .dwattr $C$DW$212, DW_AT_TI_symbol_name("_main")
    1912                      .dwattr $C$DW$212, DW_AT_external
    1913                      .dwattr $C$DW$212, DW_AT_TI_begin_file("C:/ti/motorware/motorware_1_01_00_16/sw/solutions/instaspin_f
    1914                      .dwattr $C$DW$212, DW_AT_TI_begin_line(0x80)
    1915                      .dwattr $C$DW$212, DW_AT_TI_begin_column(0x06)
    1916                      .dwattr $C$DW$212, DW_AT_TI_max_frame_size(-18)
    1917                      .dwpsn  file "C:/ti/motorware/motorware_1_01_00_16/sw/solutions/instaspin_foc/src/proj_lab02b.c",line
    1918              
    1919                      .dwfde $C$DW$CIE, _main
    1920              
    1921              ;***************************************************************
    1922              ;* FNAME: _main                         FR SIZE:  16           *
    1923              ;*                                                             *
    1924              ;* FUNCTION ENVIRONMENT                                        *
    1925              ;*                                                             *
    1926              ;* FUNCTION PROPERTIES                                         *
    1927              ;*                            2 Parameter,  8 Auto,  6 SOE     *
    1928              ;***************************************************************
    1929              
    1930              _main:
    1931              ;* AR5   assigned to $O$C13
    1932              ;* AR4   assigned to $O$C14
TMS320C2000 Assembler PC v6.4.11 Wed Nov 23 09:26:04 2016

Tools Copyright (c) 1996-2015 Texas Instruments Incorporated
C:\Users\bee25\AppData\Local\Temp\3596410                            PAGE   39

    1933              ;* AR5   assigned to $O$C15
    1934              ;* AR4   assigned to $O$C16
    1935              ;* AR6   assigned to $O$C17
    1936              ;* AR6   assigned to $O$C18
    1937              ;* AR3   assigned to $O$C19
    1938              ;* AR6   assigned to $O$C20
    1939              ;* XT    assigned to $O$C21
    1940              ;* AR5   assigned to $O$C22
    1941              ;* AR5   assigned to $O$C23
    1942              ;* AR2   assigned to $O$K63
    1943              ;* AR5   assigned to _obj
    1944              $C$DW$213       .dwtag  DW_TAG_variable, DW_AT_name("obj")
    1945                      .dwattr $C$DW$213, DW_AT_TI_symbol_name("_obj")
    1946                      .dwattr $C$DW$213, DW_AT_type(*$C$DW$T$251)
    1947                      .dwattr $C$DW$213, DW_AT_location[DW_OP_reg14]
    1948              ;* AR4   assigned to _obj
    1949              $C$DW$214       .dwtag  DW_TAG_variable, DW_AT_name("obj")
    1950                      .dwattr $C$DW$214, DW_AT_TI_symbol_name("_obj")
    1951                      .dwattr $C$DW$214, DW_AT_type(*$C$DW$T$251)
    1952                      .dwattr $C$DW$214, DW_AT_location[DW_OP_reg12]
    1953              ;* AH    assigned to _state
    1954              $C$DW$215       .dwtag  DW_TAG_variable, DW_AT_name("state")
    1955                      .dwattr $C$DW$215, DW_AT_TI_symbol_name("_state")
    1956                      .dwattr $C$DW$215, DW_AT_type(*$C$DW$T$70)
    1957                      .dwattr $C$DW$215, DW_AT_location[DW_OP_reg1]
    1958              ;* AR4   assigned to _obj
    1959              $C$DW$216       .dwtag  DW_TAG_variable, DW_AT_name("obj")
    1960                      .dwattr $C$DW$216, DW_AT_TI_symbol_name("_obj")
    1961                      .dwattr $C$DW$216, DW_AT_type(*$C$DW$T$251)
    1962                      .dwattr $C$DW$216, DW_AT_location[DW_OP_reg12]
    1963              ;* AR5   assigned to _handle
    1964              $C$DW$217       .dwtag  DW_TAG_variable, DW_AT_name("handle")
    1965                      .dwattr $C$DW$217, DW_AT_TI_symbol_name("_handle")
    1966                      .dwattr $C$DW$217, DW_AT_type(*$C$DW$T$253)
    1967                      .dwattr $C$DW$217, DW_AT_location[DW_OP_reg14]
    1968              ;* AR5   assigned to _obj
    1969              $C$DW$218       .dwtag  DW_TAG_variable, DW_AT_name("obj")
    1970                      .dwattr $C$DW$218, DW_AT_TI_symbol_name("_obj")
    1971                      .dwattr $C$DW$218, DW_AT_type(*$C$DW$T$251)
    1972                      .dwattr $C$DW$218, DW_AT_location[DW_OP_reg14]
    1973              ;* AR4   assigned to _obj
    1974              $C$DW$219       .dwtag  DW_TAG_variable, DW_AT_name("obj")
    1975                      .dwattr $C$DW$219, DW_AT_TI_symbol_name("_obj")
    1976                      .dwattr $C$DW$219, DW_AT_type(*$C$DW$T$251)
    1977                      .dwattr $C$DW$219, DW_AT_location[DW_OP_reg12]
    1978              ;* AL    assigned to _maxAccel_pu
    1979              $C$DW$220       .dwtag  DW_TAG_variable, DW_AT_name("maxAccel_pu")
    1980                      .dwattr $C$DW$220, DW_AT_TI_symbol_name("_maxAccel_pu")
    1981                      .dwattr $C$DW$220, DW_AT_type(*$C$DW$T$32)
    1982                      .dwattr $C$DW$220, DW_AT_location[DW_OP_reg0]
    1983              ;* AR6   assigned to _state
    1984              $C$DW$221       .dwtag  DW_TAG_variable, DW_AT_name("state")
    1985                      .dwattr $C$DW$221, DW_AT_TI_symbol_name("_state")
    1986                      .dwattr $C$DW$221, DW_AT_type(*$C$DW$T$70)
    1987                      .dwattr $C$DW$221, DW_AT_location[DW_OP_reg16]
TMS320C2000 Assembler PC v6.4.11 Wed Nov 23 09:26:04 2016

Tools Copyright (c) 1996-2015 Texas Instruments Incorporated
C:\Users\bee25\AppData\Local\Temp\3596410                            PAGE   40

    1988              ;* AR4   assigned to _obj
    1989              $C$DW$222       .dwtag  DW_TAG_variable, DW_AT_name("obj")
    1990                      .dwattr $C$DW$222, DW_AT_TI_symbol_name("_obj")
    1991                      .dwattr $C$DW$222, DW_AT_type(*$C$DW$T$251)
    1992                      .dwattr $C$DW$222, DW_AT_location[DW_OP_reg12]
    1993              ;* AL    assigned to _estState
    1994              $C$DW$223       .dwtag  DW_TAG_variable, DW_AT_name("estState")
    1995                      .dwattr $C$DW$223, DW_AT_TI_symbol_name("_estState")
    1996                      .dwattr $C$DW$223, DW_AT_type(*$C$DW$T$164)
    1997                      .dwattr $C$DW$223, DW_AT_location[DW_OP_reg0]
    1998              $C$DW$224       .dwtag  DW_TAG_variable, DW_AT_name("ctrlState")
    1999                      .dwattr $C$DW$224, DW_AT_TI_symbol_name("_ctrlState")
    2000                      .dwattr $C$DW$224, DW_AT_type(*$C$DW$T$40)
    2001                      .dwattr $C$DW$224, DW_AT_location[DW_OP_breg20 -7]
    2002              ;* AL    assigned to _flag_ctrlStateChanged
    2003              $C$DW$225       .dwtag  DW_TAG_variable, DW_AT_name("flag_ctrlStateChanged")
    2004                      .dwattr $C$DW$225, DW_AT_TI_symbol_name("_flag_ctrlStateChanged")
    2005                      .dwattr $C$DW$225, DW_AT_type(*$C$DW$T$70)
    2006                      .dwattr $C$DW$225, DW_AT_location[DW_OP_reg0]
    2007              ;* AR1   assigned to _obj
    2008              $C$DW$226       .dwtag  DW_TAG_variable, DW_AT_name("obj")
    2009                      .dwattr $C$DW$226, DW_AT_TI_symbol_name("_obj")
    2010                      .dwattr $C$DW$226, DW_AT_type(*$C$DW$T$229)
    2011                      .dwattr $C$DW$226, DW_AT_location[DW_OP_reg6]
    2012              ;* AR3   assigned to _cnt
    2013              $C$DW$227       .dwtag  DW_TAG_variable, DW_AT_name("cnt")
    2014                      .dwattr $C$DW$227, DW_AT_TI_symbol_name("_cnt")
    2015                      .dwattr $C$DW$227, DW_AT_type(*$C$DW$T$33)
    2016                      .dwattr $C$DW$227, DW_AT_location[DW_OP_reg10]
    2017              ;* PL    assigned to _cnt
    2018              $C$DW$228       .dwtag  DW_TAG_variable, DW_AT_name("cnt")
    2019                      .dwattr $C$DW$228, DW_AT_TI_symbol_name("_cnt")
    2020                      .dwattr $C$DW$228, DW_AT_type(*$C$DW$T$33)
    2021                      .dwattr $C$DW$228, DW_AT_location[DW_OP_reg2]
    2022              ;* AL    assigned to _bias
    2023              $C$DW$229       .dwtag  DW_TAG_variable, DW_AT_name("bias")
    2024                      .dwattr $C$DW$229, DW_AT_TI_symbol_name("_bias")
    2025                      .dwattr $C$DW$229, DW_AT_type(*$C$DW$T$32)
    2026                      .dwattr $C$DW$229, DW_AT_location[DW_OP_reg0]
    2027              ;* AL    assigned to _bias
    2028              $C$DW$230       .dwtag  DW_TAG_variable, DW_AT_name("bias")
    2029                      .dwattr $C$DW$230, DW_AT_TI_symbol_name("_bias")
    2030                      .dwattr $C$DW$230, DW_AT_type(*$C$DW$T$32)
    2031                      .dwattr $C$DW$230, DW_AT_location[DW_OP_reg0]
    2032              ;* AR1   assigned to $O$K33
    2033              ;* AR3   assigned to $O$K33
    2034              ;* AR5   assigned to $O$K33
    2035              ;* AR3   assigned to $O$K33
    2036              ;* AR1   assigned to $O$K33
    2037              ;* AR4   assigned to $O$v1
    2038              ;* AR4   assigned to $O$v1
    2039              ;* AR4   assigned to $O$v1
    2040              ;* AR1   assigned to $O$v1
    2041              ;* AR4   assigned to $O$v2
    2042              ;* AR4   assigned to $O$v2
TMS320C2000 Assembler PC v6.4.11 Wed Nov 23 09:26:04 2016

Tools Copyright (c) 1996-2015 Texas Instruments Incorporated
C:\Users\bee25\AppData\Local\Temp\3596410                            PAGE   41

    2043              ;* AR4   assigned to $O$v2
    2044              ;* AR4   assigned to $O$v2
    2045              $C$DW$231       .dwtag  DW_TAG_variable, DW_AT_name("version")
    2046                      .dwattr $C$DW$231, DW_AT_TI_symbol_name("_version")
    2047                      .dwattr $C$DW$231, DW_AT_type(*$C$DW$T$38)
    2048                      .dwattr $C$DW$231, DW_AT_location[DW_OP_breg20 -6]
    2049                      .dwcfi  cfa_offset, -2
    2050                      .dwcfi  save_reg_to_mem, 26, 0
    2051 00000194 B2BD          MOVL      *SP++,XAR1            ; [CPU_] 
    2052                      .dwcfi  save_reg_to_mem, 7, 2
    2053                      .dwcfi  cfa_offset, -4
    2054 00000195 AABD          MOVL      *SP++,XAR2            ; [CPU_] 
    2055                      .dwcfi  save_reg_to_mem, 9, 4
    2056                      .dwcfi  cfa_offset, -6
    2057 00000196 A2BD          MOVL      *SP++,XAR3            ; [CPU_] 
    2058                      .dwcfi  save_reg_to_mem, 11, 6
    2059                      .dwcfi  cfa_offset, -8
    2060 00000197 FE0A          ADDB      SP,#10                ; [CPU_U] 
    2061                      .dwcfi  cfa_offset, -18
    2062                      .dwpsn  file "C:/ti/motorware/motorware_1_01_00_16/sw/solutions/instaspin_foc/src/proj_lab02b.c",line
    2063 00000198 8F00!         MOVL      XAR4,#_RamfuncsRunStart ; [CPU_U] |142| 
         00000199 0000 
    2064 0000019a 8F40!         MOVL      XAR5,#_RamfuncsLoadEnd ; [CPU_U] |142| 
         0000019b 0000 
    2065 0000019c A842          MOVL      *-SP[2],XAR4          ; [CPU_] |142| 
    2066 0000019d 8F00!         MOVL      XAR4,#_RamfuncsLoadStart ; [CPU_U] |142| 
         0000019e 0000 
    2067              $C$DW$232       .dwtag  DW_TAG_TI_branch
    2068                      .dwattr $C$DW$232, DW_AT_low_pc(0x00)
    2069                      .dwattr $C$DW$232, DW_AT_name("_memCopy")
    2070                      .dwattr $C$DW$232, DW_AT_TI_call
    2071 0000019f 7640!         LCR       #_memCopy             ; [CPU_] |142| 
         000001a0 0000 
    2072                      ; call occurs [#_memCopy] ; [] |142| 
    2073 000001a1 761F!         MOVW      DP,#_econst_start     ; [CPU_U] 
         000001a2 0000 
    2074                      .dwpsn  file "C:/ti/motorware/motorware_1_01_00_16/sw/solutions/instaspin_foc/src/proj_lab02b.c",line
    2075 000001a3 8A00!         MOVL      XAR4,@_econst_start   ; [CPU_] |146| 
    2076 000001a4 761F!         MOVW      DP,#_econst_end       ; [CPU_U] 
         000001a5 0000 
    2077 000001a6 0EC4          MOVU      ACC,*+XAR4[0]         ; [CPU_] |146| 
    2078 000001a7 8A00!         MOVL      XAR4,@_econst_end     ; [CPU_] |146| 
    2079 000001a8 88C4          MOVZ      AR6,*+XAR4[0]         ; [CPU_] |146| 
    2080 000001a9 0FA6          CMPL      ACC,XAR6              ; [CPU_] |146| 
    2081 000001aa EC0A          BF        $C$L8,EQ              ; [CPU_] |146| 
    2082                      ; branchcc occurs ; [] |146| 
    2083                      .dwpsn  file "C:/ti/motorware/motorware_1_01_00_16/sw/solutions/instaspin_foc/src/proj_lab02b.c",line
    2084 000001ab 8F00!         MOVL      XAR4,#_econst_ram_load ; [CPU_U] |148| 
         000001ac 0000 
    2085 000001ad 8F40!         MOVL      XAR5,#_econst_end     ; [CPU_U] |148| 
         000001ae 0000 
    2086 000001af A842          MOVL      *-SP[2],XAR4          ; [CPU_] |148| 
    2087 000001b0 8F00!         MOVL      XAR4,#_econst_start   ; [CPU_U] |148| 
         000001b1 0000 
    2088              $C$DW$233       .dwtag  DW_TAG_TI_branch
TMS320C2000 Assembler PC v6.4.11 Wed Nov 23 09:26:04 2016

Tools Copyright (c) 1996-2015 Texas Instruments Incorporated
C:\Users\bee25\AppData\Local\Temp\3596410                            PAGE   42

    2089                      .dwattr $C$DW$233, DW_AT_low_pc(0x00)
    2090                      .dwattr $C$DW$233, DW_AT_name("_memCopy")
    2091                      .dwattr $C$DW$233, DW_AT_TI_call
    2092 000001b2 7640!         LCR       #_memCopy             ; [CPU_] |148| 
         000001b3 0000 
    2093                      ; call occurs [#_memCopy] ; [] |148| 
    2094 000001b4       $C$L8:    
    2095 000001b4 761F!         MOVW      DP,#_switch_start     ; [CPU_U] 
         000001b5 0000 
    2096                      .dwpsn  file "C:/ti/motorware/motorware_1_01_00_16/sw/solutions/instaspin_foc/src/proj_lab02b.c",line
    2097 000001b6 8A00!         MOVL      XAR4,@_switch_start   ; [CPU_] |152| 
    2098 000001b7 761F!         MOVW      DP,#_switch_end       ; [CPU_U] 
         000001b8 0000 
    2099 000001b9 0EC4          MOVU      ACC,*+XAR4[0]         ; [CPU_] |152| 
    2100 000001ba 8A00!         MOVL      XAR4,@_switch_end     ; [CPU_] |152| 
    2101 000001bb 88C4          MOVZ      AR6,*+XAR4[0]         ; [CPU_] |152| 
    2102 000001bc 0FA6          CMPL      ACC,XAR6              ; [CPU_] |152| 
    2103 000001bd EC0A          BF        $C$L9,EQ              ; [CPU_] |152| 
    2104                      ; branchcc occurs ; [] |152| 
    2105                      .dwpsn  file "C:/ti/motorware/motorware_1_01_00_16/sw/solutions/instaspin_foc/src/proj_lab02b.c",line
    2106 000001be 8F00!         MOVL      XAR4,#_switch_ram_load ; [CPU_U] |154| 
         000001bf 0000 
    2107 000001c0 8F40!         MOVL      XAR5,#_switch_end     ; [CPU_U] |154| 
         000001c1 0000 
    2108 000001c2 A842          MOVL      *-SP[2],XAR4          ; [CPU_] |154| 
    2109 000001c3 8F00!         MOVL      XAR4,#_switch_start   ; [CPU_U] |154| 
         000001c4 0000 
    2110              $C$DW$234       .dwtag  DW_TAG_TI_branch
    2111                      .dwattr $C$DW$234, DW_AT_low_pc(0x00)
    2112                      .dwattr $C$DW$234, DW_AT_name("_memCopy")
    2113                      .dwattr $C$DW$234, DW_AT_TI_call
    2114 000001c5 7640!         LCR       #_memCopy             ; [CPU_] |154| 
         000001c6 0000 
    2115                      ; call occurs [#_memCopy] ; [] |154| 
    2116 000001c7       $C$L9:    
    2117                      .dwpsn  file "C:/ti/motorware/motorware_1_01_00_16/sw/solutions/instaspin_foc/src/proj_lab02b.c",line
    2118 000001c7 8F00!         MOVL      XAR4,#_hal            ; [CPU_U] |161| 
         000001c8 0000 
    2119 000001c9 02C6          MOVB      ACC,#198              ; [CPU_] |161| 
    2120              $C$DW$235       .dwtag  DW_TAG_TI_branch
    2121                      .dwattr $C$DW$235, DW_AT_low_pc(0x00)
    2122                      .dwattr $C$DW$235, DW_AT_name("_HAL_init")
    2123                      .dwattr $C$DW$235, DW_AT_TI_call
    2124 000001ca 7640!         LCR       #_HAL_init            ; [CPU_] |161| 
         000001cb 0000 
    2125                      ; call occurs [#_HAL_init] ; [] |161| 
    2126                      .dwpsn  file "C:/ti/motorware/motorware_1_01_00_16/sw/solutions/instaspin_foc/src/proj_lab02b.c",line
    2127 000001cc 8D40-         MOVL      XAR1,#_gUserParams    ; [CPU_U] |165| 
         000001cd 0040 
    2128 000001ce 761F-         MOVW      DP,#_halHandle        ; [CPU_U] 
         000001cf 0000 
    2129 000001d0 B24A          MOVL      *-SP[10],XAR1         ; [CPU_] |165| 
    2130                      .dwpsn  file "C:/ti/motorware/motorware_1_01_00_16/sw/solutions/instaspin_foc/src/proj_lab02b.c",line
    2131 000001d1 A800-         MOVL      @_halHandle,XAR4      ; [CPU_] |161| 
    2132                      .dwpsn  file "C:/ti/motorware/motorware_1_01_00_16/sw/solutions/instaspin_foc/src/proj_lab02b.c",line
TMS320C2000 Assembler PC v6.4.11 Wed Nov 23 09:26:04 2016

Tools Copyright (c) 1996-2015 Texas Instruments Incorporated
C:\Users\bee25\AppData\Local\Temp\3596410                            PAGE   43

    2133 000001d2 8AA1          MOVL      XAR4,XAR1             ; [CPU_] |165| 
    2134              $C$DW$236       .dwtag  DW_TAG_TI_branch
    2135                      .dwattr $C$DW$236, DW_AT_low_pc(0x00)
    2136                      .dwattr $C$DW$236, DW_AT_name("_USER_checkForErrors")
    2137                      .dwattr $C$DW$236, DW_AT_TI_call
    2138 000001d3 7640!         LCR       #_USER_checkForErrors ; [CPU_] |165| 
         000001d4 0000 
    2139                      ; call occurs [#_USER_checkForErrors] ; [] |165| 
    2140                      .dwpsn  file "C:/ti/motorware/motorware_1_01_00_16/sw/solutions/instaspin_foc/src/proj_lab02b.c",line
    2141 000001d5 8AA1          MOVL      XAR4,XAR1             ; [CPU_] |169| 
    2142              $C$DW$237       .dwtag  DW_TAG_TI_branch
    2143                      .dwattr $C$DW$237, DW_AT_low_pc(0x00)
    2144                      .dwattr $C$DW$237, DW_AT_name("_USER_getErrorCode")
    2145                      .dwattr $C$DW$237, DW_AT_TI_call
    2146 000001d6 7640!         LCR       #_USER_getErrorCode   ; [CPU_] |169| 
         000001d7 0000 
    2147                      ; call occurs [#_USER_getErrorCode] ; [] |169| 
    2148 000001d8 8D40-         MOVL      XAR1,#_gMotorVars     ; [CPU_U] |169| 
         000001d9 0040 
    2149 000001da D00D          MOVB      XAR0,#13              ; [CPU_] |169| 
    2150 000001db 9691          MOV       *+XAR1[AR0],AL        ; [CPU_] |169| 
    2151                      .dwpsn  file "C:/ti/motorware/motorware_1_01_00_16/sw/solutions/instaspin_foc/src/proj_lab02b.c",line
    2152 000001dc D00D          MOVB      XAR0,#13              ; [CPU_] |173| 
    2153 000001dd 9291          MOV       AL,*+XAR1[AR0]        ; [CPU_] |173| 
    2154 000001de 56C0          BF        $C$L30,NEQ            ; [CPU_] |173| 
         000001df 0213 
    2155                      ; branchcc occurs ; [] |173| 
    2156 000001e0 864A          MOVL      XAR2,*-SP[10]         ; [CPU_] 
    2157                      .dwpsn  file "C:/ti/motorware/motorware_1_01_00_16/sw/solutions/instaspin_foc/src/proj_lab02b.c",line
    2158 000001e1 8AA2          MOVL      XAR4,XAR2             ; [CPU_] |183| 
    2159              $C$DW$238       .dwtag  DW_TAG_TI_branch
    2160                      .dwattr $C$DW$238, DW_AT_low_pc(0x00)
    2161                      .dwattr $C$DW$238, DW_AT_name("_USER_setParams")
    2162                      .dwattr $C$DW$238, DW_AT_TI_call
    2163 000001e2 7640!         LCR       #_USER_setParams      ; [CPU_] |183| 
         000001e3 0000 
    2164                      ; call occurs [#_USER_setParams] ; [] |183| 
    2165 000001e4 761F-         MOVW      DP,#_halHandle        ; [CPU_U] 
         000001e5 0000 
    2166                      .dwpsn  file "C:/ti/motorware/motorware_1_01_00_16/sw/solutions/instaspin_foc/src/proj_lab02b.c",line
    2167 000001e6 8A00-         MOVL      XAR4,@_halHandle      ; [CPU_] |187| 
    2168 000001e7 83A2          MOVL      XAR5,XAR2             ; [CPU_] |187| 
    2169              $C$DW$239       .dwtag  DW_TAG_TI_branch
    2170                      .dwattr $C$DW$239, DW_AT_low_pc(0x00)
    2171                      .dwattr $C$DW$239, DW_AT_name("_HAL_setParams")
    2172                      .dwattr $C$DW$239, DW_AT_TI_call
    2173 000001e8 7640!         LCR       #_HAL_setParams       ; [CPU_] |187| 
         000001e9 0000 
    2174                      ; call occurs [#_HAL_setParams] ; [] |187| 
    2175                      .dwpsn  file "C:/ti/motorware/motorware_1_01_00_16/sw/solutions/instaspin_foc/src/proj_lab02b.c",line
    2176 000001ea D500          MOVB      XAR5,#0               ; [CPU_] |195| 
    2177 000001eb 7680          MOVL      XAR6,#264             ; [CPU_U] |195| 
         000001ec 0108 
    2178 000001ed 8F00-         MOVL      XAR4,#_ctrl           ; [CPU_U] |195| 
         000001ee 0100 
TMS320C2000 Assembler PC v6.4.11 Wed Nov 23 09:26:04 2016

Tools Copyright (c) 1996-2015 Texas Instruments Incorporated
C:\Users\bee25\AppData\Local\Temp\3596410                            PAGE   44

    2179 000001ef 06A6          MOVL      ACC,XAR6              ; [CPU_] |195| 
    2180              $C$DW$240       .dwtag  DW_TAG_TI_branch
    2181                      .dwattr $C$DW$240, DW_AT_low_pc(0x00)
    2182                      .dwattr $C$DW$240, DW_AT_name("_CTRL_initCtrl")
    2183                      .dwattr $C$DW$240, DW_AT_TI_call
    2184 000001f0 7640!         LCR       #_CTRL_initCtrl       ; [CPU_] |195| 
         000001f1 0000 
    2185                      ; call occurs [#_CTRL_initCtrl] ; [] |195| 
    2186                      .dwpsn  file "C:/ti/motorware/motorware_1_01_00_16/sw/solutions/instaspin_foc/src/proj_lab02b.c",line
    2187 000001f2 5DAD          MOVZ      AR5,SP                ; [CPU_] |203| 
    2188 000001f3 761F-         MOVW      DP,#_ctrlHandle       ; [CPU_U] 
         000001f4 0000 
    2189                      .dwpsn  file "C:/ti/motorware/motorware_1_01_00_16/sw/solutions/instaspin_foc/src/proj_lab02b.c",line
    2190 000001f5 A806-         MOVL      @_ctrlHandle,XAR4     ; [CPU_] |195| 
    2191                      .dwpsn  file "C:/ti/motorware/motorware_1_01_00_16/sw/solutions/instaspin_foc/src/proj_lab02b.c",line
    2192 000001f6 DD86          SUBB      XAR5,#6               ; [CPU_U] |203| 
    2193 000001f7 5DA5          MOVZ      AR5,AR5               ; [CPU_] |203| 
    2194              $C$DW$241       .dwtag  DW_TAG_TI_branch
    2195                      .dwattr $C$DW$241, DW_AT_low_pc(0x00)
    2196                      .dwattr $C$DW$241, DW_AT_name("_CTRL_getVersion")
    2197                      .dwattr $C$DW$241, DW_AT_TI_call
    2198 000001f8 7640!         LCR       #_CTRL_getVersion     ; [CPU_] |203| 
         000001f9 0000 
    2199                      ; call occurs [#_CTRL_getVersion] ; [] |203| 
    2200                      .dwpsn  file "C:/ti/motorware/motorware_1_01_00_16/sw/solutions/instaspin_foc/src/proj_lab02b.c",line
    2201 000001fa 5CAD          MOVZ      AR4,SP                ; [CPU_] |205| 
    2202 000001fb DC86          SUBB      XAR4,#6               ; [CPU_U] |205| 
    2203 000001fc 80A4          MOVZ      AR7,AR4               ; [CPU_] |205| 
    2204 000001fd D90E          ADDB      XAR1,#14              ; [CPU_] |205| 
    2205 000001fe 761F-         MOVW      DP,#_ctrlHandle       ; [CPU_U] 
         000001ff 0000 
    2206                      .dwpsn  file "C:/ti/motorware/motorware_1_01_00_16/sw/solutions/instaspin_foc/src/proj_lab02b.c",line
    2207 00000200 83A2          MOVL      XAR5,XAR2             ; [CPU_] |210| 
    2208                      .dwpsn  file "C:/ti/motorware/motorware_1_01_00_16/sw/solutions/instaspin_foc/src/proj_lab02b.c",line
    2209 00000201 F603          RPT       #3
    2210 00000202 2481  ||     PREAD     *XAR1++,*XAR7         ; [CPU_] |205| 
    2211                      .dwpsn  file "C:/ti/motorware/motorware_1_01_00_16/sw/solutions/instaspin_foc/src/proj_lab02b.c",line
    2212 00000203 8A06-         MOVL      XAR4,@_ctrlHandle     ; [CPU_] |210| 
    2213              $C$DW$242       .dwtag  DW_TAG_TI_branch
    2214                      .dwattr $C$DW$242, DW_AT_low_pc(0x00)
    2215                      .dwattr $C$DW$242, DW_AT_name("_CTRL_setParams")
    2216                      .dwattr $C$DW$242, DW_AT_TI_call
    2217 00000204 7640!         LCR       #_CTRL_setParams      ; [CPU_] |210| 
         00000205 0000 
    2218                      ; call occurs [#_CTRL_setParams] ; [] |210| 
    2219 00000206 761F-         MOVW      DP,#_halHandle        ; [CPU_U] 
         00000207 0000 
    2220                      .dwpsn  file "C:/ti/motorware/motorware_1_01_00_16/sw/solutions/instaspin_foc/src/proj_lab02b.c",line
    2221 00000208 8A00-         MOVL      XAR4,@_halHandle      ; [CPU_] |214| 
    2222              $C$DW$243       .dwtag  DW_TAG_TI_branch
    2223                      .dwattr $C$DW$243, DW_AT_low_pc(0x00)
    2224                      .dwattr $C$DW$243, DW_AT_name("_HAL_setupFaults")
    2225                      .dwattr $C$DW$243, DW_AT_TI_call
    2226 00000209 7640!         LCR       #_HAL_setupFaults     ; [CPU_] |214| 
         0000020a 0000 
TMS320C2000 Assembler PC v6.4.11 Wed Nov 23 09:26:04 2016

Tools Copyright (c) 1996-2015 Texas Instruments Incorporated
C:\Users\bee25\AppData\Local\Temp\3596410                            PAGE   45

    2227                      ; call occurs [#_HAL_setupFaults] ; [] |214| 
    2228 0000020b 761F-         MOVW      DP,#_halHandle        ; [CPU_U] 
         0000020c 0000 
    2229                      .dwpsn  file "C:/ti/motorware/motorware_1_01_00_16/sw/solutions/instaspin_foc/src/proj_lab02b.c",line
    2230 0000020d 8A00-         MOVL      XAR4,@_halHandle      ; [CPU_] |218| 
    2231 0000020e 7622   EALLOW
    2232                      .dwpsn  file "C:/ti/motorware/motorware_1_01_00_16/sw/modules/hal/boards/boostxldrv8301_revB/f28x/f28
    2233 0000020f D078          MOVB      XAR0,#120             ; [CPU_] |492| 
    2234 00000210 02F0          MOVB      ACC,#240              ; [CPU_] |492| 
    2235 00000211 0794          ADDL      ACC,*+XAR4[AR0]       ; [CPU_] |492| 
    2236 00000212 83A9          MOVL      XAR5,ACC              ; [CPU_] |492| 
    2237 00000213 7680+         MOVL      XAR6,#_mainISR        ; [CPU_U] |492| 
         00000214 0000 
    2238 00000215 C2C5          MOVL      *+XAR5[0],XAR6        ; [CPU_] |492| 
    2239 00000216 761A   EDIS
    2240 00000217 FF69          SPM       #0                    ; [CPU_] 
    2241                      .dwpsn  file "C:/ti/motorware/motorware_1_01_00_16/sw/solutions/instaspin_foc/src/proj_lab02b.c",line
    2242              $C$DW$244       .dwtag  DW_TAG_TI_branch
    2243                      .dwattr $C$DW$244, DW_AT_low_pc(0x00)
    2244                      .dwattr $C$DW$244, DW_AT_name("_HAL_enableAdcInts")
    2245                      .dwattr $C$DW$244, DW_AT_TI_call
    2246 00000218 7640!         LCR       #_HAL_enableAdcInts   ; [CPU_] |222| 
         00000219 0000 
    2247                      ; call occurs [#_HAL_enableAdcInts] ; [] |222| 
    2248 0000021a 761F-         MOVW      DP,#_halHandle        ; [CPU_U] 
         0000021b 0000 
    2249                      .dwpsn  file "C:/ti/motorware/motorware_1_01_00_16/sw/solutions/instaspin_foc/src/proj_lab02b.c",line
    2250 0000021c 8A00-         MOVL      XAR4,@_halHandle      ; [CPU_] |226| 
    2251              $C$DW$245       .dwtag  DW_TAG_TI_branch
    2252                      .dwattr $C$DW$245, DW_AT_low_pc(0x00)
    2253                      .dwattr $C$DW$245, DW_AT_name("_HAL_enableGlobalInts")
    2254                      .dwattr $C$DW$245, DW_AT_TI_call
    2255 0000021d 7640!         LCR       #_HAL_enableGlobalInts ; [CPU_] |226| 
         0000021e 0000 
    2256                      ; call occurs [#_HAL_enableGlobalInts] ; [] |226| 
    2257 0000021f 761F-         MOVW      DP,#_halHandle        ; [CPU_U] 
         00000220 0000 
    2258                      .dwpsn  file "C:/ti/motorware/motorware_1_01_00_16/sw/solutions/instaspin_foc/src/proj_lab02b.c",line
    2259 00000221 8A00-         MOVL      XAR4,@_halHandle      ; [CPU_] |230| 
    2260              $C$DW$246       .dwtag  DW_TAG_TI_branch
    2261                      .dwattr $C$DW$246, DW_AT_low_pc(0x00)
    2262                      .dwattr $C$DW$246, DW_AT_name("_HAL_enableDebugInt")
    2263                      .dwattr $C$DW$246, DW_AT_TI_call
    2264 00000222 7640!         LCR       #_HAL_enableDebugInt  ; [CPU_] |230| 
         00000223 0000 
    2265                      ; call occurs [#_HAL_enableDebugInt] ; [] |230| 
    2266 00000224 761F-         MOVW      DP,#_halHandle        ; [CPU_U] 
         00000225 0000 
    2267                      .dwpsn  file "C:/ti/motorware/motorware_1_01_00_16/sw/solutions/instaspin_foc/src/proj_lab02b.c",line
    2268 00000226 8A00-         MOVL      XAR4,@_halHandle      ; [CPU_] |234| 
    2269                      .dwpsn  file "C:/ti/motorware/motorware_1_01_00_16/sw/modules/hal/boards/boostxldrv8301_revB/f28x/f28
    2270 00000227 83A4          MOVL      XAR5,XAR4             ; [CPU_] |255| 
    2271 00000228 DD7E          ADDB      XAR5,#126             ; [CPU_] |255| 
    2272 00000229 7622   EALLOW
    2273                      .dwpsn  file "C:/ti/motorware/motorware_1_01_00_16/sw/drivers/pwm/src/32b/f28x/f2802x/pwm.h",line 156
TMS320C2000 Assembler PC v6.4.11 Wed Nov 23 09:26:04 2016

Tools Copyright (c) 1996-2015 Texas Instruments Incorporated
C:\Users\bee25\AppData\Local\Temp\3596410                            PAGE   46

    2274 0000022a D07C          MOVB      XAR0,#124             ; [CPU_] |1567| 
    2275 0000022b 0218          MOVB      ACC,#24               ; [CPU_] |1567| 
    2276 0000022c 0794          ADDL      ACC,*+XAR4[AR0]       ; [CPU_] |1567| 
    2277 0000022d 1EA6          MOVL      XAR6,ACC              ; [CPU_] |1567| 
    2278 0000022e 1AC6          OR        *+XAR6[0],#0x0004     ; [CPU_] |1567| 
         0000022f 0004 
    2279 00000230 761A   EDIS
    2280 00000231 7622   EALLOW
    2281 00000232 0218          MOVB      ACC,#24               ; [CPU_] |1567| 
    2282 00000233 07C5          ADDL      ACC,*+XAR5[0]         ; [CPU_] |1567| 
    2283 00000234 1EA6          MOVL      XAR6,ACC              ; [CPU_] |1567| 
    2284 00000235 1AC6          OR        *+XAR6[0],#0x0004     ; [CPU_] |1567| 
         00000236 0004 
    2285 00000237 761A   EDIS
    2286 00000238 7622   EALLOW
    2287 00000239 0218          MOVB      ACC,#24               ; [CPU_] |1567| 
    2288 0000023a 07D5          ADDL      ACC,*+XAR5[2]         ; [CPU_] |1567| 
    2289 0000023b 83A9          MOVL      XAR5,ACC              ; [CPU_] |1567| 
    2290 0000023c 1AC5          OR        *+XAR5[0],#0x0004     ; [CPU_] |1567| 
         0000023d 0004 
    2291 0000023e 761A   EDIS
    2292 0000023f FF69          SPM       #0                    ; [CPU_] 
    2293                      .dwpsn  file "C:/ti/motorware/motorware_1_01_00_16/sw/solutions/instaspin_foc/src/proj_lab02b.c",line
    2294              $C$DW$247       .dwtag  DW_TAG_TI_branch
    2295                      .dwattr $C$DW$247, DW_AT_low_pc(0x00)
    2296                      .dwattr $C$DW$247, DW_AT_name("_HAL_enableDrv")
    2297                      .dwattr $C$DW$247, DW_AT_TI_call
    2298 00000240 7640!         LCR       #_HAL_enableDrv       ; [CPU_] |239| 
         00000241 0000 
    2299                      ; call occurs [#_HAL_enableDrv] ; [] |239| 
    2300                      .dwpsn  file "C:/ti/motorware/motorware_1_01_00_16/sw/solutions/instaspin_foc/src/proj_lab02b.c",line
    2301 00000242 8D80-         MOVL      XAR2,#_gDrvSpi8301Vars ; [CPU_U] |241| 
         00000243 0020 
    2302 00000244 761F-         MOVW      DP,#_halHandle        ; [CPU_U] 
         00000245 0000 
    2303 00000246 83A2          MOVL      XAR5,XAR2             ; [CPU_] |241| 
    2304 00000247 8A00-         MOVL      XAR4,@_halHandle      ; [CPU_] |241| 
    2305              $C$DW$248       .dwtag  DW_TAG_TI_branch
    2306                      .dwattr $C$DW$248, DW_AT_low_pc(0x00)
    2307                      .dwattr $C$DW$248, DW_AT_name("_HAL_setupDrvSpi")
    2308                      .dwattr $C$DW$248, DW_AT_TI_call
    2309 00000248 7640!         LCR       #_HAL_setupDrvSpi     ; [CPU_] |241| 
         00000249 0000 
    2310                      ; call occurs [#_HAL_setupDrvSpi] ; [] |241| 
    2311 0000024a 761F-         MOVW      DP,#_ctrlHandle       ; [CPU_U] 
         0000024b 0000 
    2312                      .dwpsn  file "C:/ti/motorware/motorware_1_01_00_16/sw/solutions/instaspin_foc/src/proj_lab02b.c",line
    2313 0000024c 8B06-         MOVL      XAR1,@_ctrlHandle     ; [CPU_] |253| 
    2314                      .dwpsn  file "C:/ti/motorware/motorware_1_01_00_16/sw/modules/ctrl/src/32b/ctrl.h",line 1246,column 3
    2315 0000024d D0F1          MOVB      XAR0,#241             ; [CPU_] |1246| 
    2316 0000024e 56BF          MOVB      *+XAR1[AR0],#1,UNC    ; [CPU_] |1246| 
         0000024f 0191 
    2317 00000250       $C$L10:    
    2318 00000250 761F-         MOVW      DP,#_gMotorVars       ; [CPU_U] 
         00000251 0001 
TMS320C2000 Assembler PC v6.4.11 Wed Nov 23 09:26:04 2016

Tools Copyright (c) 1996-2015 Texas Instruments Incorporated
C:\Users\bee25\AppData\Local\Temp\3596410                            PAGE   47

    2319                      .dwpsn  file "C:/ti/motorware/motorware_1_01_00_16/sw/solutions/instaspin_foc/src/proj_lab02b.c",line
    2320 00000252 9200-         MOV       AL,@_gMotorVars       ; [CPU_] |259| 
    2321 00000253 ECFD          BF        $C$L10,EQ             ; [CPU_] |259| 
    2322                      ; branchcc occurs ; [] |259| 
    2323                      .dwpsn  file "C:/ti/motorware/motorware_1_01_00_16/sw/solutions/instaspin_foc/src/proj_lab02b.c",line
    2324 00000254 FFEF          B         $C$L29,UNC            ; [CPU_] |262| 
         00000255 0170 
    2325                      ; branch occurs ; [] |262| 
    2326 00000256       $C$L11:    
    2327 00000256 761F-         MOVW      DP,#_gCounter_updateGlobals ; [CPU_U] 
         00000257 0000 
    2328                      .dwpsn  file "C:/ti/motorware/motorware_1_01_00_16/sw/solutions/instaspin_foc/src/proj_lab02b.c",line
    2329 00000258 0A01-         INC       @_gCounter_updateGlobals ; [CPU_] |267| 
    2330                      .dwpsn  file "C:/ti/motorware/motorware_1_01_00_16/sw/modules/ctrl/src/32b/ctrl.h",line 1060,column 3
    2331 00000259 92E1          MOV       AL,*+XAR1[4]          ; [CPU_] |1060| 
    2332 0000025a 56C1          BF        $C$L22,EQ             ; [CPU_] |1060| 
         0000025b 00DA 
    2333                      ; branchcc occurs ; [] |1060| 
    2334                      .dwpsn  file "C:/ti/motorware/motorware_1_01_00_16/sw/solutions/instaspin_foc/src/proj_lab02b.c",line
    2335 0000025c 8AA1          MOVL      XAR4,XAR1             ; [CPU_] |284| 
    2336              $C$DW$249       .dwtag  DW_TAG_TI_branch
    2337                      .dwattr $C$DW$249, DW_AT_low_pc(0x00)
    2338                      .dwattr $C$DW$249, DW_AT_name("_CTRL_updateState")
    2339                      .dwattr $C$DW$249, DW_AT_TI_call
    2340 0000025d 7640!         LCR       #_CTRL_updateState    ; [CPU_] |284| 
         0000025e 0000 
    2341                      ; call occurs [#_CTRL_updateState] ; [] |284| 
    2342 0000025f 761F-         MOVW      DP,#_ctrlHandle       ; [CPU_U] 
         00000260 0000 
    2343                      .dwpsn  file "C:/ti/motorware/motorware_1_01_00_16/sw/solutions/instaspin_foc/src/proj_lab02b.c",line
    2344 00000261 8A06-         MOVL      XAR4,@_ctrlHandle     ; [CPU_] |287| 
    2345 00000262 93CB          MOV       AH,*+XAR3[1]          ; [CPU_] |287| 
    2346                      .dwpsn  file "C:/ti/motorware/motorware_1_01_00_16/sw/modules/ctrl/src/32b/ctrl.h",line 1218,column 3
    2347 00000263 D0F0          MOVB      XAR0,#240             ; [CPU_] |1218| 
    2348                      .dwpsn  file "C:/ti/motorware/motorware_1_01_00_16/sw/solutions/instaspin_foc/src/proj_lab02b.c",line
    2349 00000264 5200          CMPB      AL,#0                 ; [CPU_] |289| 
    2350                      .dwpsn  file "C:/ti/motorware/motorware_1_01_00_16/sw/modules/ctrl/src/32b/ctrl.h",line 1218,column 3
    2351 00000265 9794          MOV       *+XAR4[AR0],AH        ; [CPU_] |1218| 
    2352                      .dwpsn  file "C:/ti/motorware/motorware_1_01_00_16/sw/solutions/instaspin_foc/src/proj_lab02b.c",line
    2353 00000266 56C1          BF        $C$L23,EQ             ; [CPU_] |289| 
         00000267 00EE 
    2354                      ; branchcc occurs ; [] |289| 
    2355                      .dwpsn  file "C:/ti/motorware/motorware_1_01_00_16/sw/modules/ctrl/src/32b/ctrl.h",line 771,column 3,
    2356 00000268 92E4          MOV       AL,*+XAR4[4]          ; [CPU_] |771| 
    2357                      .dwpsn  file "C:/ti/motorware/motorware_1_01_00_16/sw/solutions/instaspin_foc/src/proj_lab02b.c",line
    2358 00000269 D018          MOVB      XAR0,#24              ; [CPU_] |292| 
    2359                      .dwpsn  file "C:/ti/motorware/motorware_1_01_00_16/sw/modules/ctrl/src/32b/ctrl.h",line 771,column 3,
    2360 0000026a 9647          MOV       *-SP[7],AL            ; [CPU_] |771| 
    2361                      .dwpsn  file "C:/ti/motorware/motorware_1_01_00_16/sw/solutions/instaspin_foc/src/proj_lab02b.c",line
    2362 0000026b 8A91          MOVL      XAR4,*+XAR1[AR0]      ; [CPU_] |292| 
    2363              $C$DW$250       .dwtag  DW_TAG_TI_branch
    2364                      .dwattr $C$DW$250, DW_AT_low_pc(0x00)
    2365                      .dwattr $C$DW$250, DW_AT_name("_EST_getState")
    2366                      .dwattr $C$DW$250, DW_AT_TI_call
    2367 0000026c 7640!         LCR       #_EST_getState        ; [CPU_] |292| 
TMS320C2000 Assembler PC v6.4.11 Wed Nov 23 09:26:04 2016

Tools Copyright (c) 1996-2015 Texas Instruments Incorporated
C:\Users\bee25\AppData\Local\Temp\3596410                            PAGE   48

         0000026d 0000 
    2368                      ; call occurs [#_EST_getState] ; [] |292| 
    2369 0000026e 9347          MOV       AH,*-SP[7]            ; [CPU_] |292| 
    2370                      .dwpsn  file "C:/ti/motorware/motorware_1_01_00_16/sw/solutions/instaspin_foc/src/proj_lab02b.c",line
    2371 0000026f 5302          CMPB      AH,#2                 ; [CPU_] |294| 
    2372 00000270 56C1          BF        $C$L19,EQ             ; [CPU_] |294| 
         00000271 0095 
    2373                      ; branchcc occurs ; [] |294| 
    2374                      .dwpsn  file "C:/ti/motorware/motorware_1_01_00_16/sw/solutions/instaspin_foc/src/proj_lab02b.c",line
    2375 00000272 5303          CMPB      AH,#3                 ; [CPU_] |299| 
    2376 00000273 EC23          BF        $C$L12,EQ             ; [CPU_] |299| 
    2377                      ; branchcc occurs ; [] |299| 
    2378 00000274 9247          MOV       AL,*-SP[7]            ; [CPU_] 
    2379                      .dwpsn  file "C:/ti/motorware/motorware_1_01_00_16/sw/solutions/instaspin_foc/src/proj_lab02b.c",line
    2380 00000275 5201          CMPB      AL,#1                 ; [CPU_] |320| 
    2381 00000276 56C0          BF        $C$L21,NEQ            ; [CPU_] |320| 
         00000277 00AA 
    2382                      ; branchcc occurs ; [] |320| 
    2383 00000278 761F-         MOVW      DP,#_halHandle        ; [CPU_U] 
         00000279 0000 
    2384                      .dwpsn  file "C:/ti/motorware/motorware_1_01_00_16/sw/modules/hal/boards/boostxldrv8301_revB/f28x/f28
    2385 0000027a 8300-         MOVL      XAR5,@_halHandle      ; [CPU_] |255| 
    2386 0000027b 8AA5          MOVL      XAR4,XAR5             ; [CPU_] |255| 
    2387 0000027c DC7E          ADDB      XAR4,#126             ; [CPU_] |255| 
    2388 0000027d 7622   EALLOW
    2389                      .dwpsn  file "C:/ti/motorware/motorware_1_01_00_16/sw/drivers/pwm/src/32b/f28x/f2802x/pwm.h",line 156
    2390 0000027e D07C          MOVB      XAR0,#124             ; [CPU_] |1567| 
    2391 0000027f 0218          MOVB      ACC,#24               ; [CPU_] |1567| 
    2392 00000280 0795          ADDL      ACC,*+XAR5[AR0]       ; [CPU_] |1567| 
    2393 00000281 83A9          MOVL      XAR5,ACC              ; [CPU_] |1567| 
    2394 00000282 1AC5          OR        *+XAR5[0],#0x0004     ; [CPU_] |1567| 
         00000283 0004 
    2395 00000284 761A   EDIS
    2396 00000285 7622   EALLOW
    2397 00000286 0218          MOVB      ACC,#24               ; [CPU_] |1567| 
    2398 00000287 07C4          ADDL      ACC,*+XAR4[0]         ; [CPU_] |1567| 
    2399 00000288 83A9          MOVL      XAR5,ACC              ; [CPU_] |1567| 
    2400 00000289 1AC5          OR        *+XAR5[0],#0x0004     ; [CPU_] |1567| 
         0000028a 0004 
    2401 0000028b 761A   EDIS
    2402 0000028c 7622   EALLOW
    2403 0000028d 0218          MOVB      ACC,#24               ; [CPU_] |1567| 
    2404 0000028e 07D4          ADDL      ACC,*+XAR4[2]         ; [CPU_] |1567| 
    2405 0000028f 8AA9          MOVL      XAR4,ACC              ; [CPU_] |1567| 
    2406 00000290 1AC4          OR        *+XAR4[0],#0x0004     ; [CPU_] |1567| 
         00000291 0004 
    2407 00000292 761A   EDIS
    2408                      .dwpsn  file "C:/ti/motorware/motorware_1_01_00_16/sw/solutions/instaspin_foc/src/proj_lab02b.c",line
    2409 00000293 2BCB          MOV       *+XAR3[1],#0          ; [CPU_] |324| 
    2410 00000294 FFEF          B         $C$L21,UNC            ; [CPU_] |324| 
         00000295 008C 
    2411                      ; branch occurs ; [] |324| 
    2412 00000296       $C$L12:    
    2413                      .dwpsn  file "C:/ti/motorware/motorware_1_01_00_16/sw/solutions/instaspin_foc/src/proj_lab02b.c",line
    2414 00000296 5209          CMPB      AL,#9                 ; [CPU_] |301| 
TMS320C2000 Assembler PC v6.4.11 Wed Nov 23 09:26:04 2016

Tools Copyright (c) 1996-2015 Texas Instruments Incorporated
C:\Users\bee25\AppData\Local\Temp\3596410                            PAGE   49

    2415 00000297 56C8          BF        $C$L13,LO             ; [CPU_] |301| 
         00000298 000B 
    2416                      ; branchcc occurs ; [] |301| 
    2417 00000299 520C          CMPB      AL,#12                ; [CPU_] |301| 
    2418 0000029a 56C6          BF        $C$L13,HI             ; [CPU_] |301| 
         0000029b 0008 
    2419                      ; branchcc occurs ; [] |301| 
    2420 0000029c 027C          MOVB      ACC,#124              ; [CPU_] 
    2421 0000029d 761F-         MOVW      DP,#_halHandle        ; [CPU_U] 
         0000029e 0000 
    2422 0000029f 0700-         ADDL      ACC,@_halHandle       ; [CPU_] 
    2423 000002a0 8AA9          MOVL      XAR4,ACC              ; [CPU_] 
    2424 000002a1 6F3C          B         $C$L18,UNC            ; [CPU_] 
    2425                      ; branch occurs ; [] 
    2426 000002a2       $C$L13:    
    2427 000002a2 761F-         MOVW      DP,#_halHandle        ; [CPU_U] 
         000002a3 0000 
    2428                      .dwpsn  file "C:/ti/motorware/motorware_1_01_00_16/sw/solutions/instaspin_foc/src/proj_lab02b.c",line
    2429 000002a4 8300-         MOVL      XAR5,@_halHandle      ; [CPU_] |304| 
    2430 000002a5 8AA5          MOVL      XAR4,XAR5             ; [CPU_] |304| 
    2431                      .dwpsn  file "C:/ti/motorware/motorware_1_01_00_16/sw/modules/hal/boards/boostxldrv8301_revB/f28x/f28
    2432 000002a6 D300          MOVB      XAR3,#0               ; [CPU_] |1027| 
    2433                      .dwpsn  file "C:/ti/motorware/motorware_1_01_00_16/sw/solutions/instaspin_foc/src/proj_lab02b.c",line
    2434 000002a7 DC7C          ADDB      XAR4,#124             ; [CPU_] |304| 
    2435 000002a8 2901          CLRC      SXM                   ; [CPU_] 
    2436                      .dwpsn  file "C:/ti/motorware/motorware_1_01_00_16/sw/modules/hal/boards/boostxldrv8301_revB/f28x/f28
    2437 000002a9 6F13          B         $C$L15,UNC            ; [CPU_] |1027| 
    2438                      ; branch occurs ; [] |1027| 
    2439 000002aa       $C$L14:    
    2440                      .dwpsn  file "C:/ti/motorware/motorware_1_01_00_16/sw/modules/hal/boards/boostxldrv8301_revB/f28x/f28
    2441 000002aa 5603          MOV       ACC,AL << 1           ; [CPU_] |349| 
         000002ab 01A9 
    2442 000002ac 1EAC          MOVL      XT,ACC                ; [CPU_] |349| 
    2443                      .dwpsn  file "C:/ti/motorware/motorware_1_01_00_16/sw/modules/hal/boards/boostxldrv8301_revB/f28x/f28
    2444 000002ad C5A5          MOVL      XAR7,XAR5             ; [CPU_] |1031| 
    2445                      .dwpsn  file "C:/ti/motorware/motorware_1_01_00_16/sw/modules/hal/boards/boostxldrv8301_revB/f28x/f28
    2446 000002ae A0A9          MOVL      ACC,XAR5              ; [CPU_] |349| 
    2447 000002af 07AC          ADDL      ACC,XT                ; [CPU_] |349| 
    2448 000002b0 1EA6          MOVL      XAR6,ACC              ; [CPU_] |349| 
    2449                      .dwpsn  file "C:/ti/motorware/motorware_1_01_00_16/sw/modules/hal/boards/boostxldrv8301_revB/f28x/f28
    2450 000002b1 ABA9          MOVL      ACC,XT                ; [CPU_] |1031| 
    2451 000002b2 5601          ADDL      XAR7,ACC              ; [CPU_] |1031| 
         000002b3 00A7 
    2452                      .dwpsn  file "C:/ti/motorware/motorware_1_01_00_16/sw/modules/hal/boards/boostxldrv8301_revB/f28x/f28
    2453 000002b4 D092          MOVB      XAR0,#146             ; [CPU_] |349| 
    2454 000002b5 0696          MOVL      ACC,*+XAR6[AR0]       ; [CPU_] |349| 
    2455                      .dwpsn  file "C:/ti/motorware/motorware_1_01_00_16/sw/modules/hal/boards/boostxldrv8301_revB/f28x/f28
    2456 000002b6 D00A          MOVB      XAR0,#10              ; [CPU_] |1031| 
    2457 000002b7 C597          MOVL      XAR7,*+XAR7[AR0]      ; [CPU_] |1031| 
    2458                      .dwpsn  file "C:/ti/motorware/motorware_1_01_00_16/sw/modules/hal/boards/boostxldrv8301_revB/f28x/f28
    2459 000002b8 DB01          ADDB      XAR3,#1               ; [CPU_] |1027| 
    2460                      .dwpsn  file "C:/ti/motorware/motorware_1_01_00_16/sw/modules/hal/boards/boostxldrv8301_revB/f28x/f28
    2461 000002b9 D092          MOVB      XAR0,#146             ; [CPU_] |746| 
    2462                      .dwpsn  file "C:/ti/motorware/motorware_1_01_00_16/sw/modules/hal/boards/boostxldrv8301_revB/f28x/f28
    2463 000002ba 07C7          ADDL      ACC,*+XAR7[0]         ; [CPU_] |1031| 
TMS320C2000 Assembler PC v6.4.11 Wed Nov 23 09:26:04 2016

Tools Copyright (c) 1996-2015 Texas Instruments Incorporated
C:\Users\bee25\AppData\Local\Temp\3596410                            PAGE   50

    2464                      .dwpsn  file "C:/ti/motorware/motorware_1_01_00_16/sw/modules/hal/boards/boostxldrv8301_revB/f28x/f28
    2465 000002bb 1E96          MOVL      *+XAR6[AR0],ACC       ; [CPU_] |746| 
    2466 000002bc       $C$L15:    
    2467                      .dwpsn  file "C:/ti/motorware/motorware_1_01_00_16/sw/modules/hal/boards/boostxldrv8301_revB/f28x/f28
    2468 000002bc D0A6          MOVB      XAR0,#166             ; [CPU_] |1027| 
    2469 000002bd 92A3          MOV       AL,AR3                ; [CPU_] |1027| 
    2470 000002be 5495          CMP       AL,*+XAR5[AR0]        ; [CPU_] |1027| 
    2471 000002bf 56C8          BF        $C$L14,LO             ; [CPU_] |1027| 
         000002c0 FFEB 
    2472                      ; branchcc occurs ; [] |1027| 
    2473                      .dwpsn  file "C:/ti/motorware/motorware_1_01_00_16/sw/modules/hal/boards/boostxldrv8301_revB/f28x/f28
    2474 000002c1 2BAB          MOV       PL,#0                 ; [CPU_] |1038| 
    2475 000002c2 2901          CLRC      SXM                   ; [CPU_] 
    2476 000002c3 6F15          B         $C$L17,UNC            ; [CPU_] |1038| 
    2477                      ; branch occurs ; [] |1038| 
    2478 000002c4       $C$L16:    
    2479                      .dwpsn  file "C:/ti/motorware/motorware_1_01_00_16/sw/modules/hal/boards/boostxldrv8301_revB/f28x/f28
    2480 000002c4 5603          MOV       ACC,AL << 1           ; [CPU_] |349| 
         000002c5 01A9 
    2481 000002c6 82A9          MOVL      XAR3,ACC              ; [CPU_] |349| 
    2482                      .dwpsn  file "C:/ti/motorware/motorware_1_01_00_16/sw/modules/hal/boards/boostxldrv8301_revB/f28x/f28
    2483 000002c7 C5A5          MOVL      XAR7,XAR5             ; [CPU_] |1042| 
    2484                      .dwpsn  file "C:/ti/motorware/motorware_1_01_00_16/sw/modules/hal/boards/boostxldrv8301_revB/f28x/f28
    2485 000002c8 A0A9          MOVL      ACC,XAR5              ; [CPU_] |349| 
    2486 000002c9 07A3          ADDL      ACC,XAR3              ; [CPU_] |349| 
    2487 000002ca 1EA6          MOVL      XAR6,ACC              ; [CPU_] |349| 
    2488                      .dwpsn  file "C:/ti/motorware/motorware_1_01_00_16/sw/modules/hal/boards/boostxldrv8301_revB/f28x/f28
    2489 000002cb A2A9          MOVL      ACC,XAR3              ; [CPU_] |1042| 
    2490 000002cc 5601          ADDL      XAR7,ACC              ; [CPU_] |1042| 
         000002cd 00A7 
    2491                      .dwpsn  file "C:/ti/motorware/motorware_1_01_00_16/sw/modules/hal/boards/boostxldrv8301_revB/f28x/f28
    2492 000002ce D098          MOVB      XAR0,#152             ; [CPU_] |349| 
    2493 000002cf 0696          MOVL      ACC,*+XAR6[AR0]       ; [CPU_] |349| 
    2494                      .dwpsn  file "C:/ti/motorware/motorware_1_01_00_16/sw/modules/hal/boards/boostxldrv8301_revB/f28x/f28
    2495 000002d0 D040          MOVB      XAR0,#64              ; [CPU_] |1042| 
    2496 000002d1 C597          MOVL      XAR7,*+XAR7[AR0]      ; [CPU_] |1042| 
    2497                      .dwpsn  file "C:/ti/motorware/motorware_1_01_00_16/sw/modules/hal/boards/boostxldrv8301_revB/f28x/f28
    2498 000002d2 D098          MOVB      XAR0,#152             ; [CPU_] |750| 
    2499                      .dwpsn  file "C:/ti/motorware/motorware_1_01_00_16/sw/modules/hal/boards/boostxldrv8301_revB/f28x/f28
    2500 000002d3 07C7          ADDL      ACC,*+XAR7[0]         ; [CPU_] |1042| 
    2501                      .dwpsn  file "C:/ti/motorware/motorware_1_01_00_16/sw/modules/hal/boards/boostxldrv8301_revB/f28x/f28
    2502 000002d4 1E96          MOVL      *+XAR6[AR0],ACC       ; [CPU_] |750| 
    2503 000002d5 92AB          MOV       AL,PL                 ; [CPU_] |750| 
    2504                      .dwpsn  file "C:/ti/motorware/motorware_1_01_00_16/sw/modules/hal/boards/boostxldrv8301_revB/f28x/f28
    2505 000002d6 9C01          ADDB      AL,#1                 ; [CPU_] |1038| 
    2506 000002d7 27A9          MOV       PL,AL                 ; [CPU_] |1038| 
    2507 000002d8       $C$L17:    
    2508                      .dwpsn  file "C:/ti/motorware/motorware_1_01_00_16/sw/modules/hal/boards/boostxldrv8301_revB/f28x/f28
    2509 000002d8 D0A7          MOVB      XAR0,#167             ; [CPU_] |1038| 
    2510 000002d9 92AB          MOV       AL,PL                 ; [CPU_] |1038| 
    2511 000002da 5495          CMP       AL,*+XAR5[AR0]        ; [CPU_] |1038| 
    2512 000002db 56C8          BF        $C$L16,LO             ; [CPU_] |1038| 
         000002dc FFE9 
    2513                      ; branchcc occurs ; [] |1038| 
    2514 000002dd       $C$L18:    
TMS320C2000 Assembler PC v6.4.11 Wed Nov 23 09:26:04 2016

Tools Copyright (c) 1996-2015 Texas Instruments Incorporated
C:\Users\bee25\AppData\Local\Temp\3596410                            PAGE   51

    2515                      .dwpsn  file "C:/ti/motorware/motorware_1_01_00_16/sw/solutions/instaspin_foc/src/proj_lab02b.c",line
    2516 000002dd D016          MOVB      XAR0,#22              ; [CPU_] |308| 
    2517 000002de 8F40-         MOVL      XAR5,#_gMotorVars+92  ; [CPU_U] |308| 
         000002df 009C 
    2518 000002e0 0694          MOVL      ACC,*+XAR4[AR0]       ; [CPU_] |308| 
    2519                      .dwpsn  file "C:/ti/motorware/motorware_1_01_00_16/sw/solutions/instaspin_foc/src/proj_lab02b.c",line
    2520 000002e1 D018          MOVB      XAR0,#24              ; [CPU_] |309| 
    2521                      .dwpsn  file "C:/ti/motorware/motorware_1_01_00_16/sw/solutions/instaspin_foc/src/proj_lab02b.c",line
    2522 000002e2 1EC5          MOVL      *+XAR5[0],ACC         ; [CPU_] |308| 
    2523                      .dwpsn  file "C:/ti/motorware/motorware_1_01_00_16/sw/solutions/instaspin_foc/src/proj_lab02b.c",line
    2524 000002e3 0694          MOVL      ACC,*+XAR4[AR0]       ; [CPU_] |309| 
    2525                      .dwpsn  file "C:/ti/motorware/motorware_1_01_00_16/sw/solutions/instaspin_foc/src/proj_lab02b.c",line
    2526 000002e4 D01A          MOVB      XAR0,#26              ; [CPU_] |310| 
    2527                      .dwpsn  file "C:/ti/motorware/motorware_1_01_00_16/sw/solutions/instaspin_foc/src/proj_lab02b.c",line
    2528 000002e5 1ED5          MOVL      *+XAR5[2],ACC         ; [CPU_] |309| 
    2529                      .dwpsn  file "C:/ti/motorware/motorware_1_01_00_16/sw/solutions/instaspin_foc/src/proj_lab02b.c",line
    2530 000002e6 0694          MOVL      ACC,*+XAR4[AR0]       ; [CPU_] |310| 
    2531                      .dwpsn  file "C:/ti/motorware/motorware_1_01_00_16/sw/solutions/instaspin_foc/src/proj_lab02b.c",line
    2532 000002e7 D01C          MOVB      XAR0,#28              ; [CPU_] |313| 
    2533                      .dwpsn  file "C:/ti/motorware/motorware_1_01_00_16/sw/solutions/instaspin_foc/src/proj_lab02b.c",line
    2534 000002e8 1EE5          MOVL      *+XAR5[4],ACC         ; [CPU_] |310| 
    2535                      .dwpsn  file "C:/ti/motorware/motorware_1_01_00_16/sw/solutions/instaspin_foc/src/proj_lab02b.c",line
    2536 000002e9 0694          MOVL      ACC,*+XAR4[AR0]       ; [CPU_] |313| 
    2537                      .dwpsn  file "C:/ti/motorware/motorware_1_01_00_16/sw/solutions/instaspin_foc/src/proj_lab02b.c",line
    2538 000002ea D01E          MOVB      XAR0,#30              ; [CPU_] |314| 
    2539                      .dwpsn  file "C:/ti/motorware/motorware_1_01_00_16/sw/solutions/instaspin_foc/src/proj_lab02b.c",line
    2540 000002eb 1EF5          MOVL      *+XAR5[6],ACC         ; [CPU_] |313| 
    2541                      .dwpsn  file "C:/ti/motorware/motorware_1_01_00_16/sw/solutions/instaspin_foc/src/proj_lab02b.c",line
    2542 000002ec 0694          MOVL      ACC,*+XAR4[AR0]       ; [CPU_] |314| 
    2543 000002ed D008          MOVB      XAR0,#8               ; [CPU_] |314| 
    2544 000002ee 1E95          MOVL      *+XAR5[AR0],ACC       ; [CPU_] |314| 
    2545                      .dwpsn  file "C:/ti/motorware/motorware_1_01_00_16/sw/solutions/instaspin_foc/src/proj_lab02b.c",line
    2546 000002ef D020          MOVB      XAR0,#32              ; [CPU_] |315| 
    2547 000002f0 0694          MOVL      ACC,*+XAR4[AR0]       ; [CPU_] |315| 
    2548 000002f1 D00A          MOVB      XAR0,#10              ; [CPU_] |315| 
    2549 000002f2 1E95          MOVL      *+XAR5[AR0],ACC       ; [CPU_] |315| 
    2550 000002f3 7622   EALLOW
    2551                      .dwpsn  file "C:/ti/motorware/motorware_1_01_00_16/sw/drivers/pwm/src/32b/f28x/f2802x/pwm.h",line 951
    2552 000002f4 0217          MOVB      ACC,#23               ; [CPU_] |951| 
    2553 000002f5 07C4          ADDL      ACC,*+XAR4[0]         ; [CPU_] |951| 
    2554 000002f6 83A9          MOVL      XAR5,ACC              ; [CPU_] |951| 
    2555 000002f7 56BF          MOVB      *+XAR5[0],#4,UNC      ; [CPU_] |951| 
         000002f8 04C5 
    2556 000002f9 761A   EDIS
    2557 000002fa 7622   EALLOW
    2558 000002fb 0217          MOVB      ACC,#23               ; [CPU_] |951| 
    2559 000002fc 07D4          ADDL      ACC,*+XAR4[2]         ; [CPU_] |951| 
    2560 000002fd 83A9          MOVL      XAR5,ACC              ; [CPU_] |951| 
    2561 000002fe 56BF          MOVB      *+XAR5[0],#4,UNC      ; [CPU_] |951| 
         000002ff 04C5 
    2562 00000300 761A   EDIS
    2563 00000301 7622   EALLOW
    2564 00000302 0217          MOVB      ACC,#23               ; [CPU_] |951| 
    2565 00000303 07E4          ADDL      ACC,*+XAR4[4]         ; [CPU_] |951| 
    2566                      .dwpsn  file "C:/ti/motorware/motorware_1_01_00_16/sw/drivers/pwm/src/32b/f28x/f2802x/pwm.h",line 955
TMS320C2000 Assembler PC v6.4.11 Wed Nov 23 09:26:04 2016

Tools Copyright (c) 1996-2015 Texas Instruments Incorporated
C:\Users\bee25\AppData\Local\Temp\3596410                            PAGE   52

    2567 00000304 6F18          B         $C$L20,UNC            ; [CPU_] |955| 
    2568                      ; branch occurs ; [] |955| 
    2569 00000305       $C$L19:    
    2570 00000305 761F-         MOVW      DP,#_halHandle        ; [CPU_U] 
         00000306 0000 
    2571                      .dwpsn  file "C:/ti/motorware/motorware_1_01_00_16/sw/modules/hal/boards/boostxldrv8301_revB/f28x/f28
    2572 00000307 C400-         MOVL      XAR6,@_halHandle      ; [CPU_] |297| 
    2573 00000308 8AA6          MOVL      XAR4,XAR6             ; [CPU_] |297| 
    2574 00000309 DC7E          ADDB      XAR4,#126             ; [CPU_] |297| 
    2575 0000030a 7622   EALLOW
    2576                      .dwpsn  file "C:/ti/motorware/motorware_1_01_00_16/sw/drivers/pwm/src/32b/f28x/f2802x/pwm.h",line 951
    2577 0000030b D07C          MOVB      XAR0,#124             ; [CPU_] |951| 
    2578 0000030c 0217          MOVB      ACC,#23               ; [CPU_] |951| 
    2579 0000030d 0796          ADDL      ACC,*+XAR6[AR0]       ; [CPU_] |951| 
    2580 0000030e 83A9          MOVL      XAR5,ACC              ; [CPU_] |951| 
    2581 0000030f 56BF          MOVB      *+XAR5[0],#4,UNC      ; [CPU_] |951| 
         00000310 04C5 
    2582 00000311 761A   EDIS
    2583 00000312 7622   EALLOW
    2584 00000313 0217          MOVB      ACC,#23               ; [CPU_] |951| 
    2585 00000314 07C4          ADDL      ACC,*+XAR4[0]         ; [CPU_] |951| 
    2586 00000315 83A9          MOVL      XAR5,ACC              ; [CPU_] |951| 
    2587 00000316 56BF          MOVB      *+XAR5[0],#4,UNC      ; [CPU_] |951| 
         00000317 04C5 
    2588 00000318 761A   EDIS
    2589 00000319 7622   EALLOW
    2590 0000031a 0217          MOVB      ACC,#23               ; [CPU_] |951| 
    2591 0000031b 07D4          ADDL      ACC,*+XAR4[2]         ; [CPU_] |951| 
    2592 0000031c       $C$L20:    
    2593 0000031c 8AA9          MOVL      XAR4,ACC              ; [CPU_] |951| 
    2594 0000031d 56BF          MOVB      *+XAR4[0],#4,UNC      ; [CPU_] |951| 
         0000031e 04C4 
    2595 0000031f 761A   EDIS
    2596 00000320       $C$L21:    
    2597 00000320 761F-         MOVW      DP,#_ctrlHandle       ; [CPU_U] 
         00000321 0000 
    2598                      .dwpsn  file "C:/ti/motorware/motorware_1_01_00_16/sw/solutions/instaspin_foc/src/proj_lab02b.c",line
    2599 00000322 8A06-         MOVL      XAR4,@_ctrlHandle     ; [CPU_] |327| 
    2600 00000323 D0F5          MOVB      XAR0,#245             ; [CPU_] |327| 
    2601 00000324 9294          MOV       AL,*+XAR4[AR0]        ; [CPU_] |327| 
    2602 00000325 5201          CMPB      AL,#1                 ; [CPU_] |327| 
    2603 00000326 ED2E          BF        $C$L23,NEQ            ; [CPU_] |327| 
    2604                      ; branchcc occurs ; [] |327| 
    2605 00000327 9247          MOV       AL,*-SP[7]            ; [CPU_] 
    2606 00000328 5201          CMPB      AL,#1                 ; [CPU_] |327| 
    2607 00000329 56C9          BF        $C$L23,LOS            ; [CPU_] |327| 
         0000032a 002B 
    2608                      ; branchcc occurs ; [] |327| 
    2609 0000032b 761F-         MOVW      DP,#_gMotorVars+17    ; [CPU_U] 
         0000032c 0001 
    2610 0000032d 9211-         MOV       AL,@_gMotorVars+17    ; [CPU_] |327| 
    2611 0000032e 5206          CMPB      AL,#6                 ; [CPU_] |327| 
    2612 0000032f ED25          BF        $C$L23,NEQ            ; [CPU_] |327| 
    2613                      ; branchcc occurs ; [] |327| 
    2614 00000330 FF69          SPM       #0                    ; [CPU_] 
TMS320C2000 Assembler PC v6.4.11 Wed Nov 23 09:26:04 2016

Tools Copyright (c) 1996-2015 Texas Instruments Incorporated
C:\Users\bee25\AppData\Local\Temp\3596410                            PAGE   53

    2615                      .dwpsn  file "C:/ti/motorware/motorware_1_01_00_16/sw/solutions/instaspin_foc/src/proj_lab02b.c",line
    2616              $C$DW$251       .dwtag  DW_TAG_TI_branch
    2617                      .dwattr $C$DW$251, DW_AT_low_pc(0x00)
    2618                      .dwattr $C$DW$251, DW_AT_name("_USER_softwareUpdate1p6")
    2619                      .dwattr $C$DW$251, DW_AT_TI_call
    2620 00000331 7640!         LCR       #_USER_softwareUpdate1p6 ; [CPU_] |332| 
         00000332 0000 
    2621                      ; call occurs [#_USER_softwareUpdate1p6] ; [] |332| 
    2622 00000333 6F21          B         $C$L23,UNC            ; [CPU_] |332| 
    2623                      ; branch occurs ; [] |332| 
    2624 00000334       $C$L22:    
    2625                      .dwpsn  file "C:/ti/motorware/motorware_1_01_00_16/sw/modules/ctrl/src/32b/ctrl.h",line 1218,column 3
    2626 00000334 D0F0          MOVB      XAR0,#240             ; [CPU_] |1218| 
    2627 00000335 761F-         MOVW      DP,#_gMotorVars       ; [CPU_U] 
         00000336 0001 
    2628 00000337 2B91          MOV       *+XAR1[AR0],#0        ; [CPU_] |1218| 
    2629                      .dwpsn  file "C:/ti/motorware/motorware_1_01_00_16/sw/solutions/instaspin_foc/src/proj_lab02b.c",line
    2630 00000338 2B00-         MOV       @_gMotorVars,#0       ; [CPU_] |276| 
    2631 00000339 761F-         MOVW      DP,#_halHandle        ; [CPU_U] 
         0000033a 0000 
    2632                      .dwpsn  file "C:/ti/motorware/motorware_1_01_00_16/sw/modules/hal/boards/boostxldrv8301_revB/f28x/f28
    2633 0000033b 8300-         MOVL      XAR5,@_halHandle      ; [CPU_] |255| 
    2634 0000033c 8AA5          MOVL      XAR4,XAR5             ; [CPU_] |255| 
    2635 0000033d DC7E          ADDB      XAR4,#126             ; [CPU_] |255| 
    2636 0000033e 7622   EALLOW
    2637                      .dwpsn  file "C:/ti/motorware/motorware_1_01_00_16/sw/drivers/pwm/src/32b/f28x/f2802x/pwm.h",line 156
    2638 0000033f 0218          MOVB      ACC,#24               ; [CPU_] |1567| 
    2639 00000340 D07C          MOVB      XAR0,#124             ; [CPU_] |1567| 
    2640 00000341 0795          ADDL      ACC,*+XAR5[AR0]       ; [CPU_] |1567| 
    2641 00000342 83A9          MOVL      XAR5,ACC              ; [CPU_] |1567| 
    2642 00000343 1AC5          OR        *+XAR5[0],#0x0004     ; [CPU_] |1567| 
         00000344 0004 
    2643 00000345 761A   EDIS
    2644 00000346 7622   EALLOW
    2645 00000347 0218          MOVB      ACC,#24               ; [CPU_] |1567| 
    2646 00000348 07C4          ADDL      ACC,*+XAR4[0]         ; [CPU_] |1567| 
    2647 00000349 83A9          MOVL      XAR5,ACC              ; [CPU_] |1567| 
    2648 0000034a 1AC5          OR        *+XAR5[0],#0x0004     ; [CPU_] |1567| 
         0000034b 0004 
    2649 0000034c 761A   EDIS
    2650 0000034d 7622   EALLOW
    2651 0000034e 0218          MOVB      ACC,#24               ; [CPU_] |1567| 
    2652 0000034f 07D4          ADDL      ACC,*+XAR4[2]         ; [CPU_] |1567| 
    2653 00000350 8AA9          MOVL      XAR4,ACC              ; [CPU_] |1567| 
    2654 00000351 1AC4          OR        *+XAR4[0],#0x0004     ; [CPU_] |1567| 
         00000352 0004 
    2655 00000353 761A   EDIS
    2656 00000354       $C$L23:    
    2657                      .dwpsn  file "C:/ti/motorware/motorware_1_01_00_16/sw/solutions/instaspin_foc/src/proj_lab02b.c",line
    2658 00000354 D018          MOVB      XAR0,#24              ; [CPU_] |339| 
    2659 00000355 FF69          SPM       #0                    ; [CPU_] 
    2660 00000356 8A91          MOVL      XAR4,*+XAR1[AR0]      ; [CPU_] |339| 
    2661              $C$DW$252       .dwtag  DW_TAG_TI_branch
    2662                      .dwattr $C$DW$252, DW_AT_low_pc(0x00)
    2663                      .dwattr $C$DW$252, DW_AT_name("_EST_isMotorIdentified")
TMS320C2000 Assembler PC v6.4.11 Wed Nov 23 09:26:04 2016

Tools Copyright (c) 1996-2015 Texas Instruments Incorporated
C:\Users\bee25\AppData\Local\Temp\3596410                            PAGE   54

    2664                      .dwattr $C$DW$252, DW_AT_TI_call
    2665 00000357 7640!         LCR       #_EST_isMotorIdentified ; [CPU_] |339| 
         00000358 0000 
    2666                      ; call occurs [#_EST_isMotorIdentified] ; [] |339| 
    2667 00000359 5200          CMPB      AL,#0                 ; [CPU_] |339| 
    2668 0000035a EC27          BF        $C$L24,EQ             ; [CPU_] |339| 
    2669                      ; branchcc occurs ; [] |339| 
    2670                      .dwpsn  file "C:/ti/motorware/motorware_1_01_00_16/sw/solutions/instaspin_foc/src/proj_lab02b.c",line
    2671 0000035b D018          MOVB      XAR0,#24              ; [CPU_] |342| 
    2672 0000035c 761F-         MOVW      DP,#_gMaxCurrentSlope ; [CPU_U] 
         0000035d 0000 
    2673 0000035e 8A91          MOVL      XAR4,*+XAR1[AR0]      ; [CPU_] |342| 
    2674 0000035f 0604-         MOVL      ACC,@_gMaxCurrentSlope ; [CPU_] |342| 
    2675              $C$DW$253       .dwtag  DW_TAG_TI_branch
    2676                      .dwattr $C$DW$253, DW_AT_low_pc(0x00)
    2677                      .dwattr $C$DW$253, DW_AT_name("_EST_setMaxCurrentSlope_pu")
    2678                      .dwattr $C$DW$253, DW_AT_TI_call
    2679 00000360 7640!         LCR       #_EST_setMaxCurrentSlope_pu ; [CPU_] |342| 
         00000361 0000 
    2680                      ; call occurs [#_EST_setMaxCurrentSlope_pu] ; [] |342| 
    2681                      .dwpsn  file "C:/ti/motorware/motorware_1_01_00_16/sw/solutions/instaspin_foc/src/proj_lab02b.c",line
    2682 00000362 8DC0-         MOVL      XAR3,#_gMotorVars     ; [CPU_U] |343| 
         00000363 0040 
    2683 00000364 761F-         MOVW      DP,#_ctrlHandle       ; [CPU_U] 
         00000365 0000 
    2684                      .dwpsn  file "C:/ti/motorware/motorware_1_01_00_16/sw/solutions/instaspin_foc/src/proj_lab02b.c",line
    2685 00000366 D018          MOVB      XAR0,#24              ; [CPU_] |346| 
    2686                      .dwpsn  file "C:/ti/motorware/motorware_1_01_00_16/sw/solutions/instaspin_foc/src/proj_lab02b.c",line
    2687 00000367 56BF          MOVB      *+XAR3[2],#1,UNC      ; [CPU_] |343| 
         00000368 01D3 
    2688                      .dwpsn  file "C:/ti/motorware/motorware_1_01_00_16/sw/solutions/instaspin_foc/src/proj_lab02b.c",line
    2689 00000369 8A06-         MOVL      XAR4,@_ctrlHandle     ; [CPU_] |346| 
    2690 0000036a 0693          MOVL      ACC,*+XAR3[AR0]       ; [CPU_] |346| 
    2691              $C$DW$254       .dwtag  DW_TAG_TI_branch
    2692                      .dwattr $C$DW$254, DW_AT_low_pc(0x00)
    2693                      .dwattr $C$DW$254, DW_AT_name("_CTRL_setSpd_ref_krpm")
    2694                      .dwattr $C$DW$254, DW_AT_TI_call
    2695 0000036b 7640!         LCR       #_CTRL_setSpd_ref_krpm ; [CPU_] |346| 
         0000036c 0000 
    2696                      ; call occurs [#_CTRL_setSpd_ref_krpm] ; [] |346| 
    2697 0000036d 761F-         MOVW      DP,#_ctrlHandle       ; [CPU_U] 
         0000036e 0000 
    2698                      .dwpsn  file "C:/ti/motorware/motorware_1_01_00_16/sw/solutions/instaspin_foc/src/proj_lab02b.c",line
    2699 0000036f D01C          MOVB      XAR0,#28              ; [CPU_] |349| 
    2700 00000370 8F40          MOVL      XAR5,#5725            ; [CPU_U] |349| 
         00000371 165D 
    2701 00000372 A0AC          MOVL      XT,XAR5               ; [CPU_] |349| 
    2702 00000373 8A06-         MOVL      XAR4,@_ctrlHandle     ; [CPU_] |349| 
    2703 00000374 5605          IMPYL     P,XT,*+XAR3[AR0]      ; [CPU_] |349| 
         00000375 0093 
    2704 00000376 5663          QMPYL     ACC,XT,*+XAR3[AR0]    ; [CPU_] |349| 
         00000377 0093 
    2705                      .dwpsn  file "C:/ti/motorware/motorware_1_01_00_16/sw/modules/ctrl/src/32b/ctrl.h",line 1560,column 3
    2706 00000378 D076          MOVB      XAR0,#118             ; [CPU_] |1560| 
    2707                      .dwpsn  file "C:/ti/motorware/motorware_1_01_00_16/sw/solutions/instaspin_foc/src/proj_lab02b.c",line
TMS320C2000 Assembler PC v6.4.11 Wed Nov 23 09:26:04 2016

Tools Copyright (c) 1996-2015 Texas Instruments Incorporated
C:\Users\bee25\AppData\Local\Temp\3596410                            PAGE   55

    2708 00000379 56A7          LSL64     ACC:P,#8              ; [CPU_] |349| 
    2709                      .dwpsn  file "C:/ti/motorware/motorware_1_01_00_16/sw/modules/ctrl/src/32b/ctrl.h",line 1560,column 3
    2710 0000037a 1E94          MOVL      *+XAR4[AR0],ACC       ; [CPU_] |1560| 
    2711                      .dwpsn  file "C:/ti/motorware/motorware_1_01_00_16/sw/solutions/instaspin_foc/src/proj_lab02b.c",line
    2712 0000037b 9200-         MOV       AL,@_Flag_Latch_softwareUpdate ; [CPU_] |351| 
    2713 0000037c EC13          BF        $C$L26,EQ             ; [CPU_] |351| 
    2714                      ; branchcc occurs ; [] |351| 
    2715                      .dwpsn  file "C:/ti/motorware/motorware_1_01_00_16/sw/solutions/instaspin_foc/src/proj_lab02b.c",line
    2716 0000037d 2B00-         MOV       @_Flag_Latch_softwareUpdate,#0 ; [CPU_] |353| 
    2717                      .dwpsn  file "C:/ti/motorware/motorware_1_01_00_16/sw/solutions/instaspin_foc/src/proj_lab02b.c",line
    2718              $C$DW$255       .dwtag  DW_TAG_TI_branch
    2719                      .dwattr $C$DW$255, DW_AT_low_pc(0x00)
    2720                      .dwattr $C$DW$255, DW_AT_name("_USER_calcPIgains")
    2721                      .dwattr $C$DW$255, DW_AT_TI_call
    2722 0000037e 7640!         LCR       #_USER_calcPIgains    ; [CPU_] |355| 
         0000037f 0000 
    2723                      ; call occurs [#_USER_calcPIgains] ; [] |355| 
    2724 00000380 6F0C          B         $C$L25,UNC            ; [CPU_] |355| 
    2725                      ; branch occurs ; [] |355| 
    2726 00000381       $C$L24:    
    2727 00000381 761F-         MOVW      DP,#_Flag_Latch_softwareUpdate ; [CPU_U] 
         00000382 0000 
    2728                      .dwpsn  file "C:/ti/motorware/motorware_1_01_00_16/sw/solutions/instaspin_foc/src/proj_lab02b.c",line
    2729 00000383 D018          MOVB      XAR0,#24              ; [CPU_] |364| 
    2730                      .dwpsn  file "C:/ti/motorware/motorware_1_01_00_16/sw/solutions/instaspin_foc/src/proj_lab02b.c",line
    2731 00000384 56BF-         MOVB      @_Flag_Latch_softwareUpdate,#1,UNC ; [CPU_] |361| 
         00000385 0100 
    2732                      .dwpsn  file "C:/ti/motorware/motorware_1_01_00_16/sw/solutions/instaspin_foc/src/proj_lab02b.c",line
    2733 00000386 8A91          MOVL      XAR4,*+XAR1[AR0]      ; [CPU_] |364| 
    2734              $C$DW$256       .dwtag  DW_TAG_TI_branch
    2735                      .dwattr $C$DW$256, DW_AT_low_pc(0x00)
    2736                      .dwattr $C$DW$256, DW_AT_name("_EST_getMaxCurrentSlope_pu")
    2737                      .dwattr $C$DW$256, DW_AT_TI_call
    2738 00000387 7640!         LCR       #_EST_getMaxCurrentSlope_pu ; [CPU_] |364| 
         00000388 0000 
    2739                      ; call occurs [#_EST_getMaxCurrentSlope_pu] ; [] |364| 
    2740 00000389 761F-         MOVW      DP,#_gMaxCurrentSlope ; [CPU_U] 
         0000038a 0000 
    2741 0000038b 1E04-         MOVL      @_gMaxCurrentSlope,ACC ; [CPU_] |364| 
    2742 0000038c       $C$L25:    
    2743 0000038c 761F-         MOVW      DP,#_ctrlHandle       ; [CPU_U] 
         0000038d 0000 
    2744 0000038e 8A06-         MOVL      XAR4,@_ctrlHandle     ; [CPU_] |364| 
    2745 0000038f       $C$L26:    
    2746                      .dwpsn  file "C:/ti/motorware/motorware_1_01_00_16/sw/solutions/instaspin_foc/src/proj_lab02b.c",line
    2747 0000038f 9201-         MOV       AL,@_gCounter_updateGlobals ; [CPU_] |369| 
    2748 00000390 EC07          BF        $C$L27,EQ             ; [CPU_] |369| 
    2749                      ; branchcc occurs ; [] |369| 
    2750                      .dwpsn  file "C:/ti/motorware/motorware_1_01_00_16/sw/solutions/instaspin_foc/src/proj_lab02b.c",line
    2751 00000391 2B01-         MOV       @_gCounter_updateGlobals,#0 ; [CPU_] |372| 
    2752                      .dwpsn  file "C:/ti/motorware/motorware_1_01_00_16/sw/solutions/instaspin_foc/src/proj_lab02b.c",line
    2753              $C$DW$257       .dwtag  DW_TAG_TI_branch
    2754                      .dwattr $C$DW$257, DW_AT_low_pc(0x00)
    2755                      .dwattr $C$DW$257, DW_AT_name("_updateGlobalVariables_motor")
    2756                      .dwattr $C$DW$257, DW_AT_TI_call
TMS320C2000 Assembler PC v6.4.11 Wed Nov 23 09:26:04 2016

Tools Copyright (c) 1996-2015 Texas Instruments Incorporated
C:\Users\bee25\AppData\Local\Temp\3596410                            PAGE   56

    2757 00000392 7640'         LCR       #_updateGlobalVariables_motor ; [CPU_] |374| 
         00000393 0000 
    2758                      ; call occurs [#_updateGlobalVariables_motor] ; [] |374| 
    2759 00000394 761F-         MOVW      DP,#_ctrlHandle       ; [CPU_U] 
         00000395 0000 
    2760 00000396 8A06-         MOVL      XAR4,@_ctrlHandle     ; [CPU_] |374| 
    2761 00000397       $C$L27:    
    2762                      .dwpsn  file "C:/ti/motorware/motorware_1_01_00_16/sw/solutions/instaspin_foc/src/proj_lab02b.c",line
    2763              $C$DW$258       .dwtag  DW_TAG_TI_branch
    2764                      .dwattr $C$DW$258, DW_AT_low_pc(0x00)
    2765                      .dwattr $C$DW$258, DW_AT_name("_recalcKpKi")
    2766                      .dwattr $C$DW$258, DW_AT_TI_call
    2767 00000397 7640'         LCR       #_recalcKpKi          ; [CPU_] |378| 
         00000398 0082 
    2768                      ; call occurs [#_recalcKpKi] ; [] |378| 
    2769 00000399 761F-         MOVW      DP,#_ctrlHandle       ; [CPU_U] 
         0000039a 0000 
    2770                      .dwpsn  file "C:/ti/motorware/motorware_1_01_00_16/sw/modules/ctrl/src/32b/ctrl.h",line 573,column 3,
    2771 0000039b 8A06-         MOVL      XAR4,@_ctrlHandle     ; [CPU_] |573| 
    2772 0000039c D084          MOVB      XAR0,#132             ; [CPU_] |573| 
    2773 0000039d 9294          MOV       AL,*+XAR4[AR0]        ; [CPU_] |573| 
    2774 0000039e ED08          BF        $C$L28,NEQ            ; [CPU_] |573| 
    2775                      ; branchcc occurs ; [] |573| 
    2776                      .dwpsn  file "C:/ti/motorware/motorware_1_01_00_16/sw/solutions/instaspin_foc/src/proj_lab02b.c",line
    2777              $C$DW$259       .dwtag  DW_TAG_TI_branch
    2778                      .dwattr $C$DW$259, DW_AT_low_pc(0x00)
    2779                      .dwattr $C$DW$259, DW_AT_name("_setFeLimitZero")
    2780                      .dwattr $C$DW$259, DW_AT_TI_call
    2781 0000039f 7640'         LCR       #_setFeLimitZero      ; [CPU_] |383| 
         000003a0 005D 
    2782                      ; call occurs [#_setFeLimitZero] ; [] |383| 
    2783 000003a1 761F-         MOVW      DP,#_ctrlHandle       ; [CPU_U] 
         000003a2 0000 
    2784                      .dwpsn  file "C:/ti/motorware/motorware_1_01_00_16/sw/solutions/instaspin_foc/src/proj_lab02b.c",line
    2785 000003a3 8A06-         MOVL      XAR4,@_ctrlHandle     ; [CPU_] |386| 
    2786              $C$DW$260       .dwtag  DW_TAG_TI_branch
    2787                      .dwattr $C$DW$260, DW_AT_low_pc(0x00)
    2788                      .dwattr $C$DW$260, DW_AT_name("_acim_Dir_qFmtCalc")
    2789                      .dwattr $C$DW$260, DW_AT_TI_call
    2790 000003a4 7640'         LCR       #_acim_Dir_qFmtCalc   ; [CPU_] |386| 
         000003a5 017E 
    2791                      ; call occurs [#_acim_Dir_qFmtCalc] ; [] |386| 
    2792 000003a6       $C$L28:    
    2793                      .dwpsn  file "C:/ti/motorware/motorware_1_01_00_16/sw/solutions/instaspin_foc/src/proj_lab02b.c",line
    2794 000003a6 D018          MOVB      XAR0,#24              ; [CPU_] |390| 
    2795 000003a7 8A91          MOVL      XAR4,*+XAR1[AR0]      ; [CPU_] |390| 
    2796 000003a8 8D40-         MOVL      XAR1,#_gMotorVars     ; [CPU_U] |390| 
         000003a9 0040 
    2797 000003aa 92D9          MOV       AL,*+XAR1[3]          ; [CPU_] |390| 
    2798              $C$DW$261       .dwtag  DW_TAG_TI_branch
    2799                      .dwattr $C$DW$261, DW_AT_low_pc(0x00)
    2800                      .dwattr $C$DW$261, DW_AT_name("_EST_setFlag_enableForceAngle")
    2801                      .dwattr $C$DW$261, DW_AT_TI_call
    2802 000003ab 7640!         LCR       #_EST_setFlag_enableForceAngle ; [CPU_] |390| 
         000003ac 0000 
TMS320C2000 Assembler PC v6.4.11 Wed Nov 23 09:26:04 2016

Tools Copyright (c) 1996-2015 Texas Instruments Incorporated
C:\Users\bee25\AppData\Local\Temp\3596410                            PAGE   57

    2803                      ; call occurs [#_EST_setFlag_enableForceAngle] ; [] |390| 
    2804                      .dwpsn  file "C:/ti/motorware/motorware_1_01_00_16/sw/solutions/instaspin_foc/src/proj_lab02b.c",line
    2805 000003ad D008          MOVB      XAR0,#8               ; [CPU_] |393| 
    2806 000003ae 761F-         MOVW      DP,#_ctrlHandle       ; [CPU_U] 
         000003af 0000 
    2807                      .dwpsn  file "C:/ti/motorware/motorware_1_01_00_16/sw/modules/ctrl/src/32b/ctrl.h",line 1262,column 3
    2808 000003b0 02F2          MOVB      ACC,#242              ; [CPU_] |1262| 
    2809                      .dwpsn  file "C:/ti/motorware/motorware_1_01_00_16/sw/solutions/instaspin_foc/src/proj_lab02b.c",line
    2810 000003b1 8891          MOVZ      AR6,*+XAR1[AR0]       ; [CPU_] |393| 
    2811                      .dwpsn  file "C:/ti/motorware/motorware_1_01_00_16/sw/modules/ctrl/src/32b/ctrl.h",line 1262,column 3
    2812 000003b2 0706-         ADDL      ACC,@_ctrlHandle      ; [CPU_] |1262| 
    2813 000003b3 8AA9          MOVL      XAR4,ACC              ; [CPU_] |1262| 
    2814 000003b4 761F-         MOVW      DP,#_halHandle        ; [CPU_U] 
         000003b5 0000 
    2815                      .dwpsn  file "C:/ti/motorware/motorware_1_01_00_16/sw/solutions/instaspin_foc/src/proj_lab02b.c",line
    2816 000003b6 83A2          MOVL      XAR5,XAR2             ; [CPU_] |396| 
    2817                      .dwpsn  file "C:/ti/motorware/motorware_1_01_00_16/sw/modules/ctrl/src/32b/ctrl.h",line 1262,column 3
    2818 000003b7 7EC4          MOV       *+XAR4[0],AR6         ; [CPU_] |1262| 
    2819                      .dwpsn  file "C:/ti/motorware/motorware_1_01_00_16/sw/solutions/instaspin_foc/src/proj_lab02b.c",line
    2820 000003b8 8A00-         MOVL      XAR4,@_halHandle      ; [CPU_] |396| 
    2821              $C$DW$262       .dwtag  DW_TAG_TI_branch
    2822                      .dwattr $C$DW$262, DW_AT_low_pc(0x00)
    2823                      .dwattr $C$DW$262, DW_AT_name("_HAL_writeDrvData")
    2824                      .dwattr $C$DW$262, DW_AT_TI_call
    2825 000003b9 7640!         LCR       #_HAL_writeDrvData    ; [CPU_] |396| 
         000003ba 0000 
    2826                      ; call occurs [#_HAL_writeDrvData] ; [] |396| 
    2827 000003bb 761F-         MOVW      DP,#_halHandle        ; [CPU_U] 
         000003bc 0000 
    2828                      .dwpsn  file "C:/ti/motorware/motorware_1_01_00_16/sw/solutions/instaspin_foc/src/proj_lab02b.c",line
    2829 000003bd 83A2          MOVL      XAR5,XAR2             ; [CPU_] |398| 
    2830 000003be 8A00-         MOVL      XAR4,@_halHandle      ; [CPU_] |398| 
    2831              $C$DW$263       .dwtag  DW_TAG_TI_branch
    2832                      .dwattr $C$DW$263, DW_AT_low_pc(0x00)
    2833                      .dwattr $C$DW$263, DW_AT_name("_HAL_readDrvData")
    2834                      .dwattr $C$DW$263, DW_AT_TI_call
    2835 000003bf 7640!         LCR       #_HAL_readDrvData     ; [CPU_] |398| 
         000003c0 0000 
    2836                      ; call occurs [#_HAL_readDrvData] ; [] |398| 
    2837 000003c1 761F-         MOVW      DP,#_ctrlHandle       ; [CPU_U] 
         000003c2 0000 
    2838 000003c3 8B06-         MOVL      XAR1,@_ctrlHandle     ; [CPU_] |398| 
    2839 000003c4       $C$L29:    
    2840                      .dwpsn  file "C:/ti/motorware/motorware_1_01_00_16/sw/solutions/instaspin_foc/src/proj_lab02b.c",line
    2841 000003c4 8DC0-         MOVL      XAR3,#_gMotorVars     ; [CPU_U] |262| 
         000003c5 0040 
    2842 000003c6 92C3          MOV       AL,*+XAR3[0]          ; [CPU_] |262| 
    2843 000003c7 56C0          BF        $C$L11,NEQ            ; [CPU_] |262| 
         000003c8 FE8F 
    2844                      ; branchcc occurs ; [] |262| 
    2845 000003c9 761F-         MOVW      DP,#_halHandle        ; [CPU_U] 
         000003ca 0000 
    2846                      .dwpsn  file "C:/ti/motorware/motorware_1_01_00_16/sw/modules/hal/boards/boostxldrv8301_revB/f28x/f28
    2847 000003cb 8300-         MOVL      XAR5,@_halHandle      ; [CPU_] |255| 
    2848 000003cc 8AA5          MOVL      XAR4,XAR5             ; [CPU_] |255| 
TMS320C2000 Assembler PC v6.4.11 Wed Nov 23 09:26:04 2016

Tools Copyright (c) 1996-2015 Texas Instruments Incorporated
C:\Users\bee25\AppData\Local\Temp\3596410                            PAGE   58

    2849 000003cd DC7E          ADDB      XAR4,#126             ; [CPU_] |255| 
    2850 000003ce 7622   EALLOW
    2851                      .dwpsn  file "C:/ti/motorware/motorware_1_01_00_16/sw/drivers/pwm/src/32b/f28x/f2802x/pwm.h",line 156
    2852 000003cf D07C          MOVB      XAR0,#124             ; [CPU_] |1567| 
    2853 000003d0 0218          MOVB      ACC,#24               ; [CPU_] |1567| 
    2854 000003d1 0795          ADDL      ACC,*+XAR5[AR0]       ; [CPU_] |1567| 
    2855 000003d2 83A9          MOVL      XAR5,ACC              ; [CPU_] |1567| 
    2856 000003d3 1AC5          OR        *+XAR5[0],#0x0004     ; [CPU_] |1567| 
         000003d4 0004 
    2857 000003d5 761A   EDIS
    2858 000003d6 7622   EALLOW
    2859 000003d7 0218          MOVB      ACC,#24               ; [CPU_] |1567| 
    2860 000003d8 07C4          ADDL      ACC,*+XAR4[0]         ; [CPU_] |1567| 
    2861 000003d9 83A9          MOVL      XAR5,ACC              ; [CPU_] |1567| 
    2862 000003da 1AC5          OR        *+XAR5[0],#0x0004     ; [CPU_] |1567| 
         000003db 0004 
    2863 000003dc 761A   EDIS
    2864 000003dd 7622   EALLOW
    2865 000003de 0218          MOVB      ACC,#24               ; [CPU_] |1567| 
    2866 000003df 07D4          ADDL      ACC,*+XAR4[2]         ; [CPU_] |1567| 
    2867 000003e0 8AA9          MOVL      XAR4,ACC              ; [CPU_] |1567| 
    2868 000003e1 1AC4          OR        *+XAR4[0],#0x0004     ; [CPU_] |1567| 
         000003e2 0004 
    2869 000003e3 761A   EDIS
    2870 000003e4 FF69          SPM       #0                    ; [CPU_] 
    2871                      .dwpsn  file "C:/ti/motorware/motorware_1_01_00_16/sw/solutions/instaspin_foc/src/proj_lab02b.c",line
    2872 000003e5 8AA1          MOVL      XAR4,XAR1             ; [CPU_] |412| 
    2873 000003e6 834A          MOVL      XAR5,*-SP[10]         ; [CPU_] |412| 
    2874              $C$DW$264       .dwtag  DW_TAG_TI_branch
    2875                      .dwattr $C$DW$264, DW_AT_low_pc(0x00)
    2876                      .dwattr $C$DW$264, DW_AT_name("_CTRL_setParams")
    2877                      .dwattr $C$DW$264, DW_AT_TI_call
    2878 000003e7 7640!         LCR       #_CTRL_setParams      ; [CPU_] |412| 
         000003e8 0000 
    2879                      ; call occurs [#_CTRL_setParams] ; [] |412| 
    2880 000003e9 761F-         MOVW      DP,#_gMotorVars+1     ; [CPU_U] 
         000003ea 0001 
    2881                      .dwpsn  file "C:/ti/motorware/motorware_1_01_00_16/sw/solutions/instaspin_foc/src/proj_lab02b.c",line
    2882 000003eb 2B01-         MOV       @_gMotorVars+1,#0     ; [CPU_] |413| 
    2883 000003ec 761F-         MOVW      DP,#_ctrlHandle       ; [CPU_U] 
         000003ed 0000 
    2884                      .dwpsn  file "C:/ti/motorware/motorware_1_01_00_16/sw/solutions/instaspin_foc/src/proj_lab02b.c",line
    2885 000003ee 8B06-         MOVL      XAR1,@_ctrlHandle     ; [CPU_] |415| 
    2886 000003ef FFEF          B         $C$L10,UNC            ; [CPU_] |415| 
         000003f0 FE61 
    2887                      ; branch occurs ; [] |415| 
    2888 000003f1       $C$L30:    
    2889 000003f1 761F-         MOVW      DP,#_gMotorVars       ; [CPU_U] 
         000003f2 0001 
    2890                      .dwpsn  file "C:/ti/motorware/motorware_1_01_00_16/sw/solutions/instaspin_foc/src/proj_lab02b.c",line
    2891 000003f3 2B00-         MOV       @_gMotorVars,#0       ; [CPU_] |177| 
    2892                      .dwpsn  file "C:/ti/motorware/motorware_1_01_00_16/sw/solutions/instaspin_foc/src/proj_lab02b.c",line
    2893 000003f4 6FFD          B         $C$L30,UNC            ; [CPU_] |178| 
    2894                      ; branch occurs ; [] |178| 
    2895                      .dwattr $C$DW$212, DW_AT_TI_end_file("C:/ti/motorware/motorware_1_01_00_16/sw/solutions/instaspin_foc
TMS320C2000 Assembler PC v6.4.11 Wed Nov 23 09:26:04 2016

Tools Copyright (c) 1996-2015 Texas Instruments Incorporated
C:\Users\bee25\AppData\Local\Temp\3596410                            PAGE   59

    2896                      .dwattr $C$DW$212, DW_AT_TI_end_line(0x1a1)
    2897                      .dwattr $C$DW$212, DW_AT_TI_end_column(0x01)
    2898                      .dwendentry
    2899                      .dwendtag $C$DW$212
    2900              
    2901              ;***************************************************************
    2902              ;* FLOATING-POINT CONSTANTS                                    *
    2903              ;***************************************************************
    2904 00000000               .sect   ".econst"
    2905                      .align  2
    2906 00000000 0000  $C$FL1: .xldouble       $strtod("0x1p+24")
         00000001 0000 
         00000002 0000 
         00000003 4170 
    2907              ;**************************************************************
    2908              ;* UNDEFINED EXTERNAL REFERENCES                              *
    2909              ;**************************************************************
    2910                      .global _CTRL_setSpd_ref_krpm
    2911                      .global _CTRL_setup
    2912                      .global _HAL_enableGlobalInts
    2913                      .global _HAL_enableDrv
    2914                      .global _HAL_enableAdcInts
    2915                      .global _HAL_enableDebugInt
    2916                      .global _CTRL_run
    2917                      .global _CTRL_setParams
    2918                      .global _CTRL_getVersion
    2919                      .global _HAL_readDrvData
    2920                      .global _HAL_setupDrvSpi
    2921                      .global _HAL_writeDrvData
    2922                      .global _HAL_setupFaults
    2923                      .global _HAL_setParams
    2924                      .global _GPIO_toggle
    2925                      .global _USER_setParams
    2926                      .global _USER_checkForErrors
    2927                      .global _EST_setFe_neg_max_pu
    2928                      .global _EST_setFe_pos_min_pu
    2929                      .global _EST_setDir_qFmt
    2930                      .global _EST_setMaxCurrentSlope_pu
    2931                      .global _USER_calcPIgains
    2932                      .global _memCopy
    2933                      .global _USER_softwareUpdate1p6
    2934                      .global _EST_setFlag_enableForceAngle
    2935                      .global _EST_getState
    2936                      .global _EST_isMotorIdentified
    2937                      .global _EST_computeDirection_qFmt
    2938                      .global _USER_getErrorCode
    2939                      .global _CTRL_updateState
    2940                      .global _RamfuncsLoadStart
    2941                      .global _switch_end
    2942                      .global _econst_start
    2943                      .global _switch_start
    2944                      .global _econst_end
    2945                      .global _RamfuncsRunStart
    2946                      .global _RamfuncsLoadEnd
    2947                      .global _switch_ram_load
TMS320C2000 Assembler PC v6.4.11 Wed Nov 23 09:26:04 2016

Tools Copyright (c) 1996-2015 Texas Instruments Incorporated
C:\Users\bee25\AppData\Local\Temp\3596410                            PAGE   60

    2948                      .global _CTRL_initCtrl
    2949                      .global _HAL_init
    2950                      .global _EST_getSpeed_krpm
    2951                      .global _EST_getRr_Ohm
    2952                      .global _EST_getRs_Ohm
    2953                      .global _EST_getMaxCurrentSlope_pu
    2954                      .global _EST_getIdRated
    2955                      .global _EST_getLs_d_H
    2956                      .global _EST_getFlux_VpHz
    2957                      .global _EST_get_pu_to_krpm_sf
    2958                      .global _econst_ram_load
    2959                      .global _EST_getLs_q_H
    2960                      .global _hal
    2961                      .global FD$$MPY
    2962                      .global FS$$TOFD
    2963                      .global FS$$MPY
    2964                      .global FS$$DIV
    2965                      .global FD$$TOL
    2966                      .global L$$DIV
    2967                      .global L$$TOFS
    2968                      .global FS$$CMP
    2969              
    2970              ;***************************************************************
    2971              ;* TYPE INFORMATION                                            *
    2972              ;***************************************************************
    2973              
    2974              $C$DW$T$39      .dwtag  DW_TAG_enumeration_type
    2975                      .dwattr $C$DW$T$39, DW_AT_byte_size(0x01)
    2976              $C$DW$265       .dwtag  DW_TAG_enumerator, DW_AT_name("CTRL_State_Error"), DW_AT_const_value(0x00)
    2977              $C$DW$266       .dwtag  DW_TAG_enumerator, DW_AT_name("CTRL_State_Idle"), DW_AT_const_value(0x01)
    2978              $C$DW$267       .dwtag  DW_TAG_enumerator, DW_AT_name("CTRL_State_OffLine"), DW_AT_const_value(0x02)
    2979              $C$DW$268       .dwtag  DW_TAG_enumerator, DW_AT_name("CTRL_State_OnLine"), DW_AT_const_value(0x03)
    2980              $C$DW$269       .dwtag  DW_TAG_enumerator, DW_AT_name("CTRL_numStates"), DW_AT_const_value(0x04)
    2981                      .dwendtag $C$DW$T$39
    2982              
    2983              $C$DW$T$40      .dwtag  DW_TAG_typedef, DW_AT_name("CTRL_State_e")
    2984                      .dwattr $C$DW$T$40, DW_AT_type(*$C$DW$T$39)
    2985                      .dwattr $C$DW$T$40, DW_AT_language(DW_LANG_C)
    2986              
    2987              $C$DW$T$41      .dwtag  DW_TAG_enumeration_type
    2988                      .dwattr $C$DW$T$41, DW_AT_byte_size(0x01)
    2989              $C$DW$270       .dwtag  DW_TAG_enumerator, DW_AT_name("CTRL_ErrorCode_NoError"), DW_AT_const_value(0x00)
    2990              $C$DW$271       .dwtag  DW_TAG_enumerator, DW_AT_name("CTRL_ErrorCode_IdClip"), DW_AT_const_value(0x01)
    2991              $C$DW$272       .dwtag  DW_TAG_enumerator, DW_AT_name("CTRL_ErrorCode_EstError"), DW_AT_const_value(0x02)
    2992              $C$DW$273       .dwtag  DW_TAG_enumerator, DW_AT_name("CTRL_numErrorCodes"), DW_AT_const_value(0x03)
    2993                      .dwendtag $C$DW$T$41
    2994              
    2995              $C$DW$T$42      .dwtag  DW_TAG_typedef, DW_AT_name("CTRL_ErrorCode_e")
    2996                      .dwattr $C$DW$T$42, DW_AT_type(*$C$DW$T$41)
    2997                      .dwattr $C$DW$T$42, DW_AT_language(DW_LANG_C)
    2998              
    2999              $C$DW$T$72      .dwtag  DW_TAG_enumeration_type
    3000                      .dwattr $C$DW$T$72, DW_AT_byte_size(0x01)
    3001              $C$DW$274       .dwtag  DW_TAG_enumerator, DW_AT_name("CTRL_TargetProc_2806x"), DW_AT_const_value(0x00)
    3002              $C$DW$275       .dwtag  DW_TAG_enumerator, DW_AT_name("CTRL_TargetProc_2805x"), DW_AT_const_value(0x01)
TMS320C2000 Assembler PC v6.4.11 Wed Nov 23 09:26:04 2016

Tools Copyright (c) 1996-2015 Texas Instruments Incorporated
C:\Users\bee25\AppData\Local\Temp\3596410                            PAGE   61

    3003              $C$DW$276       .dwtag  DW_TAG_enumerator, DW_AT_name("CTRL_TargetProc_2803x"), DW_AT_const_value(0x02)
    3004              $C$DW$277       .dwtag  DW_TAG_enumerator, DW_AT_name("CTRL_TargetProc_2802x"), DW_AT_const_value(0x03)
    3005              $C$DW$278       .dwtag  DW_TAG_enumerator, DW_AT_name("CTRL_TargetProc_Unknown"), DW_AT_const_value(0x04)
    3006                      .dwendtag $C$DW$T$72
    3007              
    3008              $C$DW$T$73      .dwtag  DW_TAG_typedef, DW_AT_name("CTRL_TargetProc_e")
    3009                      .dwattr $C$DW$T$73, DW_AT_type(*$C$DW$T$72)
    3010                      .dwattr $C$DW$T$73, DW_AT_language(DW_LANG_C)
    3011              
    3012              $C$DW$T$79      .dwtag  DW_TAG_enumeration_type
    3013                      .dwattr $C$DW$T$79, DW_AT_byte_size(0x01)
    3014              $C$DW$279       .dwtag  DW_TAG_enumerator, DW_AT_name("GPIO_Number_0"), DW_AT_const_value(0x00)
    3015              $C$DW$280       .dwtag  DW_TAG_enumerator, DW_AT_name("GPIO_Number_1"), DW_AT_const_value(0x01)
    3016              $C$DW$281       .dwtag  DW_TAG_enumerator, DW_AT_name("GPIO_Number_2"), DW_AT_const_value(0x02)
    3017              $C$DW$282       .dwtag  DW_TAG_enumerator, DW_AT_name("GPIO_Number_3"), DW_AT_const_value(0x03)
    3018              $C$DW$283       .dwtag  DW_TAG_enumerator, DW_AT_name("GPIO_Number_4"), DW_AT_const_value(0x04)
