TMS320C2000 Assembler PC v6.4.11 Wed Nov 23 10:34:31 2016

Tools Copyright (c) 1996-2015 Texas Instruments Incorporated
C:\Users\bee25\AppData\Local\Temp\3793210                            PAGE    1

       1              ;***************************************************************
       2              ;* TMS320C2000 C/C++ Codegen                        PC v6.4.11 *
       3              ;* Date/Time created: Wed Nov 23 10:34:30 2016                 *
       4              ;***************************************************************
       5                      .compiler_opts --float_support=softlib --hll_source=on --mem_model:code=flat --mem_model:data=large -
       6        0002  FP      .set    XAR2
       7              
       8              $C$DW$CU        .dwtag  DW_TAG_compile_unit
       9                      .dwattr $C$DW$CU, DW_AT_name("C:/ti/motorware/motorware_1_01_00_16/sw/solutions/instaspin_foc/src/pro
      10                      .dwattr $C$DW$CU, DW_AT_producer("TI TMS320C2000 C/C++ Codegen PC v6.4.11 Copyright (c) 1996-2015 Tex
      11                      .dwattr $C$DW$CU, DW_AT_TI_version(0x01)
      12                      .dwattr $C$DW$CU, DW_AT_comp_dir("C:\ti\motorware\motorware_1_01_00_16\sw\solutions\instaspin_foc\boa
      13              ;**************************************************************
      14              ;* CINIT RECORDS                                              *
      15              ;**************************************************************
      16 00000000               .sect   ".cinit"
      17                      .align  1
      18 00000000 FFFF          .field          -1,16
      19 00000001 0000-         .field          _gLEDcnt+0,32
         00000002 0000 
      20 00000003 0000          .bits   0,16                    ; _gLEDcnt @ 0
      21              
      22 00000004               .sect   ".cinit"
      23                      .align  1
      24 00000004 FFFF          .field          -1,16
      25 00000005 0001-         .field          _gCurrentTrajectoryClk+0,32
         00000006 0000 
      26 00000007 0000          .bits   0,16                    ; _gCurrentTrajectoryClk @ 0
      27              
      28 00000008               .sect   ".cinit"
      29                      .align  1
      30 00000008 FFFF          .field          -1,16
      31 00000009 0002-         .field          _data+0,32
         0000000a 0000 
      32 0000000b 0000          .bits   0,16                    ; _data @ 0
      33              
      34 0000000c               .sect   ".cinit"
      35                      .align  1
      36 0000000c FFFF          .field          -1,16
      37 0000000d 0003-         .field          _i2cstatus+0,32
         0000000e 0000 
      38 0000000f 0000          .bits   0,16                    ; _i2cstatus @ 0
      39              
      40 00000010               .sect   ".cinit"
      41                      .align  1
      42 00000010 FFFF          .field          -1,16
      43 00000011 0004-         .field          _gCounter_updateGlobals+0,32
         00000012 0000 
      44 00000013 0000          .bits   0,16                    ; _gCounter_updateGlobals @ 0
      45              
      46 00000014               .sect   ".cinit"
      47                      .align  1
      48 00000014 FFFF          .field          -1,16
      49 00000015 0005-         .field          _speed+0,32
         00000016 0000 
TMS320C2000 Assembler PC v6.4.11 Wed Nov 23 10:34:31 2016

Tools Copyright (c) 1996-2015 Texas Instruments Incorporated
C:\Users\bee25\AppData\Local\Temp\3793210                            PAGE    2

      50 00000017 0000          .bits   0,16                    ; _speed @ 0
      51              
      52 00000018               .sect   ".cinit"
      53                      .align  1
      54 00000018 FFFF          .field          -1,16
      55 00000019 0006-         .field          _Flag_Latch_softwareUpdate+0,32
         0000001a 0000 
      56 0000001b 0001          .bits   1,16                    ; _Flag_Latch_softwareUpdate @ 0
      57              
      58 0000001c               .sect   ".cinit"
      59                      .align  1
      60 0000001c FFFE          .field          -2,16
      61 0000001d 000A-         .field          _current$1+0,32
         0000001e 0000 
      62 0000001f 0000          .bits   0,32                    ; _current$1 @ 0
         00000020 0000 
      63              
      64 00000021               .sect   ".cinit"
      65                      .align  1
      66 00000021 FFFE          .field          -2,16
      67 00000022 000C-         .field          _motor_power_W+0,32
         00000023 0000 
      68 00000024 0000          .xfloat $strtod("0x0p+0")               ; _motor_power_W @ 0
         00000025 0000 
      69              
      70 00000026               .sect   ".cinit"
      71                      .align  1
      72 00000026 FFFE          .field          -2,16
      73 00000027 000E-         .field          _gMaxCurrentSlope+0,32
         00000028 0000 
      74 00000029 0000          .bits   0,32                    ; _gMaxCurrentSlope @ 0
         0000002a 0000 
      75              
      76 0000002b               .sect   ".cinit"
      77                      .align  1
      78 0000002b FFFE          .field          -2,16
      79 0000002c 0018-         .field          _input_power_W+0,32
         0000002d 0000 
      80 0000002e 0000          .xfloat $strtod("0x0p+0")               ; _input_power_W @ 0
         0000002f 0000 
      81              
      82 00000030               .sect   ".cinit"
      83                      .align  1
      84 00000030 FFFE          .field          -2,16
      85 00000031 001A-         .field          _gCurrentTrajectoryInc+0,32
         00000032 0000 
      86 00000033 0000          .xfloat $strtod("0x0p+0")               ; _gCurrentTrajectoryInc @ 0
         00000034 0000 
      87              
      88 00000035               .sect   ".cinit"
      89                      .align  1
      90 00000035 FFFE          .field          -2,16
      91 00000036 001C-         .field          _startup+0,32
         00000037 0000 
      92 00000038 0000          .bits   0,32                    ; _startup @ 0
TMS320C2000 Assembler PC v6.4.11 Wed Nov 23 10:34:31 2016

Tools Copyright (c) 1996-2015 Texas Instruments Incorporated
C:\Users\bee25\AppData\Local\Temp\3793210                            PAGE    3

         00000039 0000 
      93              
      94 0000003a               .sect   ".cinit"
      95                      .align  1
      96 0000003a FFFE          .field          -2,16
      97 0000003b 001E-         .field          _gTorque_ref_current+0,32
         0000003c 0000 
      98 0000003d 0000          .bits   0,32                    ; _gTorque_ref_current @ 0
         0000003e 0000 
      99              
     100 0000003f               .sect   ".cinit"
     101                      .align  1
     102 0000003f FFFE          .field          -2,16
     103 00000040 0020-         .field          _ginput_power_sf+0,32
         00000041 0000 
     104 00000042 0000          .xfloat $strtod("0x0p+0")               ; _ginput_power_sf @ 0
         00000043 0000 
     105              
     106 00000044               .sect   ".cinit"
     107                      .align  1
     108 00000044 FFFE          .field          -2,16
     109 00000045 0022-         .field          _startcount+0,32
         00000046 0000 
     110 00000047 0000          .bits   0,32                    ; _startcount @ 0
         00000048 0000 
     111              
     112 00000049               .sect   ".cinit"
     113                      .align  1
     114 00000049 FFFE          .field          -2,16
     115 0000004a 0024-         .field          _gSpd_ref_current+0,32
         0000004b 0000 
     116 0000004c 0000          .bits   0,32                    ; _gSpd_ref_current @ 0
         0000004d 0000 
     117              
     118 0000004e               .sect   ".cinit"
     119                      .align  1
     120 0000004e FFFA          .field          -$C$IR_1,16
     121 0000004f 002C-         .field          _gPwmData+0,32
         00000050 0000 
     122 00000051 0000          .bits   0,32                    ; _gPwmData._Tabc._value[0] @ 0
         00000052 0000 
     123 00000053 0000          .bits   0,32                    ; _gPwmData._Tabc._value[1] @ 32
         00000054 0000 
     124 00000055 0000          .bits   0,32                    ; _gPwmData._Tabc._value[2] @ 64
         00000056 0000 
     125        0006  $C$IR_1:        .set    6
     126              
     127 00000057               .sect   ".cinit"
     128                      .align  1
     129 00000057 FF98          .field          -$C$IR_2,16
     130 00000058 0080-         .field          _gMotorVars+0,32
         00000059 0000 
     131 0000005a 0000          .bits   0,16                    ; _gMotorVars._Flag_enableSys @ 0
     132 0000005b 0000          .bits   0,16                    ; _gMotorVars._Flag_Run_Identify @ 16
     133 0000005c 0000          .bits   0,16                    ; _gMotorVars._Flag_MotorIdentified @ 32
TMS320C2000 Assembler PC v6.4.11 Wed Nov 23 10:34:31 2016

Tools Copyright (c) 1996-2015 Texas Instruments Incorporated
C:\Users\bee25\AppData\Local\Temp\3793210                            PAGE    4

     134 0000005d 0001          .bits   1,16                    ; _gMotorVars._Flag_enableForceAngle @ 48
     135 0000005e 0000          .bits   0,16                    ; _gMotorVars._Flag_enableFieldWeakening @ 64
     136 0000005f 0000          .bits   0,16                    ; _gMotorVars._Flag_enableRsRecalc @ 80
     137 00000060 0001          .bits   1,16                    ; _gMotorVars._Flag_enableUserParams @ 96
     138 00000061 0001          .bits   1,16                    ; _gMotorVars._Flag_enableOffsetcalc @ 112
     139 00000062 0000          .bits   0,16                    ; _gMotorVars._Flag_enablePowerWarp @ 128
     140 00000063 0000          .bits   0,16                    ; _gMotorVars._Flag_enableSpeedCtrl @ 144
     141 00000064 0001          .bits   1,16                    ; _gMotorVars._startup @ 160
     142 00000065 0001          .bits   1,16                    ; _gMotorVars._CtrlState @ 176
     143 00000066 0001          .bits   1,16                    ; _gMotorVars._EstState @ 192
     144 00000067 0000          .bits   0,16                    ; _gMotorVars._UserErrorCode @ 208
     145 00000068 0000          .bits   0,16                    ; _gMotorVars._CtrlVersion._rsvd @ 224
     146 00000069 0004          .bits   4,16                    ; _gMotorVars._CtrlVersion._targetProc @ 240
     147 0000006a 0000          .bits   0,16                    ; _gMotorVars._CtrlVersion._major @ 256
     148 0000006b 0000          .bits   0,16                    ; _gMotorVars._CtrlVersion._minor @ 272
     149 0000006c 0000          .bits   0,32                    ; _gMotorVars._IdRef_A @ 288
         0000006d 0000 
     150 0000006e 0000          .bits   0,32                    ; _gMotorVars._IqRef_A @ 320
         0000006f 0000 
     151 00000070 0000          .bits   0,32                    ; _gMotorVars._SpeedRef_pu @ 352
         00000071 0000 
     152 00000072 9999          .bits   1677721,32                      ; _gMotorVars._SpeedRef_krpm @ 384
         00000073 0019 
     153 00000074 0000          .bits   0,32                    ; _gMotorVars._SpeedTraj_krpm @ 416
         00000075 0000 
     154 00000076 3333          .bits   3355443,32                      ; _gMotorVars._MaxAccel_krpmps @ 448
         00000077 0033 
     155 00000078 0000          .bits   0,32                    ; _gMotorVars._Speed_krpm @ 480
         00000079 0000 
     156 0000007a 0000          .bits   8388608,32                      ; _gMotorVars._OverModulation @ 512
         0000007b 0080 
     157 0000007c CCCE          .bits   30198990,32                     ; _gMotorVars._RsOnLineCurrent_A @ 544
         0000007d 01CC 
     158 0000007e 0190          .bits   400,32                  ; _gMotorVars._SvgenMaxModulation_ticks @ 576
         0000007f 0000 
     159 00000080 0000          .bits   0,32                    ; _gMotorVars._Flux_Wb @ 608
         00000081 0000 
     160 00000082 0000          .bits   0,32                    ; _gMotorVars._Torque_Nm @ 640
         00000083 0000 
     161 00000084 0000          .xfloat $strtod("0x0p+0")               ; _gMotorVars._MagnCurr_A @ 672
         00000085 0000 
     162 00000086 0000          .xfloat $strtod("0x0p+0")               ; _gMotorVars._Rr_Ohm @ 704
         00000087 0000 
     163 00000088 0000          .xfloat $strtod("0x0p+0")               ; _gMotorVars._Rs_Ohm @ 736
         00000089 0000 
     164 0000008a 0000          .xfloat $strtod("0x0p+0")               ; _gMotorVars._RsOnLine_Ohm @ 768
         0000008b 0000 
     165 0000008c 0000          .xfloat $strtod("0x0p+0")               ; _gMotorVars._Lsd_H @ 800
         0000008d 0000 
     166 0000008e 0000          .xfloat $strtod("0x0p+0")               ; _gMotorVars._Lsq_H @ 832
         0000008f 0000 
     167 00000090 0000          .xfloat $strtod("0x0p+0")               ; _gMotorVars._Flux_VpHz @ 864
         00000091 0000 
     168 00000092 0000          .xfloat $strtod("0x0p+0")               ; _gMotorVars._ipd_excFreq_Hz @ 896
         00000093 0000 
TMS320C2000 Assembler PC v6.4.11 Wed Nov 23 10:34:31 2016

Tools Copyright (c) 1996-2015 Texas Instruments Incorporated
C:\Users\bee25\AppData\Local\Temp\3793210                            PAGE    5

     169 00000094 0000          .bits   0,32                    ; _gMotorVars._ipd_Kspd @ 928
         00000095 0000 
     170 00000096 0000          .bits   0,32                    ; _gMotorVars._ipd_excMag_coarse_pu @ 960
         00000097 0000 
     171 00000098 0000          .bits   0,32                    ; _gMotorVars._ipd_excMag_fine_pu @ 992
         00000099 0000 
     172 0000009a 0000          .xfloat $strtod("0x0p+0")               ; _gMotorVars._ipd_waitTime_coarse_sec @ 1024
         0000009b 0000 
     173 0000009c 0000          .xfloat $strtod("0x0p+0")               ; _gMotorVars._ipd_waitTime_fine_sec @ 1056
         0000009d 0000 
     174 0000009e 0000          .bits   0,32                    ; _gMotorVars._Kp_spd @ 1088
         0000009f 0000 
     175 000000a0 0000          .bits   0,32                    ; _gMotorVars._Ki_spd @ 1120
         000000a1 0000 
     176 000000a2 0000          .bits   0,32                    ; _gMotorVars._Kp_Idq @ 1152
         000000a3 0000 
     177 000000a4 0000          .bits   0,32                    ; _gMotorVars._Ki_Idq @ 1184
         000000a5 0000 
     178 000000a6 0000          .bits   0,32                    ; _gMotorVars._Vd @ 1216
         000000a7 0000 
     179 000000a8 0000          .bits   0,32                    ; _gMotorVars._Vq @ 1248
         000000a9 0000 
     180 000000aa 0000          .bits   0,32                    ; _gMotorVars._Vs @ 1280
         000000ab 0000 
     181 000000ac 6666          .bits   6710886,32                      ; _gMotorVars._VsRef @ 1312
         000000ad 0066 
     182 000000ae 0000          .bits   0,32                    ; _gMotorVars._VdcBus_kV @ 1344
         000000af 0000 
     183 000000b0 0000          .bits   0,32                    ; _gMotorVars._Id_A @ 1376
         000000b1 0000 
     184 000000b2 0000          .bits   0,32                    ; _gMotorVars._Iq_A @ 1408
         000000b3 0000 
     185 000000b4 0000          .bits   0,32                    ; _gMotorVars._Is_A @ 1440
         000000b5 0000 
     186 000000b6 0000          .bits   0,32                    ; _gMotorVars._I_bias._value[0] @ 1472
         000000b7 0000 
     187 000000b8 0000          .bits   0,32                    ; _gMotorVars._I_bias._value[1] @ 1504
         000000b9 0000 
     188 000000ba 0000          .bits   0,32                    ; _gMotorVars._I_bias._value[2] @ 1536
         000000bb 0000 
     189 000000bc 0000          .bits   0,32                    ; _gMotorVars._V_bias._value[0] @ 1568
         000000bd 0000 
     190 000000be 0000          .bits   0,32                    ; _gMotorVars._V_bias._value[1] @ 1600
         000000bf 0000 
     191 000000c0 0000          .bits   0,32                    ; _gMotorVars._V_bias._value[2] @ 1632
         000000c1 0000 
     192        0068  $C$IR_2:        .set    104
     193              
     194              
     195              $C$DW$1 .dwtag  DW_TAG_subprogram, DW_AT_name("CTRL_setSpd_ref_krpm")
     196                      .dwattr $C$DW$1, DW_AT_TI_symbol_name("_CTRL_setSpd_ref_krpm")
     197                      .dwattr $C$DW$1, DW_AT_declaration
     198                      .dwattr $C$DW$1, DW_AT_external
     199              $C$DW$2 .dwtag  DW_TAG_formal_parameter
     200                      .dwattr $C$DW$2, DW_AT_type(*$C$DW$T$201)
TMS320C2000 Assembler PC v6.4.11 Wed Nov 23 10:34:31 2016

Tools Copyright (c) 1996-2015 Texas Instruments Incorporated
C:\Users\bee25\AppData\Local\Temp\3793210                            PAGE    6

     201              $C$DW$3 .dwtag  DW_TAG_formal_parameter
     202                      .dwattr $C$DW$3, DW_AT_type(*$C$DW$T$281)
     203                      .dwendtag $C$DW$1
     204              
     205              
     206              $C$DW$4 .dwtag  DW_TAG_subprogram, DW_AT_name("CTRL_setup")
     207                      .dwattr $C$DW$4, DW_AT_TI_symbol_name("_CTRL_setup")
     208                      .dwattr $C$DW$4, DW_AT_declaration
     209                      .dwattr $C$DW$4, DW_AT_external
     210              $C$DW$5 .dwtag  DW_TAG_formal_parameter
     211                      .dwattr $C$DW$5, DW_AT_type(*$C$DW$T$201)
     212                      .dwendtag $C$DW$4
     213              
     214              
     215              $C$DW$6 .dwtag  DW_TAG_subprogram, DW_AT_name("CTRL_setParams")
     216                      .dwattr $C$DW$6, DW_AT_TI_symbol_name("_CTRL_setParams")
     217                      .dwattr $C$DW$6, DW_AT_declaration
     218                      .dwattr $C$DW$6, DW_AT_external
     219              $C$DW$7 .dwtag  DW_TAG_formal_parameter
     220                      .dwattr $C$DW$7, DW_AT_type(*$C$DW$T$201)
     221              $C$DW$8 .dwtag  DW_TAG_formal_parameter
     222                      .dwattr $C$DW$8, DW_AT_type(*$C$DW$T$207)
     223                      .dwendtag $C$DW$6
     224              
     225              
     226              $C$DW$9 .dwtag  DW_TAG_subprogram, DW_AT_name("HAL_enableAdcInts")
     227                      .dwattr $C$DW$9, DW_AT_TI_symbol_name("_HAL_enableAdcInts")
     228                      .dwattr $C$DW$9, DW_AT_declaration
     229                      .dwattr $C$DW$9, DW_AT_external
     230              $C$DW$10        .dwtag  DW_TAG_formal_parameter
     231                      .dwattr $C$DW$10, DW_AT_type(*$C$DW$T$252)
     232                      .dwendtag $C$DW$9
     233              
     234              
     235              $C$DW$11        .dwtag  DW_TAG_subprogram, DW_AT_name("HAL_enableDebugInt")
     236                      .dwattr $C$DW$11, DW_AT_TI_symbol_name("_HAL_enableDebugInt")
     237                      .dwattr $C$DW$11, DW_AT_declaration
     238                      .dwattr $C$DW$11, DW_AT_external
     239              $C$DW$12        .dwtag  DW_TAG_formal_parameter
     240                      .dwattr $C$DW$12, DW_AT_type(*$C$DW$T$252)
     241                      .dwendtag $C$DW$11
     242              
     243              
     244              $C$DW$13        .dwtag  DW_TAG_subprogram, DW_AT_name("CTRL_run")
     245                      .dwattr $C$DW$13, DW_AT_TI_symbol_name("_CTRL_run")
     246                      .dwattr $C$DW$13, DW_AT_declaration
     247                      .dwattr $C$DW$13, DW_AT_external
     248              $C$DW$14        .dwtag  DW_TAG_formal_parameter
     249                      .dwattr $C$DW$14, DW_AT_type(*$C$DW$T$201)
     250              $C$DW$15        .dwtag  DW_TAG_formal_parameter
     251                      .dwattr $C$DW$15, DW_AT_type(*$C$DW$T$252)
     252              $C$DW$16        .dwtag  DW_TAG_formal_parameter
     253                      .dwattr $C$DW$16, DW_AT_type(*$C$DW$T$244)
     254              $C$DW$17        .dwtag  DW_TAG_formal_parameter
     255                      .dwattr $C$DW$17, DW_AT_type(*$C$DW$T$260)
TMS320C2000 Assembler PC v6.4.11 Wed Nov 23 10:34:31 2016

Tools Copyright (c) 1996-2015 Texas Instruments Incorporated
C:\Users\bee25\AppData\Local\Temp\3793210                            PAGE    7

     256                      .dwendtag $C$DW$13
     257              
     258              
     259              $C$DW$18        .dwtag  DW_TAG_subprogram, DW_AT_name("CTRL_getVersion")
     260                      .dwattr $C$DW$18, DW_AT_TI_symbol_name("_CTRL_getVersion")
     261                      .dwattr $C$DW$18, DW_AT_declaration
     262                      .dwattr $C$DW$18, DW_AT_external
     263              $C$DW$19        .dwtag  DW_TAG_formal_parameter
     264                      .dwattr $C$DW$19, DW_AT_type(*$C$DW$T$201)
     265              $C$DW$20        .dwtag  DW_TAG_formal_parameter
     266                      .dwattr $C$DW$20, DW_AT_type(*$C$DW$T$237)
     267                      .dwendtag $C$DW$18
     268              
     269              
     270              $C$DW$21        .dwtag  DW_TAG_subprogram, DW_AT_name("HAL_readDrvData")
     271                      .dwattr $C$DW$21, DW_AT_TI_symbol_name("_HAL_readDrvData")
     272                      .dwattr $C$DW$21, DW_AT_declaration
     273                      .dwattr $C$DW$21, DW_AT_external
     274              $C$DW$22        .dwtag  DW_TAG_formal_parameter
     275                      .dwattr $C$DW$22, DW_AT_type(*$C$DW$T$252)
     276              $C$DW$23        .dwtag  DW_TAG_formal_parameter
     277                      .dwattr $C$DW$23, DW_AT_type(*$C$DW$T$241)
     278                      .dwendtag $C$DW$21
     279              
     280              
     281              $C$DW$24        .dwtag  DW_TAG_subprogram, DW_AT_name("HAL_setupDrvSpi")
     282                      .dwattr $C$DW$24, DW_AT_TI_symbol_name("_HAL_setupDrvSpi")
     283                      .dwattr $C$DW$24, DW_AT_declaration
     284                      .dwattr $C$DW$24, DW_AT_external
     285              $C$DW$25        .dwtag  DW_TAG_formal_parameter
     286                      .dwattr $C$DW$25, DW_AT_type(*$C$DW$T$252)
     287              $C$DW$26        .dwtag  DW_TAG_formal_parameter
     288                      .dwattr $C$DW$26, DW_AT_type(*$C$DW$T$241)
     289                      .dwendtag $C$DW$24
     290              
     291              
     292              $C$DW$27        .dwtag  DW_TAG_subprogram, DW_AT_name("HAL_writeDrvData")
     293                      .dwattr $C$DW$27, DW_AT_TI_symbol_name("_HAL_writeDrvData")
     294                      .dwattr $C$DW$27, DW_AT_declaration
     295                      .dwattr $C$DW$27, DW_AT_external
     296              $C$DW$28        .dwtag  DW_TAG_formal_parameter
     297                      .dwattr $C$DW$28, DW_AT_type(*$C$DW$T$252)
     298              $C$DW$29        .dwtag  DW_TAG_formal_parameter
     299                      .dwattr $C$DW$29, DW_AT_type(*$C$DW$T$241)
     300                      .dwendtag $C$DW$27
     301              
     302              
     303              $C$DW$30        .dwtag  DW_TAG_subprogram, DW_AT_name("HAL_setupFaults")
     304                      .dwattr $C$DW$30, DW_AT_TI_symbol_name("_HAL_setupFaults")
     305                      .dwattr $C$DW$30, DW_AT_declaration
     306                      .dwattr $C$DW$30, DW_AT_external
     307              $C$DW$31        .dwtag  DW_TAG_formal_parameter
     308                      .dwattr $C$DW$31, DW_AT_type(*$C$DW$T$252)
     309                      .dwendtag $C$DW$30
     310              
TMS320C2000 Assembler PC v6.4.11 Wed Nov 23 10:34:31 2016

Tools Copyright (c) 1996-2015 Texas Instruments Incorporated
C:\Users\bee25\AppData\Local\Temp\3793210                            PAGE    8

     311              
     312              $C$DW$32        .dwtag  DW_TAG_subprogram, DW_AT_name("HAL_enableDrv")
     313                      .dwattr $C$DW$32, DW_AT_TI_symbol_name("_HAL_enableDrv")
     314                      .dwattr $C$DW$32, DW_AT_declaration
     315                      .dwattr $C$DW$32, DW_AT_external
     316              $C$DW$33        .dwtag  DW_TAG_formal_parameter
     317                      .dwattr $C$DW$33, DW_AT_type(*$C$DW$T$252)
     318                      .dwendtag $C$DW$32
     319              
     320              
     321              $C$DW$34        .dwtag  DW_TAG_subprogram, DW_AT_name("HAL_setParams")
     322                      .dwattr $C$DW$34, DW_AT_TI_symbol_name("_HAL_setParams")
     323                      .dwattr $C$DW$34, DW_AT_declaration
     324                      .dwattr $C$DW$34, DW_AT_external
     325              $C$DW$35        .dwtag  DW_TAG_formal_parameter
     326                      .dwattr $C$DW$35, DW_AT_type(*$C$DW$T$252)
     327              $C$DW$36        .dwtag  DW_TAG_formal_parameter
     328                      .dwattr $C$DW$36, DW_AT_type(*$C$DW$T$272)
     329                      .dwendtag $C$DW$34
     330              
     331              
     332              $C$DW$37        .dwtag  DW_TAG_subprogram, DW_AT_name("HAL_enableGlobalInts")
     333                      .dwattr $C$DW$37, DW_AT_TI_symbol_name("_HAL_enableGlobalInts")
     334                      .dwattr $C$DW$37, DW_AT_declaration
     335                      .dwattr $C$DW$37, DW_AT_external
     336              $C$DW$38        .dwtag  DW_TAG_formal_parameter
     337                      .dwattr $C$DW$38, DW_AT_type(*$C$DW$T$252)
     338                      .dwendtag $C$DW$37
     339              
     340              
     341              $C$DW$39        .dwtag  DW_TAG_subprogram, DW_AT_name("USER_setParams")
     342                      .dwattr $C$DW$39, DW_AT_TI_symbol_name("_USER_setParams")
     343                      .dwattr $C$DW$39, DW_AT_declaration
     344                      .dwattr $C$DW$39, DW_AT_external
     345              $C$DW$40        .dwtag  DW_TAG_formal_parameter
     346                      .dwattr $C$DW$40, DW_AT_type(*$C$DW$T$207)
     347                      .dwendtag $C$DW$39
     348              
     349              
     350              $C$DW$41        .dwtag  DW_TAG_subprogram, DW_AT_name("USER_softwareUpdate1p6")
     351                      .dwattr $C$DW$41, DW_AT_TI_symbol_name("_USER_softwareUpdate1p6")
     352                      .dwattr $C$DW$41, DW_AT_declaration
     353                      .dwattr $C$DW$41, DW_AT_external
     354              $C$DW$42        .dwtag  DW_TAG_formal_parameter
     355                      .dwattr $C$DW$42, DW_AT_type(*$C$DW$T$201)
     356                      .dwendtag $C$DW$41
     357              
     358              
     359              $C$DW$43        .dwtag  DW_TAG_subprogram, DW_AT_name("USER_calcPIgains")
     360                      .dwattr $C$DW$43, DW_AT_TI_symbol_name("_USER_calcPIgains")
     361                      .dwattr $C$DW$43, DW_AT_declaration
     362                      .dwattr $C$DW$43, DW_AT_external
     363              $C$DW$44        .dwtag  DW_TAG_formal_parameter
     364                      .dwattr $C$DW$44, DW_AT_type(*$C$DW$T$201)
     365                      .dwendtag $C$DW$43
TMS320C2000 Assembler PC v6.4.11 Wed Nov 23 10:34:31 2016

Tools Copyright (c) 1996-2015 Texas Instruments Incorporated
C:\Users\bee25\AppData\Local\Temp\3793210                            PAGE    9

     366              
     367              
     368              $C$DW$45        .dwtag  DW_TAG_subprogram, DW_AT_name("EST_setFlag_enableRsRecalc")
     369                      .dwattr $C$DW$45, DW_AT_TI_symbol_name("_EST_setFlag_enableRsRecalc")
     370                      .dwattr $C$DW$45, DW_AT_declaration
     371                      .dwattr $C$DW$45, DW_AT_external
     372              $C$DW$46        .dwtag  DW_TAG_formal_parameter
     373                      .dwattr $C$DW$46, DW_AT_type(*$C$DW$T$47)
     374              $C$DW$47        .dwtag  DW_TAG_formal_parameter
     375                      .dwattr $C$DW$47, DW_AT_type(*$C$DW$T$278)
     376                      .dwendtag $C$DW$45
     377              
     378              
     379              $C$DW$48        .dwtag  DW_TAG_subprogram, DW_AT_name("EST_setMaxCurrentSlope_pu")
     380                      .dwattr $C$DW$48, DW_AT_TI_symbol_name("_EST_setMaxCurrentSlope_pu")
     381                      .dwattr $C$DW$48, DW_AT_declaration
     382                      .dwattr $C$DW$48, DW_AT_external
     383              $C$DW$49        .dwtag  DW_TAG_formal_parameter
     384                      .dwattr $C$DW$49, DW_AT_type(*$C$DW$T$47)
     385              $C$DW$50        .dwtag  DW_TAG_formal_parameter
     386                      .dwattr $C$DW$50, DW_AT_type(*$C$DW$T$281)
     387                      .dwendtag $C$DW$48
     388              
     389              
     390              $C$DW$51        .dwtag  DW_TAG_subprogram, DW_AT_name("memCopy")
     391                      .dwattr $C$DW$51, DW_AT_TI_symbol_name("_memCopy")
     392                      .dwattr $C$DW$51, DW_AT_declaration
     393                      .dwattr $C$DW$51, DW_AT_external
     394              $C$DW$52        .dwtag  DW_TAG_formal_parameter
     395                      .dwattr $C$DW$52, DW_AT_type(*$C$DW$T$275)
     396              $C$DW$53        .dwtag  DW_TAG_formal_parameter
     397                      .dwattr $C$DW$53, DW_AT_type(*$C$DW$T$275)
     398              $C$DW$54        .dwtag  DW_TAG_formal_parameter
     399                      .dwattr $C$DW$54, DW_AT_type(*$C$DW$T$275)
     400                      .dwendtag $C$DW$51
     401              
     402              
     403              $C$DW$55        .dwtag  DW_TAG_subprogram, DW_AT_name("USER_checkForErrors")
     404                      .dwattr $C$DW$55, DW_AT_TI_symbol_name("_USER_checkForErrors")
     405                      .dwattr $C$DW$55, DW_AT_declaration
     406                      .dwattr $C$DW$55, DW_AT_external
     407              $C$DW$56        .dwtag  DW_TAG_formal_parameter
     408                      .dwattr $C$DW$56, DW_AT_type(*$C$DW$T$207)
     409                      .dwendtag $C$DW$55
     410              
     411              
     412              $C$DW$57        .dwtag  DW_TAG_subprogram, DW_AT_name("EST_setFlag_enableForceAngle")
     413                      .dwattr $C$DW$57, DW_AT_TI_symbol_name("_EST_setFlag_enableForceAngle")
     414                      .dwattr $C$DW$57, DW_AT_declaration
     415                      .dwattr $C$DW$57, DW_AT_external
     416              $C$DW$58        .dwtag  DW_TAG_formal_parameter
     417                      .dwattr $C$DW$58, DW_AT_type(*$C$DW$T$47)
     418              $C$DW$59        .dwtag  DW_TAG_formal_parameter
     419                      .dwattr $C$DW$59, DW_AT_type(*$C$DW$T$278)
     420                      .dwendtag $C$DW$57
TMS320C2000 Assembler PC v6.4.11 Wed Nov 23 10:34:31 2016

Tools Copyright (c) 1996-2015 Texas Instruments Incorporated
C:\Users\bee25\AppData\Local\Temp\3793210                            PAGE   10

     421              
     422                      .global _gLEDcnt
     423 00000000       _gLEDcnt:       .usect  ".ebss",1,1,0
     424              $C$DW$60        .dwtag  DW_TAG_variable, DW_AT_name("gLEDcnt")
     425                      .dwattr $C$DW$60, DW_AT_TI_symbol_name("_gLEDcnt")
     426                      .dwattr $C$DW$60, DW_AT_location[DW_OP_addr _gLEDcnt]
     427                      .dwattr $C$DW$60, DW_AT_type(*$C$DW$T$23)
     428                      .dwattr $C$DW$60, DW_AT_external
     429                      .global _gCurrentTrajectoryClk
     430 00000001       _gCurrentTrajectoryClk: .usect  ".ebss",1,1,0
     431              $C$DW$61        .dwtag  DW_TAG_variable, DW_AT_name("gCurrentTrajectoryClk")
     432                      .dwattr $C$DW$61, DW_AT_TI_symbol_name("_gCurrentTrajectoryClk")
     433                      .dwattr $C$DW$61, DW_AT_location[DW_OP_addr _gCurrentTrajectoryClk]
     434                      .dwattr $C$DW$61, DW_AT_type(*$C$DW$T$23)
     435                      .dwattr $C$DW$61, DW_AT_external
     436              
     437              $C$DW$62        .dwtag  DW_TAG_subprogram, DW_AT_name("HAL_setTorque")
     438                      .dwattr $C$DW$62, DW_AT_TI_symbol_name("_HAL_setTorque")
     439                      .dwattr $C$DW$62, DW_AT_type(*$C$DW$T$10)
     440                      .dwattr $C$DW$62, DW_AT_declaration
     441                      .dwattr $C$DW$62, DW_AT_external
     442              
     443              $C$DW$63        .dwtag  DW_TAG_subprogram, DW_AT_name("HAL_setupI2C")
     444                      .dwattr $C$DW$63, DW_AT_TI_symbol_name("_HAL_setupI2C")
     445                      .dwattr $C$DW$63, DW_AT_type(*$C$DW$T$10)
     446                      .dwattr $C$DW$63, DW_AT_declaration
     447                      .dwattr $C$DW$63, DW_AT_external
     448              
     449              $C$DW$64        .dwtag  DW_TAG_subprogram, DW_AT_name("EST_getState")
     450                      .dwattr $C$DW$64, DW_AT_TI_symbol_name("_EST_getState")
     451                      .dwattr $C$DW$64, DW_AT_type(*$C$DW$T$165)
     452                      .dwattr $C$DW$64, DW_AT_declaration
     453                      .dwattr $C$DW$64, DW_AT_external
     454              $C$DW$65        .dwtag  DW_TAG_formal_parameter
     455                      .dwattr $C$DW$65, DW_AT_type(*$C$DW$T$47)
     456                      .dwendtag $C$DW$64
     457              
     458              
     459              $C$DW$66        .dwtag  DW_TAG_subprogram, DW_AT_name("EST_isMotorIdentified")
     460                      .dwattr $C$DW$66, DW_AT_TI_symbol_name("_EST_isMotorIdentified")
     461                      .dwattr $C$DW$66, DW_AT_type(*$C$DW$T$70)
     462                      .dwattr $C$DW$66, DW_AT_declaration
     463                      .dwattr $C$DW$66, DW_AT_external
     464              $C$DW$67        .dwtag  DW_TAG_formal_parameter
     465                      .dwattr $C$DW$67, DW_AT_type(*$C$DW$T$47)
     466                      .dwendtag $C$DW$66
     467              
     468                      .global _data
     469 00000002       _data:  .usect  ".ebss",1,1,0
     470              $C$DW$68        .dwtag  DW_TAG_variable, DW_AT_name("data")
     471                      .dwattr $C$DW$68, DW_AT_TI_symbol_name("_data")
     472                      .dwattr $C$DW$68, DW_AT_location[DW_OP_addr _data]
     473                      .dwattr $C$DW$68, DW_AT_type(*$C$DW$T$23)
     474                      .dwattr $C$DW$68, DW_AT_external
     475                      .global _i2cstatus
TMS320C2000 Assembler PC v6.4.11 Wed Nov 23 10:34:31 2016

Tools Copyright (c) 1996-2015 Texas Instruments Incorporated
C:\Users\bee25\AppData\Local\Temp\3793210                            PAGE   11

     476 00000003       _i2cstatus:     .usect  ".ebss",1,1,0
     477              $C$DW$69        .dwtag  DW_TAG_variable, DW_AT_name("i2cstatus")
     478                      .dwattr $C$DW$69, DW_AT_TI_symbol_name("_i2cstatus")
     479                      .dwattr $C$DW$69, DW_AT_location[DW_OP_addr _i2cstatus]
     480                      .dwattr $C$DW$69, DW_AT_type(*$C$DW$T$10)
     481                      .dwattr $C$DW$69, DW_AT_external
     482                      .global _gCounter_updateGlobals
     483 00000004       _gCounter_updateGlobals:        .usect  ".ebss",1,1,0
     484              $C$DW$70        .dwtag  DW_TAG_variable, DW_AT_name("gCounter_updateGlobals")
     485                      .dwattr $C$DW$70, DW_AT_TI_symbol_name("_gCounter_updateGlobals")
     486                      .dwattr $C$DW$70, DW_AT_location[DW_OP_addr _gCounter_updateGlobals]
     487                      .dwattr $C$DW$70, DW_AT_type(*$C$DW$T$67)
     488                      .dwattr $C$DW$70, DW_AT_external
     489                      .global _speed
     490 00000005       _speed: .usect  ".ebss",1,1,0
     491              $C$DW$71        .dwtag  DW_TAG_variable, DW_AT_name("speed")
     492                      .dwattr $C$DW$71, DW_AT_TI_symbol_name("_speed")
     493                      .dwattr $C$DW$71, DW_AT_location[DW_OP_addr _speed]
     494                      .dwattr $C$DW$71, DW_AT_type(*$C$DW$T$10)
     495                      .dwattr $C$DW$71, DW_AT_external
     496              
     497              $C$DW$72        .dwtag  DW_TAG_subprogram, DW_AT_name("HAL_calcSpeedkph")
     498                      .dwattr $C$DW$72, DW_AT_TI_symbol_name("_HAL_calcSpeedkph")
     499                      .dwattr $C$DW$72, DW_AT_type(*$C$DW$T$10)
     500                      .dwattr $C$DW$72, DW_AT_declaration
     501                      .dwattr $C$DW$72, DW_AT_external
     502                      .global _Flag_Latch_softwareUpdate
     503 00000006       _Flag_Latch_softwareUpdate:     .usect  ".ebss",1,1,0
     504              $C$DW$73        .dwtag  DW_TAG_variable, DW_AT_name("Flag_Latch_softwareUpdate")
     505                      .dwattr $C$DW$73, DW_AT_TI_symbol_name("_Flag_Latch_softwareUpdate")
     506                      .dwattr $C$DW$73, DW_AT_location[DW_OP_addr _Flag_Latch_softwareUpdate]
     507                      .dwattr $C$DW$73, DW_AT_type(*$C$DW$T$70)
     508                      .dwattr $C$DW$73, DW_AT_external
     509              
     510              $C$DW$74        .dwtag  DW_TAG_subprogram, DW_AT_name("HAL_i2ctest")
     511                      .dwattr $C$DW$74, DW_AT_TI_symbol_name("_HAL_i2ctest")
     512                      .dwattr $C$DW$74, DW_AT_type(*$C$DW$T$10)
     513                      .dwattr $C$DW$74, DW_AT_declaration
     514                      .dwattr $C$DW$74, DW_AT_external
     515              
     516              $C$DW$75        .dwtag  DW_TAG_subprogram, DW_AT_name("CTRL_updateState")
     517                      .dwattr $C$DW$75, DW_AT_TI_symbol_name("_CTRL_updateState")
     518                      .dwattr $C$DW$75, DW_AT_type(*$C$DW$T$70)
     519                      .dwattr $C$DW$75, DW_AT_declaration
     520                      .dwattr $C$DW$75, DW_AT_external
     521              $C$DW$76        .dwtag  DW_TAG_formal_parameter
     522                      .dwattr $C$DW$76, DW_AT_type(*$C$DW$T$201)
     523                      .dwendtag $C$DW$75
     524              
     525              
     526              $C$DW$77        .dwtag  DW_TAG_subprogram, DW_AT_name("USER_getErrorCode")
     527                      .dwattr $C$DW$77, DW_AT_TI_symbol_name("_USER_getErrorCode")
     528                      .dwattr $C$DW$77, DW_AT_type(*$C$DW$T$167)
     529                      .dwattr $C$DW$77, DW_AT_declaration
     530                      .dwattr $C$DW$77, DW_AT_external
TMS320C2000 Assembler PC v6.4.11 Wed Nov 23 10:34:31 2016

Tools Copyright (c) 1996-2015 Texas Instruments Incorporated
C:\Users\bee25\AppData\Local\Temp\3793210                            PAGE   12

     531              $C$DW$78        .dwtag  DW_TAG_formal_parameter
     532                      .dwattr $C$DW$78, DW_AT_type(*$C$DW$T$207)
     533                      .dwendtag $C$DW$77
     534              
     535                      .global _halHandle
     536 00000000       _halHandle:     .usect  "rom_accessed_data",2,1,1
     537              $C$DW$79        .dwtag  DW_TAG_variable, DW_AT_name("halHandle")
     538                      .dwattr $C$DW$79, DW_AT_TI_symbol_name("_halHandle")
     539                      .dwattr $C$DW$79, DW_AT_location[DW_OP_addr _halHandle]
     540                      .dwattr $C$DW$79, DW_AT_type(*$C$DW$T$252)
     541                      .dwattr $C$DW$79, DW_AT_external
     542                      .global _ctrlHandle
     543 00000008       _ctrlHandle:    .usect  ".ebss",2,1,1
     544              $C$DW$80        .dwtag  DW_TAG_variable, DW_AT_name("ctrlHandle")
     545                      .dwattr $C$DW$80, DW_AT_TI_symbol_name("_ctrlHandle")
     546                      .dwattr $C$DW$80, DW_AT_location[DW_OP_addr _ctrlHandle]
     547                      .dwattr $C$DW$80, DW_AT_type(*$C$DW$T$201)
     548                      .dwattr $C$DW$80, DW_AT_external
     549 0000000a       _current$1:     .usect  ".ebss",2,1,1
     550                      .global _motor_power_W
     551 0000000c       _motor_power_W: .usect  ".ebss",2,1,1
     552              $C$DW$81        .dwtag  DW_TAG_variable, DW_AT_name("motor_power_W")
     553                      .dwattr $C$DW$81, DW_AT_TI_symbol_name("_motor_power_W")
     554                      .dwattr $C$DW$81, DW_AT_location[DW_OP_addr _motor_power_W]
     555                      .dwattr $C$DW$81, DW_AT_type(*$C$DW$T$16)
     556                      .dwattr $C$DW$81, DW_AT_external
     557                      .global _gMaxCurrentSlope
     558 0000000e       _gMaxCurrentSlope:      .usect  ".ebss",2,1,1
     559              $C$DW$82        .dwtag  DW_TAG_variable, DW_AT_name("gMaxCurrentSlope")
     560                      .dwattr $C$DW$82, DW_AT_TI_symbol_name("_gMaxCurrentSlope")
     561                      .dwattr $C$DW$82, DW_AT_location[DW_OP_addr _gMaxCurrentSlope]
     562                      .dwattr $C$DW$82, DW_AT_type(*$C$DW$T$32)
     563                      .dwattr $C$DW$82, DW_AT_external
     564                      .global _gFlux_pu_to_VpHz_sf
     565 00000010       _gFlux_pu_to_VpHz_sf:   .usect  ".ebss",2,1,1
     566              $C$DW$83        .dwtag  DW_TAG_variable, DW_AT_name("gFlux_pu_to_VpHz_sf")
     567                      .dwattr $C$DW$83, DW_AT_TI_symbol_name("_gFlux_pu_to_VpHz_sf")
     568                      .dwattr $C$DW$83, DW_AT_location[DW_OP_addr _gFlux_pu_to_VpHz_sf]
     569                      .dwattr $C$DW$83, DW_AT_type(*$C$DW$T$32)
     570                      .dwattr $C$DW$83, DW_AT_external
     571                      .global _gTorque_Ls_Id_Iq_pu_to_Nm_sf
     572 00000012       _gTorque_Ls_Id_Iq_pu_to_Nm_sf:  .usect  ".ebss",2,1,1
     573              $C$DW$84        .dwtag  DW_TAG_variable, DW_AT_name("gTorque_Ls_Id_Iq_pu_to_Nm_sf")
     574                      .dwattr $C$DW$84, DW_AT_TI_symbol_name("_gTorque_Ls_Id_Iq_pu_to_Nm_sf")
     575                      .dwattr $C$DW$84, DW_AT_location[DW_OP_addr _gTorque_Ls_Id_Iq_pu_to_Nm_sf]
     576                      .dwattr $C$DW$84, DW_AT_type(*$C$DW$T$32)
     577                      .dwattr $C$DW$84, DW_AT_external
     578                      .global _gTorque_Flux_Iq_pu_to_Nm_sf
     579 00000014       _gTorque_Flux_Iq_pu_to_Nm_sf:   .usect  ".ebss",2,1,1
     580              $C$DW$85        .dwtag  DW_TAG_variable, DW_AT_name("gTorque_Flux_Iq_pu_to_Nm_sf")
     581                      .dwattr $C$DW$85, DW_AT_TI_symbol_name("_gTorque_Flux_Iq_pu_to_Nm_sf")
     582                      .dwattr $C$DW$85, DW_AT_location[DW_OP_addr _gTorque_Flux_Iq_pu_to_Nm_sf]
     583                      .dwattr $C$DW$85, DW_AT_type(*$C$DW$T$32)
     584                      .dwattr $C$DW$85, DW_AT_external
     585              $C$DW$86        .dwtag  DW_TAG_variable, DW_AT_name("switch_ram_load")
TMS320C2000 Assembler PC v6.4.11 Wed Nov 23 10:34:31 2016

Tools Copyright (c) 1996-2015 Texas Instruments Incorporated
C:\Users\bee25\AppData\Local\Temp\3793210                            PAGE   13

     586                      .dwattr $C$DW$86, DW_AT_TI_symbol_name("_switch_ram_load")
     587                      .dwattr $C$DW$86, DW_AT_type(*$C$DW$T$275)
     588                      .dwattr $C$DW$86, DW_AT_declaration
     589                      .dwattr $C$DW$86, DW_AT_external
     590                      .global _gFlux_pu_to_Wb_sf
     591 00000016       _gFlux_pu_to_Wb_sf:     .usect  ".ebss",2,1,1
     592              $C$DW$87        .dwtag  DW_TAG_variable, DW_AT_name("gFlux_pu_to_Wb_sf")
     593                      .dwattr $C$DW$87, DW_AT_TI_symbol_name("_gFlux_pu_to_Wb_sf")
     594                      .dwattr $C$DW$87, DW_AT_location[DW_OP_addr _gFlux_pu_to_Wb_sf]
     595                      .dwattr $C$DW$87, DW_AT_type(*$C$DW$T$32)
     596                      .dwattr $C$DW$87, DW_AT_external
     597                      .global _input_power_W
     598 00000018       _input_power_W: .usect  ".ebss",2,1,1
     599              $C$DW$88        .dwtag  DW_TAG_variable, DW_AT_name("input_power_W")
     600                      .dwattr $C$DW$88, DW_AT_TI_symbol_name("_input_power_W")
     601                      .dwattr $C$DW$88, DW_AT_location[DW_OP_addr _input_power_W]
     602                      .dwattr $C$DW$88, DW_AT_type(*$C$DW$T$16)
     603                      .dwattr $C$DW$88, DW_AT_external
     604              $C$DW$89        .dwtag  DW_TAG_variable, DW_AT_name("switch_start")
     605                      .dwattr $C$DW$89, DW_AT_TI_symbol_name("_switch_start")
     606                      .dwattr $C$DW$89, DW_AT_type(*$C$DW$T$275)
     607                      .dwattr $C$DW$89, DW_AT_declaration
     608                      .dwattr $C$DW$89, DW_AT_external
     609              $C$DW$90        .dwtag  DW_TAG_variable, DW_AT_name("econst_ram_load")
     610                      .dwattr $C$DW$90, DW_AT_TI_symbol_name("_econst_ram_load")
     611                      .dwattr $C$DW$90, DW_AT_type(*$C$DW$T$275)
     612                      .dwattr $C$DW$90, DW_AT_declaration
     613                      .dwattr $C$DW$90, DW_AT_external
     614              $C$DW$91        .dwtag  DW_TAG_variable, DW_AT_name("RamfuncsLoadStart")
     615                      .dwattr $C$DW$91, DW_AT_TI_symbol_name("_RamfuncsLoadStart")
     616                      .dwattr $C$DW$91, DW_AT_type(*$C$DW$T$275)
     617                      .dwattr $C$DW$91, DW_AT_declaration
     618                      .dwattr $C$DW$91, DW_AT_external
     619              $C$DW$92        .dwtag  DW_TAG_variable, DW_AT_name("econst_start")
     620                      .dwattr $C$DW$92, DW_AT_TI_symbol_name("_econst_start")
     621                      .dwattr $C$DW$92, DW_AT_type(*$C$DW$T$275)
     622                      .dwattr $C$DW$92, DW_AT_declaration
     623                      .dwattr $C$DW$92, DW_AT_external
     624              $C$DW$93        .dwtag  DW_TAG_variable, DW_AT_name("econst_end")
     625                      .dwattr $C$DW$93, DW_AT_TI_symbol_name("_econst_end")
     626                      .dwattr $C$DW$93, DW_AT_type(*$C$DW$T$275)
     627                      .dwattr $C$DW$93, DW_AT_declaration
     628                      .dwattr $C$DW$93, DW_AT_external
     629              $C$DW$94        .dwtag  DW_TAG_variable, DW_AT_name("RamfuncsLoadEnd")
     630                      .dwattr $C$DW$94, DW_AT_TI_symbol_name("_RamfuncsLoadEnd")
     631                      .dwattr $C$DW$94, DW_AT_type(*$C$DW$T$275)
     632                      .dwattr $C$DW$94, DW_AT_declaration
     633                      .dwattr $C$DW$94, DW_AT_external
     634              $C$DW$95        .dwtag  DW_TAG_variable, DW_AT_name("RamfuncsRunStart")
     635                      .dwattr $C$DW$95, DW_AT_TI_symbol_name("_RamfuncsRunStart")
     636                      .dwattr $C$DW$95, DW_AT_type(*$C$DW$T$275)
     637                      .dwattr $C$DW$95, DW_AT_declaration
     638                      .dwattr $C$DW$95, DW_AT_external
     639              $C$DW$96        .dwtag  DW_TAG_variable, DW_AT_name("switch_end")
     640                      .dwattr $C$DW$96, DW_AT_TI_symbol_name("_switch_end")
TMS320C2000 Assembler PC v6.4.11 Wed Nov 23 10:34:31 2016

Tools Copyright (c) 1996-2015 Texas Instruments Incorporated
C:\Users\bee25\AppData\Local\Temp\3793210                            PAGE   14

     641                      .dwattr $C$DW$96, DW_AT_type(*$C$DW$T$275)
     642                      .dwattr $C$DW$96, DW_AT_declaration
     643                      .dwattr $C$DW$96, DW_AT_external
     644                      .global _gCurrentTrajectoryInc
     645 0000001a       _gCurrentTrajectoryInc: .usect  ".ebss",2,1,1
     646              $C$DW$97        .dwtag  DW_TAG_variable, DW_AT_name("gCurrentTrajectoryInc")
     647                      .dwattr $C$DW$97, DW_AT_TI_symbol_name("_gCurrentTrajectoryInc")
     648                      .dwattr $C$DW$97, DW_AT_location[DW_OP_addr _gCurrentTrajectoryInc]
     649                      .dwattr $C$DW$97, DW_AT_type(*$C$DW$T$16)
     650                      .dwattr $C$DW$97, DW_AT_external
     651                      .global _startup
     652 0000001c       _startup:       .usect  ".ebss",2,1,1
     653              $C$DW$98        .dwtag  DW_TAG_variable, DW_AT_name("startup")
     654                      .dwattr $C$DW$98, DW_AT_TI_symbol_name("_startup")
     655                      .dwattr $C$DW$98, DW_AT_location[DW_OP_addr _startup]
     656                      .dwattr $C$DW$98, DW_AT_type(*$C$DW$T$64)
     657                      .dwattr $C$DW$98, DW_AT_external
     658                      .global _gTorque_ref_current
     659 0000001e       _gTorque_ref_current:   .usect  ".ebss",2,1,1
     660              $C$DW$99        .dwtag  DW_TAG_variable, DW_AT_name("gTorque_ref_current")
     661                      .dwattr $C$DW$99, DW_AT_TI_symbol_name("_gTorque_ref_current")
     662                      .dwattr $C$DW$99, DW_AT_location[DW_OP_addr _gTorque_ref_current]
     663                      .dwattr $C$DW$99, DW_AT_type(*$C$DW$T$32)
     664                      .dwattr $C$DW$99, DW_AT_external
     665                      .global _ginput_power_sf
     666 00000020       _ginput_power_sf:       .usect  ".ebss",2,1,1
     667              $C$DW$100       .dwtag  DW_TAG_variable, DW_AT_name("ginput_power_sf")
     668                      .dwattr $C$DW$100, DW_AT_TI_symbol_name("_ginput_power_sf")
     669                      .dwattr $C$DW$100, DW_AT_location[DW_OP_addr _ginput_power_sf]
     670                      .dwattr $C$DW$100, DW_AT_type(*$C$DW$T$16)
     671                      .dwattr $C$DW$100, DW_AT_external
     672                      .global _startcount
     673 00000022       _startcount:    .usect  ".ebss",2,1,1
     674              $C$DW$101       .dwtag  DW_TAG_variable, DW_AT_name("startcount")
     675                      .dwattr $C$DW$101, DW_AT_TI_symbol_name("_startcount")
     676                      .dwattr $C$DW$101, DW_AT_location[DW_OP_addr _startcount]
     677                      .dwattr $C$DW$101, DW_AT_type(*$C$DW$T$64)
     678                      .dwattr $C$DW$101, DW_AT_external
     679              
     680              $C$DW$102       .dwtag  DW_TAG_subprogram, DW_AT_name("USER_computeFlux")
     681                      .dwattr $C$DW$102, DW_AT_TI_symbol_name("_USER_computeFlux")
     682                      .dwattr $C$DW$102, DW_AT_type(*$C$DW$T$32)
     683                      .dwattr $C$DW$102, DW_AT_declaration
     684                      .dwattr $C$DW$102, DW_AT_external
     685              $C$DW$103       .dwtag  DW_TAG_formal_parameter
     686                      .dwattr $C$DW$103, DW_AT_type(*$C$DW$T$201)
     687              $C$DW$104       .dwtag  DW_TAG_formal_parameter
     688                      .dwattr $C$DW$104, DW_AT_type(*$C$DW$T$281)
     689                      .dwendtag $C$DW$102
     690              
     691              
     692              $C$DW$105       .dwtag  DW_TAG_subprogram, DW_AT_name("USER_computeFlux_pu_to_VpHz_sf")
     693                      .dwattr $C$DW$105, DW_AT_TI_symbol_name("_USER_computeFlux_pu_to_VpHz_sf")
     694                      .dwattr $C$DW$105, DW_AT_type(*$C$DW$T$32)
     695                      .dwattr $C$DW$105, DW_AT_declaration
TMS320C2000 Assembler PC v6.4.11 Wed Nov 23 10:34:31 2016

Tools Copyright (c) 1996-2015 Texas Instruments Incorporated
C:\Users\bee25\AppData\Local\Temp\3793210                            PAGE   15

     696                      .dwattr $C$DW$105, DW_AT_external
     697              
     698              $C$DW$106       .dwtag  DW_TAG_subprogram, DW_AT_name("USER_computeTorque_Nm")
     699                      .dwattr $C$DW$106, DW_AT_TI_symbol_name("_USER_computeTorque_Nm")
     700                      .dwattr $C$DW$106, DW_AT_type(*$C$DW$T$32)
     701                      .dwattr $C$DW$106, DW_AT_declaration
     702                      .dwattr $C$DW$106, DW_AT_external
     703              $C$DW$107       .dwtag  DW_TAG_formal_parameter
     704                      .dwattr $C$DW$107, DW_AT_type(*$C$DW$T$201)
     705              $C$DW$108       .dwtag  DW_TAG_formal_parameter
     706                      .dwattr $C$DW$108, DW_AT_type(*$C$DW$T$281)
     707              $C$DW$109       .dwtag  DW_TAG_formal_parameter
     708                      .dwattr $C$DW$109, DW_AT_type(*$C$DW$T$281)
     709                      .dwendtag $C$DW$106
     710              
     711              
     712              $C$DW$110       .dwtag  DW_TAG_subprogram, DW_AT_name("EST_getRs_Ohm")
     713                      .dwattr $C$DW$110, DW_AT_TI_symbol_name("_EST_getRs_Ohm")
     714                      .dwattr $C$DW$110, DW_AT_type(*$C$DW$T$68)
     715                      .dwattr $C$DW$110, DW_AT_declaration
     716                      .dwattr $C$DW$110, DW_AT_external
     717              $C$DW$111       .dwtag  DW_TAG_formal_parameter
     718                      .dwattr $C$DW$111, DW_AT_type(*$C$DW$T$47)
     719                      .dwendtag $C$DW$110
     720              
     721              
     722              $C$DW$112       .dwtag  DW_TAG_subprogram, DW_AT_name("EST_getRr_Ohm")
     723                      .dwattr $C$DW$112, DW_AT_TI_symbol_name("_EST_getRr_Ohm")
     724                      .dwattr $C$DW$112, DW_AT_type(*$C$DW$T$68)
     725                      .dwattr $C$DW$112, DW_AT_declaration
     726                      .dwattr $C$DW$112, DW_AT_external
     727              $C$DW$113       .dwtag  DW_TAG_formal_parameter
     728                      .dwattr $C$DW$113, DW_AT_type(*$C$DW$T$47)
     729                      .dwendtag $C$DW$112
     730              
     731              
     732              $C$DW$114       .dwtag  DW_TAG_subprogram, DW_AT_name("EST_getSpeed_krpm")
     733                      .dwattr $C$DW$114, DW_AT_TI_symbol_name("_EST_getSpeed_krpm")
     734                      .dwattr $C$DW$114, DW_AT_type(*$C$DW$T$32)
     735                      .dwattr $C$DW$114, DW_AT_declaration
     736                      .dwattr $C$DW$114, DW_AT_external
     737              $C$DW$115       .dwtag  DW_TAG_formal_parameter
     738                      .dwattr $C$DW$115, DW_AT_type(*$C$DW$T$47)
     739                      .dwendtag $C$DW$114
     740              
     741              
     742              $C$DW$116       .dwtag  DW_TAG_subprogram, DW_AT_name("HAL_init")
     743                      .dwattr $C$DW$116, DW_AT_TI_symbol_name("_HAL_init")
     744                      .dwattr $C$DW$116, DW_AT_type(*$C$DW$T$252)
     745                      .dwattr $C$DW$116, DW_AT_declaration
     746                      .dwattr $C$DW$116, DW_AT_external
     747              $C$DW$117       .dwtag  DW_TAG_formal_parameter
     748                      .dwattr $C$DW$117, DW_AT_type(*$C$DW$T$3)
     749              $C$DW$118       .dwtag  DW_TAG_formal_parameter
     750                      .dwattr $C$DW$118, DW_AT_type(*$C$DW$T$232)
TMS320C2000 Assembler PC v6.4.11 Wed Nov 23 10:34:31 2016

Tools Copyright (c) 1996-2015 Texas Instruments Incorporated
C:\Users\bee25\AppData\Local\Temp\3793210                            PAGE   16

     751                      .dwendtag $C$DW$116
     752              
     753              
     754              $C$DW$119       .dwtag  DW_TAG_subprogram, DW_AT_name("CTRL_initCtrl")
     755                      .dwattr $C$DW$119, DW_AT_TI_symbol_name("_CTRL_initCtrl")
     756                      .dwattr $C$DW$119, DW_AT_type(*$C$DW$T$201)
     757                      .dwattr $C$DW$119, DW_AT_declaration
     758                      .dwattr $C$DW$119, DW_AT_external
     759              $C$DW$120       .dwtag  DW_TAG_formal_parameter
     760                      .dwattr $C$DW$120, DW_AT_type(*$C$DW$T$230)
     761              $C$DW$121       .dwtag  DW_TAG_formal_parameter
     762                      .dwattr $C$DW$121, DW_AT_type(*$C$DW$T$3)
     763              $C$DW$122       .dwtag  DW_TAG_formal_parameter
     764                      .dwattr $C$DW$122, DW_AT_type(*$C$DW$T$232)
     765                      .dwendtag $C$DW$119
     766              
     767              
     768              $C$DW$123       .dwtag  DW_TAG_subprogram, DW_AT_name("USER_computeTorque_Flux_Iq_pu_to_Nm_sf")
     769                      .dwattr $C$DW$123, DW_AT_TI_symbol_name("_USER_computeTorque_Flux_Iq_pu_to_Nm_sf")
     770                      .dwattr $C$DW$123, DW_AT_type(*$C$DW$T$32)
     771                      .dwattr $C$DW$123, DW_AT_declaration
     772                      .dwattr $C$DW$123, DW_AT_external
     773              
     774              $C$DW$124       .dwtag  DW_TAG_subprogram, DW_AT_name("USER_computeTorque_Ls_Id_Iq_pu_to_Nm_sf")
     775                      .dwattr $C$DW$124, DW_AT_TI_symbol_name("_USER_computeTorque_Ls_Id_Iq_pu_to_Nm_sf")
     776                      .dwattr $C$DW$124, DW_AT_type(*$C$DW$T$32)
     777                      .dwattr $C$DW$124, DW_AT_declaration
     778                      .dwattr $C$DW$124, DW_AT_external
     779              
     780              $C$DW$125       .dwtag  DW_TAG_subprogram, DW_AT_name("EST_get_pu_to_krpm_sf")
     781                      .dwattr $C$DW$125, DW_AT_TI_symbol_name("_EST_get_pu_to_krpm_sf")
     782                      .dwattr $C$DW$125, DW_AT_type(*$C$DW$T$32)
     783                      .dwattr $C$DW$125, DW_AT_declaration
     784                      .dwattr $C$DW$125, DW_AT_external
     785              $C$DW$126       .dwtag  DW_TAG_formal_parameter
     786                      .dwattr $C$DW$126, DW_AT_type(*$C$DW$T$47)
     787                      .dwendtag $C$DW$125
     788              
     789              
     790              $C$DW$127       .dwtag  DW_TAG_subprogram, DW_AT_name("__IQmpy")
     791                      .dwattr $C$DW$127, DW_AT_TI_symbol_name("___IQmpy")
     792                      .dwattr $C$DW$127, DW_AT_type(*$C$DW$T$12)
     793                      .dwattr $C$DW$127, DW_AT_declaration
     794                      .dwattr $C$DW$127, DW_AT_external
     795              $C$DW$128       .dwtag  DW_TAG_formal_parameter
     796                      .dwattr $C$DW$128, DW_AT_type(*$C$DW$T$12)
     797              $C$DW$129       .dwtag  DW_TAG_formal_parameter
     798                      .dwattr $C$DW$129, DW_AT_type(*$C$DW$T$12)
     799              $C$DW$130       .dwtag  DW_TAG_formal_parameter
     800                      .dwattr $C$DW$130, DW_AT_type(*$C$DW$T$10)
     801                      .dwendtag $C$DW$127
     802              
     803              
     804              $C$DW$131       .dwtag  DW_TAG_subprogram, DW_AT_name("EST_getIdRated")
     805                      .dwattr $C$DW$131, DW_AT_TI_symbol_name("_EST_getIdRated")
TMS320C2000 Assembler PC v6.4.11 Wed Nov 23 10:34:31 2016

Tools Copyright (c) 1996-2015 Texas Instruments Incorporated
C:\Users\bee25\AppData\Local\Temp\3793210                            PAGE   17

     806                      .dwattr $C$DW$131, DW_AT_type(*$C$DW$T$68)
     807                      .dwattr $C$DW$131, DW_AT_declaration
     808                      .dwattr $C$DW$131, DW_AT_external
     809              $C$DW$132       .dwtag  DW_TAG_formal_parameter
     810                      .dwattr $C$DW$132, DW_AT_type(*$C$DW$T$47)
     811                      .dwendtag $C$DW$131
     812              
     813              
     814              $C$DW$133       .dwtag  DW_TAG_subprogram, DW_AT_name("USER_computeFlux_pu_to_Wb_sf")
     815                      .dwattr $C$DW$133, DW_AT_TI_symbol_name("_USER_computeFlux_pu_to_Wb_sf")
     816                      .dwattr $C$DW$133, DW_AT_type(*$C$DW$T$32)
     817                      .dwattr $C$DW$133, DW_AT_declaration
     818                      .dwattr $C$DW$133, DW_AT_external
     819              
     820              $C$DW$134       .dwtag  DW_TAG_subprogram, DW_AT_name("_IQ24toF")
     821                      .dwattr $C$DW$134, DW_AT_TI_symbol_name("__IQ24toF")
     822                      .dwattr $C$DW$134, DW_AT_type(*$C$DW$T$16)
     823                      .dwattr $C$DW$134, DW_AT_declaration
     824                      .dwattr $C$DW$134, DW_AT_external
     825              $C$DW$135       .dwtag  DW_TAG_formal_parameter
     826                      .dwattr $C$DW$135, DW_AT_type(*$C$DW$T$12)
     827                      .dwendtag $C$DW$134
     828              
     829              
     830              $C$DW$136       .dwtag  DW_TAG_subprogram, DW_AT_name("EST_getFlux_VpHz")
     831                      .dwattr $C$DW$136, DW_AT_TI_symbol_name("_EST_getFlux_VpHz")
     832                      .dwattr $C$DW$136, DW_AT_type(*$C$DW$T$68)
     833                      .dwattr $C$DW$136, DW_AT_declaration
     834                      .dwattr $C$DW$136, DW_AT_external
     835              $C$DW$137       .dwtag  DW_TAG_formal_parameter
     836                      .dwattr $C$DW$137, DW_AT_type(*$C$DW$T$47)
     837                      .dwendtag $C$DW$136
     838              
     839                      .global _gSpd_ref_current
     840 00000024       _gSpd_ref_current:      .usect  ".ebss",2,1,1
     841              $C$DW$138       .dwtag  DW_TAG_variable, DW_AT_name("gSpd_ref_current")
     842                      .dwattr $C$DW$138, DW_AT_TI_symbol_name("_gSpd_ref_current")
     843                      .dwattr $C$DW$138, DW_AT_location[DW_OP_addr _gSpd_ref_current]
     844                      .dwattr $C$DW$138, DW_AT_type(*$C$DW$T$32)
     845                      .dwattr $C$DW$138, DW_AT_external
     846              
     847              $C$DW$139       .dwtag  DW_TAG_subprogram, DW_AT_name("EST_getLs_q_H")
     848                      .dwattr $C$DW$139, DW_AT_TI_symbol_name("_EST_getLs_q_H")
     849                      .dwattr $C$DW$139, DW_AT_type(*$C$DW$T$68)
     850                      .dwattr $C$DW$139, DW_AT_declaration
     851                      .dwattr $C$DW$139, DW_AT_external
     852              $C$DW$140       .dwtag  DW_TAG_formal_parameter
     853                      .dwattr $C$DW$140, DW_AT_type(*$C$DW$T$47)
     854                      .dwendtag $C$DW$139
     855              
     856              
     857              $C$DW$141       .dwtag  DW_TAG_subprogram, DW_AT_name("EST_getMaxCurrentSlope_pu")
     858                      .dwattr $C$DW$141, DW_AT_TI_symbol_name("_EST_getMaxCurrentSlope_pu")
     859                      .dwattr $C$DW$141, DW_AT_type(*$C$DW$T$32)
     860                      .dwattr $C$DW$141, DW_AT_declaration
TMS320C2000 Assembler PC v6.4.11 Wed Nov 23 10:34:31 2016

Tools Copyright (c) 1996-2015 Texas Instruments Incorporated
C:\Users\bee25\AppData\Local\Temp\3793210                            PAGE   18

     861                      .dwattr $C$DW$141, DW_AT_external
     862              $C$DW$142       .dwtag  DW_TAG_formal_parameter
     863                      .dwattr $C$DW$142, DW_AT_type(*$C$DW$T$47)
     864                      .dwendtag $C$DW$141
     865              
     866              
     867              $C$DW$143       .dwtag  DW_TAG_subprogram, DW_AT_name("labs")
     868                      .dwattr $C$DW$143, DW_AT_TI_symbol_name("_labs")
     869                      .dwattr $C$DW$143, DW_AT_type(*$C$DW$T$12)
     870                      .dwattr $C$DW$143, DW_AT_declaration
     871                      .dwattr $C$DW$143, DW_AT_external
     872              $C$DW$144       .dwtag  DW_TAG_formal_parameter
     873                      .dwattr $C$DW$144, DW_AT_type(*$C$DW$T$12)
     874                      .dwendtag $C$DW$143
     875              
     876              
     877              $C$DW$145       .dwtag  DW_TAG_subprogram, DW_AT_name("__IQsat")
     878                      .dwattr $C$DW$145, DW_AT_TI_symbol_name("___IQsat")
     879                      .dwattr $C$DW$145, DW_AT_type(*$C$DW$T$12)
     880                      .dwattr $C$DW$145, DW_AT_declaration
     881                      .dwattr $C$DW$145, DW_AT_external
     882              $C$DW$146       .dwtag  DW_TAG_formal_parameter
     883                      .dwattr $C$DW$146, DW_AT_type(*$C$DW$T$12)
     884              $C$DW$147       .dwtag  DW_TAG_formal_parameter
     885                      .dwattr $C$DW$147, DW_AT_type(*$C$DW$T$12)
     886              $C$DW$148       .dwtag  DW_TAG_formal_parameter
     887                      .dwattr $C$DW$148, DW_AT_type(*$C$DW$T$12)
     888                      .dwendtag $C$DW$145
     889              
     890              
     891              $C$DW$149       .dwtag  DW_TAG_subprogram, DW_AT_name("EST_getLs_d_H")
     892                      .dwattr $C$DW$149, DW_AT_TI_symbol_name("_EST_getLs_d_H")
     893                      .dwattr $C$DW$149, DW_AT_type(*$C$DW$T$68)
     894                      .dwattr $C$DW$149, DW_AT_declaration
     895                      .dwattr $C$DW$149, DW_AT_external
     896              $C$DW$150       .dwtag  DW_TAG_formal_parameter
     897                      .dwattr $C$DW$150, DW_AT_type(*$C$DW$T$47)
     898                      .dwendtag $C$DW$149
     899              
     900                      .global _gPower
     901 00000026       _gPower:        .usect  ".ebss",6,1,1
     902              $C$DW$151       .dwtag  DW_TAG_variable, DW_AT_name("gPower")
     903                      .dwattr $C$DW$151, DW_AT_TI_symbol_name("_gPower")
     904                      .dwattr $C$DW$151, DW_AT_location[DW_OP_addr _gPower]
     905                      .dwattr $C$DW$151, DW_AT_type(*$C$DW$T$258)
     906                      .dwattr $C$DW$151, DW_AT_external
     907                      .global _gPwmData
     908 0000002c       _gPwmData:      .usect  ".ebss",6,1,1
     909              $C$DW$152       .dwtag  DW_TAG_variable, DW_AT_name("gPwmData")
     910                      .dwattr $C$DW$152, DW_AT_TI_symbol_name("_gPwmData")
     911                      .dwattr $C$DW$152, DW_AT_location[DW_OP_addr _gPwmData]
     912                      .dwattr $C$DW$152, DW_AT_type(*$C$DW$T$259)
     913                      .dwattr $C$DW$152, DW_AT_external
     914                      .global _gAdcData
     915 00000040       _gAdcData:      .usect  ".ebss",16,1,1
TMS320C2000 Assembler PC v6.4.11 Wed Nov 23 10:34:31 2016

Tools Copyright (c) 1996-2015 Texas Instruments Incorporated
C:\Users\bee25\AppData\Local\Temp\3793210                            PAGE   19

     916              $C$DW$153       .dwtag  DW_TAG_variable, DW_AT_name("gAdcData")
     917                      .dwattr $C$DW$153, DW_AT_TI_symbol_name("_gAdcData")
     918                      .dwattr $C$DW$153, DW_AT_location[DW_OP_addr _gAdcData]
     919                      .dwattr $C$DW$153, DW_AT_type(*$C$DW$T$146)
     920                      .dwattr $C$DW$153, DW_AT_external
     921                      .global _gDrvSpi8301Vars
     922 00000050       _gDrvSpi8301Vars:       .usect  ".ebss",24,1,0
     923              $C$DW$154       .dwtag  DW_TAG_variable, DW_AT_name("gDrvSpi8301Vars")
     924                      .dwattr $C$DW$154, DW_AT_TI_symbol_name("_gDrvSpi8301Vars")
     925                      .dwattr $C$DW$154, DW_AT_location[DW_OP_addr _gDrvSpi8301Vars]
     926                      .dwattr $C$DW$154, DW_AT_type(*$C$DW$T$240)
     927                      .dwattr $C$DW$154, DW_AT_external
     928                      .global _gMotorVars
     929 00000080       _gMotorVars:    .usect  ".ebss",104,1,1
     930              $C$DW$155       .dwtag  DW_TAG_variable, DW_AT_name("gMotorVars")
     931                      .dwattr $C$DW$155, DW_AT_TI_symbol_name("_gMotorVars")
     932                      .dwattr $C$DW$155, DW_AT_location[DW_OP_addr _gMotorVars]
     933                      .dwattr $C$DW$155, DW_AT_type(*$C$DW$T$263)
     934                      .dwattr $C$DW$155, DW_AT_external
     935                      .global _gUserParams
     936 00000040       _gUserParams:   .usect  "rom_accessed_data",172,1,1
     937              $C$DW$156       .dwtag  DW_TAG_variable, DW_AT_name("gUserParams")
     938                      .dwattr $C$DW$156, DW_AT_TI_symbol_name("_gUserParams")
     939                      .dwattr $C$DW$156, DW_AT_location[DW_OP_addr _gUserParams]
     940                      .dwattr $C$DW$156, DW_AT_type(*$C$DW$T$206)
     941                      .dwattr $C$DW$156, DW_AT_external
     942              $C$DW$157       .dwtag  DW_TAG_variable, DW_AT_name("hal")
     943                      .dwattr $C$DW$157, DW_AT_TI_symbol_name("_hal")
     944                      .dwattr $C$DW$157, DW_AT_type(*$C$DW$T$249)
     945                      .dwattr $C$DW$157, DW_AT_declaration
     946                      .dwattr $C$DW$157, DW_AT_external
     947                      .global _ctrl
     948 00000100       _ctrl:  .usect  "rom_accessed_data",264,1,1
     949              $C$DW$158       .dwtag  DW_TAG_variable, DW_AT_name("ctrl")
     950                      .dwattr $C$DW$158, DW_AT_TI_symbol_name("_ctrl")
     951                      .dwattr $C$DW$158, DW_AT_location[DW_OP_addr _ctrl]
     952                      .dwattr $C$DW$158, DW_AT_type(*$C$DW$T$227)
     953                      .dwattr $C$DW$158, DW_AT_external
     954              ;       C:\ti\ccsv6\tools\compiler\c2000_6.4.11\bin\opt2000.exe C:\\Users\\bee25\\AppData\\Local\\Temp\\37932
     955              ;       C:\ti\ccsv6\tools\compiler\c2000_6.4.11\bin\ac2000.exe -@C:\\Users\\bee25\\AppData\\Local\\Temp\\3793
     956 00000000               .sect   ".text"
     957                      .clink
     958                      .global _updateIqRef
     959              
     960              $C$DW$159       .dwtag  DW_TAG_subprogram, DW_AT_name("updateIqRef")
     961                      .dwattr $C$DW$159, DW_AT_low_pc(_updateIqRef)
     962                      .dwattr $C$DW$159, DW_AT_high_pc(0x00)
     963                      .dwattr $C$DW$159, DW_AT_TI_symbol_name("_updateIqRef")
     964                      .dwattr $C$DW$159, DW_AT_external
     965                      .dwattr $C$DW$159, DW_AT_TI_begin_file("C:/ti/motorware/motorware_1_01_00_16/sw/solutions/instaspin_f
     966                      .dwattr $C$DW$159, DW_AT_TI_begin_line(0x269)
     967                      .dwattr $C$DW$159, DW_AT_TI_begin_column(0x06)
     968                      .dwattr $C$DW$159, DW_AT_TI_max_frame_size(-6)
     969                      .dwpsn  file "C:/ti/motorware/motorware_1_01_00_16/sw/solutions/instaspin_foc/src/proj_lab04.c",line 
     970              
TMS320C2000 Assembler PC v6.4.11 Wed Nov 23 10:34:31 2016

Tools Copyright (c) 1996-2015 Texas Instruments Incorporated
C:\Users\bee25\AppData\Local\Temp\3793210                            PAGE   20

     971                      .dwfde $C$DW$CIE, _updateIqRef
     972              $C$DW$160       .dwtag  DW_TAG_formal_parameter, DW_AT_name("handle")
     973                      .dwattr $C$DW$160, DW_AT_TI_symbol_name("_handle")
     974                      .dwattr $C$DW$160, DW_AT_type(*$C$DW$T$201)
     975                      .dwattr $C$DW$160, DW_AT_location[DW_OP_reg12]
     976              
     977              ;***************************************************************
     978              ;* FNAME: _updateIqRef                  FR SIZE:   4           *
     979              ;*                                                             *
     980              ;* FUNCTION ENVIRONMENT                                        *
     981              ;*                                                             *
     982              ;* FUNCTION PROPERTIES                                         *
     983              ;*                            0 Parameter,  0 Auto,  4 SOE     *
     984              ;***************************************************************
     985              
     986              _updateIqRef:
     987              ;* AR1   assigned to _iq_ref
     988              $C$DW$161       .dwtag  DW_TAG_variable, DW_AT_name("iq_ref")
     989                      .dwattr $C$DW$161, DW_AT_TI_symbol_name("_iq_ref")
     990                      .dwattr $C$DW$161, DW_AT_type(*$C$DW$T$32)
     991                      .dwattr $C$DW$161, DW_AT_location[DW_OP_reg6]
     992              ;* AR2   assigned to _handle
     993              $C$DW$162       .dwtag  DW_TAG_variable, DW_AT_name("handle")
     994                      .dwattr $C$DW$162, DW_AT_TI_symbol_name("_handle")
     995                      .dwattr $C$DW$162, DW_AT_type(*$C$DW$T$229)
     996                      .dwattr $C$DW$162, DW_AT_location[DW_OP_reg8]
     997                      .dwcfi  cfa_offset, -2
     998                      .dwcfi  save_reg_to_mem, 26, 0
     999 00000000 761F-         MOVW      DP,#_gMotorVars+20    ; [CPU_U] 
         00000001 0002 
    1000 00000002 B2BD          MOVL      *SP++,XAR1            ; [CPU_] 
    1001                      .dwcfi  save_reg_to_mem, 7, 2
    1002                      .dwcfi  cfa_offset, -4
    1003                      .dwpsn  file "C:/ti/motorware/motorware_1_01_00_16/sw/solutions/instaspin_foc/src/proj_lab04.c",line 
    1004 00000003 8714-         MOVL      XT,@_gMotorVars+20    ; [CPU_] |619| 
    1005 00000004 AABD          MOVL      *SP++,XAR2            ; [CPU_] 
    1006                      .dwcfi  save_reg_to_mem, 9, 4
    1007                      .dwcfi  cfa_offset, -6
    1008                      .dwpsn  file "C:/ti/motorware/motorware_1_01_00_16/sw/solutions/instaspin_foc/src/proj_lab04.c",line 
    1009 00000005 86A4          MOVL      XAR2,XAR4             ; [CPU_] |618| 
    1010                      .dwpsn  file "C:/ti/motorware/motorware_1_01_00_16/sw/solutions/instaspin_foc/src/proj_lab04.c",line 
    1011 00000006 8F0C          MOVL      XAR4,#838860          ; [CPU_U] |619| 
         00000007 CCCC 
    1012 00000008 5605          IMPYL     P,XT,XAR4             ; [CPU_] |619| 
         00000009 00A4 
    1013 0000000a 5663          QMPYL     ACC,XT,XAR4           ; [CPU_] |619| 
         0000000b 00A4 
    1014                      .dwpsn  file "C:/ti/motorware/motorware_1_01_00_16/sw/solutions/instaspin_foc/src/proj_lab04.c",line 
    1015 0000000c 8F02          MOVL      XAR4,#167772          ; [CPU_U] |622| 
         0000000d 8F5C 
    1016                      .dwpsn  file "C:/ti/motorware/motorware_1_01_00_16/sw/solutions/instaspin_foc/src/proj_lab04.c",line 
    1017 0000000e 56A7          LSL64     ACC:P,#8              ; [CPU_] |619| 
    1018 0000000f 8BA9          MOVL      XAR1,ACC              ; [CPU_] |619| 
    1019                      .dwpsn  file "C:/ti/motorware/motorware_1_01_00_16/sw/solutions/instaspin_foc/src/proj_lab04.c",line 
    1020 00000010 061E-         MOVL      ACC,@_gMotorVars+30   ; [CPU_] |622| 
TMS320C2000 Assembler PC v6.4.11 Wed Nov 23 10:34:31 2016

Tools Copyright (c) 1996-2015 Texas Instruments Incorporated
C:\Users\bee25\AppData\Local\Temp\3793210                            PAGE   21

    1021 00000011 FF56          ABS       ACC                   ; [CPU_] |622| 
    1022 00000012 0FA4          CMPL      ACC,XAR4              ; [CPU_] |622| 
    1023 00000013 56C3          BF        $C$L3,GEQ             ; [CPU_] |622| 
         00000014 0013 
    1024                      ; branchcc occurs ; [] |622| 
    1025 00000015 B2A9          MOVL      ACC,XAR1              ; [CPU_] 
    1026                      .dwpsn  file "C:/ti/motorware/motorware_1_01_00_16/sw/solutions/instaspin_foc/src/proj_lab04.c",line 
    1027 00000016 56C4          BF        $C$L1,LT              ; [CPU_] |624| 
         00000017 0009 
    1028                      ; branchcc occurs ; [] |624| 
    1029                      .dwpsn  file "C:/ti/motorware/motorware_1_01_00_16/sw/solutions/instaspin_foc/src/proj_lab04.c",line 
    1030 00000018 FF58          TEST      ACC                   ; [CPU_] |628| 
    1031 00000019 56C5          BF        $C$L4,LEQ             ; [CPU_] |628| 
         0000001a 0012 
    1032                      ; branchcc occurs ; [] |628| 
    1033                      .dwpsn  file "C:/ti/motorware/motorware_1_01_00_16/sw/solutions/instaspin_foc/src/proj_lab04.c",line 
    1034 0000001b 8F42          MOVL      XAR5,#167772          ; [CPU_U] |630| 
         0000001c 8F5C 
    1035 0000001d A0A9          MOVL      ACC,XAR5              ; [CPU_] |630| 
    1036 0000001e 6F05          B         $C$L2,UNC             ; [CPU_] |630| 
    1037                      ; branch occurs ; [] |630| 
    1038 0000001f       $C$L1:    
    1039                      .dwpsn  file "C:/ti/motorware/motorware_1_01_00_16/sw/solutions/instaspin_foc/src/proj_lab04.c",line 
    1040 0000001f 28A9          MOV       AL,#28836             ; [CPU_] |626| 
         00000020 70A4 
    1041 00000021 28A8          MOV       AH,#65533             ; [CPU_] |626| 
         00000022 FFFD 
    1042 00000023       $C$L2:    
    1043 00000023 8AA2          MOVL      XAR4,XAR2             ; [CPU_] |626| 
    1044              $C$DW$163       .dwtag  DW_TAG_TI_branch
    1045                      .dwattr $C$DW$163, DW_AT_low_pc(0x00)
    1046                      .dwattr $C$DW$163, DW_AT_name("_CTRL_setSpd_ref_krpm")
    1047                      .dwattr $C$DW$163, DW_AT_TI_call
    1048 00000024 7640!         LCR       #_CTRL_setSpd_ref_krpm ; [CPU_] |626| 
         00000025 0000 
    1049                      ; call occurs [#_CTRL_setSpd_ref_krpm] ; [] |626| 
    1050 00000026       $C$L3:    
    1051                      .dwpsn  file "C:/ti/motorware/motorware_1_01_00_16/sw/solutions/instaspin_foc/src/proj_lab04.c",line 
    1052 00000026 FF2F          MOV       ACC,#9216 << 15       ; [CPU_] |633| 
         00000027 2400 
    1053 00000028 0FA1          CMPL      ACC,XAR1              ; [CPU_] |633| 
    1054                      .dwpsn  file "C:/ti/motorware/motorware_1_01_00_16/sw/solutions/instaspin_foc/src/proj_lab04.c",line 
    1055 00000029 5648          MOVL      XAR1,ACC,LT           ; [CPU_] |634| 
         0000002a 04A1 
    1056 0000002b       $C$L4:    
    1057                      .dwpsn  file "C:/ti/motorware/motorware_1_01_00_16/sw/modules/ctrl/src/32b/ctrl.h",line 1439,column 3
    1058 0000002b D0E4          MOVB      XAR0,#228             ; [CPU_] |1439| 
    1059 0000002c B292          MOVL      *+XAR2[AR0],XAR1      ; [CPU_] |1439| 
    1060 0000002d 86BE          MOVL      XAR2,*--SP            ; [CPU_] 
    1061                      .dwcfi  cfa_offset, -4
    1062                      .dwcfi  restore_reg, 9
    1063 0000002e 8BBE          MOVL      XAR1,*--SP            ; [CPU_] 
    1064                      .dwcfi  cfa_offset, -2
    1065                      .dwcfi  restore_reg, 7
    1066              $C$DW$164       .dwtag  DW_TAG_TI_branch
TMS320C2000 Assembler PC v6.4.11 Wed Nov 23 10:34:31 2016

Tools Copyright (c) 1996-2015 Texas Instruments Incorporated
C:\Users\bee25\AppData\Local\Temp\3793210                            PAGE   22

    1067                      .dwattr $C$DW$164, DW_AT_low_pc(0x00)
    1068                      .dwattr $C$DW$164, DW_AT_TI_return
    1069 0000002f 0006          LRETR     ; [CPU_] 
    1070                      ; return occurs ; [] 
    1071                      .dwattr $C$DW$159, DW_AT_TI_end_file("C:/ti/motorware/motorware_1_01_00_16/sw/solutions/instaspin_foc
    1072                      .dwattr $C$DW$159, DW_AT_TI_end_line(0x280)
    1073                      .dwattr $C$DW$159, DW_AT_TI_end_column(0x01)
    1074                      .dwendentry
    1075                      .dwendtag $C$DW$159
    1076              
    1077 00000030               .sect   ".text"
    1078                      .clink
    1079                      .global _updateGlobalVariables_motor
    1080              
    1081              $C$DW$165       .dwtag  DW_TAG_subprogram, DW_AT_name("updateGlobalVariables_motor")
    1082                      .dwattr $C$DW$165, DW_AT_low_pc(_updateGlobalVariables_motor)
    1083                      .dwattr $C$DW$165, DW_AT_high_pc(0x00)
    1084                      .dwattr $C$DW$165, DW_AT_TI_symbol_name("_updateGlobalVariables_motor")
    1085                      .dwattr $C$DW$165, DW_AT_external
    1086                      .dwattr $C$DW$165, DW_AT_TI_begin_file("C:/ti/motorware/motorware_1_01_00_16/sw/solutions/instaspin_f
    1087                      .dwattr $C$DW$165, DW_AT_TI_begin_line(0x23a)
    1088                      .dwattr $C$DW$165, DW_AT_TI_begin_column(0x06)
    1089                      .dwattr $C$DW$165, DW_AT_TI_max_frame_size(-8)
    1090                      .dwpsn  file "C:/ti/motorware/motorware_1_01_00_16/sw/solutions/instaspin_foc/src/proj_lab04.c",line 
    1091              
    1092                      .dwfde $C$DW$CIE, _updateGlobalVariables_motor
    1093              $C$DW$166       .dwtag  DW_TAG_formal_parameter, DW_AT_name("handle")
    1094                      .dwattr $C$DW$166, DW_AT_TI_symbol_name("_handle")
    1095                      .dwattr $C$DW$166, DW_AT_type(*$C$DW$T$201)
    1096                      .dwattr $C$DW$166, DW_AT_location[DW_OP_reg12]
    1097              
    1098              ;***************************************************************
    1099              ;* FNAME: _updateGlobalVariables_motor  FR SIZE:   6           *
    1100              ;*                                                             *
    1101              ;* FUNCTION ENVIRONMENT                                        *
    1102              ;*                                                             *
    1103              ;* FUNCTION PROPERTIES                                         *
    1104              ;*                            2 Parameter,  0 Auto,  4 SOE     *
    1105              ;***************************************************************
    1106              
    1107              _updateGlobalVariables_motor:
    1108              ;* XT    assigned to $O$R2
    1109              ;* AR2   assigned to _handle
    1110              $C$DW$167       .dwtag  DW_TAG_variable, DW_AT_name("handle")
    1111                      .dwattr $C$DW$167, DW_AT_TI_symbol_name("_handle")
    1112                      .dwattr $C$DW$167, DW_AT_type(*$C$DW$T$229)
    1113                      .dwattr $C$DW$167, DW_AT_location[DW_OP_reg8]
    1114                      .dwcfi  cfa_offset, -2
    1115                      .dwcfi  save_reg_to_mem, 26, 0
    1116 00000030 B2BD          MOVL      *SP++,XAR1            ; [CPU_] 
    1117                      .dwcfi  save_reg_to_mem, 7, 2
    1118                      .dwcfi  cfa_offset, -4
    1119 00000031 AABD          MOVL      *SP++,XAR2            ; [CPU_] 
    1120                      .dwcfi  save_reg_to_mem, 9, 4
    1121                      .dwcfi  cfa_offset, -6
TMS320C2000 Assembler PC v6.4.11 Wed Nov 23 10:34:31 2016

Tools Copyright (c) 1996-2015 Texas Instruments Incorporated
C:\Users\bee25\AppData\Local\Temp\3793210                            PAGE   23

    1122 00000032 FE02          ADDB      SP,#2                 ; [CPU_U] 
    1123                      .dwcfi  cfa_offset, -8
    1124 00000033 86A4          MOVL      XAR2,XAR4             ; [CPU_] |571| 
    1125                      .dwpsn  file "C:/ti/motorware/motorware_1_01_00_16/sw/solutions/instaspin_foc/src/proj_lab04.c",line 
    1126 00000034 D018          MOVB      XAR0,#24              ; [CPU_] |575| 
    1127 00000035 8A92          MOVL      XAR4,*+XAR2[AR0]      ; [CPU_] |575| 
    1128              $C$DW$168       .dwtag  DW_TAG_TI_branch
    1129                      .dwattr $C$DW$168, DW_AT_low_pc(0x00)
    1130                      .dwattr $C$DW$168, DW_AT_name("_EST_getSpeed_krpm")
    1131                      .dwattr $C$DW$168, DW_AT_TI_call
    1132 00000036 7640!         LCR       #_EST_getSpeed_krpm   ; [CPU_] |575| 
         00000037 0000 
    1133                      ; call occurs [#_EST_getSpeed_krpm] ; [] |575| 
    1134 00000038 761F-         MOVW      DP,#_gMotorVars+30    ; [CPU_U] 
         00000039 0002 
    1135                      .dwpsn  file "C:/ti/motorware/motorware_1_01_00_16/sw/modules/traj/src/32b/traj.h",line 96,column 3,i
    1136 0000003a D06C          MOVB      XAR0,#108             ; [CPU_] |96| 
    1137                      .dwpsn  file "C:/ti/motorware/motorware_1_01_00_16/sw/solutions/instaspin_foc/src/proj_lab04.c",line 
    1138 0000003b 1E1E-         MOVL      @_gMotorVars+30,ACC   ; [CPU_] |575| 
    1139                      .dwpsn  file "C:/ti/motorware/motorware_1_01_00_16/sw/modules/traj/src/32b/traj.h",line 96,column 3,i
    1140 0000003c 8A92          MOVL      XAR4,*+XAR2[AR0]      ; [CPU_] |96| 
    1141                      .dwpsn  file "C:/ti/motorware/motorware_1_01_00_16/sw/solutions/instaspin_foc/src/proj_lab04.c",line 
    1142 0000003d D018          MOVB      XAR0,#24              ; [CPU_] |578| 
    1143                      .dwpsn  file "C:/ti/motorware/motorware_1_01_00_16/sw/modules/traj/src/32b/traj.h",line 96,column 3,i
    1144 0000003e 8BD4          MOVL      XAR1,*+XAR4[2]        ; [CPU_] |96| 
    1145                      .dwpsn  file "C:/ti/motorware/motorware_1_01_00_16/sw/solutions/instaspin_foc/src/proj_lab04.c",line 
    1146 0000003f 8A92          MOVL      XAR4,*+XAR2[AR0]      ; [CPU_] |578| 
    1147              $C$DW$169       .dwtag  DW_TAG_TI_branch
    1148                      .dwattr $C$DW$169, DW_AT_low_pc(0x00)
    1149                      .dwattr $C$DW$169, DW_AT_name("_EST_get_pu_to_krpm_sf")
    1150                      .dwattr $C$DW$169, DW_AT_TI_call
    1151 00000040 7640!         LCR       #_EST_get_pu_to_krpm_sf ; [CPU_] |578| 
         00000041 0000 
    1152                      ; call occurs [#_EST_get_pu_to_krpm_sf] ; [] |578| 
    1153 00000042 761F-         MOVW      DP,#_gMotorVars+26    ; [CPU_U] 
         00000043 0002 
    1154 00000044 B2AC          MOVL      XT,XAR1               ; [CPU_] |578| 
    1155                      .dwpsn  file "C:/ti/motorware/motorware_1_01_00_16/sw/solutions/instaspin_foc/src/proj_lab04.c",line 
    1156 00000045 8AA2          MOVL      XAR4,XAR2             ; [CPU_] |581| 
    1157                      .dwpsn  file "C:/ti/motorware/motorware_1_01_00_16/sw/solutions/instaspin_foc/src/proj_lab04.c",line 
    1158 00000046 5605          IMPYL     P,XT,ACC              ; [CPU_] |578| 
         00000047 00A9 
    1159 00000048 5663          QMPYL     ACC,XT,ACC            ; [CPU_] |578| 
         00000049 00A9 
    1160 0000004a 56A7          LSL64     ACC:P,#8              ; [CPU_] |578| 
    1161 0000004b 1E1A-         MOVL      @_gMotorVars+26,ACC   ; [CPU_] |578| 
    1162 0000004c 761F-         MOVW      DP,#_gTorque_Ls_Id_Iq_pu_to_Nm_sf ; [CPU_U] 
         0000004d 0000 
    1163                      .dwpsn  file "C:/ti/motorware/motorware_1_01_00_16/sw/solutions/instaspin_foc/src/proj_lab04.c",line 
    1164 0000004e 0612-         MOVL      ACC,@_gTorque_Ls_Id_Iq_pu_to_Nm_sf ; [CPU_] |581| 
    1165 0000004f 1E42          MOVL      *-SP[2],ACC           ; [CPU_] |581| 
    1166 00000050 0614-         MOVL      ACC,@_gTorque_Flux_Iq_pu_to_Nm_sf ; [CPU_] |581| 
    1167              $C$DW$170       .dwtag  DW_TAG_TI_branch
    1168                      .dwattr $C$DW$170, DW_AT_low_pc(0x00)
    1169                      .dwattr $C$DW$170, DW_AT_name("_USER_computeTorque_Nm")
TMS320C2000 Assembler PC v6.4.11 Wed Nov 23 10:34:31 2016

Tools Copyright (c) 1996-2015 Texas Instruments Incorporated
C:\Users\bee25\AppData\Local\Temp\3793210                            PAGE   24

    1170                      .dwattr $C$DW$170, DW_AT_TI_call
    1171 00000051 7640!         LCR       #_USER_computeTorque_Nm ; [CPU_] |581| 
         00000052 0000 
    1172                      ; call occurs [#_USER_computeTorque_Nm] ; [] |581| 
    1173 00000053 761F-         MOVW      DP,#_gMotorVars+40    ; [CPU_U] 
         00000054 0002 
    1174                      .dwpsn  file "C:/ti/motorware/motorware_1_01_00_16/sw/solutions/instaspin_foc/src/proj_lab04.c",line 
    1175 00000055 D018          MOVB      XAR0,#24              ; [CPU_] |584| 
    1176                      .dwpsn  file "C:/ti/motorware/motorware_1_01_00_16/sw/solutions/instaspin_foc/src/proj_lab04.c",line 
    1177 00000056 1E28-         MOVL      @_gMotorVars+40,ACC   ; [CPU_] |581| 
    1178                      .dwpsn  file "C:/ti/motorware/motorware_1_01_00_16/sw/solutions/instaspin_foc/src/proj_lab04.c",line 
    1179 00000057 8A92          MOVL      XAR4,*+XAR2[AR0]      ; [CPU_] |584| 
    1180              $C$DW$171       .dwtag  DW_TAG_TI_branch
    1181                      .dwattr $C$DW$171, DW_AT_low_pc(0x00)
    1182                      .dwattr $C$DW$171, DW_AT_name("_EST_getIdRated")
    1183                      .dwattr $C$DW$171, DW_AT_TI_call
    1184 00000058 7640!         LCR       #_EST_getIdRated      ; [CPU_] |584| 
         00000059 0000 
    1185                      ; call occurs [#_EST_getIdRated] ; [] |584| 
    1186 0000005a 761F-         MOVW      DP,#_gMotorVars+42    ; [CPU_U] 
         0000005b 0002 
    1187                      .dwpsn  file "C:/ti/motorware/motorware_1_01_00_16/sw/solutions/instaspin_foc/src/proj_lab04.c",line 
    1188 0000005c D018          MOVB      XAR0,#24              ; [CPU_] |587| 
    1189                      .dwpsn  file "C:/ti/motorware/motorware_1_01_00_16/sw/solutions/instaspin_foc/src/proj_lab04.c",line 
    1190 0000005d 1E2A-         MOVL      @_gMotorVars+42,ACC   ; [CPU_] |584| 
    1191                      .dwpsn  file "C:/ti/motorware/motorware_1_01_00_16/sw/solutions/instaspin_foc/src/proj_lab04.c",line 
    1192 0000005e 8A92          MOVL      XAR4,*+XAR2[AR0]      ; [CPU_] |587| 
    1193              $C$DW$172       .dwtag  DW_TAG_TI_branch
    1194                      .dwattr $C$DW$172, DW_AT_low_pc(0x00)
    1195                      .dwattr $C$DW$172, DW_AT_name("_EST_getRr_Ohm")
    1196                      .dwattr $C$DW$172, DW_AT_TI_call
    1197 0000005f 7640!         LCR       #_EST_getRr_Ohm       ; [CPU_] |587| 
         00000060 0000 
    1198                      ; call occurs [#_EST_getRr_Ohm] ; [] |587| 
    1199 00000061 761F-         MOVW      DP,#_gMotorVars+44    ; [CPU_U] 
         00000062 0002 
    1200                      .dwpsn  file "C:/ti/motorware/motorware_1_01_00_16/sw/solutions/instaspin_foc/src/proj_lab04.c",line 
    1201 00000063 D018          MOVB      XAR0,#24              ; [CPU_] |590| 
    1202                      .dwpsn  file "C:/ti/motorware/motorware_1_01_00_16/sw/solutions/instaspin_foc/src/proj_lab04.c",line 
    1203 00000064 1E2C-         MOVL      @_gMotorVars+44,ACC   ; [CPU_] |587| 
    1204                      .dwpsn  file "C:/ti/motorware/motorware_1_01_00_16/sw/solutions/instaspin_foc/src/proj_lab04.c",line 
    1205 00000065 8A92          MOVL      XAR4,*+XAR2[AR0]      ; [CPU_] |590| 
    1206              $C$DW$173       .dwtag  DW_TAG_TI_branch
    1207                      .dwattr $C$DW$173, DW_AT_low_pc(0x00)
    1208                      .dwattr $C$DW$173, DW_AT_name("_EST_getRs_Ohm")
    1209                      .dwattr $C$DW$173, DW_AT_TI_call
    1210 00000066 7640!         LCR       #_EST_getRs_Ohm       ; [CPU_] |590| 
         00000067 0000 
    1211                      ; call occurs [#_EST_getRs_Ohm] ; [] |590| 
    1212 00000068 761F-         MOVW      DP,#_gMotorVars+46    ; [CPU_U] 
         00000069 0002 
    1213                      .dwpsn  file "C:/ti/motorware/motorware_1_01_00_16/sw/solutions/instaspin_foc/src/proj_lab04.c",line 
    1214 0000006a D018          MOVB      XAR0,#24              ; [CPU_] |593| 
    1215                      .dwpsn  file "C:/ti/motorware/motorware_1_01_00_16/sw/solutions/instaspin_foc/src/proj_lab04.c",line 
    1216 0000006b 1E2E-         MOVL      @_gMotorVars+46,ACC   ; [CPU_] |590| 
TMS320C2000 Assembler PC v6.4.11 Wed Nov 23 10:34:31 2016

Tools Copyright (c) 1996-2015 Texas Instruments Incorporated
C:\Users\bee25\AppData\Local\Temp\3793210                            PAGE   25

    1217                      .dwpsn  file "C:/ti/motorware/motorware_1_01_00_16/sw/solutions/instaspin_foc/src/proj_lab04.c",line 
    1218 0000006c 8A92          MOVL      XAR4,*+XAR2[AR0]      ; [CPU_] |593| 
    1219              $C$DW$174       .dwtag  DW_TAG_TI_branch
    1220                      .dwattr $C$DW$174, DW_AT_low_pc(0x00)
    1221                      .dwattr $C$DW$174, DW_AT_name("_EST_getLs_d_H")
    1222                      .dwattr $C$DW$174, DW_AT_TI_call
    1223 0000006d 7640!         LCR       #_EST_getLs_d_H       ; [CPU_] |593| 
         0000006e 0000 
    1224                      ; call occurs [#_EST_getLs_d_H] ; [] |593| 
    1225 0000006f 761F-         MOVW      DP,#_gMotorVars+50    ; [CPU_U] 
         00000070 0002 
    1226                      .dwpsn  file "C:/ti/motorware/motorware_1_01_00_16/sw/solutions/instaspin_foc/src/proj_lab04.c",line 
    1227 00000071 D018          MOVB      XAR0,#24              ; [CPU_] |596| 
    1228                      .dwpsn  file "C:/ti/motorware/motorware_1_01_00_16/sw/solutions/instaspin_foc/src/proj_lab04.c",line 
    1229 00000072 1E32-         MOVL      @_gMotorVars+50,ACC   ; [CPU_] |593| 
    1230                      .dwpsn  file "C:/ti/motorware/motorware_1_01_00_16/sw/solutions/instaspin_foc/src/proj_lab04.c",line 
    1231 00000073 8A92          MOVL      XAR4,*+XAR2[AR0]      ; [CPU_] |596| 
    1232              $C$DW$175       .dwtag  DW_TAG_TI_branch
    1233                      .dwattr $C$DW$175, DW_AT_low_pc(0x00)
    1234                      .dwattr $C$DW$175, DW_AT_name("_EST_getLs_q_H")
    1235                      .dwattr $C$DW$175, DW_AT_TI_call
    1236 00000074 7640!         LCR       #_EST_getLs_q_H       ; [CPU_] |596| 
         00000075 0000 
    1237                      ; call occurs [#_EST_getLs_q_H] ; [] |596| 
    1238 00000076 761F-         MOVW      DP,#_gMotorVars+52    ; [CPU_U] 
         00000077 0002 
    1239                      .dwpsn  file "C:/ti/motorware/motorware_1_01_00_16/sw/solutions/instaspin_foc/src/proj_lab04.c",line 
    1240 00000078 D018          MOVB      XAR0,#24              ; [CPU_] |599| 
    1241                      .dwpsn  file "C:/ti/motorware/motorware_1_01_00_16/sw/solutions/instaspin_foc/src/proj_lab04.c",line 
    1242 00000079 1E34-         MOVL      @_gMotorVars+52,ACC   ; [CPU_] |596| 
    1243                      .dwpsn  file "C:/ti/motorware/motorware_1_01_00_16/sw/solutions/instaspin_foc/src/proj_lab04.c",line 
    1244 0000007a 8A92          MOVL      XAR4,*+XAR2[AR0]      ; [CPU_] |599| 
    1245              $C$DW$176       .dwtag  DW_TAG_TI_branch
    1246                      .dwattr $C$DW$176, DW_AT_low_pc(0x00)
    1247                      .dwattr $C$DW$176, DW_AT_name("_EST_getFlux_VpHz")
    1248                      .dwattr $C$DW$176, DW_AT_TI_call
    1249 0000007b 7640!         LCR       #_EST_getFlux_VpHz    ; [CPU_] |599| 
         0000007c 0000 
    1250                      ; call occurs [#_EST_getFlux_VpHz] ; [] |599| 
    1251 0000007d 761F-         MOVW      DP,#_gMotorVars+54    ; [CPU_U] 
         0000007e 0002 
    1252 0000007f 1E36-         MOVL      @_gMotorVars+54,ACC   ; [CPU_] |599| 
    1253                      .dwpsn  file "C:/ti/motorware/motorware_1_01_00_16/sw/solutions/instaspin_foc/src/proj_lab04.c",line 
    1254 00000080 8AA2          MOVL      XAR4,XAR2             ; [CPU_] |602| 
    1255 00000081 761F-         MOVW      DP,#_gFlux_pu_to_Wb_sf ; [CPU_U] 
         00000082 0000 
    1256 00000083 0616-         MOVL      ACC,@_gFlux_pu_to_Wb_sf ; [CPU_] |602| 
    1257              $C$DW$177       .dwtag  DW_TAG_TI_branch
    1258                      .dwattr $C$DW$177, DW_AT_low_pc(0x00)
    1259                      .dwattr $C$DW$177, DW_AT_name("_USER_computeFlux")
    1260                      .dwattr $C$DW$177, DW_AT_TI_call
    1261 00000084 7640!         LCR       #_USER_computeFlux    ; [CPU_] |602| 
         00000085 0000 
    1262                      ; call occurs [#_USER_computeFlux] ; [] |602| 
    1263 00000086 761F-         MOVW      DP,#_gMotorVars+38    ; [CPU_U] 
TMS320C2000 Assembler PC v6.4.11 Wed Nov 23 10:34:31 2016

Tools Copyright (c) 1996-2015 Texas Instruments Incorporated
C:\Users\bee25\AppData\Local\Temp\3793210                            PAGE   26

         00000087 0002 
    1264                      .dwpsn  file "C:/ti/motorware/motorware_1_01_00_16/sw/solutions/instaspin_foc/src/proj_lab04.c",line 
    1265 00000088 D018          MOVB      XAR0,#24              ; [CPU_] |608| 
    1266                      .dwpsn  file "C:/ti/motorware/motorware_1_01_00_16/sw/solutions/instaspin_foc/src/proj_lab04.c",line 
    1267 00000089 1E26-         MOVL      @_gMotorVars+38,ACC   ; [CPU_] |602| 
    1268                      .dwpsn  file "C:/ti/motorware/motorware_1_01_00_16/sw/solutions/instaspin_foc/src/proj_lab04.c",line 
    1269 0000008a 92E2          MOV       AL,*+XAR2[4]          ; [CPU_] |605| 
    1270 0000008b 960B-         MOV       @_gMotorVars+11,AL    ; [CPU_] |605| 
    1271                      .dwpsn  file "C:/ti/motorware/motorware_1_01_00_16/sw/solutions/instaspin_foc/src/proj_lab04.c",line 
    1272 0000008c 8A92          MOVL      XAR4,*+XAR2[AR0]      ; [CPU_] |608| 
    1273              $C$DW$178       .dwtag  DW_TAG_TI_branch
    1274                      .dwattr $C$DW$178, DW_AT_low_pc(0x00)
    1275                      .dwattr $C$DW$178, DW_AT_name("_EST_getState")
    1276                      .dwattr $C$DW$178, DW_AT_TI_call
    1277 0000008d 7640!         LCR       #_EST_getState        ; [CPU_] |608| 
         0000008e 0000 
    1278                      ; call occurs [#_EST_getState] ; [] |608| 
    1279 0000008f 761F-         MOVW      DP,#_gMotorVars+12    ; [CPU_U] 
         00000090 0002 
    1280 00000091 960C-         MOV       @_gMotorVars+12,AL    ; [CPU_] |608| 
    1281                      .dwpsn  file "C:/ti/motorware/motorware_1_01_00_16/sw/solutions/instaspin_foc/src/proj_lab04.c",line 
    1282 00000092 8F0C          MOVL      XAR4,#838860          ; [CPU_U] |611| 
         00000093 CCCC 
    1283 00000094 761F-         MOVW      DP,#_gAdcData+12      ; [CPU_U] 
         00000095 0001 
    1284 00000096 870C-         MOVL      XT,@_gAdcData+12      ; [CPU_] |611| 
    1285 00000097 FE82          SUBB      SP,#2                 ; [CPU_U] 
    1286                      .dwcfi  cfa_offset, -6
    1287 00000098 86BE          MOVL      XAR2,*--SP            ; [CPU_] 
    1288                      .dwcfi  cfa_offset, -4
    1289                      .dwcfi  restore_reg, 9
    1290 00000099 5605          IMPYL     P,XT,XAR4             ; [CPU_] |611| 
         0000009a 00A4 
    1291 0000009b 5663          QMPYL     ACC,XT,XAR4           ; [CPU_] |611| 
         0000009c 00A4 
    1292 0000009d 8BBE          MOVL      XAR1,*--SP            ; [CPU_] 
    1293                      .dwcfi  cfa_offset, -2
    1294                      .dwcfi  restore_reg, 7
    1295 0000009e 56A7          LSL64     ACC:P,#8              ; [CPU_] |611| 
    1296 0000009f 761F-         MOVW      DP,#_gMotorVars+84    ; [CPU_U] 
         000000a0 0003 
    1297 000000a1 1E14-         MOVL      @_gMotorVars+84,ACC   ; [CPU_] |611| 
    1298              $C$DW$179       .dwtag  DW_TAG_TI_branch
    1299                      .dwattr $C$DW$179, DW_AT_low_pc(0x00)
    1300                      .dwattr $C$DW$179, DW_AT_TI_return
    1301 000000a2 0006          LRETR     ; [CPU_] 
    1302                      ; return occurs ; [] 
    1303                      .dwattr $C$DW$165, DW_AT_TI_end_file("C:/ti/motorware/motorware_1_01_00_16/sw/solutions/instaspin_foc
    1304                      .dwattr $C$DW$165, DW_AT_TI_end_line(0x266)
    1305                      .dwattr $C$DW$165, DW_AT_TI_end_column(0x01)
    1306                      .dwendentry
    1307                      .dwendtag $C$DW$165
    1308              
    1309 000000a3               .sect   ".text"
    1310                      .clink
TMS320C2000 Assembler PC v6.4.11 Wed Nov 23 10:34:31 2016

Tools Copyright (c) 1996-2015 Texas Instruments Incorporated
C:\Users\bee25\AppData\Local\Temp\3793210                            PAGE   27

    1311              
    1312              $C$DW$180       .dwtag  DW_TAG_subprogram, DW_AT_name("HAL_readAdcData")
    1313                      .dwattr $C$DW$180, DW_AT_low_pc(_HAL_readAdcData)
    1314                      .dwattr $C$DW$180, DW_AT_high_pc(0x00)
    1315                      .dwattr $C$DW$180, DW_AT_TI_symbol_name("_HAL_readAdcData")
    1316                      .dwattr $C$DW$180, DW_AT_TI_begin_file("C:/ti/motorware/motorware_1_01_00_16/sw/modules/hal/boards/bo
    1317                      .dwattr $C$DW$180, DW_AT_TI_begin_line(0x1fb)
    1318                      .dwattr $C$DW$180, DW_AT_TI_begin_column(0x14)
    1319                      .dwattr $C$DW$180, DW_AT_TI_max_frame_size(-6)
    1320                      .dwpsn  file "C:/ti/motorware/motorware_1_01_00_16/sw/modules/hal/boards/boostxldrv8301_revB/f28x/f28
    1321              
    1322                      .dwfde $C$DW$CIE, _HAL_readAdcData
    1323              $C$DW$181       .dwtag  DW_TAG_variable, DW_AT_name("current")
    1324                      .dwattr $C$DW$181, DW_AT_TI_symbol_name("_current$1")
    1325                      .dwattr $C$DW$181, DW_AT_type(*$C$DW$T$12)
    1326                      .dwattr $C$DW$181, DW_AT_location[DW_OP_addr _current$1]
    1327              $C$DW$182       .dwtag  DW_TAG_formal_parameter, DW_AT_name("handle")
    1328                      .dwattr $C$DW$182, DW_AT_TI_symbol_name("_handle")
    1329                      .dwattr $C$DW$182, DW_AT_type(*$C$DW$T$252)
    1330                      .dwattr $C$DW$182, DW_AT_location[DW_OP_reg12]
    1331              $C$DW$183       .dwtag  DW_TAG_formal_parameter, DW_AT_name("pAdcData")
    1332                      .dwattr $C$DW$183, DW_AT_TI_symbol_name("_pAdcData")
    1333                      .dwattr $C$DW$183, DW_AT_type(*$C$DW$T$245)
    1334                      .dwattr $C$DW$183, DW_AT_location[DW_OP_reg14]
    1335              
    1336              ;***************************************************************
    1337              ;* FNAME: _HAL_readAdcData              FR SIZE:   4           *
    1338              ;*                                                             *
    1339              ;* FUNCTION ENVIRONMENT                                        *
    1340              ;*                                                             *
    1341              ;* FUNCTION PROPERTIES                                         *
    1342              ;*                            2 Parameter,  0 Auto,  2 SOE     *
    1343              ;***************************************************************
    1344              
    1345              _HAL_readAdcData:
    1346              ;* AL    assigned to $O$C1
    1347              ;* AR4   assigned to _handle
    1348              $C$DW$184       .dwtag  DW_TAG_variable, DW_AT_name("handle")
    1349                      .dwattr $C$DW$184, DW_AT_TI_symbol_name("_handle")
    1350                      .dwattr $C$DW$184, DW_AT_type(*$C$DW$T$253)
    1351                      .dwattr $C$DW$184, DW_AT_location[DW_OP_reg12]
    1352              ;* AR1   assigned to _pAdcData
    1353              $C$DW$185       .dwtag  DW_TAG_variable, DW_AT_name("pAdcData")
    1354                      .dwattr $C$DW$185, DW_AT_TI_symbol_name("_pAdcData")
    1355                      .dwattr $C$DW$185, DW_AT_type(*$C$DW$T$246)
    1356                      .dwattr $C$DW$185, DW_AT_location[DW_OP_reg6]
    1357              ;* AR6   assigned to _current_sf
    1358              $C$DW$186       .dwtag  DW_TAG_variable, DW_AT_name("current_sf")
    1359                      .dwattr $C$DW$186, DW_AT_TI_symbol_name("_current_sf")
    1360                      .dwattr $C$DW$186, DW_AT_type(*$C$DW$T$32)
    1361                      .dwattr $C$DW$186, DW_AT_location[DW_OP_reg16]
    1362              ;* AR7   assigned to _voltage_sf
    1363              $C$DW$187       .dwtag  DW_TAG_variable, DW_AT_name("voltage_sf")
    1364                      .dwattr $C$DW$187, DW_AT_TI_symbol_name("_voltage_sf")
    1365                      .dwattr $C$DW$187, DW_AT_type(*$C$DW$T$32)
TMS320C2000 Assembler PC v6.4.11 Wed Nov 23 10:34:31 2016

Tools Copyright (c) 1996-2015 Texas Instruments Incorporated
C:\Users\bee25\AppData\Local\Temp\3793210                            PAGE   28

    1366                      .dwattr $C$DW$187, DW_AT_location[DW_OP_reg18]
    1367              ;* AL    assigned to _throttle
    1368              $C$DW$188       .dwtag  DW_TAG_variable, DW_AT_name("throttle")
    1369                      .dwattr $C$DW$188, DW_AT_TI_symbol_name("_throttle")
    1370                      .dwattr $C$DW$188, DW_AT_type(*$C$DW$T$12)
    1371                      .dwattr $C$DW$188, DW_AT_location[DW_OP_reg0]
    1372              ;* XT    assigned to _value
    1373              $C$DW$189       .dwtag  DW_TAG_variable, DW_AT_name("value")
    1374                      .dwattr $C$DW$189, DW_AT_TI_symbol_name("_value")
    1375                      .dwattr $C$DW$189, DW_AT_type(*$C$DW$T$32)
    1376                      .dwattr $C$DW$189, DW_AT_location[DW_OP_reg21]
    1377              ;* XT    assigned to _value
    1378              $C$DW$190       .dwtag  DW_TAG_variable, DW_AT_name("value")
    1379                      .dwattr $C$DW$190, DW_AT_TI_symbol_name("_value")
    1380                      .dwattr $C$DW$190, DW_AT_type(*$C$DW$T$32)
    1381                      .dwattr $C$DW$190, DW_AT_location[DW_OP_reg21]
    1382              ;* XT    assigned to _value
    1383              $C$DW$191       .dwtag  DW_TAG_variable, DW_AT_name("value")
    1384                      .dwattr $C$DW$191, DW_AT_TI_symbol_name("_value")
    1385                      .dwattr $C$DW$191, DW_AT_type(*$C$DW$T$32)
    1386                      .dwattr $C$DW$191, DW_AT_location[DW_OP_reg21]
    1387              ;* XT    assigned to _value
    1388              $C$DW$192       .dwtag  DW_TAG_variable, DW_AT_name("value")
    1389                      .dwattr $C$DW$192, DW_AT_TI_symbol_name("_value")
    1390                      .dwattr $C$DW$192, DW_AT_type(*$C$DW$T$32)
    1391                      .dwattr $C$DW$192, DW_AT_location[DW_OP_reg21]
    1392              ;* XT    assigned to _value
    1393              $C$DW$193       .dwtag  DW_TAG_variable, DW_AT_name("value")
    1394                      .dwattr $C$DW$193, DW_AT_TI_symbol_name("_value")
    1395                      .dwattr $C$DW$193, DW_AT_type(*$C$DW$T$32)
    1396                      .dwattr $C$DW$193, DW_AT_location[DW_OP_reg21]
    1397              ;* XT    assigned to _value
    1398              $C$DW$194       .dwtag  DW_TAG_variable, DW_AT_name("value")
    1399                      .dwattr $C$DW$194, DW_AT_TI_symbol_name("_value")
    1400                      .dwattr $C$DW$194, DW_AT_type(*$C$DW$T$32)
    1401                      .dwattr $C$DW$194, DW_AT_location[DW_OP_reg21]
    1402              ;* XT    assigned to _value
    1403              $C$DW$195       .dwtag  DW_TAG_variable, DW_AT_name("value")
    1404                      .dwattr $C$DW$195, DW_AT_TI_symbol_name("_value")
    1405                      .dwattr $C$DW$195, DW_AT_type(*$C$DW$T$32)
    1406                      .dwattr $C$DW$195, DW_AT_location[DW_OP_reg21]
    1407                      .dwcfi  cfa_offset, -2
    1408                      .dwcfi  save_reg_to_mem, 26, 0
    1409 000000a3 B2BD          MOVL      *SP++,XAR1            ; [CPU_] 
    1410                      .dwcfi  save_reg_to_mem, 7, 2
    1411                      .dwcfi  cfa_offset, -4
    1412 000000a4 FE02          ADDB      SP,#2                 ; [CPU_U] 
    1413                      .dwcfi  cfa_offset, -6
    1414                      .dwpsn  file "C:/ti/motorware/motorware_1_01_00_16/sw/modules/hal/boards/boostxldrv8301_revB/f28x/f28
    1415 000000a5 D0A2          MOVB      XAR0,#162             ; [CPU_] |364| 
    1416                      .dwpsn  file "C:/ti/motorware/motorware_1_01_00_16/sw/modules/hal/boards/boostxldrv8301_revB/f28x/f28
    1417 000000a6 8BA5          MOVL      XAR1,XAR5             ; [CPU_] |508| 
    1418                      .dwpsn  file "C:/ti/motorware/motorware_1_01_00_16/sw/drivers/adc/src/32b/f28x/f2802x/adc.h",line 684
    1419 000000a7 83C4          MOVL      XAR5,*+XAR4[0]        ; [CPU_] |684| 
    1420                      .dwpsn  file "C:/ti/motorware/motorware_1_01_00_16/sw/modules/hal/boards/boostxldrv8301_revB/f28x/f28
TMS320C2000 Assembler PC v6.4.11 Wed Nov 23 10:34:31 2016

Tools Copyright (c) 1996-2015 Texas Instruments Incorporated
C:\Users\bee25\AppData\Local\Temp\3793210                            PAGE   29

    1421 000000a8 C494          MOVL      XAR6,*+XAR4[AR0]      ; [CPU_] |364| 
    1422                      .dwpsn  file "C:/ti/motorware/motorware_1_01_00_16/sw/modules/hal/boards/boostxldrv8301_revB/f28x/f28
    1423 000000a9 D0A4          MOVB      XAR0,#164             ; [CPU_] |459| 
    1424 000000aa C594          MOVL      XAR7,*+XAR4[AR0]      ; [CPU_] |459| 
    1425                      .dwpsn  file "C:/ti/motorware/motorware_1_01_00_16/sw/drivers/adc/src/32b/f28x/f2802x/adc.h",line 684
    1426 000000ab 0ECD          MOVU      ACC,*+XAR5[1]         ; [CPU_] |684| 
    1427                      .dwpsn  file "C:/ti/motorware/motorware_1_01_00_16/sw/modules/hal/boards/boostxldrv8301_revB/f28x/f28
    1428 000000ac D092          MOVB      XAR0,#146             ; [CPU_] |523| 
    1429                      .dwpsn  file "C:/ti/motorware/motorware_1_01_00_16/sw/drivers/adc/src/32b/f28x/f2802x/adc.h",line 684
    1430 000000ad 1EAC          MOVL      XT,ACC                ; [CPU_] |684| 
    1431                      .dwpsn  file "C:/ti/motorware/motorware_1_01_00_16/sw/modules/hal/boards/boostxldrv8301_revB/f28x/f28
    1432 000000ae 5605          IMPYL     P,XT,XAR6             ; [CPU_] |523| 
         000000af 00A6 
    1433 000000b0 5663          QMPYL     ACC,XT,XAR6           ; [CPU_] |523| 
         000000b1 00A6 
    1434 000000b2 568B          ASR64     ACC:P,#12             ; [CPU_] |523| 
    1435 000000b3 A9A9          MOVL      ACC,P                 ; [CPU_] |523| 
    1436 000000b4 0394          SUBL      ACC,*+XAR4[AR0]       ; [CPU_] |523| 
    1437                      .dwpsn  file "C:/ti/motorware/motorware_1_01_00_16/sw/modules/hal/boards/boostxldrv8301_revB/f28x/f28
    1438 000000b5 1EC1          MOVL      *+XAR1[0],ACC         ; [CPU_] |524| 
    1439                      .dwpsn  file "C:/ti/motorware/motorware_1_01_00_16/sw/drivers/adc/src/32b/f28x/f2802x/adc.h",line 684
    1440 000000b6 83C4          MOVL      XAR5,*+XAR4[0]        ; [CPU_] |684| 
    1441                      .dwpsn  file "C:/ti/motorware/motorware_1_01_00_16/sw/modules/hal/boards/boostxldrv8301_revB/f28x/f28
    1442 000000b7 D094          MOVB      XAR0,#148             ; [CPU_] |528| 
    1443                      .dwpsn  file "C:/ti/motorware/motorware_1_01_00_16/sw/drivers/adc/src/32b/f28x/f2802x/adc.h",line 684
    1444 000000b8 0ED5          MOVU      ACC,*+XAR5[2]         ; [CPU_] |684| 
    1445 000000b9 1EAC          MOVL      XT,ACC                ; [CPU_] |684| 
    1446                      .dwpsn  file "C:/ti/motorware/motorware_1_01_00_16/sw/modules/hal/boards/boostxldrv8301_revB/f28x/f28
    1447 000000ba 5605          IMPYL     P,XT,XAR6             ; [CPU_] |528| 
         000000bb 00A6 
    1448 000000bc 5663          QMPYL     ACC,XT,XAR6           ; [CPU_] |528| 
         000000bd 00A6 
    1449 000000be 568B          ASR64     ACC:P,#12             ; [CPU_] |528| 
    1450 000000bf A9A9          MOVL      ACC,P                 ; [CPU_] |528| 
    1451 000000c0 0394          SUBL      ACC,*+XAR4[AR0]       ; [CPU_] |528| 
    1452                      .dwpsn  file "C:/ti/motorware/motorware_1_01_00_16/sw/modules/hal/boards/boostxldrv8301_revB/f28x/f28
    1453 000000c1 1ED1          MOVL      *+XAR1[2],ACC         ; [CPU_] |529| 
    1454                      .dwpsn  file "C:/ti/motorware/motorware_1_01_00_16/sw/drivers/adc/src/32b/f28x/f2802x/adc.h",line 684
    1455 000000c2 83C4          MOVL      XAR5,*+XAR4[0]        ; [CPU_] |684| 
    1456                      .dwpsn  file "C:/ti/motorware/motorware_1_01_00_16/sw/modules/hal/boards/boostxldrv8301_revB/f28x/f28
    1457 000000c3 D096          MOVB      XAR0,#150             ; [CPU_] |533| 
    1458                      .dwpsn  file "C:/ti/motorware/motorware_1_01_00_16/sw/drivers/adc/src/32b/f28x/f2802x/adc.h",line 684
    1459 000000c4 0EDD          MOVU      ACC,*+XAR5[3]         ; [CPU_] |684| 
    1460 000000c5 1EAC          MOVL      XT,ACC                ; [CPU_] |684| 
    1461                      .dwpsn  file "C:/ti/motorware/motorware_1_01_00_16/sw/modules/hal/boards/boostxldrv8301_revB/f28x/f28
    1462 000000c6 5605          IMPYL     P,XT,XAR6             ; [CPU_] |533| 
         000000c7 00A6 
    1463 000000c8 5663          QMPYL     ACC,XT,XAR6           ; [CPU_] |533| 
         000000c9 00A6 
    1464 000000ca 568B          ASR64     ACC:P,#12             ; [CPU_] |533| 
    1465 000000cb A9A9          MOVL      ACC,P                 ; [CPU_] |533| 
    1466 000000cc 0394          SUBL      ACC,*+XAR4[AR0]       ; [CPU_] |533| 
    1467                      .dwpsn  file "C:/ti/motorware/motorware_1_01_00_16/sw/modules/hal/boards/boostxldrv8301_revB/f28x/f28
    1468 000000cd 1EE1          MOVL      *+XAR1[4],ACC         ; [CPU_] |534| 
    1469                      .dwpsn  file "C:/ti/motorware/motorware_1_01_00_16/sw/drivers/adc/src/32b/f28x/f2802x/adc.h",line 684
TMS320C2000 Assembler PC v6.4.11 Wed Nov 23 10:34:31 2016

Tools Copyright (c) 1996-2015 Texas Instruments Incorporated
C:\Users\bee25\AppData\Local\Temp\3793210                            PAGE   30

    1470 000000ce 83C4          MOVL      XAR5,*+XAR4[0]        ; [CPU_] |684| 
    1471                      .dwpsn  file "C:/ti/motorware/motorware_1_01_00_16/sw/modules/hal/boards/boostxldrv8301_revB/f28x/f28
    1472 000000cf D098          MOVB      XAR0,#152             ; [CPU_] |538| 
    1473                      .dwpsn  file "C:/ti/motorware/motorware_1_01_00_16/sw/drivers/adc/src/32b/f28x/f2802x/adc.h",line 684
    1474 000000d0 0EE5          MOVU      ACC,*+XAR5[4]         ; [CPU_] |684| 
    1475 000000d1 1EAC          MOVL      XT,ACC                ; [CPU_] |684| 
    1476                      .dwpsn  file "C:/ti/motorware/motorware_1_01_00_16/sw/modules/hal/boards/boostxldrv8301_revB/f28x/f28
    1477 000000d2 5605          IMPYL     P,XT,XAR7             ; [CPU_] |538| 
         000000d3 00A7 
    1478 000000d4 5663          QMPYL     ACC,XT,XAR7           ; [CPU_] |538| 
         000000d5 00A7 
    1479 000000d6 568B          ASR64     ACC:P,#12             ; [CPU_] |538| 
    1480 000000d7 A9A9          MOVL      ACC,P                 ; [CPU_] |538| 
    1481 000000d8 0394          SUBL      ACC,*+XAR4[AR0]       ; [CPU_] |538| 
    1482                      .dwpsn  file "C:/ti/motorware/motorware_1_01_00_16/sw/modules/hal/boards/boostxldrv8301_revB/f28x/f28
    1483 000000d9 1EF1          MOVL      *+XAR1[6],ACC         ; [CPU_] |539| 
    1484                      .dwpsn  file "C:/ti/motorware/motorware_1_01_00_16/sw/drivers/adc/src/32b/f28x/f2802x/adc.h",line 684
    1485 000000da 83C4          MOVL      XAR5,*+XAR4[0]        ; [CPU_] |684| 
    1486                      .dwpsn  file "C:/ti/motorware/motorware_1_01_00_16/sw/modules/hal/boards/boostxldrv8301_revB/f28x/f28
    1487 000000db D09A          MOVB      XAR0,#154             ; [CPU_] |543| 
    1488                      .dwpsn  file "C:/ti/motorware/motorware_1_01_00_16/sw/drivers/adc/src/32b/f28x/f2802x/adc.h",line 684
    1489 000000dc 0EED          MOVU      ACC,*+XAR5[5]         ; [CPU_] |684| 
    1490 000000dd 1EAC          MOVL      XT,ACC                ; [CPU_] |684| 
    1491                      .dwpsn  file "C:/ti/motorware/motorware_1_01_00_16/sw/modules/hal/boards/boostxldrv8301_revB/f28x/f28
    1492 000000de 5605          IMPYL     P,XT,XAR7             ; [CPU_] |543| 
         000000df 00A7 
    1493 000000e0 5663          QMPYL     ACC,XT,XAR7           ; [CPU_] |543| 
         000000e1 00A7 
    1494 000000e2 568B          ASR64     ACC:P,#12             ; [CPU_] |543| 
    1495 000000e3 A9A9          MOVL      ACC,P                 ; [CPU_] |543| 
    1496 000000e4 0394          SUBL      ACC,*+XAR4[AR0]       ; [CPU_] |543| 
    1497                      .dwpsn  file "C:/ti/motorware/motorware_1_01_00_16/sw/modules/hal/boards/boostxldrv8301_revB/f28x/f28
    1498 000000e5 D008          MOVB      XAR0,#8               ; [CPU_] |544| 
    1499 000000e6 1E91          MOVL      *+XAR1[AR0],ACC       ; [CPU_] |544| 
    1500                      .dwpsn  file "C:/ti/motorware/motorware_1_01_00_16/sw/drivers/adc/src/32b/f28x/f2802x/adc.h",line 684
    1501 000000e7 83C4          MOVL      XAR5,*+XAR4[0]        ; [CPU_] |684| 
    1502                      .dwpsn  file "C:/ti/motorware/motorware_1_01_00_16/sw/modules/hal/boards/boostxldrv8301_revB/f28x/f28
    1503 000000e8 D09C          MOVB      XAR0,#156             ; [CPU_] |548| 
    1504                      .dwpsn  file "C:/ti/motorware/motorware_1_01_00_16/sw/drivers/adc/src/32b/f28x/f2802x/adc.h",line 684
    1505 000000e9 0EF5          MOVU      ACC,*+XAR5[6]         ; [CPU_] |684| 
    1506 000000ea 1EAC          MOVL      XT,ACC                ; [CPU_] |684| 
    1507                      .dwpsn  file "C:/ti/motorware/motorware_1_01_00_16/sw/modules/hal/boards/boostxldrv8301_revB/f28x/f28
    1508 000000eb 5605          IMPYL     P,XT,XAR7             ; [CPU_] |548| 
         000000ec 00A7 
    1509 000000ed 5663          QMPYL     ACC,XT,XAR7           ; [CPU_] |548| 
         000000ee 00A7 
    1510 000000ef 568B          ASR64     ACC:P,#12             ; [CPU_] |548| 
    1511 000000f0 A9A9          MOVL      ACC,P                 ; [CPU_] |548| 
    1512 000000f1 0394          SUBL      ACC,*+XAR4[AR0]       ; [CPU_] |548| 
    1513                      .dwpsn  file "C:/ti/motorware/motorware_1_01_00_16/sw/modules/hal/boards/boostxldrv8301_revB/f28x/f28
    1514 000000f2 D00A          MOVB      XAR0,#10              ; [CPU_] |549| 
    1515 000000f3 1E91          MOVL      *+XAR1[AR0],ACC       ; [CPU_] |549| 
    1516                      .dwpsn  file "C:/ti/motorware/motorware_1_01_00_16/sw/drivers/adc/src/32b/f28x/f2802x/adc.h",line 684
    1517 000000f4 83C4          MOVL      XAR5,*+XAR4[0]        ; [CPU_] |684| 
    1518                      .dwpsn  file "C:/ti/motorware/motorware_1_01_00_16/sw/modules/hal/boards/boostxldrv8301_revB/f28x/f28
TMS320C2000 Assembler PC v6.4.11 Wed Nov 23 10:34:31 2016

Tools Copyright (c) 1996-2015 Texas Instruments Incorporated
C:\Users\bee25\AppData\Local\Temp\3793210                            PAGE   31

    1519 000000f5 D00C          MOVB      XAR0,#12              ; [CPU_] |554| 
    1520                      .dwpsn  file "C:/ti/motorware/motorware_1_01_00_16/sw/drivers/adc/src/32b/f28x/f2802x/adc.h",line 684
    1521 000000f6 0EFD          MOVU      ACC,*+XAR5[7]         ; [CPU_] |684| 
    1522 000000f7 1EAC          MOVL      XT,ACC                ; [CPU_] |684| 
    1523                      .dwpsn  file "C:/ti/motorware/motorware_1_01_00_16/sw/modules/hal/boards/boostxldrv8301_revB/f28x/f28
    1524 000000f8 5605          IMPYL     P,XT,XAR7             ; [CPU_] |553| 
         000000f9 00A7 
    1525 000000fa 5663          QMPYL     ACC,XT,XAR7           ; [CPU_] |553| 
         000000fb 00A7 
    1526 000000fc 568B          ASR64     ACC:P,#12             ; [CPU_] |553| 
    1527                      .dwpsn  file "C:/ti/motorware/motorware_1_01_00_16/sw/drivers/adc/src/32b/f28x/f2802x/adc.h",line 684
    1528 000000fd 0208          MOVB      ACC,#8                ; [CPU_] |684| 
    1529                      .dwpsn  file "C:/ti/motorware/motorware_1_01_00_16/sw/modules/hal/boards/boostxldrv8301_revB/f28x/f28
    1530 000000fe A991          MOVL      *+XAR1[AR0],P         ; [CPU_] |554| 
    1531                      .dwpsn  file "C:/ti/motorware/motorware_1_01_00_16/sw/drivers/adc/src/32b/f28x/f2802x/adc.h",line 684
    1532 000000ff 07C4          ADDL      ACC,*+XAR4[0]         ; [CPU_] |684| 
    1533 00000100 8AA9          MOVL      XAR4,ACC              ; [CPU_] |684| 
    1534                      .dwpsn  file "C:/ti/motorware/motorware_1_01_00_16/sw/modules/hal/boards/boostxldrv8301_revB/f28x/f28
    1535 00000101 BE14          MOVB      XAR6,#20              ; [CPU_] |561| 
    1536                      .dwpsn  file "C:/ti/motorware/motorware_1_01_00_16/sw/drivers/adc/src/32b/f28x/f2802x/adc.h",line 684
    1537 00000102 0EC4          MOVU      ACC,*+XAR4[0]         ; [CPU_] |684| 
    1538                      .dwpsn  file "C:/ti/motorware/motorware_1_01_00_16/sw/modules/hal/boards/boostxldrv8301_revB/f28x/f28
    1539 00000103 C242          MOVL      *-SP[2],XAR6          ; [CPU_] |561| 
    1540 00000104 BE13          MOVB      XAR6,#19              ; [CPU_] |561| 
    1541 00000105 D00E          MOVB      XAR0,#14              ; [CPU_] |561| 
    1542 00000106 FF00          SUB       ACC,#345 << 0         ; [CPU_] |561| 
         00000107 0159 
    1543 00000108 87A6          MOVL      XT,XAR6               ; [CPU_] |561| 
    1544 00000109 5605          IMPYL     P,XT,*+XAR1[AR0]      ; [CPU_] |561| 
         0000010a 0091 
    1545 0000010b 07AB          ADDL      ACC,P                 ; [CPU_] |561| 
    1546              $C$DW$196       .dwtag  DW_TAG_TI_branch
    1547                      .dwattr $C$DW$196, DW_AT_low_pc(0x00)
    1548                      .dwattr $C$DW$196, DW_AT_name("L$$DIV")
    1549                      .dwattr $C$DW$196, DW_AT_TI_call
    1550 0000010c 00C0!         FFC       XAR7,#L$$DIV          ; [CPU_] |561| 
         0000010d 0000 
    1551                      ; call occurs [#L$$DIV] ; [] |561| 
    1552                      .dwpsn  file "C:/ti/motorware/motorware_1_01_00_16/sw/modules/hal/boards/boostxldrv8301_revB/f28x/f28
    1553 0000010e D00E          MOVB      XAR0,#14              ; [CPU_] |562| 
    1554 0000010f 761F-         MOVW      DP,#_current$1        ; [CPU_U] 
         00000110 0000 
    1555                      .dwpsn  file "C:/ti/motorware/motorware_1_01_00_16/sw/modules/hal/boards/boostxldrv8301_revB/f28x/f28
    1556 00000111 1E0A-         MOVL      @_current$1,ACC       ; [CPU_] |561| 
    1557                      .dwpsn  file "C:/ti/motorware/motorware_1_01_00_16/sw/modules/hal/boards/boostxldrv8301_revB/f28x/f28
    1558 00000112 1E91          MOVL      *+XAR1[AR0],ACC       ; [CPU_] |562| 
    1559                      .dwpsn  file "C:/ti/motorware/motorware_1_01_00_16/sw/modules/hal/boards/boostxldrv8301_revB/f28x/f28
    1560 00000113 D00E          MOVB      XAR0,#14              ; [CPU_] |563| 
    1561 00000114 0691          MOVL      ACC,*+XAR1[AR0]       ; [CPU_] |563| 
    1562              $C$DW$197       .dwtag  DW_TAG_TI_branch
    1563                      .dwattr $C$DW$197, DW_AT_low_pc(0x00)
    1564                      .dwattr $C$DW$197, DW_AT_name("L$$TOFS")
    1565                      .dwattr $C$DW$197, DW_AT_TI_call
    1566 00000115 7640!         LCR       #L$$TOFS              ; [CPU_] |563| 
         00000116 0000 
TMS320C2000 Assembler PC v6.4.11 Wed Nov 23 10:34:31 2016

Tools Copyright (c) 1996-2015 Texas Instruments Incorporated
C:\Users\bee25\AppData\Local\Temp\3793210                            PAGE   32

    1567                      ; call occurs [#L$$TOFS] ; [] |563| 
    1568 00000117 1EA6          MOVL      XAR6,ACC              ; [CPU_] |563| 
    1569 00000118 9A00          MOV       AL,#0                 ; [CPU_] |563| 
    1570 00000119 9B00          MOV       AH,#0                 ; [CPU_] |563| 
    1571 0000011a 1E42          MOVL      *-SP[2],ACC           ; [CPU_] |563| 
    1572 0000011b 06A6          MOVL      ACC,XAR6              ; [CPU_] |563| 
    1573              $C$DW$198       .dwtag  DW_TAG_TI_branch
    1574                      .dwattr $C$DW$198, DW_AT_low_pc(0x00)
    1575                      .dwattr $C$DW$198, DW_AT_name("FS$$CMP")
    1576                      .dwattr $C$DW$198, DW_AT_TI_call
    1577 0000011c 7640!         LCR       #FS$$CMP              ; [CPU_] |563| 
         0000011d 0000 
    1578                      ; call occurs [#FS$$CMP] ; [] |563| 
    1579 0000011e 5200          CMPB      AL,#0                 ; [CPU_] |563| 
    1580 0000011f 56C2          BF        $C$L5,GT              ; [CPU_] |563| 
         00000120 0005 
    1581                      ; branchcc occurs ; [] |563| 
    1582                      .dwpsn  file "C:/ti/motorware/motorware_1_01_00_16/sw/modules/hal/boards/boostxldrv8301_revB/f28x/f28
    1583 00000121 D00E          MOVB      XAR0,#14              ; [CPU_] |564| 
    1584 00000122 0200          MOVB      ACC,#0                ; [CPU_] |564| 
    1585 00000123 1E91          MOVL      *+XAR1[AR0],ACC       ; [CPU_] |564| 
    1586 00000124       $C$L5:    
    1587 00000124 FE82          SUBB      SP,#2                 ; [CPU_U] 
    1588                      .dwcfi  cfa_offset, -4
    1589 00000125 8BBE          MOVL      XAR1,*--SP            ; [CPU_] 
    1590                      .dwcfi  cfa_offset, -2
    1591                      .dwcfi  restore_reg, 7
    1592              $C$DW$199       .dwtag  DW_TAG_TI_branch
    1593                      .dwattr $C$DW$199, DW_AT_low_pc(0x00)
    1594                      .dwattr $C$DW$199, DW_AT_TI_return
    1595 00000126 0006          LRETR     ; [CPU_] 
    1596                      ; return occurs ; [] 
    1597                      .dwattr $C$DW$180, DW_AT_TI_end_file("C:/ti/motorware/motorware_1_01_00_16/sw/modules/hal/boards/boos
    1598                      .dwattr $C$DW$180, DW_AT_TI_end_line(0x237)
    1599                      .dwattr $C$DW$180, DW_AT_TI_end_column(0x01)
    1600                      .dwendentry
    1601                      .dwendtag $C$DW$180
    1602              
    1603 00000000               .sect   "ramfuncs:retain"
    1604                      .retain
    1605                      .retainrefs
    1606                      .global _mainISR
    1607              
    1608              $C$DW$200       .dwtag  DW_TAG_subprogram, DW_AT_name("mainISR")
    1609                      .dwattr $C$DW$200, DW_AT_low_pc(_mainISR)
    1610                      .dwattr $C$DW$200, DW_AT_high_pc(0x00)
    1611                      .dwattr $C$DW$200, DW_AT_TI_symbol_name("_mainISR")
    1612                      .dwattr $C$DW$200, DW_AT_external
    1613                      .dwattr $C$DW$200, DW_AT_TI_begin_file("C:/ti/motorware/motorware_1_01_00_16/sw/solutions/instaspin_f
    1614                      .dwattr $C$DW$200, DW_AT_TI_begin_line(0x20a)
    1615                      .dwattr $C$DW$200, DW_AT_TI_begin_column(0x10)
    1616                      .dwattr $C$DW$200, DW_AT_TI_interrupt
    1617                      .dwattr $C$DW$200, DW_AT_TI_max_frame_size(-18)
    1618                      .dwpsn  file "C:/ti/motorware/motorware_1_01_00_16/sw/solutions/instaspin_foc/src/proj_lab04.c",line 
    1619              
TMS320C2000 Assembler PC v6.4.11 Wed Nov 23 10:34:31 2016

Tools Copyright (c) 1996-2015 Texas Instruments Incorporated
C:\Users\bee25\AppData\Local\Temp\3793210                            PAGE   33

    1620                      .dwfde $C$DW$CIE, _mainISR
    1621              
    1622              ;***************************************************************
    1623              ;* FNAME: _mainISR                      FR SIZE:  16           *
    1624              ;*                                                             *
    1625              ;* FUNCTION ENVIRONMENT                                        *
    1626              ;*                                                             *
    1627              ;* FUNCTION PROPERTIES                                         *
    1628              ;*                            4 Parameter,  0 Auto, 12 SOE     *
    1629              ;***************************************************************
    1630              
    1631              _mainISR:
    1632              ;* AR5   assigned to $O$C1
    1633              ;* AR1   assigned to $O$C2
    1634              ;* AR1   assigned to $O$C3
    1635              ;* AR4   assigned to $O$v1
    1636              ;* AR7   assigned to _period
    1637              $C$DW$201       .dwtag  DW_TAG_variable, DW_AT_name("period")
    1638                      .dwattr $C$DW$201, DW_AT_TI_symbol_name("_period")
    1639                      .dwattr $C$DW$201, DW_AT_type(*$C$DW$T$32)
    1640                      .dwattr $C$DW$201, DW_AT_location[DW_OP_reg18]
    1641              ;* AR4   assigned to _obj
    1642              $C$DW$202       .dwtag  DW_TAG_variable, DW_AT_name("obj")
    1643                      .dwattr $C$DW$202, DW_AT_TI_symbol_name("_obj")
    1644                      .dwattr $C$DW$202, DW_AT_type(*$C$DW$T$250)
    1645                      .dwattr $C$DW$202, DW_AT_location[DW_OP_reg12]
    1646              ;* AR1   assigned to $O$U47
    1647              ;* AR4   assigned to $O$U39
    1648                      .dwcfi  cfa_offset, -2
    1649                      .dwcfi  save_reg_to_mem, 26, 0
    1650 00000000 761B          ASP       ; [CPU_] 
    1651 00000001 0005          PUSH      AR1H:AR0H             ; [CPU_] 
    1652                      .dwcfi  save_reg_to_mem, 5, 2
    1653                      .dwcfi  save_reg_to_mem, 7, 3
    1654                      .dwcfi  cfa_offset, -4
    1655 00000002 ABBD          MOVL      *SP++,XT              ; [CPU_] 
    1656                      .dwcfi  save_reg_to_mem, 21, 4
    1657                      .dwcfi  save_reg_to_mem, 22, 5
    1658                      .dwcfi  cfa_offset, -6
    1659 00000003 A8BD          MOVL      *SP++,XAR4            ; [CPU_] 
    1660                      .dwcfi  save_reg_to_mem, 12, 6
    1661                      .dwcfi  save_reg_to_mem, 13, 7
    1662                      .dwcfi  cfa_offset, -8
    1663 00000004 A0BD          MOVL      *SP++,XAR5            ; [CPU_] 
    1664                      .dwcfi  save_reg_to_mem, 14, 8
    1665                      .dwcfi  save_reg_to_mem, 15, 9
    1666                      .dwcfi  cfa_offset, -10
    1667 00000005 C2BD          MOVL      *SP++,XAR6            ; [CPU_] 
    1668                      .dwcfi  save_reg_to_mem, 16, 10
    1669                      .dwcfi  save_reg_to_mem, 17, 11
    1670                      .dwcfi  cfa_offset, -12
    1671 00000006 C3BD          MOVL      *SP++,XAR7            ; [CPU_] 
    1672                      .dwcfi  save_reg_to_mem, 18, 12
    1673                      .dwcfi  save_reg_to_mem, 19, 13
    1674                      .dwcfi  cfa_offset, -14
TMS320C2000 Assembler PC v6.4.11 Wed Nov 23 10:34:31 2016

Tools Copyright (c) 1996-2015 Texas Instruments Incorporated
C:\Users\bee25\AppData\Local\Temp\3793210                            PAGE   34

    1675 00000007 FE04          ADDB      SP,#4                 ; [CPU_U] 
    1676                      .dwcfi  cfa_offset, -18
    1677 00000008 FF69          SPM       0                     ; [CPU_] 
    1678 00000009 2942          CLRC      PAGE0,OVM             ; [CPU_] 
    1679 0000000a 5616          CLRC      AMODE                 ; [CPU_] 
    1680 0000000b 761F-         MOVW      DP,#_gCurrentTrajectoryClk ; [CPU_U] 
         0000000c 0000 
    1681                      .dwpsn  file "C:/ti/motorware/motorware_1_01_00_16/sw/solutions/instaspin_foc/src/proj_lab04.c",line 
    1682 0000000d 0A01-         INC       @_gCurrentTrajectoryClk ; [CPU_] |532| 
    1683 0000000e 9201-         MOV       AL,@_gCurrentTrajectoryClk ; [CPU_] |532| 
    1684 0000000f 9CFF          ADDB      AL,#-1                ; [CPU_] |532| 
    1685 00000010 1BA9          CMP       AL,#6666              ; [CPU_] |532| 
         00000011 1A0A 
    1686 00000012 56C9          BF        $C$L7,LOS             ; [CPU_] |532| 
         00000013 001E 
    1687                      ; branchcc occurs ; [] |532| 
    1688                      .dwpsn  file "C:/ti/motorware/motorware_1_01_00_16/sw/solutions/instaspin_foc/src/proj_lab04.c",line 
    1689 00000014 28A9          MOV       AL,#52429             ; [CPU_] |533| 
         00000015 CCCD 
    1690 00000016 28A8          MOV       AH,#15820             ; [CPU_] |533| 
         00000017 3DCC 
    1691 00000018 1E42          MOVL      *-SP[2],ACC           ; [CPU_] |533| 
    1692 00000019 061A-         MOVL      ACC,@_gCurrentTrajectoryInc ; [CPU_] |533| 
    1693              $C$DW$203       .dwtag  DW_TAG_TI_branch
    1694                      .dwattr $C$DW$203, DW_AT_low_pc(0x00)
    1695                      .dwattr $C$DW$203, DW_AT_name("FS$$ADD")
    1696                      .dwattr $C$DW$203, DW_AT_TI_call
    1697 0000001a 7640!         LCR       #FS$$ADD              ; [CPU_] |533| 
         0000001b 0000 
    1698                      ; call occurs [#FS$$ADD] ; [] |533| 
    1699 0000001c 761F-         MOVW      DP,#_gCurrentTrajectoryInc ; [CPU_U] 
         0000001d 0000 
    1700 0000001e 1E1A-         MOVL      @_gCurrentTrajectoryInc,ACC ; [CPU_] |533| 
    1701                      .dwpsn  file "C:/ti/motorware/motorware_1_01_00_16/sw/solutions/instaspin_foc/src/proj_lab04.c",line 
    1702 0000001f FF2F          MOV       ACC,#32512 << 15      ; [CPU_] |534| 
         00000020 7F00 
    1703 00000021 1E42          MOVL      *-SP[2],ACC           ; [CPU_] |534| 
    1704 00000022 061A-         MOVL      ACC,@_gCurrentTrajectoryInc ; [CPU_] |534| 
    1705              $C$DW$204       .dwtag  DW_TAG_TI_branch
    1706                      .dwattr $C$DW$204, DW_AT_low_pc(0x00)
    1707                      .dwattr $C$DW$204, DW_AT_name("FS$$CMP")
    1708                      .dwattr $C$DW$204, DW_AT_TI_call
    1709 00000023 7640!         LCR       #FS$$CMP              ; [CPU_] |534| 
         00000024 0000 
    1710                      ; call occurs [#FS$$CMP] ; [] |534| 
    1711 00000025 5200          CMPB      AL,#0                 ; [CPU_] |534| 
    1712 00000026 56C5          BF        $C$L6,LEQ             ; [CPU_] |534| 
         00000027 0007 
    1713                      ; branchcc occurs ; [] |534| 
    1714                      .dwpsn  file "C:/ti/motorware/motorware_1_01_00_16/sw/solutions/instaspin_foc/src/proj_lab04.c",line 
    1715 00000028 FF2F          MOV       ACC,#32512 << 15      ; [CPU_] |535| 
         00000029 7F00 
    1716 0000002a 761F-         MOVW      DP,#_gCurrentTrajectoryInc ; [CPU_U] 
         0000002b 0000 
    1717 0000002c 1E1A-         MOVL      @_gCurrentTrajectoryInc,ACC ; [CPU_] |535| 
TMS320C2000 Assembler PC v6.4.11 Wed Nov 23 10:34:31 2016

Tools Copyright (c) 1996-2015 Texas Instruments Incorporated
C:\Users\bee25\AppData\Local\Temp\3793210                            PAGE   35

    1718 0000002d       $C$L6:    
    1719 0000002d 761F-         MOVW      DP,#_gCurrentTrajectoryClk ; [CPU_U] 
         0000002e 0000 
    1720                      .dwpsn  file "C:/ti/motorware/motorware_1_01_00_16/sw/solutions/instaspin_foc/src/proj_lab04.c",line 
    1721 0000002f 2B01-         MOV       @_gCurrentTrajectoryClk,#0 ; [CPU_] |538| 
    1722 00000030       $C$L7:    
    1723 00000030 761F-         MOVW      DP,#_gMotorVars+40    ; [CPU_U] 
         00000031 0002 
    1724                      .dwpsn  file "C:/ti/motorware/motorware_1_01_00_16/sw/solutions/instaspin_foc/src/proj_lab04.c",line 
    1725 00000032 0628-         MOVL      ACC,@_gMotorVars+40   ; [CPU_] |542| 
    1726              $C$DW$205       .dwtag  DW_TAG_TI_branch
    1727                      .dwattr $C$DW$205, DW_AT_low_pc(0x00)
    1728                      .dwattr $C$DW$205, DW_AT_name("__IQ24toF")
    1729                      .dwattr $C$DW$205, DW_AT_TI_call
    1730 00000033 7640!         LCR       #__IQ24toF            ; [CPU_] |542| 
         00000034 0000 
    1731                      ; call occurs [#__IQ24toF] ; [] |542| 
    1732 00000035 761F-         MOVW      DP,#_gMotorVars+30    ; [CPU_U] 
         00000036 0002 
    1733 00000037 8BA9          MOVL      XAR1,ACC              ; [CPU_] |542| 
    1734 00000038 061E-         MOVL      ACC,@_gMotorVars+30   ; [CPU_] |542| 
    1735              $C$DW$206       .dwtag  DW_TAG_TI_branch
    1736                      .dwattr $C$DW$206, DW_AT_low_pc(0x00)
    1737                      .dwattr $C$DW$206, DW_AT_name("__IQ24toF")
    1738                      .dwattr $C$DW$206, DW_AT_TI_call
    1739 00000039 7640!         LCR       #__IQ24toF            ; [CPU_] |542| 
         0000003a 0000 
    1740                      ; call occurs [#__IQ24toF] ; [] |542| 
    1741 0000003b 1E42          MOVL      *-SP[2],ACC           ; [CPU_] |542| 
    1742 0000003c B2A9          MOVL      ACC,XAR1              ; [CPU_] |542| 
    1743              $C$DW$207       .dwtag  DW_TAG_TI_branch
    1744                      .dwattr $C$DW$207, DW_AT_low_pc(0x00)
    1745                      .dwattr $C$DW$207, DW_AT_name("FS$$MPY")
    1746                      .dwattr $C$DW$207, DW_AT_TI_call
    1747 0000003d 7640!         LCR       #FS$$MPY              ; [CPU_] |542| 
         0000003e 0000 
    1748                      ; call occurs [#FS$$MPY] ; [] |542| 
    1749 0000003f 1EA6          MOVL      XAR6,ACC              ; [CPU_] |542| 
    1750 00000040 28A9          MOV       AL,#28804             ; [CPU_] |542| 
         00000041 7084 
    1751 00000042 28A8          MOV       AH,#17105             ; [CPU_] |542| 
         00000043 42D1 
    1752 00000044 1E42          MOVL      *-SP[2],ACC           ; [CPU_] |542| 
    1753 00000045 06A6          MOVL      ACC,XAR6              ; [CPU_] |542| 
    1754              $C$DW$208       .dwtag  DW_TAG_TI_branch
    1755                      .dwattr $C$DW$208, DW_AT_low_pc(0x00)
    1756                      .dwattr $C$DW$208, DW_AT_name("FS$$MPY")
    1757                      .dwattr $C$DW$208, DW_AT_TI_call
    1758 00000046 7640!         LCR       #FS$$MPY              ; [CPU_] |542| 
         00000047 0000 
    1759                      ; call occurs [#FS$$MPY] ; [] |542| 
    1760 00000048 761F-         MOVW      DP,#_motor_power_W    ; [CPU_U] 
         00000049 0000 
    1761 0000004a 1E0C-         MOVL      @_motor_power_W,ACC   ; [CPU_] |542| 
    1762 0000004b 761F-         MOVW      DP,#_halHandle        ; [CPU_U] 
TMS320C2000 Assembler PC v6.4.11 Wed Nov 23 10:34:31 2016

Tools Copyright (c) 1996-2015 Texas Instruments Incorporated
C:\Users\bee25\AppData\Local\Temp\3793210                            PAGE   36

         0000004c 0000 
    1763                      .dwpsn  file "C:/ti/motorware/motorware_1_01_00_16/sw/solutions/instaspin_foc/src/proj_lab04.c",line 
    1764 0000004d 8A00-         MOVL      XAR4,@_halHandle      ; [CPU_] |547| 
    1765                      .dwpsn  file "C:/ti/motorware/motorware_1_01_00_16/sw/drivers/adc/src/32b/f28x/f2802x/adc.h",line 571
    1766 0000004e 8F40          MOVL      XAR5,#26117           ; [CPU_U] |571| 
         0000004f 6605 
    1767 00000050 A0A9          MOVL      ACC,XAR5              ; [CPU_] |571| 
    1768 00000051 07C4          ADDL      ACC,*+XAR4[0]         ; [CPU_] |571| 
    1769 00000052 83A9          MOVL      XAR5,ACC              ; [CPU_] |571| 
    1770                      .dwpsn  file "C:/ti/motorware/motorware_1_01_00_16/sw/drivers/pie/src/32b/f28x/f2802x/pie.h",line 757
    1771 00000053 D078          MOVB      XAR0,#120             ; [CPU_] |757| 
    1772                      .dwpsn  file "C:/ti/motorware/motorware_1_01_00_16/sw/drivers/adc/src/32b/f28x/f2802x/adc.h",line 571
    1773 00000054 56BF          MOVB      *+XAR5[0],#1,UNC      ; [CPU_] |571| 
         00000055 01C5 
    1774                      .dwpsn  file "C:/ti/motorware/motorware_1_01_00_16/sw/drivers/pie/src/32b/f28x/f2802x/pie.h",line 757
    1775 00000056 8394          MOVL      XAR5,*+XAR4[AR0]      ; [CPU_] |757| 
    1776                      .dwpsn  file "C:/ti/motorware/motorware_1_01_00_16/sw/solutions/instaspin_foc/src/proj_lab04.c",line 
    1777 00000057 8D40-         MOVL      XAR1,#_gAdcData       ; [CPU_U] |551| 
         00000058 0040 
    1778                      .dwpsn  file "C:/ti/motorware/motorware_1_01_00_16/sw/drivers/pie/src/32b/f28x/f2802x/pie.h",line 757
    1779 00000059 28CD          MOV       *+XAR5[1],#512        ; [CPU_] |757| 
         0000005a 0200 
    1780                      .dwpsn  file "C:/ti/motorware/motorware_1_01_00_16/sw/solutions/instaspin_foc/src/proj_lab04.c",line 
    1781 0000005b 83A1          MOVL      XAR5,XAR1             ; [CPU_] |551| 
    1782              $C$DW$209       .dwtag  DW_TAG_TI_branch
    1783                      .dwattr $C$DW$209, DW_AT_low_pc(0x00)
    1784                      .dwattr $C$DW$209, DW_AT_name("_HAL_readAdcData")
    1785                      .dwattr $C$DW$209, DW_AT_TI_call
    1786 0000005c 7640'         LCR       #_HAL_readAdcData     ; [CPU_] |551| 
         0000005d 00A3 
    1787                      ; call occurs [#_HAL_readAdcData] ; [] |551| 
    1788 0000005e 761F-         MOVW      DP,#_ctrlHandle       ; [CPU_U] 
         0000005f 0000 
    1789                      .dwpsn  file "C:/ti/motorware/motorware_1_01_00_16/sw/solutions/instaspin_foc/src/proj_lab04.c",line 
    1790 00000060 B242          MOVL      *-SP[2],XAR1          ; [CPU_] |555| 
    1791 00000061 8A08-         MOVL      XAR4,@_ctrlHandle     ; [CPU_] |555| 
    1792 00000062 761F-         MOVW      DP,#_halHandle        ; [CPU_U] 
         00000063 0000 
    1793 00000064 8D40-         MOVL      XAR1,#_gPwmData       ; [CPU_U] |555| 
         00000065 002C 
    1794 00000066 8300-         MOVL      XAR5,@_halHandle      ; [CPU_] |555| 
    1795 00000067 B244          MOVL      *-SP[4],XAR1          ; [CPU_] |555| 
    1796              $C$DW$210       .dwtag  DW_TAG_TI_branch
    1797                      .dwattr $C$DW$210, DW_AT_low_pc(0x00)
    1798                      .dwattr $C$DW$210, DW_AT_name("_CTRL_run")
    1799                      .dwattr $C$DW$210, DW_AT_TI_call
    1800 00000068 7640!         LCR       #_CTRL_run            ; [CPU_] |555| 
         00000069 0000 
    1801                      ; call occurs [#_CTRL_run] ; [] |555| 
    1802 0000006a 761F-         MOVW      DP,#_halHandle        ; [CPU_U] 
         0000006b 0000 
    1803 0000006c 027C          MOVB      ACC,#124              ; [CPU_] 
    1804 0000006d BE02          MOVB      XAR6,#2               ; [CPU_] 
    1805 0000006e 0700-         ADDL      ACC,@_halHandle       ; [CPU_] 
    1806 0000006f 8AA9          MOVL      XAR4,ACC              ; [CPU_] 
TMS320C2000 Assembler PC v6.4.11 Wed Nov 23 10:34:31 2016

Tools Copyright (c) 1996-2015 Texas Instruments Incorporated
C:\Users\bee25\AppData\Local\Temp\3793210                            PAGE   37

    1807 00000070 3B01          SETC      SXM                   ; [CPU_] 
    1808 00000071       $C$L8:    
    1809                      .dwpsn  file "C:/ti/motorware/motorware_1_01_00_16/sw/drivers/pwm/src/32b/f28x/f2802x/pwm.h",line 171
    1810 00000071 FF2F          MOV       ACC,#-512 << 15       ; [CPU_] |1717| 
         00000072 FE00 
    1811 00000073 8781          MOVL      XT,*XAR1++            ; [CPU_] |1717| 
    1812                      .dwpsn  file "C:/ti/motorware/motorware_1_01_00_16/sw/modules/hal/boards/boostxldrv8301_revB/f28x/f28
    1813 00000074 8384          MOVL      XAR5,*XAR4++          ; [CPU_] |1092| 
    1814                      .dwpsn  file "C:/ti/motorware/motorware_1_01_00_16/sw/drivers/pwm/src/32b/f28x/f2802x/pwm.h",line 171
    1815 00000075 5605          IMPYL     P,XT,ACC              ; [CPU_] |1717| 
         00000076 00A9 
    1816 00000077 5663          QMPYL     ACC,XT,ACC            ; [CPU_] |1717| 
         00000078 00A9 
    1817 00000079 56A7          LSL64     ACC:P,#8              ; [CPU_] |1717| 
    1818 0000007a 2BAB          MOV       PL,#0                 ; [CPU_] |1717| 
    1819 0000007b 28AA          MOV       PH,#128               ; [CPU_] |1717| 
         0000007c 0080 
    1820 0000007d A9A0          MOVL      XAR0,P                ; [CPU_] |1717| 
    1821                      .dwpsn  file "C:/ti/motorware/motorware_1_01_00_16/sw/modules/hal/boards/boostxldrv8301_revB/f28x/f28
    1822 0000007e 80ED          MOVZ      AR7,*+XAR5[5]         ; [CPU_] |1092| 
    1823                      .dwpsn  file "C:/ti/motorware/motorware_1_01_00_16/sw/drivers/pwm/src/32b/f28x/f2802x/pwm.h",line 171
    1824 0000007f 2BAB          MOV       PL,#0                 ; [CPU_] |1717| 
    1825 00000080 28AA          MOV       PH,#65408             ; [CPU_] |1717| 
         00000081 FF80 
    1826 00000082 5650          MINL      ACC,XAR0              ; [CPU_] |1717| 
         00000083 00A0 
    1827 00000084 5661          MAXL      ACC,P                 ; [CPU_] |1717| 
         00000085 00AB 
    1828 00000086 D009          MOVB      XAR0,#9               ; [CPU_] |1717| 
    1829 00000087 FF1F          ADD       ACC,#256 << 15        ; [CPU_] |1717| 
         00000088 0100 
    1830 00000089 1EAC          MOVL      XT,ACC                ; [CPU_] |1717| 
    1831 0000008a 5605          IMPYL     P,XT,XAR7             ; [CPU_] |1717| 
         0000008b 00A7 
    1832 0000008c 5663          QMPYL     ACC,XT,XAR7           ; [CPU_] |1717| 
         0000008d 00A7 
    1833 0000008e 56A7          LSL64     ACC:P,#8              ; [CPU_] |1717| 
    1834 0000008f 3100          MOV       P,#0                  ; [CPU_] |1717| 
    1835 00000090 5650          MINL      ACC,XAR7              ; [CPU_] |1717| 
         00000091 00A7 
    1836 00000092 5661          MAXL      ACC,P                 ; [CPU_] |1717| 
         00000093 00AB 
    1837 00000094 9695          MOV       *+XAR5[AR0],AL        ; [CPU_] |1717| 
    1838                      .dwpsn  file "C:/ti/motorware/motorware_1_01_00_16/sw/modules/hal/boards/boostxldrv8301_revB/f28x/f28
    1839 00000095 000E          BANZ      $C$L8,AR6--           ; [CPU_] |1089| 
         00000096 FFDC 
    1840                      ; branchcc occurs ; [] |1089| 
    1841 00000097 761F-         MOVW      DP,#_ctrlHandle       ; [CPU_U] 
         00000098 0000 
    1842                      .dwpsn  file "C:/ti/motorware/motorware_1_01_00_16/sw/solutions/instaspin_foc/src/proj_lab04.c",line 
    1843 00000099 8A08-         MOVL      XAR4,@_ctrlHandle     ; [CPU_] |563| 
    1844              $C$DW$211       .dwtag  DW_TAG_TI_branch
    1845                      .dwattr $C$DW$211, DW_AT_low_pc(0x00)
    1846                      .dwattr $C$DW$211, DW_AT_name("_CTRL_setup")
    1847                      .dwattr $C$DW$211, DW_AT_TI_call
TMS320C2000 Assembler PC v6.4.11 Wed Nov 23 10:34:31 2016

Tools Copyright (c) 1996-2015 Texas Instruments Incorporated
C:\Users\bee25\AppData\Local\Temp\3793210                            PAGE   38

    1848 0000009a 7640!         LCR       #_CTRL_setup          ; [CPU_] |563| 
         0000009b 0000 
    1849                      ; call occurs [#_CTRL_setup] ; [] |563| 
    1850 0000009c FE84          SUBB      SP,#4                 ; [CPU_U] 
    1851                      .dwcfi  cfa_offset, -14
    1852 0000009d C5BE          MOVL      XAR7,*--SP            ; [CPU_] 
    1853                      .dwcfi  cfa_offset, -12
    1854                      .dwcfi  restore_reg, 18
    1855 0000009e C4BE          MOVL      XAR6,*--SP            ; [CPU_] 
    1856                      .dwcfi  cfa_offset, -10
    1857                      .dwcfi  restore_reg, 16
    1858 0000009f 83BE          MOVL      XAR5,*--SP            ; [CPU_] 
    1859                      .dwcfi  cfa_offset, -8
    1860                      .dwcfi  restore_reg, 14
    1861 000000a0 8ABE          MOVL      XAR4,*--SP            ; [CPU_] 
    1862                      .dwcfi  cfa_offset, -6
    1863                      .dwcfi  restore_reg, 12
    1864 000000a1 87BE          MOVL      XT,*--SP              ; [CPU_] 
    1865                      .dwcfi  cfa_offset, -4
    1866                      .dwcfi  restore_reg, 22
    1867                      .dwcfi  restore_reg, 21
    1868 000000a2 0003          POP       AR1H:AR0H             ; [CPU_] 
    1869                      .dwcfi  cfa_offset, -2
    1870                      .dwcfi  restore_reg, 5
    1871                      .dwcfi  restore_reg, 7
    1872 000000a3 7617          NASP      ; [CPU_] 
    1873              $C$DW$212       .dwtag  DW_TAG_TI_branch
    1874                      .dwattr $C$DW$212, DW_AT_low_pc(0x00)
    1875                      .dwattr $C$DW$212, DW_AT_TI_return
    1876 000000a4 7602          IRET      ; [CPU_] 
    1877                      ; return occurs ; [] 
    1878                      .dwattr $C$DW$200, DW_AT_TI_end_file("C:/ti/motorware/motorware_1_01_00_16/sw/solutions/instaspin_foc
    1879                      .dwattr $C$DW$200, DW_AT_TI_end_line(0x237)
    1880                      .dwattr $C$DW$200, DW_AT_TI_end_column(0x01)
    1881                      .dwendentry
    1882                      .dwendtag $C$DW$200
    1883              
    1884 00000127               .sect   ".text"
    1885                      .clink
    1886                      .global _main
    1887              
    1888              $C$DW$213       .dwtag  DW_TAG_subprogram, DW_AT_name("main")
    1889                      .dwattr $C$DW$213, DW_AT_low_pc(_main)
    1890                      .dwattr $C$DW$213, DW_AT_high_pc(0x00)
    1891                      .dwattr $C$DW$213, DW_AT_TI_symbol_name("_main")
    1892                      .dwattr $C$DW$213, DW_AT_external
    1893                      .dwattr $C$DW$213, DW_AT_TI_begin_file("C:/ti/motorware/motorware_1_01_00_16/sw/solutions/instaspin_f
    1894                      .dwattr $C$DW$213, DW_AT_TI_begin_line(0xa1)
    1895                      .dwattr $C$DW$213, DW_AT_TI_begin_column(0x06)
    1896                      .dwattr $C$DW$213, DW_AT_TI_max_frame_size(-26)
    1897                      .dwpsn  file "C:/ti/motorware/motorware_1_01_00_16/sw/solutions/instaspin_foc/src/proj_lab04.c",line 
    1898              
    1899                      .dwfde $C$DW$CIE, _main
    1900              
    1901              ;***************************************************************
TMS320C2000 Assembler PC v6.4.11 Wed Nov 23 10:34:31 2016

Tools Copyright (c) 1996-2015 Texas Instruments Incorporated
C:\Users\bee25\AppData\Local\Temp\3793210                            PAGE   39

    1902              ;* FNAME: _main                         FR SIZE:  24           *
    1903              ;*                                                             *
    1904              ;* FUNCTION ENVIRONMENT                                        *
    1905              ;*                                                             *
    1906              ;* FUNCTION PROPERTIES                                         *
    1907              ;*                            2 Parameter, 16 Auto,  6 SOE     *
    1908              ;***************************************************************
    1909              
    1910              _main:
    1911              ;* AR5   assigned to $O$C16
    1912              ;* AR5   assigned to $O$C17
    1913              ;* AR5   assigned to $O$C19
    1914              ;* AR7   assigned to $O$C20
    1915              ;* AR7   assigned to $O$C21
    1916              ;* AR3   assigned to $O$C22
    1917              ;* AR7   assigned to $O$C23
    1918              ;* XT    assigned to $O$C24
    1919              ;* AR6   assigned to $O$C25
    1920              ;* AR6   assigned to $O$C26
    1921              ;* AR6   assigned to $O$C27
    1922              ;* AL    assigned to $O$C28
    1923              ;* AR5   assigned to _obj
    1924              $C$DW$214       .dwtag  DW_TAG_variable, DW_AT_name("obj")
    1925                      .dwattr $C$DW$214, DW_AT_TI_symbol_name("_obj")
    1926                      .dwattr $C$DW$214, DW_AT_type(*$C$DW$T$250)
    1927                      .dwattr $C$DW$214, DW_AT_location[DW_OP_reg14]
    1928              ;* AR6   assigned to _state
    1929              $C$DW$215       .dwtag  DW_TAG_variable, DW_AT_name("state")
    1930                      .dwattr $C$DW$215, DW_AT_TI_symbol_name("_state")
    1931                      .dwattr $C$DW$215, DW_AT_type(*$C$DW$T$70)
    1932                      .dwattr $C$DW$215, DW_AT_location[DW_OP_reg16]
    1933              ;* AL    assigned to _state
    1934              $C$DW$216       .dwtag  DW_TAG_variable, DW_AT_name("state")
    1935                      .dwattr $C$DW$216, DW_AT_TI_symbol_name("_state")
    1936                      .dwattr $C$DW$216, DW_AT_type(*$C$DW$T$70)
    1937                      .dwattr $C$DW$216, DW_AT_location[DW_OP_reg0]
    1938              ;* AR4   assigned to _obj
    1939              $C$DW$217       .dwtag  DW_TAG_variable, DW_AT_name("obj")
    1940                      .dwattr $C$DW$217, DW_AT_TI_symbol_name("_obj")
    1941                      .dwattr $C$DW$217, DW_AT_type(*$C$DW$T$250)
    1942                      .dwattr $C$DW$217, DW_AT_location[DW_OP_reg12]
    1943              ;* AH    assigned to _state
    1944              $C$DW$218       .dwtag  DW_TAG_variable, DW_AT_name("state")
    1945                      .dwattr $C$DW$218, DW_AT_TI_symbol_name("_state")
    1946                      .dwattr $C$DW$218, DW_AT_type(*$C$DW$T$70)
    1947                      .dwattr $C$DW$218, DW_AT_location[DW_OP_reg1]
    1948              ;* AR5   assigned to _obj
    1949              $C$DW$219       .dwtag  DW_TAG_variable, DW_AT_name("obj")
    1950                      .dwattr $C$DW$219, DW_AT_TI_symbol_name("_obj")
    1951                      .dwattr $C$DW$219, DW_AT_type(*$C$DW$T$250)
    1952                      .dwattr $C$DW$219, DW_AT_location[DW_OP_reg14]
    1953              ;* AR6   assigned to _handle
    1954              $C$DW$220       .dwtag  DW_TAG_variable, DW_AT_name("handle")
    1955                      .dwattr $C$DW$220, DW_AT_TI_symbol_name("_handle")
    1956                      .dwattr $C$DW$220, DW_AT_type(*$C$DW$T$252)
TMS320C2000 Assembler PC v6.4.11 Wed Nov 23 10:34:31 2016

Tools Copyright (c) 1996-2015 Texas Instruments Incorporated
C:\Users\bee25\AppData\Local\Temp\3793210                            PAGE   40

    1957                      .dwattr $C$DW$220, DW_AT_location[DW_OP_reg16]
    1958              ;* AR6   assigned to _obj
    1959              $C$DW$221       .dwtag  DW_TAG_variable, DW_AT_name("obj")
    1960                      .dwattr $C$DW$221, DW_AT_TI_symbol_name("_obj")
    1961                      .dwattr $C$DW$221, DW_AT_type(*$C$DW$T$250)
    1962                      .dwattr $C$DW$221, DW_AT_location[DW_OP_reg16]
    1963              ;* AR5   assigned to _obj
    1964              $C$DW$222       .dwtag  DW_TAG_variable, DW_AT_name("obj")
    1965                      .dwattr $C$DW$222, DW_AT_TI_symbol_name("_obj")
    1966                      .dwattr $C$DW$222, DW_AT_type(*$C$DW$T$250)
    1967                      .dwattr $C$DW$222, DW_AT_location[DW_OP_reg14]
    1968              ;* AL    assigned to _maxAccel_pu
    1969              $C$DW$223       .dwtag  DW_TAG_variable, DW_AT_name("maxAccel_pu")
    1970                      .dwattr $C$DW$223, DW_AT_TI_symbol_name("_maxAccel_pu")
    1971                      .dwattr $C$DW$223, DW_AT_type(*$C$DW$T$32)
    1972                      .dwattr $C$DW$223, DW_AT_location[DW_OP_reg0]
    1973              ;* AR6   assigned to _state
    1974              $C$DW$224       .dwtag  DW_TAG_variable, DW_AT_name("state")
    1975                      .dwattr $C$DW$224, DW_AT_TI_symbol_name("_state")
    1976                      .dwattr $C$DW$224, DW_AT_type(*$C$DW$T$70)
    1977                      .dwattr $C$DW$224, DW_AT_location[DW_OP_reg16]
    1978              ;* AR4   assigned to _obj
    1979              $C$DW$225       .dwtag  DW_TAG_variable, DW_AT_name("obj")
    1980                      .dwattr $C$DW$225, DW_AT_TI_symbol_name("_obj")
    1981                      .dwattr $C$DW$225, DW_AT_type(*$C$DW$T$250)
    1982                      .dwattr $C$DW$225, DW_AT_location[DW_OP_reg12]
    1983              $C$DW$226       .dwtag  DW_TAG_variable, DW_AT_name("ctrlState")
    1984                      .dwattr $C$DW$226, DW_AT_TI_symbol_name("_ctrlState")
    1985                      .dwattr $C$DW$226, DW_AT_type(*$C$DW$T$40)
    1986                      .dwattr $C$DW$226, DW_AT_location[DW_OP_breg20 -7]
    1987              ;* AL    assigned to _flag_ctrlStateChanged
    1988              $C$DW$227       .dwtag  DW_TAG_variable, DW_AT_name("flag_ctrlStateChanged")
    1989                      .dwattr $C$DW$227, DW_AT_TI_symbol_name("_flag_ctrlStateChanged")
    1990                      .dwattr $C$DW$227, DW_AT_type(*$C$DW$T$70)
    1991                      .dwattr $C$DW$227, DW_AT_location[DW_OP_reg0]
    1992              ;* AR2   assigned to _obj
    1993              $C$DW$228       .dwtag  DW_TAG_variable, DW_AT_name("obj")
    1994                      .dwattr $C$DW$228, DW_AT_TI_symbol_name("_obj")
    1995                      .dwattr $C$DW$228, DW_AT_type(*$C$DW$T$228)
    1996                      .dwattr $C$DW$228, DW_AT_location[DW_OP_reg8]
    1997              ;* AR3   assigned to _cnt
    1998              $C$DW$229       .dwtag  DW_TAG_variable, DW_AT_name("cnt")
    1999                      .dwattr $C$DW$229, DW_AT_TI_symbol_name("_cnt")
    2000                      .dwattr $C$DW$229, DW_AT_type(*$C$DW$T$33)
    2001                      .dwattr $C$DW$229, DW_AT_location[DW_OP_reg10]
    2002              ;* PL    assigned to _cnt
    2003              $C$DW$230       .dwtag  DW_TAG_variable, DW_AT_name("cnt")
    2004                      .dwattr $C$DW$230, DW_AT_TI_symbol_name("_cnt")
    2005                      .dwattr $C$DW$230, DW_AT_type(*$C$DW$T$33)
    2006                      .dwattr $C$DW$230, DW_AT_location[DW_OP_reg2]
    2007              ;* AL    assigned to _bias
    2008              $C$DW$231       .dwtag  DW_TAG_variable, DW_AT_name("bias")
    2009                      .dwattr $C$DW$231, DW_AT_TI_symbol_name("_bias")
    2010                      .dwattr $C$DW$231, DW_AT_type(*$C$DW$T$32)
    2011                      .dwattr $C$DW$231, DW_AT_location[DW_OP_reg0]
TMS320C2000 Assembler PC v6.4.11 Wed Nov 23 10:34:31 2016

Tools Copyright (c) 1996-2015 Texas Instruments Incorporated
C:\Users\bee25\AppData\Local\Temp\3793210                            PAGE   41

    2012              ;* AL    assigned to _bias
    2013              $C$DW$232       .dwtag  DW_TAG_variable, DW_AT_name("bias")
    2014                      .dwattr $C$DW$232, DW_AT_TI_symbol_name("_bias")
    2015                      .dwattr $C$DW$232, DW_AT_type(*$C$DW$T$32)
    2016                      .dwattr $C$DW$232, DW_AT_location[DW_OP_reg0]
    2017              ;* AR1   assigned to $O$K33
    2018              ;* AR1   assigned to $O$K33
    2019              ;* AR6   assigned to $O$K33
    2020              ;* AR4   assigned to $O$K33
    2021              ;* AR4   assigned to $O$K33
    2022              ;* AR1   assigned to $O$K33
    2023              ;* AR1   assigned to $O$K33
    2024              ;* AR1   assigned to $O$K33
    2025              ;* AR4   assigned to $O$v1
    2026              ;* AR4   assigned to $O$v1
    2027              ;* AR4   assigned to $O$v1
    2028              ;* AR3   assigned to $O$v1
    2029              ;* AR2   assigned to $O$v1
    2030              ;* AR4   assigned to $O$v2
    2031              ;* AR4   assigned to $O$v2
    2032              ;* AR4   assigned to $O$v2
    2033              ;* AR5   assigned to $O$v2
    2034              $C$DW$233       .dwtag  DW_TAG_variable, DW_AT_name("version")
    2035                      .dwattr $C$DW$233, DW_AT_TI_symbol_name("_version")
    2036                      .dwattr $C$DW$233, DW_AT_type(*$C$DW$T$38)
    2037                      .dwattr $C$DW$233, DW_AT_location[DW_OP_breg20 -6]
    2038                      .dwcfi  cfa_offset, -2
    2039                      .dwcfi  save_reg_to_mem, 26, 0
    2040 00000127 B2BD          MOVL      *SP++,XAR1            ; [CPU_] 
    2041                      .dwcfi  save_reg_to_mem, 7, 2
    2042                      .dwcfi  cfa_offset, -4
    2043 00000128 AABD          MOVL      *SP++,XAR2            ; [CPU_] 
    2044                      .dwcfi  save_reg_to_mem, 9, 4
    2045                      .dwcfi  cfa_offset, -6
    2046 00000129 A2BD          MOVL      *SP++,XAR3            ; [CPU_] 
    2047                      .dwcfi  save_reg_to_mem, 11, 6
    2048                      .dwcfi  cfa_offset, -8
    2049 0000012a FE12          ADDB      SP,#18                ; [CPU_U] 
    2050                      .dwcfi  cfa_offset, -26
    2051                      .dwpsn  file "C:/ti/motorware/motorware_1_01_00_16/sw/solutions/instaspin_foc/src/proj_lab04.c",line 
    2052 0000012b 8F00!         MOVL      XAR4,#_RamfuncsRunStart ; [CPU_U] |175| 
         0000012c 0000 
    2053 0000012d 8F40!         MOVL      XAR5,#_RamfuncsLoadEnd ; [CPU_U] |175| 
         0000012e 0000 
    2054 0000012f A842          MOVL      *-SP[2],XAR4          ; [CPU_] |175| 
    2055 00000130 8F00!         MOVL      XAR4,#_RamfuncsLoadStart ; [CPU_U] |175| 
         00000131 0000 
    2056              $C$DW$234       .dwtag  DW_TAG_TI_branch
    2057                      .dwattr $C$DW$234, DW_AT_low_pc(0x00)
    2058                      .dwattr $C$DW$234, DW_AT_name("_memCopy")
    2059                      .dwattr $C$DW$234, DW_AT_TI_call
    2060 00000132 7640!         LCR       #_memCopy             ; [CPU_] |175| 
         00000133 0000 
    2061                      ; call occurs [#_memCopy] ; [] |175| 
    2062 00000134 761F!         MOVW      DP,#_econst_start     ; [CPU_U] 
TMS320C2000 Assembler PC v6.4.11 Wed Nov 23 10:34:31 2016

Tools Copyright (c) 1996-2015 Texas Instruments Incorporated
C:\Users\bee25\AppData\Local\Temp\3793210                            PAGE   42

         00000135 0000 
    2063                      .dwpsn  file "C:/ti/motorware/motorware_1_01_00_16/sw/solutions/instaspin_foc/src/proj_lab04.c",line 
    2064 00000136 8A00!         MOVL      XAR4,@_econst_start   ; [CPU_] |179| 
    2065 00000137 761F!         MOVW      DP,#_econst_end       ; [CPU_U] 
         00000138 0000 
    2066 00000139 0EC4          MOVU      ACC,*+XAR4[0]         ; [CPU_] |179| 
    2067 0000013a 8A00!         MOVL      XAR4,@_econst_end     ; [CPU_] |179| 
    2068 0000013b 88C4          MOVZ      AR6,*+XAR4[0]         ; [CPU_] |179| 
    2069 0000013c 0FA6          CMPL      ACC,XAR6              ; [CPU_] |179| 
    2070 0000013d EC0A          BF        $C$L9,EQ              ; [CPU_] |179| 
    2071                      ; branchcc occurs ; [] |179| 
    2072                      .dwpsn  file "C:/ti/motorware/motorware_1_01_00_16/sw/solutions/instaspin_foc/src/proj_lab04.c",line 
    2073 0000013e 8F00!         MOVL      XAR4,#_econst_ram_load ; [CPU_U] |181| 
         0000013f 0000 
    2074 00000140 8F40!         MOVL      XAR5,#_econst_end     ; [CPU_U] |181| 
         00000141 0000 
    2075 00000142 A842          MOVL      *-SP[2],XAR4          ; [CPU_] |181| 
    2076 00000143 8F00!         MOVL      XAR4,#_econst_start   ; [CPU_U] |181| 
         00000144 0000 
    2077              $C$DW$235       .dwtag  DW_TAG_TI_branch
    2078                      .dwattr $C$DW$235, DW_AT_low_pc(0x00)
    2079                      .dwattr $C$DW$235, DW_AT_name("_memCopy")
    2080                      .dwattr $C$DW$235, DW_AT_TI_call
    2081 00000145 7640!         LCR       #_memCopy             ; [CPU_] |181| 
         00000146 0000 
    2082                      ; call occurs [#_memCopy] ; [] |181| 
    2083 00000147       $C$L9:    
    2084 00000147 761F!         MOVW      DP,#_switch_start     ; [CPU_U] 
         00000148 0000 
    2085                      .dwpsn  file "C:/ti/motorware/motorware_1_01_00_16/sw/solutions/instaspin_foc/src/proj_lab04.c",line 
    2086 00000149 8A00!         MOVL      XAR4,@_switch_start   ; [CPU_] |185| 
    2087 0000014a 761F!         MOVW      DP,#_switch_end       ; [CPU_U] 
         0000014b 0000 
    2088 0000014c 0EC4          MOVU      ACC,*+XAR4[0]         ; [CPU_] |185| 
    2089 0000014d 8A00!         MOVL      XAR4,@_switch_end     ; [CPU_] |185| 
    2090 0000014e 88C4          MOVZ      AR6,*+XAR4[0]         ; [CPU_] |185| 
    2091 0000014f 0FA6          CMPL      ACC,XAR6              ; [CPU_] |185| 
    2092 00000150 EC0A          BF        $C$L10,EQ             ; [CPU_] |185| 
    2093                      ; branchcc occurs ; [] |185| 
    2094                      .dwpsn  file "C:/ti/motorware/motorware_1_01_00_16/sw/solutions/instaspin_foc/src/proj_lab04.c",line 
    2095 00000151 8F00!         MOVL      XAR4,#_switch_ram_load ; [CPU_U] |187| 
         00000152 0000 
    2096 00000153 8F40!         MOVL      XAR5,#_switch_end     ; [CPU_U] |187| 
         00000154 0000 
    2097 00000155 A842          MOVL      *-SP[2],XAR4          ; [CPU_] |187| 
    2098 00000156 8F00!         MOVL      XAR4,#_switch_start   ; [CPU_U] |187| 
         00000157 0000 
    2099              $C$DW$236       .dwtag  DW_TAG_TI_branch
    2100                      .dwattr $C$DW$236, DW_AT_low_pc(0x00)
    2101                      .dwattr $C$DW$236, DW_AT_name("_memCopy")
    2102                      .dwattr $C$DW$236, DW_AT_TI_call
    2103 00000158 7640!         LCR       #_memCopy             ; [CPU_] |187| 
         00000159 0000 
    2104                      ; call occurs [#_memCopy] ; [] |187| 
    2105 0000015a       $C$L10:    
TMS320C2000 Assembler PC v6.4.11 Wed Nov 23 10:34:31 2016

Tools Copyright (c) 1996-2015 Texas Instruments Incorporated
C:\Users\bee25\AppData\Local\Temp\3793210                            PAGE   43

    2106                      .dwpsn  file "C:/ti/motorware/motorware_1_01_00_16/sw/solutions/instaspin_foc/src/proj_lab04.c",line 
    2107 0000015a 8F00!         MOVL      XAR4,#_hal            ; [CPU_U] |194| 
         0000015b 0000 
    2108 0000015c 02C6          MOVB      ACC,#198              ; [CPU_] |194| 
    2109              $C$DW$237       .dwtag  DW_TAG_TI_branch
    2110                      .dwattr $C$DW$237, DW_AT_low_pc(0x00)
    2111                      .dwattr $C$DW$237, DW_AT_name("_HAL_init")
    2112                      .dwattr $C$DW$237, DW_AT_TI_call
    2113 0000015d 7640!         LCR       #_HAL_init            ; [CPU_] |194| 
         0000015e 0000 
    2114                      ; call occurs [#_HAL_init] ; [] |194| 
    2115                      .dwpsn  file "C:/ti/motorware/motorware_1_01_00_16/sw/solutions/instaspin_foc/src/proj_lab04.c",line 
    2116 0000015f 8D40-         MOVL      XAR1,#_gUserParams    ; [CPU_U] |198| 
         00000160 0040 
    2117 00000161 761F-         MOVW      DP,#_halHandle        ; [CPU_U] 
         00000162 0000 
    2118 00000163 B24C          MOVL      *-SP[12],XAR1         ; [CPU_] |198| 
    2119                      .dwpsn  file "C:/ti/motorware/motorware_1_01_00_16/sw/solutions/instaspin_foc/src/proj_lab04.c",line 
    2120 00000164 A800-         MOVL      @_halHandle,XAR4      ; [CPU_] |194| 
    2121                      .dwpsn  file "C:/ti/motorware/motorware_1_01_00_16/sw/solutions/instaspin_foc/src/proj_lab04.c",line 
    2122 00000165 8AA1          MOVL      XAR4,XAR1             ; [CPU_] |198| 
    2123              $C$DW$238       .dwtag  DW_TAG_TI_branch
    2124                      .dwattr $C$DW$238, DW_AT_low_pc(0x00)
    2125                      .dwattr $C$DW$238, DW_AT_name("_USER_checkForErrors")
    2126                      .dwattr $C$DW$238, DW_AT_TI_call
    2127 00000166 7640!         LCR       #_USER_checkForErrors ; [CPU_] |198| 
         00000167 0000 
    2128                      ; call occurs [#_USER_checkForErrors] ; [] |198| 
    2129                      .dwpsn  file "C:/ti/motorware/motorware_1_01_00_16/sw/solutions/instaspin_foc/src/proj_lab04.c",line 
    2130 00000168 8AA1          MOVL      XAR4,XAR1             ; [CPU_] |202| 
    2131              $C$DW$239       .dwtag  DW_TAG_TI_branch
    2132                      .dwattr $C$DW$239, DW_AT_low_pc(0x00)
    2133                      .dwattr $C$DW$239, DW_AT_name("_USER_getErrorCode")
    2134                      .dwattr $C$DW$239, DW_AT_TI_call
    2135 00000169 7640!         LCR       #_USER_getErrorCode   ; [CPU_] |202| 
         0000016a 0000 
    2136                      ; call occurs [#_USER_getErrorCode] ; [] |202| 
    2137 0000016b 8D40-         MOVL      XAR1,#_gMotorVars     ; [CPU_U] |202| 
         0000016c 0080 
    2138 0000016d D00D          MOVB      XAR0,#13              ; [CPU_] |202| 
    2139 0000016e 9691          MOV       *+XAR1[AR0],AL        ; [CPU_] |202| 
    2140                      .dwpsn  file "C:/ti/motorware/motorware_1_01_00_16/sw/solutions/instaspin_foc/src/proj_lab04.c",line 
    2141 0000016f D00D          MOVB      XAR0,#13              ; [CPU_] |206| 
    2142 00000170 9291          MOV       AL,*+XAR1[AR0]        ; [CPU_] |206| 
    2143 00000171 56C0          BF        $C$L35,NEQ            ; [CPU_] |206| 
         00000172 02F5 
    2144                      ; branchcc occurs ; [] |206| 
    2145 00000173 864C          MOVL      XAR2,*-SP[12]         ; [CPU_] 
    2146                      .dwpsn  file "C:/ti/motorware/motorware_1_01_00_16/sw/solutions/instaspin_foc/src/proj_lab04.c",line 
    2147 00000174 8AA2          MOVL      XAR4,XAR2             ; [CPU_] |216| 
    2148              $C$DW$240       .dwtag  DW_TAG_TI_branch
    2149                      .dwattr $C$DW$240, DW_AT_low_pc(0x00)
    2150                      .dwattr $C$DW$240, DW_AT_name("_USER_setParams")
    2151                      .dwattr $C$DW$240, DW_AT_TI_call
    2152 00000175 7640!         LCR       #_USER_setParams      ; [CPU_] |216| 
TMS320C2000 Assembler PC v6.4.11 Wed Nov 23 10:34:31 2016

Tools Copyright (c) 1996-2015 Texas Instruments Incorporated
C:\Users\bee25\AppData\Local\Temp\3793210                            PAGE   44

         00000176 0000 
    2153                      ; call occurs [#_USER_setParams] ; [] |216| 
    2154 00000177 761F-         MOVW      DP,#_halHandle        ; [CPU_U] 
         00000178 0000 
    2155                      .dwpsn  file "C:/ti/motorware/motorware_1_01_00_16/sw/solutions/instaspin_foc/src/proj_lab04.c",line 
    2156 00000179 8A00-         MOVL      XAR4,@_halHandle      ; [CPU_] |220| 
    2157 0000017a 83A2          MOVL      XAR5,XAR2             ; [CPU_] |220| 
    2158              $C$DW$241       .dwtag  DW_TAG_TI_branch
    2159                      .dwattr $C$DW$241, DW_AT_low_pc(0x00)
    2160                      .dwattr $C$DW$241, DW_AT_name("_HAL_setParams")
    2161                      .dwattr $C$DW$241, DW_AT_TI_call
    2162 0000017b 7640!         LCR       #_HAL_setParams       ; [CPU_] |220| 
         0000017c 0000 
    2163                      ; call occurs [#_HAL_setParams] ; [] |220| 
    2164                      .dwpsn  file "C:/ti/motorware/motorware_1_01_00_16/sw/solutions/instaspin_foc/src/proj_lab04.c",line 
    2165 0000017d D500          MOVB      XAR5,#0               ; [CPU_] |228| 
    2166 0000017e 7680          MOVL      XAR6,#264             ; [CPU_U] |228| 
         0000017f 0108 
    2167 00000180 8F00-         MOVL      XAR4,#_ctrl           ; [CPU_U] |228| 
         00000181 0100 
    2168 00000182 06A6          MOVL      ACC,XAR6              ; [CPU_] |228| 
    2169              $C$DW$242       .dwtag  DW_TAG_TI_branch
    2170                      .dwattr $C$DW$242, DW_AT_low_pc(0x00)
    2171                      .dwattr $C$DW$242, DW_AT_name("_CTRL_initCtrl")
    2172                      .dwattr $C$DW$242, DW_AT_TI_call
    2173 00000183 7640!         LCR       #_CTRL_initCtrl       ; [CPU_] |228| 
         00000184 0000 
    2174                      ; call occurs [#_CTRL_initCtrl] ; [] |228| 
    2175                      .dwpsn  file "C:/ti/motorware/motorware_1_01_00_16/sw/solutions/instaspin_foc/src/proj_lab04.c",line 
    2176 00000185 5DAD          MOVZ      AR5,SP                ; [CPU_] |236| 
    2177 00000186 761F-         MOVW      DP,#_ctrlHandle       ; [CPU_U] 
         00000187 0000 
    2178                      .dwpsn  file "C:/ti/motorware/motorware_1_01_00_16/sw/solutions/instaspin_foc/src/proj_lab04.c",line 
    2179 00000188 A808-         MOVL      @_ctrlHandle,XAR4     ; [CPU_] |228| 
    2180                      .dwpsn  file "C:/ti/motorware/motorware_1_01_00_16/sw/solutions/instaspin_foc/src/proj_lab04.c",line 
    2181 00000189 DD86          SUBB      XAR5,#6               ; [CPU_U] |236| 
    2182 0000018a 5DA5          MOVZ      AR5,AR5               ; [CPU_] |236| 
    2183              $C$DW$243       .dwtag  DW_TAG_TI_branch
    2184                      .dwattr $C$DW$243, DW_AT_low_pc(0x00)
    2185                      .dwattr $C$DW$243, DW_AT_name("_CTRL_getVersion")
    2186                      .dwattr $C$DW$243, DW_AT_TI_call
    2187 0000018b 7640!         LCR       #_CTRL_getVersion     ; [CPU_] |236| 
         0000018c 0000 
    2188                      ; call occurs [#_CTRL_getVersion] ; [] |236| 
    2189                      .dwpsn  file "C:/ti/motorware/motorware_1_01_00_16/sw/solutions/instaspin_foc/src/proj_lab04.c",line 
    2190 0000018d 5CAD          MOVZ      AR4,SP                ; [CPU_] |238| 
    2191 0000018e DC86          SUBB      XAR4,#6               ; [CPU_U] |238| 
    2192 0000018f 80A4          MOVZ      AR7,AR4               ; [CPU_] |238| 
    2193 00000190 8AA1          MOVL      XAR4,XAR1             ; [CPU_] |238| 
    2194 00000191 761F-         MOVW      DP,#_ctrlHandle       ; [CPU_U] 
         00000192 0000 
    2195                      .dwpsn  file "C:/ti/motorware/motorware_1_01_00_16/sw/solutions/instaspin_foc/src/proj_lab04.c",line 
    2196 00000193 83A2          MOVL      XAR5,XAR2             ; [CPU_] |243| 
    2197                      .dwpsn  file "C:/ti/motorware/motorware_1_01_00_16/sw/solutions/instaspin_foc/src/proj_lab04.c",line 
    2198 00000194 DC0E          ADDB      XAR4,#14              ; [CPU_] |238| 
TMS320C2000 Assembler PC v6.4.11 Wed Nov 23 10:34:31 2016

Tools Copyright (c) 1996-2015 Texas Instruments Incorporated
C:\Users\bee25\AppData\Local\Temp\3793210                            PAGE   45

    2199 00000195 F603          RPT       #3
    2200 00000196 2484  ||     PREAD     *XAR4++,*XAR7         ; [CPU_] |238| 
    2201                      .dwpsn  file "C:/ti/motorware/motorware_1_01_00_16/sw/solutions/instaspin_foc/src/proj_lab04.c",line 
    2202 00000197 8A08-         MOVL      XAR4,@_ctrlHandle     ; [CPU_] |243| 
    2203              $C$DW$244       .dwtag  DW_TAG_TI_branch
    2204                      .dwattr $C$DW$244, DW_AT_low_pc(0x00)
    2205                      .dwattr $C$DW$244, DW_AT_name("_CTRL_setParams")
    2206                      .dwattr $C$DW$244, DW_AT_TI_call
    2207 00000198 7640!         LCR       #_CTRL_setParams      ; [CPU_] |243| 
         00000199 0000 
    2208                      ; call occurs [#_CTRL_setParams] ; [] |243| 
    2209 0000019a 761F-         MOVW      DP,#_halHandle        ; [CPU_U] 
         0000019b 0000 
    2210                      .dwpsn  file "C:/ti/motorware/motorware_1_01_00_16/sw/solutions/instaspin_foc/src/proj_lab04.c",line 
    2211 0000019c 8A00-         MOVL      XAR4,@_halHandle      ; [CPU_] |247| 
    2212              $C$DW$245       .dwtag  DW_TAG_TI_branch
    2213                      .dwattr $C$DW$245, DW_AT_low_pc(0x00)
    2214                      .dwattr $C$DW$245, DW_AT_name("_HAL_setupFaults")
    2215                      .dwattr $C$DW$245, DW_AT_TI_call
    2216 0000019d 7640!         LCR       #_HAL_setupFaults     ; [CPU_] |247| 
         0000019e 0000 
    2217                      ; call occurs [#_HAL_setupFaults] ; [] |247| 
    2218 0000019f 761F-         MOVW      DP,#_halHandle        ; [CPU_U] 
         000001a0 0000 
    2219                      .dwpsn  file "C:/ti/motorware/motorware_1_01_00_16/sw/solutions/instaspin_foc/src/proj_lab04.c",line 
    2220 000001a1 8A00-         MOVL      XAR4,@_halHandle      ; [CPU_] |251| 
    2221 000001a2 7622   EALLOW
    2222                      .dwpsn  file "C:/ti/motorware/motorware_1_01_00_16/sw/modules/hal/boards/boostxldrv8301_revB/f28x/f28
    2223 000001a3 D078          MOVB      XAR0,#120             ; [CPU_] |492| 
    2224 000001a4 02F0          MOVB      ACC,#240              ; [CPU_] |492| 
    2225 000001a5 0794          ADDL      ACC,*+XAR4[AR0]       ; [CPU_] |492| 
    2226 000001a6 83A9          MOVL      XAR5,ACC              ; [CPU_] |492| 
    2227 000001a7 7680+         MOVL      XAR6,#_mainISR        ; [CPU_U] |492| 
         000001a8 0000 
    2228 000001a9 C2C5          MOVL      *+XAR5[0],XAR6        ; [CPU_] |492| 
    2229 000001aa 761A   EDIS
    2230 000001ab FF69          SPM       #0                    ; [CPU_] 
    2231                      .dwpsn  file "C:/ti/motorware/motorware_1_01_00_16/sw/solutions/instaspin_foc/src/proj_lab04.c",line 
    2232              $C$DW$246       .dwtag  DW_TAG_TI_branch
    2233                      .dwattr $C$DW$246, DW_AT_low_pc(0x00)
    2234                      .dwattr $C$DW$246, DW_AT_name("_HAL_enableAdcInts")
    2235                      .dwattr $C$DW$246, DW_AT_TI_call
    2236 000001ac 7640!         LCR       #_HAL_enableAdcInts   ; [CPU_] |255| 
         000001ad 0000 
    2237                      ; call occurs [#_HAL_enableAdcInts] ; [] |255| 
    2238 000001ae 761F-         MOVW      DP,#_halHandle        ; [CPU_U] 
         000001af 0000 
    2239                      .dwpsn  file "C:/ti/motorware/motorware_1_01_00_16/sw/solutions/instaspin_foc/src/proj_lab04.c",line 
    2240 000001b0 8A00-         MOVL      XAR4,@_halHandle      ; [CPU_] |259| 
    2241              $C$DW$247       .dwtag  DW_TAG_TI_branch
    2242                      .dwattr $C$DW$247, DW_AT_low_pc(0x00)
    2243                      .dwattr $C$DW$247, DW_AT_name("_HAL_enableGlobalInts")
    2244                      .dwattr $C$DW$247, DW_AT_TI_call
    2245 000001b1 7640!         LCR       #_HAL_enableGlobalInts ; [CPU_] |259| 
         000001b2 0000 
TMS320C2000 Assembler PC v6.4.11 Wed Nov 23 10:34:31 2016

Tools Copyright (c) 1996-2015 Texas Instruments Incorporated
C:\Users\bee25\AppData\Local\Temp\3793210                            PAGE   46

    2246                      ; call occurs [#_HAL_enableGlobalInts] ; [] |259| 
    2247 000001b3 761F-         MOVW      DP,#_halHandle        ; [CPU_U] 
         000001b4 0000 
    2248                      .dwpsn  file "C:/ti/motorware/motorware_1_01_00_16/sw/solutions/instaspin_foc/src/proj_lab04.c",line 
    2249 000001b5 8A00-         MOVL      XAR4,@_halHandle      ; [CPU_] |263| 
    2250              $C$DW$248       .dwtag  DW_TAG_TI_branch
    2251                      .dwattr $C$DW$248, DW_AT_low_pc(0x00)
    2252                      .dwattr $C$DW$248, DW_AT_name("_HAL_enableDebugInt")
    2253                      .dwattr $C$DW$248, DW_AT_TI_call
    2254 000001b6 7640!         LCR       #_HAL_enableDebugInt  ; [CPU_] |263| 
         000001b7 0000 
    2255                      ; call occurs [#_HAL_enableDebugInt] ; [] |263| 
    2256 000001b8 761F-         MOVW      DP,#_halHandle        ; [CPU_U] 
         000001b9 0000 
    2257                      .dwpsn  file "C:/ti/motorware/motorware_1_01_00_16/sw/solutions/instaspin_foc/src/proj_lab04.c",line 
    2258 000001ba 8A00-         MOVL      XAR4,@_halHandle      ; [CPU_] |267| 
    2259                      .dwpsn  file "C:/ti/motorware/motorware_1_01_00_16/sw/modules/hal/boards/boostxldrv8301_revB/f28x/f28
    2260 000001bb 83A4          MOVL      XAR5,XAR4             ; [CPU_] |255| 
    2261 000001bc DD7E          ADDB      XAR5,#126             ; [CPU_] |255| 
    2262 000001bd 7622   EALLOW
    2263                      .dwpsn  file "C:/ti/motorware/motorware_1_01_00_16/sw/drivers/pwm/src/32b/f28x/f2802x/pwm.h",line 156
    2264 000001be D07C          MOVB      XAR0,#124             ; [CPU_] |1567| 
    2265 000001bf 0218          MOVB      ACC,#24               ; [CPU_] |1567| 
    2266 000001c0 0794          ADDL      ACC,*+XAR4[AR0]       ; [CPU_] |1567| 
    2267 000001c1 1EA6          MOVL      XAR6,ACC              ; [CPU_] |1567| 
    2268 000001c2 1AC6          OR        *+XAR6[0],#0x0004     ; [CPU_] |1567| 
         000001c3 0004 
    2269 000001c4 761A   EDIS
    2270 000001c5 7622   EALLOW
    2271 000001c6 0218          MOVB      ACC,#24               ; [CPU_] |1567| 
    2272 000001c7 07C5          ADDL      ACC,*+XAR5[0]         ; [CPU_] |1567| 
    2273 000001c8 1EA6          MOVL      XAR6,ACC              ; [CPU_] |1567| 
    2274 000001c9 1AC6          OR        *+XAR6[0],#0x0004     ; [CPU_] |1567| 
         000001ca 0004 
    2275 000001cb 761A   EDIS
    2276 000001cc 7622   EALLOW
    2277 000001cd 0218          MOVB      ACC,#24               ; [CPU_] |1567| 
    2278 000001ce 07D5          ADDL      ACC,*+XAR5[2]         ; [CPU_] |1567| 
    2279 000001cf 83A9          MOVL      XAR5,ACC              ; [CPU_] |1567| 
    2280 000001d0 1AC5          OR        *+XAR5[0],#0x0004     ; [CPU_] |1567| 
         000001d1 0004 
    2281 000001d2 761A   EDIS
    2282 000001d3 FF69          SPM       #0                    ; [CPU_] 
    2283                      .dwpsn  file "C:/ti/motorware/motorware_1_01_00_16/sw/solutions/instaspin_foc/src/proj_lab04.c",line 
    2284              $C$DW$249       .dwtag  DW_TAG_TI_branch
    2285                      .dwattr $C$DW$249, DW_AT_low_pc(0x00)
    2286                      .dwattr $C$DW$249, DW_AT_name("_HAL_enableDrv")
    2287                      .dwattr $C$DW$249, DW_AT_TI_call
    2288 000001d4 7640!         LCR       #_HAL_enableDrv       ; [CPU_] |272| 
         000001d5 0000 
    2289                      ; call occurs [#_HAL_enableDrv] ; [] |272| 
    2290 000001d6 761F-         MOVW      DP,#_halHandle        ; [CPU_U] 
         000001d7 0000 
    2291                      .dwpsn  file "C:/ti/motorware/motorware_1_01_00_16/sw/solutions/instaspin_foc/src/proj_lab04.c",line 
    2292 000001d8 8F40-         MOVL      XAR5,#_gDrvSpi8301Vars ; [CPU_U] |274| 
TMS320C2000 Assembler PC v6.4.11 Wed Nov 23 10:34:31 2016

Tools Copyright (c) 1996-2015 Texas Instruments Incorporated
C:\Users\bee25\AppData\Local\Temp\3793210                            PAGE   47

         000001d9 0050 
    2293 000001da A050          MOVL      *-SP[16],XAR5         ; [CPU_] |274| 
    2294 000001db 8A00-         MOVL      XAR4,@_halHandle      ; [CPU_] |274| 
    2295              $C$DW$250       .dwtag  DW_TAG_TI_branch
    2296                      .dwattr $C$DW$250, DW_AT_low_pc(0x00)
    2297                      .dwattr $C$DW$250, DW_AT_name("_HAL_setupDrvSpi")
    2298                      .dwattr $C$DW$250, DW_AT_TI_call
    2299 000001dc 7640!         LCR       #_HAL_setupDrvSpi     ; [CPU_] |274| 
         000001dd 0000 
    2300                      ; call occurs [#_HAL_setupDrvSpi] ; [] |274| 
    2301 000001de 761F-         MOVW      DP,#_halHandle        ; [CPU_U] 
         000001df 0000 
    2302                      .dwpsn  file "C:/ti/motorware/motorware_1_01_00_16/sw/solutions/instaspin_foc/src/proj_lab04.c",line 
    2303 000001e0 8A00-         MOVL      XAR4,@_halHandle      ; [CPU_] |284| 
    2304              $C$DW$251       .dwtag  DW_TAG_TI_branch
    2305                      .dwattr $C$DW$251, DW_AT_low_pc(0x00)
    2306                      .dwattr $C$DW$251, DW_AT_name("_HAL_setupI2C")
    2307                      .dwattr $C$DW$251, DW_AT_TI_call
    2308 000001e1 7640!         LCR       #_HAL_setupI2C        ; [CPU_] |284| 
         000001e2 0000 
    2309                      ; call occurs [#_HAL_setupI2C] ; [] |284| 
    2310 000001e3 761F-         MOVW      DP,#_ctrlHandle       ; [CPU_U] 
         000001e4 0000 
    2311                      .dwpsn  file "C:/ti/motorware/motorware_1_01_00_16/sw/modules/ctrl/src/32b/ctrl.h",line 1246,column 3
    2312 000001e5 02F1          MOVB      ACC,#241              ; [CPU_] |1246| 
    2313 000001e6 0708-         ADDL      ACC,@_ctrlHandle      ; [CPU_] |1246| 
    2314 000001e7 8AA9          MOVL      XAR4,ACC              ; [CPU_] |1246| 
    2315 000001e8 56BF          MOVB      *+XAR4[0],#1,UNC      ; [CPU_] |1246| 
         000001e9 01C4 
    2316                      .dwpsn  file "C:/ti/motorware/motorware_1_01_00_16/sw/solutions/instaspin_foc/src/proj_lab04.c",line 
    2317              $C$DW$252       .dwtag  DW_TAG_TI_branch
    2318                      .dwattr $C$DW$252, DW_AT_low_pc(0x00)
    2319                      .dwattr $C$DW$252, DW_AT_name("_USER_computeFlux_pu_to_Wb_sf")
    2320                      .dwattr $C$DW$252, DW_AT_TI_call
    2321 000001ea 7640!         LCR       #_USER_computeFlux_pu_to_Wb_sf ; [CPU_] |291| 
         000001eb 0000 
    2322                      ; call occurs [#_USER_computeFlux_pu_to_Wb_sf] ; [] |291| 
    2323 000001ec 761F-         MOVW      DP,#_gFlux_pu_to_Wb_sf ; [CPU_U] 
         000001ed 0000 
    2324 000001ee 1E16-         MOVL      @_gFlux_pu_to_Wb_sf,ACC ; [CPU_] |291| 
    2325                      .dwpsn  file "C:/ti/motorware/motorware_1_01_00_16/sw/solutions/instaspin_foc/src/proj_lab04.c",line 
    2326              $C$DW$253       .dwtag  DW_TAG_TI_branch
    2327                      .dwattr $C$DW$253, DW_AT_low_pc(0x00)
    2328                      .dwattr $C$DW$253, DW_AT_name("_USER_computeFlux_pu_to_VpHz_sf")
    2329                      .dwattr $C$DW$253, DW_AT_TI_call
    2330 000001ef 7640!         LCR       #_USER_computeFlux_pu_to_VpHz_sf ; [CPU_] |292| 
         000001f0 0000 
    2331                      ; call occurs [#_USER_computeFlux_pu_to_VpHz_sf] ; [] |292| 
    2332 000001f1 761F-         MOVW      DP,#_gFlux_pu_to_VpHz_sf ; [CPU_U] 
         000001f2 0000 
    2333 000001f3 1E10-         MOVL      @_gFlux_pu_to_VpHz_sf,ACC ; [CPU_] |292| 
    2334                      .dwpsn  file "C:/ti/motorware/motorware_1_01_00_16/sw/solutions/instaspin_foc/src/proj_lab04.c",line 
    2335              $C$DW$254       .dwtag  DW_TAG_TI_branch
    2336                      .dwattr $C$DW$254, DW_AT_low_pc(0x00)
    2337                      .dwattr $C$DW$254, DW_AT_name("_USER_computeTorque_Ls_Id_Iq_pu_to_Nm_sf")
TMS320C2000 Assembler PC v6.4.11 Wed Nov 23 10:34:31 2016

Tools Copyright (c) 1996-2015 Texas Instruments Incorporated
C:\Users\bee25\AppData\Local\Temp\3793210                            PAGE   48

    2338                      .dwattr $C$DW$254, DW_AT_TI_call
    2339 000001f4 7640!         LCR       #_USER_computeTorque_Ls_Id_Iq_pu_to_Nm_sf ; [CPU_] |293| 
         000001f5 0000 
    2340                      ; call occurs [#_USER_computeTorque_Ls_Id_Iq_pu_to_Nm_sf] ; [] |293| 
    2341 000001f6 761F-         MOVW      DP,#_gTorque_Ls_Id_Iq_pu_to_Nm_sf ; [CPU_U] 
         000001f7 0000 
    2342 000001f8 1E12-         MOVL      @_gTorque_Ls_Id_Iq_pu_to_Nm_sf,ACC ; [CPU_] |293| 
    2343                      .dwpsn  file "C:/ti/motorware/motorware_1_01_00_16/sw/solutions/instaspin_foc/src/proj_lab04.c",line 
    2344              $C$DW$255       .dwtag  DW_TAG_TI_branch
    2345                      .dwattr $C$DW$255, DW_AT_low_pc(0x00)
    2346                      .dwattr $C$DW$255, DW_AT_name("_USER_computeTorque_Flux_Iq_pu_to_Nm_sf")
    2347                      .dwattr $C$DW$255, DW_AT_TI_call
    2348 000001f9 7640!         LCR       #_USER_computeTorque_Flux_Iq_pu_to_Nm_sf ; [CPU_] |294| 
         000001fa 0000 
    2349                      ; call occurs [#_USER_computeTorque_Flux_Iq_pu_to_Nm_sf] ; [] |294| 
    2350 000001fb 761F-         MOVW      DP,#_gTorque_Flux_Iq_pu_to_Nm_sf ; [CPU_U] 
         000001fc 0000 
    2351                      .dwpsn  file "C:/ti/motorware/motorware_1_01_00_16/sw/solutions/instaspin_foc/src/proj_lab04.c",line 
    2352 000001fd D00C          MOVB      XAR0,#12              ; [CPU_] |296| 
    2353 000001fe 8F00-         MOVL      XAR4,#_gAdcData       ; [CPU_U] |296| 
         000001ff 0040 
    2354                      .dwpsn  file "C:/ti/motorware/motorware_1_01_00_16/sw/solutions/instaspin_foc/src/proj_lab04.c",line 
    2355 00000200 1E14-         MOVL      @_gTorque_Flux_Iq_pu_to_Nm_sf,ACC ; [CPU_] |294| 
    2356                      .dwpsn  file "C:/ti/motorware/motorware_1_01_00_16/sw/solutions/instaspin_foc/src/proj_lab04.c",line 
    2357 00000201 A84E          MOVL      *-SP[14],XAR4         ; [CPU_] |296| 
    2358 00000202 0694          MOVL      ACC,*+XAR4[AR0]       ; [CPU_] |296| 
    2359              $C$DW$256       .dwtag  DW_TAG_TI_branch
    2360                      .dwattr $C$DW$256, DW_AT_low_pc(0x00)
    2361                      .dwattr $C$DW$256, DW_AT_name("__IQ24toF")
    2362                      .dwattr $C$DW$256, DW_AT_TI_call
    2363 00000203 7640!         LCR       #__IQ24toF            ; [CPU_] |296| 
         00000204 0000 
    2364                      ; call occurs [#__IQ24toF] ; [] |296| 
    2365 00000205 1EA6          MOVL      XAR6,ACC              ; [CPU_] |296| 
    2366 00000206 9A00          MOV       AL,#0                 ; [CPU_] |296| 
    2367 00000207 28A8          MOV       AH,#17402             ; [CPU_] |296| 
         00000208 43FA 
    2368 00000209 1E42          MOVL      *-SP[2],ACC           ; [CPU_] |296| 
    2369 0000020a 06A6          MOVL      ACC,XAR6              ; [CPU_] |296| 
    2370              $C$DW$257       .dwtag  DW_TAG_TI_branch
    2371                      .dwattr $C$DW$257, DW_AT_low_pc(0x00)
    2372                      .dwattr $C$DW$257, DW_AT_name("FS$$MPY")
    2373                      .dwattr $C$DW$257, DW_AT_TI_call
    2374 0000020b 7640!         LCR       #FS$$MPY              ; [CPU_] |296| 
         0000020c 0000 
    2375                      ; call occurs [#FS$$MPY] ; [] |296| 
    2376 0000020d 761F-         MOVW      DP,#_ginput_power_sf  ; [CPU_U] 
         0000020e 0000 
    2377                      .dwpsn  file "C:/ti/motorware/motorware_1_01_00_16/sw/solutions/instaspin_foc/src/proj_lab04.c",line 
    2378 0000020f 8F01          MOVL      XAR4,#100000          ; [CPU_U] |302| 
         00000210 86A0 
    2379                      .dwpsn  file "C:/ti/motorware/motorware_1_01_00_16/sw/solutions/instaspin_foc/src/proj_lab04.c",line 
    2380 00000211 1E20-         MOVL      @_ginput_power_sf,ACC ; [CPU_] |296| 
    2381                      .dwpsn  file "C:/ti/motorware/motorware_1_01_00_16/sw/solutions/instaspin_foc/src/proj_lab04.c",line 
    2382 00000212 2BF9          MOV       *+XAR1[7],#0          ; [CPU_] |298| 
TMS320C2000 Assembler PC v6.4.11 Wed Nov 23 10:34:31 2016

Tools Copyright (c) 1996-2015 Texas Instruments Incorporated
C:\Users\bee25\AppData\Local\Temp\3793210                            PAGE   49

    2383                      .dwpsn  file "C:/ti/motorware/motorware_1_01_00_16/sw/solutions/instaspin_foc/src/proj_lab04.c",line 
    2384 00000213 0200          MOVB      ACC,#0                ; [CPU_] |302| 
    2385 00000214 1E1C-         MOVL      @_startup,ACC         ; [CPU_] |302| 
    2386 00000215       $C$L11:    
    2387                      .dwpsn  file "C:/ti/motorware/motorware_1_01_00_16/sw/solutions/instaspin_foc/src/proj_lab04.c",line 
    2388 00000215 0201          MOVB      ACC,#1                ; [CPU_] |303| 
    2389 00000216 5601-         ADDL      @_startcount,ACC      ; [CPU_] |303| 
         00000217 0022 
    2390                      .dwpsn  file "C:/ti/motorware/motorware_1_01_00_16/sw/solutions/instaspin_foc/src/proj_lab04.c",line 
    2391 00000218 071C-         ADDL      ACC,@_startup         ; [CPU_] |302| 
    2392 00000219 1EA6          MOVL      XAR6,ACC              ; [CPU_] |302| 
    2393 0000021a 1E1C-         MOVL      @_startup,ACC         ; [CPU_] |302| 
    2394 0000021b A8A9          MOVL      ACC,XAR4              ; [CPU_] |302| 
    2395 0000021c 0FA6          CMPL      ACC,XAR6              ; [CPU_] |302| 
    2396 0000021d 56C6          BF        $C$L11,HI             ; [CPU_] |302| 
         0000021e FFF8 
    2397                      ; branchcc occurs ; [] |302| 
    2398 0000021f 761F-         MOVW      DP,#_gMotorVars       ; [CPU_U] 
         00000220 0002 
    2399                      .dwpsn  file "C:/ti/motorware/motorware_1_01_00_16/sw/solutions/instaspin_foc/src/proj_lab04.c",line 
    2400 00000221 56BF-         MOVB      @_gMotorVars,#1,UNC   ; [CPU_] |306| 
         00000222 0100 
    2401 00000223       $C$L12:    
    2402                      .dwpsn  file "C:/ti/motorware/motorware_1_01_00_16/sw/solutions/instaspin_foc/src/proj_lab04.c",line 
    2403 00000223 9200-         MOV       AL,@_gMotorVars       ; [CPU_] |310| 
    2404 00000224 ECFF          BF        $C$L12,EQ             ; [CPU_] |310| 
    2405                      ; branchcc occurs ; [] |310| 
    2406 00000225 761F-         MOVW      DP,#_ctrlHandle       ; [CPU_U] 
         00000226 0000 
    2407                      .dwpsn  file "C:/ti/motorware/motorware_1_01_00_16/sw/solutions/instaspin_foc/src/proj_lab04.c",line 
    2408 00000227 8608-         MOVL      XAR2,@_ctrlHandle     ; [CPU_] |313| 
    2409                      .dwpsn  file "C:/ti/motorware/motorware_1_01_00_16/sw/modules/ctrl/src/32b/ctrl.h",line 1288,column 3
    2410 00000228 D0F4          MOVB      XAR0,#244             ; [CPU_] |1288| 
    2411 00000229 2B92          MOV       *+XAR2[AR0],#0        ; [CPU_] |1288| 
    2412                      .dwpsn  file "C:/ti/motorware/motorware_1_01_00_16/sw/solutions/instaspin_foc/src/proj_lab04.c",line 
    2413 0000022a FFEF          B         $C$L34,UNC            ; [CPU_] |316| 
         0000022b 0212 
    2414                      ; branch occurs ; [] |316| 
    2415 0000022c       $C$L13:    
    2416 0000022c 761F-         MOVW      DP,#_halHandle        ; [CPU_U] 
         0000022d 0000 
    2417                      .dwpsn  file "C:/ti/motorware/motorware_1_01_00_16/sw/solutions/instaspin_foc/src/proj_lab04.c",line 
    2418 0000022e 064E          MOVL      ACC,*-SP[14]          ; [CPU_] |318| 
    2419                      .dwpsn  file "C:/ti/motorware/motorware_1_01_00_16/sw/solutions/instaspin_foc/src/proj_lab04.c",line 
    2420 0000022f 83A1          MOVL      XAR5,XAR1             ; [CPU_] |319| 
    2421 00000230 8A00-         MOVL      XAR4,@_halHandle      ; [CPU_] |319| 
    2422 00000231 1E42          MOVL      *-SP[2],ACC           ; [CPU_] |319| 
    2423              $C$DW$258       .dwtag  DW_TAG_TI_branch
    2424                      .dwattr $C$DW$258, DW_AT_low_pc(0x00)
    2425                      .dwattr $C$DW$258, DW_AT_name("_HAL_setTorque")
    2426                      .dwattr $C$DW$258, DW_AT_TI_call
    2427 00000232 7640!         LCR       #_HAL_setTorque       ; [CPU_] |319| 
         00000233 0000 
    2428                      ; call occurs [#_HAL_setTorque] ; [] |319| 
    2429 00000234 761F-         MOVW      DP,#_halHandle        ; [CPU_U] 
TMS320C2000 Assembler PC v6.4.11 Wed Nov 23 10:34:31 2016

Tools Copyright (c) 1996-2015 Texas Instruments Incorporated
C:\Users\bee25\AppData\Local\Temp\3793210                            PAGE   50

         00000235 0000 
    2430                      .dwpsn  file "C:/ti/motorware/motorware_1_01_00_16/sw/solutions/instaspin_foc/src/proj_lab04.c",line 
    2431 00000236 83A1          MOVL      XAR5,XAR1             ; [CPU_] |321| 
    2432 00000237 8A00-         MOVL      XAR4,@_halHandle      ; [CPU_] |321| 
    2433              $C$DW$259       .dwtag  DW_TAG_TI_branch
    2434                      .dwattr $C$DW$259, DW_AT_low_pc(0x00)
    2435                      .dwattr $C$DW$259, DW_AT_name("_HAL_calcSpeedkph")
    2436                      .dwattr $C$DW$259, DW_AT_TI_call
    2437 00000238 7640!         LCR       #_HAL_calcSpeedkph    ; [CPU_] |321| 
         00000239 0000 
    2438                      ; call occurs [#_HAL_calcSpeedkph] ; [] |321| 
    2439 0000023a 761F-         MOVW      DP,#_speed            ; [CPU_U] 
         0000023b 0000 
    2440 0000023c 9605-         MOV       @_speed,AL            ; [CPU_] |321| 
    2441                      .dwpsn  file "C:/ti/motorware/motorware_1_01_00_16/sw/solutions/instaspin_foc/src/proj_lab04.c",line 
    2442 0000023d 5603-         MOV       ACC,@_i2cstatus << #8 ; [CPU_] |322| 
         0000023e 0803 
    2443 0000023f CA05-         OR        AL,@_speed            ; [CPU_] |322| 
    2444 00000240 9602-         MOV       @_data,AL             ; [CPU_] |322| 
    2445 00000241 761F-         MOVW      DP,#_halHandle        ; [CPU_U] 
         00000242 0000 
    2446                      .dwpsn  file "C:/ti/motorware/motorware_1_01_00_16/sw/solutions/instaspin_foc/src/proj_lab04.c",line 
    2447 00000243 8A00-         MOVL      XAR4,@_halHandle      ; [CPU_] |323| 
    2448              $C$DW$260       .dwtag  DW_TAG_TI_branch
    2449                      .dwattr $C$DW$260, DW_AT_low_pc(0x00)
    2450                      .dwattr $C$DW$260, DW_AT_name("_HAL_i2ctest")
    2451                      .dwattr $C$DW$260, DW_AT_TI_call
    2452 00000244 7640!         LCR       #_HAL_i2ctest         ; [CPU_] |323| 
         00000245 0000 
    2453                      ; call occurs [#_HAL_i2ctest] ; [] |323| 
    2454 00000246 761F-         MOVW      DP,#_gCounter_updateGlobals ; [CPU_U] 
         00000247 0000 
    2455                      .dwpsn  file "C:/ti/motorware/motorware_1_01_00_16/sw/modules/ctrl/src/32b/ctrl.h",line 1304,column 3
    2456 00000248 02F5          MOVB      ACC,#245              ; [CPU_] |1304| 
    2457                      .dwpsn  file "C:/ti/motorware/motorware_1_01_00_16/sw/solutions/instaspin_foc/src/proj_lab04.c",line 
    2458 00000249 0A04-         INC       @_gCounter_updateGlobals ; [CPU_] |327| 
    2459                      .dwpsn  file "C:/ti/motorware/motorware_1_01_00_16/sw/solutions/instaspin_foc/src/proj_lab04.c",line 
    2460 0000024a 88F1          MOVZ      AR6,*+XAR1[6]         ; [CPU_] |330| 
    2461                      .dwpsn  file "C:/ti/motorware/motorware_1_01_00_16/sw/modules/ctrl/src/32b/ctrl.h",line 1304,column 3
    2462 0000024b 0708-         ADDL      ACC,@_ctrlHandle      ; [CPU_] |1304| 
    2463 0000024c 8AA9          MOVL      XAR4,ACC              ; [CPU_] |1304| 
    2464                      .dwpsn  file "C:/ti/motorware/motorware_1_01_00_16/sw/solutions/instaspin_foc/src/proj_lab04.c",line 
    2465 0000024d D018          MOVB      XAR0,#24              ; [CPU_] |334| 
    2466                      .dwpsn  file "C:/ti/motorware/motorware_1_01_00_16/sw/modules/ctrl/src/32b/ctrl.h",line 1304,column 3
    2467 0000024e 7EC4          MOV       *+XAR4[0],AR6         ; [CPU_] |1304| 
    2468                      .dwpsn  file "C:/ti/motorware/motorware_1_01_00_16/sw/solutions/instaspin_foc/src/proj_lab04.c",line 
    2469 0000024f 56BF          MOVB      *+XAR1[5],#1,UNC      ; [CPU_] |332| 
         00000250 01E9 
    2470                      .dwpsn  file "C:/ti/motorware/motorware_1_01_00_16/sw/solutions/instaspin_foc/src/proj_lab04.c",line 
    2471 00000251 92E9          MOV       AL,*+XAR1[5]          ; [CPU_] |334| 
    2472 00000252 8A92          MOVL      XAR4,*+XAR2[AR0]      ; [CPU_] |334| 
    2473              $C$DW$261       .dwtag  DW_TAG_TI_branch
    2474                      .dwattr $C$DW$261, DW_AT_low_pc(0x00)
    2475                      .dwattr $C$DW$261, DW_AT_name("_EST_setFlag_enableRsRecalc")
    2476                      .dwattr $C$DW$261, DW_AT_TI_call
TMS320C2000 Assembler PC v6.4.11 Wed Nov 23 10:34:31 2016

Tools Copyright (c) 1996-2015 Texas Instruments Incorporated
C:\Users\bee25\AppData\Local\Temp\3793210                            PAGE   51

    2477 00000253 7640!         LCR       #_EST_setFlag_enableRsRecalc ; [CPU_] |334| 
         00000254 0000 
    2478                      ; call occurs [#_EST_setFlag_enableRsRecalc] ; [] |334| 
    2479 00000255 761F-         MOVW      DP,#_ctrlHandle       ; [CPU_U] 
         00000256 0000 
    2480                      .dwpsn  file "C:/ti/motorware/motorware_1_01_00_16/sw/solutions/instaspin_foc/src/proj_lab04.c",line 
    2481 00000257 8A08-         MOVL      XAR4,@_ctrlHandle     ; [CPU_] |337| 
    2482                      .dwpsn  file "C:/ti/motorware/motorware_1_01_00_16/sw/modules/ctrl/src/32b/ctrl.h",line 1275,column 3
    2483 00000258 D0F3          MOVB      XAR0,#243             ; [CPU_] |1275| 
    2484                      .dwpsn  file "C:/ti/motorware/motorware_1_01_00_16/sw/solutions/instaspin_foc/src/proj_lab04.c",line 
    2485 00000259 92F9          MOV       AL,*+XAR1[7]          ; [CPU_] |337| 
    2486                      .dwpsn  file "C:/ti/motorware/motorware_1_01_00_16/sw/modules/ctrl/src/32b/ctrl.h",line 1275,column 3
    2487 0000025a 9694          MOV       *+XAR4[AR0],AL        ; [CPU_] |1275| 
    2488                      .dwpsn  file "C:/ti/motorware/motorware_1_01_00_16/sw/modules/ctrl/src/32b/ctrl.h",line 1060,column 3
    2489 0000025b 92E4          MOV       AL,*+XAR4[4]          ; [CPU_] |1060| 
    2490 0000025c 56C1          BF        $C$L24,EQ             ; [CPU_] |1060| 
         0000025d 00EA 
    2491                      ; branchcc occurs ; [] |1060| 
    2492                      .dwpsn  file "C:/ti/motorware/motorware_1_01_00_16/sw/solutions/instaspin_foc/src/proj_lab04.c",line 
    2493              $C$DW$262       .dwtag  DW_TAG_TI_branch
    2494                      .dwattr $C$DW$262, DW_AT_low_pc(0x00)
    2495                      .dwattr $C$DW$262, DW_AT_name("_CTRL_updateState")
    2496                      .dwattr $C$DW$262, DW_AT_TI_call
    2497 0000025e 7640!         LCR       #_CTRL_updateState    ; [CPU_] |354| 
         0000025f 0000 
    2498                      ; call occurs [#_CTRL_updateState] ; [] |354| 
    2499 00000260 761F-         MOVW      DP,#_ctrlHandle       ; [CPU_U] 
         00000261 0000 
    2500                      .dwpsn  file "C:/ti/motorware/motorware_1_01_00_16/sw/solutions/instaspin_foc/src/proj_lab04.c",line 
    2501 00000262 8A08-         MOVL      XAR4,@_ctrlHandle     ; [CPU_] |357| 
    2502 00000263 93C9          MOV       AH,*+XAR1[1]          ; [CPU_] |357| 
    2503                      .dwpsn  file "C:/ti/motorware/motorware_1_01_00_16/sw/modules/ctrl/src/32b/ctrl.h",line 1218,column 3
    2504 00000264 D0F0          MOVB      XAR0,#240             ; [CPU_] |1218| 
    2505                      .dwpsn  file "C:/ti/motorware/motorware_1_01_00_16/sw/solutions/instaspin_foc/src/proj_lab04.c",line 
    2506 00000265 5200          CMPB      AL,#0                 ; [CPU_] |359| 
    2507                      .dwpsn  file "C:/ti/motorware/motorware_1_01_00_16/sw/modules/ctrl/src/32b/ctrl.h",line 1218,column 3
    2508 00000266 9794          MOV       *+XAR4[AR0],AH        ; [CPU_] |1218| 
    2509                      .dwpsn  file "C:/ti/motorware/motorware_1_01_00_16/sw/solutions/instaspin_foc/src/proj_lab04.c",line 
    2510 00000267 56C1          BF        $C$L25,EQ             ; [CPU_] |359| 
         00000268 00FD 
    2511                      ; branchcc occurs ; [] |359| 
    2512                      .dwpsn  file "C:/ti/motorware/motorware_1_01_00_16/sw/modules/ctrl/src/32b/ctrl.h",line 771,column 3,
    2513 00000269 92E4          MOV       AL,*+XAR4[4]          ; [CPU_] |771| 
    2514 0000026a 9647          MOV       *-SP[7],AL            ; [CPU_] |771| 
    2515 0000026b 5202          CMPB      AL,#2                 ; [CPU_] |771| 
    2516 0000026c 56C1          BF        $C$L21,EQ             ; [CPU_] |771| 
         0000026d 00AE 
    2517                      ; branchcc occurs ; [] |771| 
    2518                      .dwpsn  file "C:/ti/motorware/motorware_1_01_00_16/sw/solutions/instaspin_foc/src/proj_lab04.c",line 
    2519 0000026e 5203          CMPB      AL,#3                 ; [CPU_] |368| 
    2520 0000026f EC22          BF        $C$L14,EQ             ; [CPU_] |368| 
    2521                      ; branchcc occurs ; [] |368| 
    2522                      .dwpsn  file "C:/ti/motorware/motorware_1_01_00_16/sw/solutions/instaspin_foc/src/proj_lab04.c",line 
    2523 00000270 5201          CMPB      AL,#1                 ; [CPU_] |401| 
    2524 00000271 56C0          BF        $C$L23,NEQ            ; [CPU_] |401| 
TMS320C2000 Assembler PC v6.4.11 Wed Nov 23 10:34:31 2016

Tools Copyright (c) 1996-2015 Texas Instruments Incorporated
C:\Users\bee25\AppData\Local\Temp\3793210                            PAGE   52

         00000272 00C4 
    2525                      ; branchcc occurs ; [] |401| 
    2526 00000273 761F-         MOVW      DP,#_halHandle        ; [CPU_U] 
         00000274 0000 
    2527                      .dwpsn  file "C:/ti/motorware/motorware_1_01_00_16/sw/modules/hal/boards/boostxldrv8301_revB/f28x/f28
    2528 00000275 C400-         MOVL      XAR6,@_halHandle      ; [CPU_] |255| 
    2529 00000276 83A6          MOVL      XAR5,XAR6             ; [CPU_] |255| 
    2530 00000277 DD7E          ADDB      XAR5,#126             ; [CPU_] |255| 
    2531 00000278 7622   EALLOW
    2532                      .dwpsn  file "C:/ti/motorware/motorware_1_01_00_16/sw/drivers/pwm/src/32b/f28x/f2802x/pwm.h",line 156
    2533 00000279 D07C          MOVB      XAR0,#124             ; [CPU_] |1567| 
    2534 0000027a 0218          MOVB      ACC,#24               ; [CPU_] |1567| 
    2535 0000027b 0796          ADDL      ACC,*+XAR6[AR0]       ; [CPU_] |1567| 
    2536 0000027c 1EA6          MOVL      XAR6,ACC              ; [CPU_] |1567| 
    2537 0000027d 1AC6          OR        *+XAR6[0],#0x0004     ; [CPU_] |1567| 
         0000027e 0004 
    2538 0000027f 761A   EDIS
    2539 00000280 7622   EALLOW
    2540 00000281 0218          MOVB      ACC,#24               ; [CPU_] |1567| 
    2541 00000282 07C5          ADDL      ACC,*+XAR5[0]         ; [CPU_] |1567| 
    2542 00000283 1EA6          MOVL      XAR6,ACC              ; [CPU_] |1567| 
    2543 00000284 1AC6          OR        *+XAR6[0],#0x0004     ; [CPU_] |1567| 
         00000285 0004 
    2544 00000286 761A   EDIS
    2545 00000287 7622   EALLOW
    2546 00000288 0218          MOVB      ACC,#24               ; [CPU_] |1567| 
    2547 00000289 07D5          ADDL      ACC,*+XAR5[2]         ; [CPU_] |1567| 
    2548 0000028a 83A9          MOVL      XAR5,ACC              ; [CPU_] |1567| 
    2549 0000028b 1AC5          OR        *+XAR5[0],#0x0004     ; [CPU_] |1567| 
         0000028c 0004 
    2550 0000028d 761A   EDIS
    2551                      .dwpsn  file "C:/ti/motorware/motorware_1_01_00_16/sw/solutions/instaspin_foc/src/proj_lab04.c",line 
    2552 0000028e 2BC9          MOV       *+XAR1[1],#0          ; [CPU_] |405| 
    2553 0000028f FFEF          B         $C$L23,UNC            ; [CPU_] |405| 
         00000290 00A6 
    2554                      ; branch occurs ; [] |405| 
    2555 00000291       $C$L14:    
    2556 00000291 761F-         MOVW      DP,#_gMotorVars+7     ; [CPU_U] 
         00000292 0002 
    2557                      .dwpsn  file "C:/ti/motorware/motorware_1_01_00_16/sw/solutions/instaspin_foc/src/proj_lab04.c",line 
    2558 00000293 9207-         MOV       AL,@_gMotorVars+7     ; [CPU_] |370| 
    2559 00000294 5201          CMPB      AL,#1                 ; [CPU_] |370| 
    2560 00000295 EC22          BF        $C$L15,EQ             ; [CPU_] |370| 
    2561                      ; branchcc occurs ; [] |370| 
    2562 00000296 761F-         MOVW      DP,#_halHandle        ; [CPU_U] 
         00000297 0000 
    2563                      .dwpsn  file "C:/ti/motorware/motorware_1_01_00_16/sw/solutions/instaspin_foc/src/proj_lab04.c",line 
    2564 00000298 C400-         MOVL      XAR6,@_halHandle      ; [CPU_] |378| 
    2565                      .dwpsn  file "C:/ti/motorware/motorware_1_01_00_16/sw/modules/hal/boards/boostxldrv8301_revB/f28x/f28
    2566 00000299 D092          MOVB      XAR0,#146             ; [CPU_] |746| 
    2567 0000029a 28A9          MOV       AL,#17436             ; [CPU_] |746| 
         0000029b 441C 
    2568 0000029c 9B92          MOV       AH,#146               ; [CPU_] |746| 
    2569                      .dwpsn  file "C:/ti/motorware/motorware_1_01_00_16/sw/solutions/instaspin_foc/src/proj_lab04.c",line 
    2570 0000029d 83A6          MOVL      XAR5,XAR6             ; [CPU_] |378| 
TMS320C2000 Assembler PC v6.4.11 Wed Nov 23 10:34:31 2016

Tools Copyright (c) 1996-2015 Texas Instruments Incorporated
C:\Users\bee25\AppData\Local\Temp\3793210                            PAGE   53

    2571                      .dwpsn  file "C:/ti/motorware/motorware_1_01_00_16/sw/modules/hal/boards/boostxldrv8301_revB/f28x/f28
    2572 0000029e 1E96          MOVL      *+XAR6[AR0],ACC       ; [CPU_] |746| 
    2573 0000029f D018          MOVB      XAR0,#24              ; [CPU_] |746| 
    2574 000002a0 28A9          MOV       AL,#44718             ; [CPU_] |746| 
         000002a1 AEAE 
    2575 000002a2 9B91          MOV       AH,#145               ; [CPU_] |746| 
    2576                      .dwpsn  file "C:/ti/motorware/motorware_1_01_00_16/sw/solutions/instaspin_foc/src/proj_lab04.c",line 
    2577 000002a3 DD7C          ADDB      XAR5,#124             ; [CPU_] |378| 
    2578                      .dwpsn  file "C:/ti/motorware/motorware_1_01_00_16/sw/modules/hal/boards/boostxldrv8301_revB/f28x/f28
    2579 000002a4 769D          MOVL      XAR6,#1917563         ; [CPU_U] |750| 
         000002a5 427B 
    2580                      .dwpsn  file "C:/ti/motorware/motorware_1_01_00_16/sw/modules/hal/boards/boostxldrv8301_revB/f28x/f28
    2581 000002a6 1E95          MOVL      *+XAR5[AR0],ACC       ; [CPU_] |746| 
    2582 000002a7 D01A          MOVB      XAR0,#26              ; [CPU_] |746| 
    2583 000002a8 28A9          MOV       AL,#42940             ; [CPU_] |746| 
         000002a9 A7BC 
    2584 000002aa 9B92          MOV       AH,#146               ; [CPU_] |746| 
    2585 000002ab 1E95          MOVL      *+XAR5[AR0],ACC       ; [CPU_] |746| 
    2586                      .dwpsn  file "C:/ti/motorware/motorware_1_01_00_16/sw/modules/hal/boards/boostxldrv8301_revB/f28x/f28
    2587 000002ac D01C          MOVB      XAR0,#28              ; [CPU_] |750| 
    2588 000002ad C295          MOVL      *+XAR5[AR0],XAR6      ; [CPU_] |750| 
    2589 000002ae D01E          MOVB      XAR0,#30              ; [CPU_] |750| 
    2590 000002af 769D          MOVL      XAR6,#1909644         ; [CPU_U] |750| 
         000002b0 238C 
    2591 000002b1 C295          MOVL      *+XAR5[AR0],XAR6      ; [CPU_] |750| 
    2592 000002b2 D020          MOVB      XAR0,#32              ; [CPU_] |750| 
    2593 000002b3 769D          MOVL      XAR6,#1912297         ; [CPU_U] |750| 
         000002b4 2DE9 
    2594 000002b5 C295          MOVL      *+XAR5[AR0],XAR6      ; [CPU_] |750| 
    2595 000002b6 6F3C          B         $C$L20,UNC            ; [CPU_] |750| 
    2596                      ; branch occurs ; [] |750| 
    2597 000002b7       $C$L15:    
    2598 000002b7 761F-         MOVW      DP,#_halHandle        ; [CPU_U] 
         000002b8 0000 
    2599                      .dwpsn  file "C:/ti/motorware/motorware_1_01_00_16/sw/solutions/instaspin_foc/src/proj_lab04.c",line 
    2600 000002b9 C400-         MOVL      XAR6,@_halHandle      ; [CPU_] |373| 
    2601 000002ba 83A6          MOVL      XAR5,XAR6             ; [CPU_] |373| 
    2602                      .dwpsn  file "C:/ti/motorware/motorware_1_01_00_16/sw/modules/hal/boards/boostxldrv8301_revB/f28x/f28
    2603 000002bb D300          MOVB      XAR3,#0               ; [CPU_] |1027| 
    2604                      .dwpsn  file "C:/ti/motorware/motorware_1_01_00_16/sw/solutions/instaspin_foc/src/proj_lab04.c",line 
    2605 000002bc DD7C          ADDB      XAR5,#124             ; [CPU_] |373| 
    2606 000002bd 2901          CLRC      SXM                   ; [CPU_] 
    2607                      .dwpsn  file "C:/ti/motorware/motorware_1_01_00_16/sw/modules/hal/boards/boostxldrv8301_revB/f28x/f28
    2608 000002be 6F13          B         $C$L17,UNC            ; [CPU_] |1027| 
    2609                      ; branch occurs ; [] |1027| 
    2610 000002bf       $C$L16:    
    2611                      .dwpsn  file "C:/ti/motorware/motorware_1_01_00_16/sw/modules/hal/boards/boostxldrv8301_revB/f28x/f28
    2612 000002bf 5603          MOV       ACC,AL << 1           ; [CPU_] |349| 
         000002c0 01A9 
    2613 000002c1 1EAC          MOVL      XT,ACC                ; [CPU_] |349| 
    2614                      .dwpsn  file "C:/ti/motorware/motorware_1_01_00_16/sw/modules/hal/boards/boostxldrv8301_revB/f28x/f28
    2615 000002c2 8BA6          MOVL      XAR1,XAR6             ; [CPU_] |1031| 
    2616                      .dwpsn  file "C:/ti/motorware/motorware_1_01_00_16/sw/modules/hal/boards/boostxldrv8301_revB/f28x/f28
    2617 000002c3 06A6          MOVL      ACC,XAR6              ; [CPU_] |349| 
    2618 000002c4 07AC          ADDL      ACC,XT                ; [CPU_] |349| 
TMS320C2000 Assembler PC v6.4.11 Wed Nov 23 10:34:31 2016

Tools Copyright (c) 1996-2015 Texas Instruments Incorporated
C:\Users\bee25\AppData\Local\Temp\3793210                            PAGE   54

    2619 000002c5 1EA7          MOVL      XAR7,ACC              ; [CPU_] |349| 
    2620                      .dwpsn  file "C:/ti/motorware/motorware_1_01_00_16/sw/modules/hal/boards/boostxldrv8301_revB/f28x/f28
    2621 000002c6 ABA9          MOVL      ACC,XT                ; [CPU_] |1031| 
    2622 000002c7 5601          ADDL      XAR1,ACC              ; [CPU_] |1031| 
         000002c8 00A1 
    2623                      .dwpsn  file "C:/ti/motorware/motorware_1_01_00_16/sw/modules/hal/boards/boostxldrv8301_revB/f28x/f28
    2624 000002c9 D092          MOVB      XAR0,#146             ; [CPU_] |349| 
    2625 000002ca 0697          MOVL      ACC,*+XAR7[AR0]       ; [CPU_] |349| 
    2626                      .dwpsn  file "C:/ti/motorware/motorware_1_01_00_16/sw/modules/hal/boards/boostxldrv8301_revB/f28x/f28
    2627 000002cb D00A          MOVB      XAR0,#10              ; [CPU_] |1031| 
    2628 000002cc 8E91          MOVL      XAR0,*+XAR1[AR0]      ; [CPU_] |1031| 
    2629                      .dwpsn  file "C:/ti/motorware/motorware_1_01_00_16/sw/modules/hal/boards/boostxldrv8301_revB/f28x/f28
    2630 000002cd DB01          ADDB      XAR3,#1               ; [CPU_] |1027| 
    2631                      .dwpsn  file "C:/ti/motorware/motorware_1_01_00_16/sw/modules/hal/boards/boostxldrv8301_revB/f28x/f28
    2632 000002ce 07C0          ADDL      ACC,*+XAR0[0]         ; [CPU_] |1031| 
    2633                      .dwpsn  file "C:/ti/motorware/motorware_1_01_00_16/sw/modules/hal/boards/boostxldrv8301_revB/f28x/f28
    2634 000002cf D092          MOVB      XAR0,#146             ; [CPU_] |746| 
    2635 000002d0 1E97          MOVL      *+XAR7[AR0],ACC       ; [CPU_] |746| 
    2636 000002d1       $C$L17:    
    2637                      .dwpsn  file "C:/ti/motorware/motorware_1_01_00_16/sw/modules/hal/boards/boostxldrv8301_revB/f28x/f28
    2638 000002d1 D0A6          MOVB      XAR0,#166             ; [CPU_] |1027| 
    2639 000002d2 92A3          MOV       AL,AR3                ; [CPU_] |1027| 
    2640 000002d3 5496          CMP       AL,*+XAR6[AR0]        ; [CPU_] |1027| 
    2641 000002d4 56C8          BF        $C$L16,LO             ; [CPU_] |1027| 
         000002d5 FFEB 
    2642                      ; branchcc occurs ; [] |1027| 
    2643                      .dwpsn  file "C:/ti/motorware/motorware_1_01_00_16/sw/modules/hal/boards/boostxldrv8301_revB/f28x/f28
    2644 000002d6 2BAB          MOV       PL,#0                 ; [CPU_] |1038| 
    2645 000002d7 2901          CLRC      SXM                   ; [CPU_] 
    2646 000002d8 6F15          B         $C$L19,UNC            ; [CPU_] |1038| 
    2647                      ; branch occurs ; [] |1038| 
    2648 000002d9       $C$L18:    
    2649                      .dwpsn  file "C:/ti/motorware/motorware_1_01_00_16/sw/modules/hal/boards/boostxldrv8301_revB/f28x/f28
    2650 000002d9 5603          MOV       ACC,AL << 1           ; [CPU_] |349| 
         000002da 01A9 
    2651 000002db 82A9          MOVL      XAR3,ACC              ; [CPU_] |349| 
    2652                      .dwpsn  file "C:/ti/motorware/motorware_1_01_00_16/sw/modules/hal/boards/boostxldrv8301_revB/f28x/f28
    2653 000002dc 8BA6          MOVL      XAR1,XAR6             ; [CPU_] |1042| 
    2654                      .dwpsn  file "C:/ti/motorware/motorware_1_01_00_16/sw/modules/hal/boards/boostxldrv8301_revB/f28x/f28
    2655 000002dd 06A6          MOVL      ACC,XAR6              ; [CPU_] |349| 
    2656 000002de 07A3          ADDL      ACC,XAR3              ; [CPU_] |349| 
    2657 000002df 1EA7          MOVL      XAR7,ACC              ; [CPU_] |349| 
    2658                      .dwpsn  file "C:/ti/motorware/motorware_1_01_00_16/sw/modules/hal/boards/boostxldrv8301_revB/f28x/f28
    2659 000002e0 A2A9          MOVL      ACC,XAR3              ; [CPU_] |1042| 
    2660 000002e1 5601          ADDL      XAR1,ACC              ; [CPU_] |1042| 
         000002e2 00A1 
    2661                      .dwpsn  file "C:/ti/motorware/motorware_1_01_00_16/sw/modules/hal/boards/boostxldrv8301_revB/f28x/f28
    2662 000002e3 D098          MOVB      XAR0,#152             ; [CPU_] |349| 
    2663 000002e4 0697          MOVL      ACC,*+XAR7[AR0]       ; [CPU_] |349| 
    2664                      .dwpsn  file "C:/ti/motorware/motorware_1_01_00_16/sw/modules/hal/boards/boostxldrv8301_revB/f28x/f28
    2665 000002e5 D040          MOVB      XAR0,#64              ; [CPU_] |1042| 
    2666 000002e6 8E91          MOVL      XAR0,*+XAR1[AR0]      ; [CPU_] |1042| 
    2667 000002e7 07C0          ADDL      ACC,*+XAR0[0]         ; [CPU_] |1042| 
    2668                      .dwpsn  file "C:/ti/motorware/motorware_1_01_00_16/sw/modules/hal/boards/boostxldrv8301_revB/f28x/f28
    2669 000002e8 D098          MOVB      XAR0,#152             ; [CPU_] |750| 
TMS320C2000 Assembler PC v6.4.11 Wed Nov 23 10:34:31 2016

Tools Copyright (c) 1996-2015 Texas Instruments Incorporated
C:\Users\bee25\AppData\Local\Temp\3793210                            PAGE   55

    2670 000002e9 1E97          MOVL      *+XAR7[AR0],ACC       ; [CPU_] |750| 
    2671 000002ea 92AB          MOV       AL,PL                 ; [CPU_] |750| 
    2672                      .dwpsn  file "C:/ti/motorware/motorware_1_01_00_16/sw/modules/hal/boards/boostxldrv8301_revB/f28x/f28
    2673 000002eb 9C01          ADDB      AL,#1                 ; [CPU_] |1038| 
    2674 000002ec 27A9          MOV       PL,AL                 ; [CPU_] |1038| 
    2675 000002ed       $C$L19:    
    2676                      .dwpsn  file "C:/ti/motorware/motorware_1_01_00_16/sw/modules/hal/boards/boostxldrv8301_revB/f28x/f28
    2677 000002ed D0A7          MOVB      XAR0,#167             ; [CPU_] |1038| 
    2678 000002ee 92AB          MOV       AL,PL                 ; [CPU_] |1038| 
    2679 000002ef 5496          CMP       AL,*+XAR6[AR0]        ; [CPU_] |1038| 
    2680 000002f0 56C8          BF        $C$L18,LO             ; [CPU_] |1038| 
         000002f1 FFE9 
    2681                      ; branchcc occurs ; [] |1038| 
    2682 000002f2       $C$L20:    
    2683                      .dwpsn  file "C:/ti/motorware/motorware_1_01_00_16/sw/solutions/instaspin_foc/src/proj_lab04.c",line 
    2684 000002f2 D016          MOVB      XAR0,#22              ; [CPU_] |389| 
    2685 000002f3 7680-         MOVL      XAR6,#_gMotorVars+92  ; [CPU_U] |389| 
         000002f4 00DC 
    2686 000002f5 0695          MOVL      ACC,*+XAR5[AR0]       ; [CPU_] |389| 
    2687                      .dwpsn  file "C:/ti/motorware/motorware_1_01_00_16/sw/solutions/instaspin_foc/src/proj_lab04.c",line 
    2688 000002f6 D018          MOVB      XAR0,#24              ; [CPU_] |390| 
    2689                      .dwpsn  file "C:/ti/motorware/motorware_1_01_00_16/sw/solutions/instaspin_foc/src/proj_lab04.c",line 
    2690 000002f7 1EC6          MOVL      *+XAR6[0],ACC         ; [CPU_] |389| 
    2691                      .dwpsn  file "C:/ti/motorware/motorware_1_01_00_16/sw/solutions/instaspin_foc/src/proj_lab04.c",line 
    2692 000002f8 0695          MOVL      ACC,*+XAR5[AR0]       ; [CPU_] |390| 
    2693                      .dwpsn  file "C:/ti/motorware/motorware_1_01_00_16/sw/solutions/instaspin_foc/src/proj_lab04.c",line 
    2694 000002f9 D01A          MOVB      XAR0,#26              ; [CPU_] |391| 
    2695                      .dwpsn  file "C:/ti/motorware/motorware_1_01_00_16/sw/solutions/instaspin_foc/src/proj_lab04.c",line 
    2696 000002fa 1ED6          MOVL      *+XAR6[2],ACC         ; [CPU_] |390| 
    2697                      .dwpsn  file "C:/ti/motorware/motorware_1_01_00_16/sw/solutions/instaspin_foc/src/proj_lab04.c",line 
    2698 000002fb 0695          MOVL      ACC,*+XAR5[AR0]       ; [CPU_] |391| 
    2699                      .dwpsn  file "C:/ti/motorware/motorware_1_01_00_16/sw/solutions/instaspin_foc/src/proj_lab04.c",line 
    2700 000002fc D01C          MOVB      XAR0,#28              ; [CPU_] |394| 
    2701                      .dwpsn  file "C:/ti/motorware/motorware_1_01_00_16/sw/solutions/instaspin_foc/src/proj_lab04.c",line 
    2702 000002fd 1EE6          MOVL      *+XAR6[4],ACC         ; [CPU_] |391| 
    2703                      .dwpsn  file "C:/ti/motorware/motorware_1_01_00_16/sw/solutions/instaspin_foc/src/proj_lab04.c",line 
    2704 000002fe 0695          MOVL      ACC,*+XAR5[AR0]       ; [CPU_] |394| 
    2705                      .dwpsn  file "C:/ti/motorware/motorware_1_01_00_16/sw/solutions/instaspin_foc/src/proj_lab04.c",line 
    2706 000002ff D01E          MOVB      XAR0,#30              ; [CPU_] |395| 
    2707                      .dwpsn  file "C:/ti/motorware/motorware_1_01_00_16/sw/solutions/instaspin_foc/src/proj_lab04.c",line 
    2708 00000300 1EF6          MOVL      *+XAR6[6],ACC         ; [CPU_] |394| 
    2709                      .dwpsn  file "C:/ti/motorware/motorware_1_01_00_16/sw/solutions/instaspin_foc/src/proj_lab04.c",line 
    2710 00000301 0695          MOVL      ACC,*+XAR5[AR0]       ; [CPU_] |395| 
    2711 00000302 D008          MOVB      XAR0,#8               ; [CPU_] |395| 
    2712 00000303 1E96          MOVL      *+XAR6[AR0],ACC       ; [CPU_] |395| 
    2713                      .dwpsn  file "C:/ti/motorware/motorware_1_01_00_16/sw/solutions/instaspin_foc/src/proj_lab04.c",line 
    2714 00000304 D020          MOVB      XAR0,#32              ; [CPU_] |396| 
    2715 00000305 0695          MOVL      ACC,*+XAR5[AR0]       ; [CPU_] |396| 
    2716 00000306 D00A          MOVB      XAR0,#10              ; [CPU_] |396| 
    2717 00000307 1E96          MOVL      *+XAR6[AR0],ACC       ; [CPU_] |396| 
    2718 00000308 7622   EALLOW
    2719                      .dwpsn  file "C:/ti/motorware/motorware_1_01_00_16/sw/drivers/pwm/src/32b/f28x/f2802x/pwm.h",line 951
    2720 00000309 0217          MOVB      ACC,#23               ; [CPU_] |951| 
    2721 0000030a 07C5          ADDL      ACC,*+XAR5[0]         ; [CPU_] |951| 
    2722 0000030b 1EA6          MOVL      XAR6,ACC              ; [CPU_] |951| 
TMS320C2000 Assembler PC v6.4.11 Wed Nov 23 10:34:31 2016

Tools Copyright (c) 1996-2015 Texas Instruments Incorporated
C:\Users\bee25\AppData\Local\Temp\3793210                            PAGE   56

    2723 0000030c 56BF          MOVB      *+XAR6[0],#4,UNC      ; [CPU_] |951| 
         0000030d 04C6 
    2724 0000030e 761A   EDIS
    2725 0000030f 7622   EALLOW
    2726 00000310 0217          MOVB      ACC,#23               ; [CPU_] |951| 
    2727 00000311 07D5          ADDL      ACC,*+XAR5[2]         ; [CPU_] |951| 
    2728 00000312 1EA6          MOVL      XAR6,ACC              ; [CPU_] |951| 
    2729 00000313 56BF          MOVB      *+XAR6[0],#4,UNC      ; [CPU_] |951| 
         00000314 04C6 
    2730 00000315 761A   EDIS
    2731 00000316 7622   EALLOW
    2732 00000317 0217          MOVB      ACC,#23               ; [CPU_] |951| 
    2733 00000318 07E5          ADDL      ACC,*+XAR5[4]         ; [CPU_] |951| 
    2734                      .dwpsn  file "C:/ti/motorware/motorware_1_01_00_16/sw/drivers/pwm/src/32b/f28x/f2802x/pwm.h",line 955
    2735 00000319 6F18          B         $C$L22,UNC            ; [CPU_] |955| 
    2736                      ; branch occurs ; [] |955| 
    2737 0000031a       $C$L21:    
    2738 0000031a 761F-         MOVW      DP,#_halHandle        ; [CPU_U] 
         0000031b 0000 
    2739                      .dwpsn  file "C:/ti/motorware/motorware_1_01_00_16/sw/modules/hal/boards/boostxldrv8301_revB/f28x/f28
    2740 0000031c C500-         MOVL      XAR7,@_halHandle      ; [CPU_] |297| 
    2741 0000031d 83A7          MOVL      XAR5,XAR7             ; [CPU_] |297| 
    2742 0000031e DD7E          ADDB      XAR5,#126             ; [CPU_] |297| 
    2743 0000031f 7622   EALLOW
    2744                      .dwpsn  file "C:/ti/motorware/motorware_1_01_00_16/sw/drivers/pwm/src/32b/f28x/f2802x/pwm.h",line 951
    2745 00000320 D07C          MOVB      XAR0,#124             ; [CPU_] |951| 
    2746 00000321 0217          MOVB      ACC,#23               ; [CPU_] |951| 
    2747 00000322 0797          ADDL      ACC,*+XAR7[AR0]       ; [CPU_] |951| 
    2748 00000323 1EA6          MOVL      XAR6,ACC              ; [CPU_] |951| 
    2749 00000324 56BF          MOVB      *+XAR6[0],#4,UNC      ; [CPU_] |951| 
         00000325 04C6 
    2750 00000326 761A   EDIS
    2751 00000327 7622   EALLOW
    2752 00000328 0217          MOVB      ACC,#23               ; [CPU_] |951| 
    2753 00000329 07C5          ADDL      ACC,*+XAR5[0]         ; [CPU_] |951| 
    2754 0000032a 1EA6          MOVL      XAR6,ACC              ; [CPU_] |951| 
    2755 0000032b 56BF          MOVB      *+XAR6[0],#4,UNC      ; [CPU_] |951| 
         0000032c 04C6 
    2756 0000032d 761A   EDIS
    2757 0000032e 7622   EALLOW
    2758 0000032f 0217          MOVB      ACC,#23               ; [CPU_] |951| 
    2759 00000330 07D5          ADDL      ACC,*+XAR5[2]         ; [CPU_] |951| 
    2760 00000331       $C$L22:    
    2761 00000331 83A9          MOVL      XAR5,ACC              ; [CPU_] |951| 
    2762 00000332 56BF          MOVB      *+XAR5[0],#4,UNC      ; [CPU_] |951| 
         00000333 04C5 
    2763 00000334 761A   EDIS
    2764 00000335       $C$L23:    
    2765                      .dwpsn  file "C:/ti/motorware/motorware_1_01_00_16/sw/solutions/instaspin_foc/src/proj_lab04.c",line 
    2766 00000335 D0F5          MOVB      XAR0,#245             ; [CPU_] |408| 
    2767 00000336 9294          MOV       AL,*+XAR4[AR0]        ; [CPU_] |408| 
    2768 00000337 5201          CMPB      AL,#1                 ; [CPU_] |408| 
    2769 00000338 ED2C          BF        $C$L25,NEQ            ; [CPU_] |408| 
    2770                      ; branchcc occurs ; [] |408| 
    2771 00000339 9247          MOV       AL,*-SP[7]            ; [CPU_] 
TMS320C2000 Assembler PC v6.4.11 Wed Nov 23 10:34:31 2016

Tools Copyright (c) 1996-2015 Texas Instruments Incorporated
C:\Users\bee25\AppData\Local\Temp\3793210                            PAGE   57

    2772 0000033a 5201          CMPB      AL,#1                 ; [CPU_] |408| 
    2773 0000033b 56C9          BF        $C$L25,LOS            ; [CPU_] |408| 
         0000033c 0029 
    2774                      ; branchcc occurs ; [] |408| 
    2775 0000033d 761F-         MOVW      DP,#_gMotorVars+17    ; [CPU_U] 
         0000033e 0002 
    2776 0000033f 9211-         MOV       AL,@_gMotorVars+17    ; [CPU_] |408| 
    2777 00000340 5206          CMPB      AL,#6                 ; [CPU_] |408| 
    2778 00000341 ED23          BF        $C$L25,NEQ            ; [CPU_] |408| 
    2779                      ; branchcc occurs ; [] |408| 
    2780 00000342 FF69          SPM       #0                    ; [CPU_] 
    2781                      .dwpsn  file "C:/ti/motorware/motorware_1_01_00_16/sw/solutions/instaspin_foc/src/proj_lab04.c",line 
    2782              $C$DW$263       .dwtag  DW_TAG_TI_branch
    2783                      .dwattr $C$DW$263, DW_AT_low_pc(0x00)
    2784                      .dwattr $C$DW$263, DW_AT_name("_USER_softwareUpdate1p6")
    2785                      .dwattr $C$DW$263, DW_AT_TI_call
    2786 00000343 7640!         LCR       #_USER_softwareUpdate1p6 ; [CPU_] |413| 
         00000344 0000 
    2787                      ; call occurs [#_USER_softwareUpdate1p6] ; [] |413| 
    2788 00000345 6F1F          B         $C$L25,UNC            ; [CPU_] |413| 
    2789                      ; branch occurs ; [] |413| 
    2790 00000346       $C$L24:    
    2791 00000346 761F-         MOVW      DP,#_gMotorVars       ; [CPU_U] 
         00000347 0002 
    2792                      .dwpsn  file "C:/ti/motorware/motorware_1_01_00_16/sw/solutions/instaspin_foc/src/proj_lab04.c",line 
    2793 00000348 2B00-         MOV       @_gMotorVars,#0       ; [CPU_] |346| 
    2794 00000349 761F-         MOVW      DP,#_halHandle        ; [CPU_U] 
         0000034a 0000 
    2795                      .dwpsn  file "C:/ti/motorware/motorware_1_01_00_16/sw/modules/hal/boards/boostxldrv8301_revB/f28x/f28
    2796 0000034b 8300-         MOVL      XAR5,@_halHandle      ; [CPU_] |255| 
    2797 0000034c 8AA5          MOVL      XAR4,XAR5             ; [CPU_] |255| 
    2798 0000034d DC7E          ADDB      XAR4,#126             ; [CPU_] |255| 
    2799 0000034e 7622   EALLOW
    2800                      .dwpsn  file "C:/ti/motorware/motorware_1_01_00_16/sw/drivers/pwm/src/32b/f28x/f2802x/pwm.h",line 156
    2801 0000034f D07C          MOVB      XAR0,#124             ; [CPU_] |1567| 
    2802 00000350 0218          MOVB      ACC,#24               ; [CPU_] |1567| 
    2803 00000351 0795          ADDL      ACC,*+XAR5[AR0]       ; [CPU_] |1567| 
    2804 00000352 83A9          MOVL      XAR5,ACC              ; [CPU_] |1567| 
    2805 00000353 1AC5          OR        *+XAR5[0],#0x0004     ; [CPU_] |1567| 
         00000354 0004 
    2806 00000355 761A   EDIS
    2807 00000356 7622   EALLOW
    2808 00000357 0218          MOVB      ACC,#24               ; [CPU_] |1567| 
    2809 00000358 07C4          ADDL      ACC,*+XAR4[0]         ; [CPU_] |1567| 
    2810 00000359 83A9          MOVL      XAR5,ACC              ; [CPU_] |1567| 
    2811 0000035a 1AC5          OR        *+XAR5[0],#0x0004     ; [CPU_] |1567| 
         0000035b 0004 
    2812 0000035c 761A   EDIS
    2813 0000035d 7622   EALLOW
    2814 0000035e 0218          MOVB      ACC,#24               ; [CPU_] |1567| 
    2815 0000035f 07D4          ADDL      ACC,*+XAR4[2]         ; [CPU_] |1567| 
    2816 00000360 8AA9          MOVL      XAR4,ACC              ; [CPU_] |1567| 
    2817 00000361 1AC4          OR        *+XAR4[0],#0x0004     ; [CPU_] |1567| 
         00000362 0004 
    2818 00000363 761A   EDIS
TMS320C2000 Assembler PC v6.4.11 Wed Nov 23 10:34:31 2016

Tools Copyright (c) 1996-2015 Texas Instruments Incorporated
C:\Users\bee25\AppData\Local\Temp\3793210                            PAGE   58

    2819 00000364       $C$L25:    
    2820                      .dwpsn  file "C:/ti/motorware/motorware_1_01_00_16/sw/solutions/instaspin_foc/src/proj_lab04.c",line 
    2821 00000364 D018          MOVB      XAR0,#24              ; [CPU_] |420| 
    2822 00000365 FF69          SPM       #0                    ; [CPU_] 
    2823 00000366 8A92          MOVL      XAR4,*+XAR2[AR0]      ; [CPU_] |420| 
    2824              $C$DW$264       .dwtag  DW_TAG_TI_branch
    2825                      .dwattr $C$DW$264, DW_AT_low_pc(0x00)
    2826                      .dwattr $C$DW$264, DW_AT_name("_EST_isMotorIdentified")
    2827                      .dwattr $C$DW$264, DW_AT_TI_call
    2828 00000367 7640!         LCR       #_EST_isMotorIdentified ; [CPU_] |420| 
         00000368 0000 
    2829                      ; call occurs [#_EST_isMotorIdentified] ; [] |420| 
    2830 00000369 5200          CMPB      AL,#0                 ; [CPU_] |420| 
    2831 0000036a EC23          BF        $C$L26,EQ             ; [CPU_] |420| 
    2832                      ; branchcc occurs ; [] |420| 
    2833                      .dwpsn  file "C:/ti/motorware/motorware_1_01_00_16/sw/solutions/instaspin_foc/src/proj_lab04.c",line 
    2834 0000036b D018          MOVB      XAR0,#24              ; [CPU_] |423| 
    2835 0000036c 761F-         MOVW      DP,#_gMaxCurrentSlope ; [CPU_U] 
         0000036d 0000 
    2836 0000036e 8A92          MOVL      XAR4,*+XAR2[AR0]      ; [CPU_] |423| 
    2837 0000036f 060E-         MOVL      ACC,@_gMaxCurrentSlope ; [CPU_] |423| 
    2838              $C$DW$265       .dwtag  DW_TAG_TI_branch
    2839                      .dwattr $C$DW$265, DW_AT_low_pc(0x00)
    2840                      .dwattr $C$DW$265, DW_AT_name("_EST_setMaxCurrentSlope_pu")
    2841                      .dwattr $C$DW$265, DW_AT_TI_call
    2842 00000370 7640!         LCR       #_EST_setMaxCurrentSlope_pu ; [CPU_] |423| 
         00000371 0000 
    2843                      ; call occurs [#_EST_setMaxCurrentSlope_pu] ; [] |423| 
    2844 00000372 761F-         MOVW      DP,#_gMotorVars+2     ; [CPU_U] 
         00000373 0002 
    2845                      .dwpsn  file "C:/ti/motorware/motorware_1_01_00_16/sw/solutions/instaspin_foc/src/proj_lab04.c",line 
    2846 00000374 56BF-         MOVB      @_gMotorVars+2,#1,UNC ; [CPU_] |424| 
         00000375 0102 
    2847 00000376 761F-         MOVW      DP,#_Flag_Latch_softwareUpdate ; [CPU_U] 
         00000377 0000 
    2848                      .dwpsn  file "C:/ti/motorware/motorware_1_01_00_16/sw/solutions/instaspin_foc/src/proj_lab04.c",line 
    2849 00000378 9206-         MOV       AL,@_Flag_Latch_softwareUpdate ; [CPU_] |427| 
    2850 00000379 5201          CMPB      AL,#1                 ; [CPU_] |427| 
    2851 0000037a ED1E          BF        $C$L27,NEQ            ; [CPU_] |427| 
    2852                      ; branchcc occurs ; [] |427| 
    2853                      .dwpsn  file "C:/ti/motorware/motorware_1_01_00_16/sw/solutions/instaspin_foc/src/proj_lab04.c",line 
    2854 0000037b 2B06-         MOV       @_Flag_Latch_softwareUpdate,#0 ; [CPU_] |429| 
    2855                      .dwpsn  file "C:/ti/motorware/motorware_1_01_00_16/sw/solutions/instaspin_foc/src/proj_lab04.c",line 
    2856 0000037c 8A08-         MOVL      XAR4,@_ctrlHandle     ; [CPU_] |431| 
    2857              $C$DW$266       .dwtag  DW_TAG_TI_branch
    2858                      .dwattr $C$DW$266, DW_AT_low_pc(0x00)
    2859                      .dwattr $C$DW$266, DW_AT_name("_USER_calcPIgains")
    2860                      .dwattr $C$DW$266, DW_AT_TI_call
    2861 0000037d 7640!         LCR       #_USER_calcPIgains    ; [CPU_] |431| 
         0000037e 0000 
    2862                      ; call occurs [#_USER_calcPIgains] ; [] |431| 
    2863 0000037f 761F-         MOVW      DP,#_ctrlHandle       ; [CPU_U] 
         00000380 0000 
    2864                      .dwpsn  file "C:/ti/motorware/motorware_1_01_00_16/sw/solutions/instaspin_foc/src/proj_lab04.c",line 
    2865 00000381 8208-         MOVL      XAR3,@_ctrlHandle     ; [CPU_] |433| 
TMS320C2000 Assembler PC v6.4.11 Wed Nov 23 10:34:31 2016

Tools Copyright (c) 1996-2015 Texas Instruments Incorporated
C:\Users\bee25\AppData\Local\Temp\3793210                            PAGE   59

    2866 00000382 D0CA          MOVB      XAR0,#202             ; [CPU_] |433| 
    2867 00000383 D148          MOVB      XAR1,#72              ; [CPU_] |433| 
    2868 00000384 8F00-         MOVL      XAR4,#_gMotorVars     ; [CPU_U] |433| 
         00000385 0080 
    2869 00000386 0693          MOVL      ACC,*+XAR3[AR0]       ; [CPU_] |433| 
    2870                      .dwpsn  file "C:/ti/motorware/motorware_1_01_00_16/sw/solutions/instaspin_foc/src/proj_lab04.c",line 
    2871 00000387 D0D0          MOVB      XAR0,#208             ; [CPU_] |434| 
    2872                      .dwpsn  file "C:/ti/motorware/motorware_1_01_00_16/sw/solutions/instaspin_foc/src/proj_lab04.c",line 
    2873 00000388 1E9C          MOVL      *+XAR4[AR1],ACC       ; [CPU_] |433| 
    2874                      .dwpsn  file "C:/ti/motorware/motorware_1_01_00_16/sw/solutions/instaspin_foc/src/proj_lab04.c",line 
    2875 00000389 0693          MOVL      ACC,*+XAR3[AR0]       ; [CPU_] |434| 
    2876 0000038a D04A          MOVB      XAR0,#74              ; [CPU_] |434| 
    2877 0000038b 1E94          MOVL      *+XAR4[AR0],ACC       ; [CPU_] |434| 
    2878 0000038c 6F0D          B         $C$L28,UNC            ; [CPU_] |434| 
    2879                      ; branch occurs ; [] |434| 
    2880 0000038d       $C$L26:    
    2881 0000038d 761F-         MOVW      DP,#_Flag_Latch_softwareUpdate ; [CPU_U] 
         0000038e 0000 
    2882                      .dwpsn  file "C:/ti/motorware/motorware_1_01_00_16/sw/solutions/instaspin_foc/src/proj_lab04.c",line 
    2883 0000038f D018          MOVB      XAR0,#24              ; [CPU_] |443| 
    2884                      .dwpsn  file "C:/ti/motorware/motorware_1_01_00_16/sw/solutions/instaspin_foc/src/proj_lab04.c",line 
    2885 00000390 56BF-         MOVB      @_Flag_Latch_softwareUpdate,#1,UNC ; [CPU_] |440| 
         00000391 0106 
    2886                      .dwpsn  file "C:/ti/motorware/motorware_1_01_00_16/sw/solutions/instaspin_foc/src/proj_lab04.c",line 
    2887 00000392 8A92          MOVL      XAR4,*+XAR2[AR0]      ; [CPU_] |443| 
    2888              $C$DW$267       .dwtag  DW_TAG_TI_branch
    2889                      .dwattr $C$DW$267, DW_AT_low_pc(0x00)
    2890                      .dwattr $C$DW$267, DW_AT_name("_EST_getMaxCurrentSlope_pu")
    2891                      .dwattr $C$DW$267, DW_AT_TI_call
    2892 00000393 7640!         LCR       #_EST_getMaxCurrentSlope_pu ; [CPU_] |443| 
         00000394 0000 
    2893                      ; call occurs [#_EST_getMaxCurrentSlope_pu] ; [] |443| 
    2894 00000395 761F-         MOVW      DP,#_gMaxCurrentSlope ; [CPU_U] 
         00000396 0000 
    2895 00000397 1E0E-         MOVL      @_gMaxCurrentSlope,ACC ; [CPU_] |443| 
    2896 00000398       $C$L27:    
    2897 00000398 8208-         MOVL      XAR3,@_ctrlHandle     ; [CPU_] |443| 
    2898 00000399       $C$L28:    
    2899                      .dwpsn  file "C:/ti/motorware/motorware_1_01_00_16/sw/solutions/instaspin_foc/src/proj_lab04.c",line 
    2900 00000399 9204-         MOV       AL,@_gCounter_updateGlobals ; [CPU_] |448| 
    2901 0000039a EC08          BF        $C$L29,EQ             ; [CPU_] |448| 
    2902                      ; branchcc occurs ; [] |448| 
    2903                      .dwpsn  file "C:/ti/motorware/motorware_1_01_00_16/sw/solutions/instaspin_foc/src/proj_lab04.c",line 
    2904 0000039b 2B04-         MOV       @_gCounter_updateGlobals,#0 ; [CPU_] |451| 
    2905                      .dwpsn  file "C:/ti/motorware/motorware_1_01_00_16/sw/solutions/instaspin_foc/src/proj_lab04.c",line 
    2906 0000039c 8AA3          MOVL      XAR4,XAR3             ; [CPU_] |453| 
    2907              $C$DW$268       .dwtag  DW_TAG_TI_branch
    2908                      .dwattr $C$DW$268, DW_AT_low_pc(0x00)
    2909                      .dwattr $C$DW$268, DW_AT_name("_updateGlobalVariables_motor")
    2910                      .dwattr $C$DW$268, DW_AT_TI_call
    2911 0000039d 7640'         LCR       #_updateGlobalVariables_motor ; [CPU_] |453| 
         0000039e 0030 
    2912                      ; call occurs [#_updateGlobalVariables_motor] ; [] |453| 
    2913 0000039f 761F-         MOVW      DP,#_ctrlHandle       ; [CPU_U] 
         000003a0 0000 
TMS320C2000 Assembler PC v6.4.11 Wed Nov 23 10:34:31 2016

Tools Copyright (c) 1996-2015 Texas Instruments Incorporated
C:\Users\bee25\AppData\Local\Temp\3793210                            PAGE   60

    2914 000003a1 8208-         MOVL      XAR3,@_ctrlHandle     ; [CPU_] |453| 
    2915 000003a2       $C$L29:    
    2916                      .dwpsn  file "C:/ti/motorware/motorware_1_01_00_16/sw/solutions/instaspin_foc/src/proj_lab04.c",line 
    2917 000003a2 8F00-         MOVL      XAR4,#_gMotorVars     ; [CPU_U] |458| 
         000003a3 0080 
    2918 000003a4 D01E          MOVB      XAR0,#30              ; [CPU_] |458| 
    2919 000003a5 28A9          MOV       AL,#39322             ; [CPU_] |458| 
         000003a6 999A 
    2920 000003a7 9B59          MOV       AH,#89                ; [CPU_] |458| 
    2921 000003a8 0F94          CMPL      ACC,*+XAR4[AR0]       ; [CPU_] |458| 
    2922 000003a9 56C5          BF        $C$L30,LEQ            ; [CPU_] |458| 
         000003aa 0012 
    2923                      ; branchcc occurs ; [] |458| 
    2924 000003ab D014          MOVB      XAR0,#20              ; [CPU_] |458| 
    2925 000003ac 0694          MOVL      ACC,*+XAR4[AR0]       ; [CPU_] |458| 
    2926              $C$DW$269       .dwtag  DW_TAG_TI_branch
    2927                      .dwattr $C$DW$269, DW_AT_low_pc(0x00)
    2928                      .dwattr $C$DW$269, DW_AT_name("L$$TOFS")
    2929                      .dwattr $C$DW$269, DW_AT_TI_call
    2930 000003ad 7640!         LCR       #L$$TOFS              ; [CPU_] |458| 
         000003ae 0000 
    2931                      ; call occurs [#L$$TOFS] ; [] |458| 
    2932 000003af 1EA6          MOVL      XAR6,ACC              ; [CPU_] |458| 
    2933 000003b0 28A9          MOV       AL,#52429             ; [CPU_] |458| 
         000003b1 CCCD 
    2934 000003b2 28A8          MOV       AH,#15820             ; [CPU_] |458| 
         000003b3 3DCC 
    2935 000003b4 1E42          MOVL      *-SP[2],ACC           ; [CPU_] |458| 
    2936 000003b5 06A6          MOVL      ACC,XAR6              ; [CPU_] |458| 
    2937              $C$DW$270       .dwtag  DW_TAG_TI_branch
    2938                      .dwattr $C$DW$270, DW_AT_low_pc(0x00)
    2939                      .dwattr $C$DW$270, DW_AT_name("FS$$CMP")
    2940                      .dwattr $C$DW$270, DW_AT_TI_call
    2941 000003b6 7640!         LCR       #FS$$CMP              ; [CPU_] |458| 
         000003b7 0000 
    2942                      ; call occurs [#FS$$CMP] ; [] |458| 
    2943 000003b8 5200          CMPB      AL,#0                 ; [CPU_] |458| 
    2944 000003b9 56C2          BF        $C$L32,GT             ; [CPU_] |458| 
         000003ba 0039 
    2945                      ; branchcc occurs ; [] |458| 
    2946 000003bb       $C$L30:    
    2947                      .dwpsn  file "C:/ti/motorware/motorware_1_01_00_16/sw/solutions/instaspin_foc/src/proj_lab04.c",line 
    2948 000003bb 8D40-         MOVL      XAR1,#_gMotorVars     ; [CPU_U] |473| 
         000003bc 0080 
    2949 000003bd D00A          MOVB      XAR0,#10              ; [CPU_] |473| 
    2950 000003be 56BF          MOVB      *+XAR1[AR0],#1,UNC    ; [CPU_] |473| 
         000003bf 0191 
    2951                      .dwpsn  file "C:/ti/motorware/motorware_1_01_00_16/sw/solutions/instaspin_foc/src/proj_lab04.c",line 
    2952 000003c0 D00A          MOVB      XAR0,#10              ; [CPU_] |474| 
    2953 000003c1 2B91          MOV       *+XAR1[AR0],#0        ; [CPU_] |474| 
    2954                      .dwpsn  file "C:/ti/motorware/motorware_1_01_00_16/sw/modules/ctrl/src/32b/ctrl.h",line 418,column 3,
    2955 000003c2 D0E4          MOVB      XAR0,#228             ; [CPU_] |418| 
    2956 000003c3 C493          MOVL      XAR6,*+XAR3[AR0]      ; [CPU_] |418| 
    2957 000003c4 761F-         MOVW      DP,#_gSpd_ref_current ; [CPU_U] 
         000003c5 0000 
TMS320C2000 Assembler PC v6.4.11 Wed Nov 23 10:34:31 2016

Tools Copyright (c) 1996-2015 Texas Instruments Incorporated
C:\Users\bee25\AppData\Local\Temp\3793210                            PAGE   61

    2958                      .dwpsn  file "C:/ti/motorware/motorware_1_01_00_16/sw/solutions/instaspin_foc/src/proj_lab04.c",line 
    2959 000003c6 D014          MOVB      XAR0,#20              ; [CPU_] |477| 
    2960                      .dwpsn  file "C:/ti/motorware/motorware_1_01_00_16/sw/modules/ctrl/src/32b/ctrl.h",line 418,column 3,
    2961 000003c7 C252          MOVL      *-SP[18],XAR6         ; [CPU_] |418| 
    2962 000003c8 C224-         MOVL      @_gSpd_ref_current,XAR6 ; [CPU_] |418| 
    2963                      .dwpsn  file "C:/ti/motorware/motorware_1_01_00_16/sw/solutions/instaspin_foc/src/proj_lab04.c",line 
    2964 000003c9 0691          MOVL      ACC,*+XAR1[AR0]       ; [CPU_] |477| 
    2965 000003ca 1E1E-         MOVL      @_gTorque_ref_current,ACC ; [CPU_] |477| 
    2966                      .dwpsn  file "C:/ti/motorware/motorware_1_01_00_16/sw/solutions/instaspin_foc/src/proj_lab04.c",line 
    2967 000003cb 03A6          SUBL      ACC,XAR6              ; [CPU_] |478| 
    2968              $C$DW$271       .dwtag  DW_TAG_TI_branch
    2969                      .dwattr $C$DW$271, DW_AT_low_pc(0x00)
    2970                      .dwattr $C$DW$271, DW_AT_name("L$$TOFS")
    2971                      .dwattr $C$DW$271, DW_AT_TI_call
    2972 000003cc 7640!         LCR       #L$$TOFS              ; [CPU_] |478| 
         000003cd 0000 
    2973                      ; call occurs [#L$$TOFS] ; [] |478| 
    2974 000003ce 1EA6          MOVL      XAR6,ACC              ; [CPU_] |478| 
    2975 000003cf 1E4A          MOVL      *-SP[10],ACC          ; [CPU_] |478| 
    2976 000003d0 FF2F          MOV       ACC,#32256 << 15      ; [CPU_] |478| 
         000003d1 7E00 
    2977 000003d2 1E42          MOVL      *-SP[2],ACC           ; [CPU_] |478| 
    2978 000003d3 06A6          MOVL      ACC,XAR6              ; [CPU_] |478| 
    2979              $C$DW$272       .dwtag  DW_TAG_TI_branch
    2980                      .dwattr $C$DW$272, DW_AT_low_pc(0x00)
    2981                      .dwattr $C$DW$272, DW_AT_name("FS$$CMP")
    2982                      .dwattr $C$DW$272, DW_AT_TI_call
    2983 000003d4 7640!         LCR       #FS$$CMP              ; [CPU_] |478| 
         000003d5 0000 
    2984                      ; call occurs [#FS$$CMP] ; [] |478| 
    2985 000003d6 5200          CMPB      AL,#0                 ; [CPU_] |478| 
    2986 000003d7 56C5          BF        $C$L31,LEQ            ; [CPU_] |478| 
         000003d8 0015 
