TMS320C2000 Assembler PC v6.4.10 Mon Jul 11 12:58:34 2016

Tools Copyright (c) 1996-2015 Texas Instruments Incorporated
C:\Users\bee25\AppData\Local\Temp\2398010                            PAGE    1

       1              ;***************************************************************
       2              ;* TMS320C2000 C/C++ Codegen                        PC v6.4.10 *
       3              ;* Date/Time created: Mon Jul 11 12:58:34 2016                 *
       4              ;***************************************************************
       5                      .compiler_opts --float_support=softlib --hll_source=on --mem_model:code=flat --mem_model:data=large -
       6        0002  FP      .set    XAR2
       7              
       8              $C$DW$CU        .dwtag  DW_TAG_compile_unit
       9                      .dwattr $C$DW$CU, DW_AT_name("C:/ti/motorware/motorware_1_01_00_16/sw/solutions/instaspin_foc/src/pro
      10                      .dwattr $C$DW$CU, DW_AT_producer("TI TMS320C2000 C/C++ Codegen PC v6.4.10 Copyright (c) 1996-2015 Tex
      11                      .dwattr $C$DW$CU, DW_AT_TI_version(0x01)
      12                      .dwattr $C$DW$CU, DW_AT_comp_dir("C:\ti\motorware\motorware_1_01_00_16\sw\solutions\instaspin_foc\boa
      13              ;**************************************************************
      14              ;* CINIT RECORDS                                              *
      15              ;**************************************************************
      16 00000000               .sect   ".cinit"
      17                      .align  1
      18 00000000 FFFF          .field          -1,16
      19 00000001 0000-         .field          _gCounter_updateGlobals+0,32
         00000002 0000 
      20 00000003 0000          .bits   0,16                    ; _gCounter_updateGlobals @ 0
      21              
      22 00000004               .sect   ".cinit"
      23                      .align  1
      24 00000004 FFFF          .field          -1,16
      25 00000005 0001-         .field          _Flag_Latch_softwareUpdate+0,32
         00000006 0000 
      26 00000007 0001          .bits   1,16                    ; _Flag_Latch_softwareUpdate @ 0
      27              
      28 00000008               .sect   ".cinit"
      29                      .align  1
      30 00000008 FFFF          .field          -1,16
      31 00000009 0002-         .field          _gLEDcnt+0,32
         0000000a 0000 
      32 0000000b 0000          .bits   0,16                    ; _gLEDcnt @ 0
      33              
      34 0000000c               .sect   ".cinit"
      35                      .align  1
      36 0000000c FFFE          .field          -2,16
      37 0000000d 0004-         .field          _gMaxCurrentSlope+0,32
         0000000e 0000 
      38 0000000f 0000          .bits   0,32                    ; _gMaxCurrentSlope @ 0
         00000010 0000 
      39              
      40 00000011               .sect   ".cinit"
      41                      .align  1
      42 00000011 FFFA          .field          -$C$IR_1,16
      43 00000012 0014-         .field          _gPwmData+0,32
         00000013 0000 
      44 00000014 0000          .bits   0,32                    ; _gPwmData._Tabc._value[0] @ 0
         00000015 0000 
      45 00000016 0000          .bits   0,32                    ; _gPwmData._Tabc._value[1] @ 32
         00000017 0000 
      46 00000018 0000          .bits   0,32                    ; _gPwmData._Tabc._value[2] @ 64
         00000019 0000 
TMS320C2000 Assembler PC v6.4.10 Mon Jul 11 12:58:34 2016

Tools Copyright (c) 1996-2015 Texas Instruments Incorporated
C:\Users\bee25\AppData\Local\Temp\2398010                            PAGE    2

      47        0006  $C$IR_1:        .set    6
      48              
      49 0000001a               .sect   ".cinit"
      50                      .align  1
      51 0000001a FF98          .field          -$C$IR_2,16
      52 0000001b 0080-         .field          _gMotorVars+0,32
         0000001c 0000 
      53 0000001d 0000          .bits   0,16                    ; _gMotorVars._Flag_enableSys @ 0
      54 0000001e 0000          .bits   0,16                    ; _gMotorVars._Flag_Run_Identify @ 16
      55 0000001f 0000          .bits   0,16                    ; _gMotorVars._Flag_MotorIdentified @ 32
      56 00000020 0001          .bits   1,16                    ; _gMotorVars._Flag_enableForceAngle @ 48
      57 00000021 0000          .bits   0,16                    ; _gMotorVars._Flag_enableFieldWeakening @ 64
      58 00000022 0000          .bits   0,16                    ; _gMotorVars._Flag_enableRsRecalc @ 80
      59 00000023 0001          .bits   1,16                    ; _gMotorVars._Flag_enableUserParams @ 96
      60 00000024 0001          .bits   1,16                    ; _gMotorVars._Flag_enableOffsetcalc @ 112
      61 00000025 0000          .bits   0,16                    ; _gMotorVars._Flag_enablePowerWarp @ 128
      62 00000026 0000          .bits   0,16                    ; _gMotorVars._Flag_enableSpeedCtrl @ 144
      63 00000027 0001          .bits   1,16                    ; _gMotorVars._CtrlState @ 160
      64 00000028 0001          .bits   1,16                    ; _gMotorVars._EstState @ 176
      65 00000029 0000          .bits   0,16                    ; _gMotorVars._UserErrorCode @ 192
      66 0000002a 0000          .bits   0,16                    ; _gMotorVars._CtrlVersion._rsvd @ 208
      67 0000002b 0004          .bits   4,16                    ; _gMotorVars._CtrlVersion._targetProc @ 224
      68 0000002c 0000          .bits   0,16                    ; _gMotorVars._CtrlVersion._major @ 240
      69 0000002d 0000          .bits   0,16                    ; _gMotorVars._CtrlVersion._minor @ 256
      70 0000002e               .space  16
      71 0000002f 0000          .bits   0,32                    ; _gMotorVars._IdRef_A @ 288
         00000030 0000 
      72 00000031 0000          .bits   0,32                    ; _gMotorVars._IqRef_A @ 320
         00000032 0000 
      73 00000033 0000          .bits   0,32                    ; _gMotorVars._SpeedRef_pu @ 352
         00000034 0000 
      74 00000035 9999          .bits   1677721,32                      ; _gMotorVars._SpeedRef_krpm @ 384
         00000036 0019 
      75 00000037 0000          .bits   0,32                    ; _gMotorVars._SpeedTraj_krpm @ 416
         00000038 0000 
      76 00000039 3333          .bits   3355443,32                      ; _gMotorVars._MaxAccel_krpmps @ 448
         0000003a 0033 
      77 0000003b 0000          .bits   0,32                    ; _gMotorVars._Speed_krpm @ 480
         0000003c 0000 
      78 0000003d 0000          .bits   8388608,32                      ; _gMotorVars._OverModulation @ 512
         0000003e 0080 
      79 0000003f 0000          .bits   33554432,32                     ; _gMotorVars._RsOnLineCurrent_A @ 544
         00000040 0200 
      80 00000041 0190          .bits   400,32                  ; _gMotorVars._SvgenMaxModulation_ticks @ 576
         00000042 0000 
      81 00000043 0000          .bits   0,32                    ; _gMotorVars._Flux_Wb @ 608
         00000044 0000 
      82 00000045 0000          .bits   0,32                    ; _gMotorVars._Torque_Nm @ 640
         00000046 0000 
      83 00000047 0000          .xfloat $strtod("0x0p+0")               ; _gMotorVars._MagnCurr_A @ 672
         00000048 0000 
      84 00000049 0000          .xfloat $strtod("0x0p+0")               ; _gMotorVars._Rr_Ohm @ 704
         0000004a 0000 
      85 0000004b 0000          .xfloat $strtod("0x0p+0")               ; _gMotorVars._Rs_Ohm @ 736
         0000004c 0000 
TMS320C2000 Assembler PC v6.4.10 Mon Jul 11 12:58:34 2016

Tools Copyright (c) 1996-2015 Texas Instruments Incorporated
C:\Users\bee25\AppData\Local\Temp\2398010                            PAGE    3

      86 0000004d 0000          .xfloat $strtod("0x0p+0")               ; _gMotorVars._RsOnLine_Ohm @ 768
         0000004e 0000 
      87 0000004f 0000          .xfloat $strtod("0x0p+0")               ; _gMotorVars._Lsd_H @ 800
         00000050 0000 
      88 00000051 0000          .xfloat $strtod("0x0p+0")               ; _gMotorVars._Lsq_H @ 832
         00000052 0000 
      89 00000053 0000          .xfloat $strtod("0x0p+0")               ; _gMotorVars._Flux_VpHz @ 864
         00000054 0000 
      90 00000055 0000          .xfloat $strtod("0x0p+0")               ; _gMotorVars._ipd_excFreq_Hz @ 896
         00000056 0000 
      91 00000057 0000          .bits   0,32                    ; _gMotorVars._ipd_Kspd @ 928
         00000058 0000 
      92 00000059 0000          .bits   0,32                    ; _gMotorVars._ipd_excMag_coarse_pu @ 960
         0000005a 0000 
      93 0000005b 0000          .bits   0,32                    ; _gMotorVars._ipd_excMag_fine_pu @ 992
         0000005c 0000 
      94 0000005d 0000          .xfloat $strtod("0x0p+0")               ; _gMotorVars._ipd_waitTime_coarse_sec @ 1024
         0000005e 0000 
      95 0000005f 0000          .xfloat $strtod("0x0p+0")               ; _gMotorVars._ipd_waitTime_fine_sec @ 1056
         00000060 0000 
      96 00000061 0000          .bits   0,32                    ; _gMotorVars._Kp_spd @ 1088
         00000062 0000 
      97 00000063 0000          .bits   0,32                    ; _gMotorVars._Ki_spd @ 1120
         00000064 0000 
      98 00000065 0000          .bits   0,32                    ; _gMotorVars._Kp_Idq @ 1152
         00000066 0000 
      99 00000067 0000          .bits   0,32                    ; _gMotorVars._Ki_Idq @ 1184
         00000068 0000 
     100 00000069 0000          .bits   0,32                    ; _gMotorVars._Vd @ 1216
         0000006a 0000 
     101 0000006b 0000          .bits   0,32                    ; _gMotorVars._Vq @ 1248
         0000006c 0000 
     102 0000006d 0000          .bits   0,32                    ; _gMotorVars._Vs @ 1280
         0000006e 0000 
     103 0000006f 6666          .bits   6710886,32                      ; _gMotorVars._VsRef @ 1312
         00000070 0066 
     104 00000071 0000          .bits   0,32                    ; _gMotorVars._VdcBus_kV @ 1344
         00000072 0000 
     105 00000073 0000          .bits   0,32                    ; _gMotorVars._Id_A @ 1376
         00000074 0000 
     106 00000075 0000          .bits   0,32                    ; _gMotorVars._Iq_A @ 1408
         00000076 0000 
     107 00000077 0000          .bits   0,32                    ; _gMotorVars._Is_A @ 1440
         00000078 0000 
     108 00000079 0000          .bits   0,32                    ; _gMotorVars._I_bias._value[0] @ 1472
         0000007a 0000 
     109 0000007b 0000          .bits   0,32                    ; _gMotorVars._I_bias._value[1] @ 1504
         0000007c 0000 
     110 0000007d 0000          .bits   0,32                    ; _gMotorVars._I_bias._value[2] @ 1536
         0000007e 0000 
     111 0000007f 0000          .bits   0,32                    ; _gMotorVars._V_bias._value[0] @ 1568
         00000080 0000 
     112 00000081 0000          .bits   0,32                    ; _gMotorVars._V_bias._value[1] @ 1600
         00000082 0000 
     113 00000083 0000          .bits   0,32                    ; _gMotorVars._V_bias._value[2] @ 1632
TMS320C2000 Assembler PC v6.4.10 Mon Jul 11 12:58:34 2016

Tools Copyright (c) 1996-2015 Texas Instruments Incorporated
C:\Users\bee25\AppData\Local\Temp\2398010                            PAGE    4

         00000084 0000 
     114        0068  $C$IR_2:        .set    104
     115              
     116              
     117              $C$DW$1 .dwtag  DW_TAG_subprogram, DW_AT_name("CTRL_setParams")
     118                      .dwattr $C$DW$1, DW_AT_TI_symbol_name("_CTRL_setParams")
     119                      .dwattr $C$DW$1, DW_AT_declaration
     120                      .dwattr $C$DW$1, DW_AT_external
     121              $C$DW$2 .dwtag  DW_TAG_formal_parameter
     122                      .dwattr $C$DW$2, DW_AT_type(*$C$DW$T$219)
     123              $C$DW$3 .dwtag  DW_TAG_formal_parameter
     124                      .dwattr $C$DW$3, DW_AT_type(*$C$DW$T$226)
     125                      .dwendtag $C$DW$1
     126              
     127              
     128              $C$DW$4 .dwtag  DW_TAG_subprogram, DW_AT_name("CTRL_setSpd_ref_krpm")
     129                      .dwattr $C$DW$4, DW_AT_TI_symbol_name("_CTRL_setSpd_ref_krpm")
     130                      .dwattr $C$DW$4, DW_AT_declaration
     131                      .dwattr $C$DW$4, DW_AT_external
     132              $C$DW$5 .dwtag  DW_TAG_formal_parameter
     133                      .dwattr $C$DW$5, DW_AT_type(*$C$DW$T$219)
     134              $C$DW$6 .dwtag  DW_TAG_formal_parameter
     135                      .dwattr $C$DW$6, DW_AT_type(*$C$DW$T$302)
     136                      .dwendtag $C$DW$4
     137              
     138              
     139              $C$DW$7 .dwtag  DW_TAG_subprogram, DW_AT_name("CTRL_setup")
     140                      .dwattr $C$DW$7, DW_AT_TI_symbol_name("_CTRL_setup")
     141                      .dwattr $C$DW$7, DW_AT_declaration
     142                      .dwattr $C$DW$7, DW_AT_external
     143              $C$DW$8 .dwtag  DW_TAG_formal_parameter
     144                      .dwattr $C$DW$8, DW_AT_type(*$C$DW$T$219)
     145                      .dwendtag $C$DW$7
     146              
     147              
     148              $C$DW$9 .dwtag  DW_TAG_subprogram, DW_AT_name("CTRL_run")
     149                      .dwattr $C$DW$9, DW_AT_TI_symbol_name("_CTRL_run")
     150                      .dwattr $C$DW$9, DW_AT_declaration
     151                      .dwattr $C$DW$9, DW_AT_external
     152              $C$DW$10        .dwtag  DW_TAG_formal_parameter
     153                      .dwattr $C$DW$10, DW_AT_type(*$C$DW$T$219)
     154              $C$DW$11        .dwtag  DW_TAG_formal_parameter
     155                      .dwattr $C$DW$11, DW_AT_type(*$C$DW$T$276)
     156              $C$DW$12        .dwtag  DW_TAG_formal_parameter
     157                      .dwattr $C$DW$12, DW_AT_type(*$C$DW$T$270)
     158              $C$DW$13        .dwtag  DW_TAG_formal_parameter
     159                      .dwattr $C$DW$13, DW_AT_type(*$C$DW$T$281)
     160                      .dwendtag $C$DW$9
     161              
     162              
     163              $C$DW$14        .dwtag  DW_TAG_subprogram, DW_AT_name("CTRL_getVersion")
     164                      .dwattr $C$DW$14, DW_AT_TI_symbol_name("_CTRL_getVersion")
     165                      .dwattr $C$DW$14, DW_AT_declaration
     166                      .dwattr $C$DW$14, DW_AT_external
     167              $C$DW$15        .dwtag  DW_TAG_formal_parameter
TMS320C2000 Assembler PC v6.4.10 Mon Jul 11 12:58:34 2016

Tools Copyright (c) 1996-2015 Texas Instruments Incorporated
C:\Users\bee25\AppData\Local\Temp\2398010                            PAGE    5

     168                      .dwattr $C$DW$15, DW_AT_type(*$C$DW$T$219)
     169              $C$DW$16        .dwtag  DW_TAG_formal_parameter
     170                      .dwattr $C$DW$16, DW_AT_type(*$C$DW$T$256)
     171                      .dwendtag $C$DW$14
     172              
     173              
     174              $C$DW$17        .dwtag  DW_TAG_subprogram, DW_AT_name("USER_softwareUpdate1p6")
     175                      .dwattr $C$DW$17, DW_AT_TI_symbol_name("_USER_softwareUpdate1p6")
     176                      .dwattr $C$DW$17, DW_AT_declaration
     177                      .dwattr $C$DW$17, DW_AT_external
     178              $C$DW$18        .dwtag  DW_TAG_formal_parameter
     179                      .dwattr $C$DW$18, DW_AT_type(*$C$DW$T$219)
     180                      .dwendtag $C$DW$17
     181              
     182              
     183              $C$DW$19        .dwtag  DW_TAG_subprogram, DW_AT_name("USER_calcPIgains")
     184                      .dwattr $C$DW$19, DW_AT_TI_symbol_name("_USER_calcPIgains")
     185                      .dwattr $C$DW$19, DW_AT_declaration
     186                      .dwattr $C$DW$19, DW_AT_external
     187              $C$DW$20        .dwtag  DW_TAG_formal_parameter
     188                      .dwattr $C$DW$20, DW_AT_type(*$C$DW$T$219)
     189                      .dwendtag $C$DW$19
     190              
     191              
     192              $C$DW$21        .dwtag  DW_TAG_subprogram, DW_AT_name("HAL_writeDrvData")
     193                      .dwattr $C$DW$21, DW_AT_TI_symbol_name("_HAL_writeDrvData")
     194                      .dwattr $C$DW$21, DW_AT_declaration
     195                      .dwattr $C$DW$21, DW_AT_external
     196              $C$DW$22        .dwtag  DW_TAG_formal_parameter
     197                      .dwattr $C$DW$22, DW_AT_type(*$C$DW$T$276)
     198              $C$DW$23        .dwtag  DW_TAG_formal_parameter
     199                      .dwattr $C$DW$23, DW_AT_type(*$C$DW$T$260)
     200                      .dwendtag $C$DW$21
     201              
     202              
     203              $C$DW$24        .dwtag  DW_TAG_subprogram, DW_AT_name("HAL_readDrvData")
     204                      .dwattr $C$DW$24, DW_AT_TI_symbol_name("_HAL_readDrvData")
     205                      .dwattr $C$DW$24, DW_AT_declaration
     206                      .dwattr $C$DW$24, DW_AT_external
     207              $C$DW$25        .dwtag  DW_TAG_formal_parameter
     208                      .dwattr $C$DW$25, DW_AT_type(*$C$DW$T$276)
     209              $C$DW$26        .dwtag  DW_TAG_formal_parameter
     210                      .dwattr $C$DW$26, DW_AT_type(*$C$DW$T$260)
     211                      .dwendtag $C$DW$24
     212              
     213              
     214              $C$DW$27        .dwtag  DW_TAG_subprogram, DW_AT_name("HAL_setParams")
     215                      .dwattr $C$DW$27, DW_AT_TI_symbol_name("_HAL_setParams")
     216                      .dwattr $C$DW$27, DW_AT_declaration
     217                      .dwattr $C$DW$27, DW_AT_external
     218              $C$DW$28        .dwtag  DW_TAG_formal_parameter
     219                      .dwattr $C$DW$28, DW_AT_type(*$C$DW$T$276)
     220              $C$DW$29        .dwtag  DW_TAG_formal_parameter
     221                      .dwattr $C$DW$29, DW_AT_type(*$C$DW$T$293)
     222                      .dwendtag $C$DW$27
TMS320C2000 Assembler PC v6.4.10 Mon Jul 11 12:58:34 2016

Tools Copyright (c) 1996-2015 Texas Instruments Incorporated
C:\Users\bee25\AppData\Local\Temp\2398010                            PAGE    6

     223              
     224              
     225              $C$DW$30        .dwtag  DW_TAG_subprogram, DW_AT_name("HAL_setupDrvSpi")
     226                      .dwattr $C$DW$30, DW_AT_TI_symbol_name("_HAL_setupDrvSpi")
     227                      .dwattr $C$DW$30, DW_AT_declaration
     228                      .dwattr $C$DW$30, DW_AT_external
     229              $C$DW$31        .dwtag  DW_TAG_formal_parameter
     230                      .dwattr $C$DW$31, DW_AT_type(*$C$DW$T$276)
     231              $C$DW$32        .dwtag  DW_TAG_formal_parameter
     232                      .dwattr $C$DW$32, DW_AT_type(*$C$DW$T$260)
     233                      .dwendtag $C$DW$30
     234              
     235              
     236              $C$DW$33        .dwtag  DW_TAG_subprogram, DW_AT_name("HAL_enableDrv")
     237                      .dwattr $C$DW$33, DW_AT_TI_symbol_name("_HAL_enableDrv")
     238                      .dwattr $C$DW$33, DW_AT_declaration
     239                      .dwattr $C$DW$33, DW_AT_external
     240              $C$DW$34        .dwtag  DW_TAG_formal_parameter
     241                      .dwattr $C$DW$34, DW_AT_type(*$C$DW$T$276)
     242                      .dwendtag $C$DW$33
     243              
     244              
     245              $C$DW$35        .dwtag  DW_TAG_subprogram, DW_AT_name("HAL_enableGlobalInts")
     246                      .dwattr $C$DW$35, DW_AT_TI_symbol_name("_HAL_enableGlobalInts")
     247                      .dwattr $C$DW$35, DW_AT_declaration
     248                      .dwattr $C$DW$35, DW_AT_external
     249              $C$DW$36        .dwtag  DW_TAG_formal_parameter
     250                      .dwattr $C$DW$36, DW_AT_type(*$C$DW$T$276)
     251                      .dwendtag $C$DW$35
     252              
     253              
     254              $C$DW$37        .dwtag  DW_TAG_subprogram, DW_AT_name("HAL_enableAdcInts")
     255                      .dwattr $C$DW$37, DW_AT_TI_symbol_name("_HAL_enableAdcInts")
     256                      .dwattr $C$DW$37, DW_AT_declaration
     257                      .dwattr $C$DW$37, DW_AT_external
     258              $C$DW$38        .dwtag  DW_TAG_formal_parameter
     259                      .dwattr $C$DW$38, DW_AT_type(*$C$DW$T$276)
     260                      .dwendtag $C$DW$37
     261              
     262              
     263              $C$DW$39        .dwtag  DW_TAG_subprogram, DW_AT_name("HAL_enableDebugInt")
     264                      .dwattr $C$DW$39, DW_AT_TI_symbol_name("_HAL_enableDebugInt")
     265                      .dwattr $C$DW$39, DW_AT_declaration
     266                      .dwattr $C$DW$39, DW_AT_external
     267              $C$DW$40        .dwtag  DW_TAG_formal_parameter
     268                      .dwattr $C$DW$40, DW_AT_type(*$C$DW$T$276)
     269                      .dwendtag $C$DW$39
     270              
     271              
     272              $C$DW$41        .dwtag  DW_TAG_subprogram, DW_AT_name("HAL_setupFaults")
     273                      .dwattr $C$DW$41, DW_AT_TI_symbol_name("_HAL_setupFaults")
     274                      .dwattr $C$DW$41, DW_AT_declaration
     275                      .dwattr $C$DW$41, DW_AT_external
     276              $C$DW$42        .dwtag  DW_TAG_formal_parameter
     277                      .dwattr $C$DW$42, DW_AT_type(*$C$DW$T$276)
TMS320C2000 Assembler PC v6.4.10 Mon Jul 11 12:58:34 2016

Tools Copyright (c) 1996-2015 Texas Instruments Incorporated
C:\Users\bee25\AppData\Local\Temp\2398010                            PAGE    7

     278                      .dwendtag $C$DW$41
     279              
     280              
     281              $C$DW$43        .dwtag  DW_TAG_subprogram, DW_AT_name("USER_checkForErrors")
     282                      .dwattr $C$DW$43, DW_AT_TI_symbol_name("_USER_checkForErrors")
     283                      .dwattr $C$DW$43, DW_AT_declaration
     284                      .dwattr $C$DW$43, DW_AT_external
     285              $C$DW$44        .dwtag  DW_TAG_formal_parameter
     286                      .dwattr $C$DW$44, DW_AT_type(*$C$DW$T$226)
     287                      .dwendtag $C$DW$43
     288              
     289              
     290              $C$DW$45        .dwtag  DW_TAG_subprogram, DW_AT_name("EST_setMaxCurrentSlope_pu")
     291                      .dwattr $C$DW$45, DW_AT_TI_symbol_name("_EST_setMaxCurrentSlope_pu")
     292                      .dwattr $C$DW$45, DW_AT_declaration
     293                      .dwattr $C$DW$45, DW_AT_external
     294              $C$DW$46        .dwtag  DW_TAG_formal_parameter
     295                      .dwattr $C$DW$46, DW_AT_type(*$C$DW$T$62)
     296              $C$DW$47        .dwtag  DW_TAG_formal_parameter
     297                      .dwattr $C$DW$47, DW_AT_type(*$C$DW$T$302)
     298                      .dwendtag $C$DW$45
     299              
     300              
     301              $C$DW$48        .dwtag  DW_TAG_subprogram, DW_AT_name("GPIO_toggle")
     302                      .dwattr $C$DW$48, DW_AT_TI_symbol_name("_GPIO_toggle")
     303                      .dwattr $C$DW$48, DW_AT_declaration
     304                      .dwattr $C$DW$48, DW_AT_external
     305              $C$DW$49        .dwtag  DW_TAG_formal_parameter
     306                      .dwattr $C$DW$49, DW_AT_type(*$C$DW$T$93)
     307              $C$DW$50        .dwtag  DW_TAG_formal_parameter
     308                      .dwattr $C$DW$50, DW_AT_type(*$C$DW$T$221)
     309                      .dwendtag $C$DW$48
     310              
     311              
     312              $C$DW$51        .dwtag  DW_TAG_subprogram, DW_AT_name("memCopy")
     313                      .dwattr $C$DW$51, DW_AT_TI_symbol_name("_memCopy")
     314                      .dwattr $C$DW$51, DW_AT_declaration
     315                      .dwattr $C$DW$51, DW_AT_external
     316              $C$DW$52        .dwtag  DW_TAG_formal_parameter
     317                      .dwattr $C$DW$52, DW_AT_type(*$C$DW$T$296)
     318              $C$DW$53        .dwtag  DW_TAG_formal_parameter
     319                      .dwattr $C$DW$53, DW_AT_type(*$C$DW$T$296)
     320              $C$DW$54        .dwtag  DW_TAG_formal_parameter
     321                      .dwattr $C$DW$54, DW_AT_type(*$C$DW$T$296)
     322                      .dwendtag $C$DW$51
     323              
     324              
     325              $C$DW$55        .dwtag  DW_TAG_subprogram, DW_AT_name("USER_setParams")
     326                      .dwattr $C$DW$55, DW_AT_TI_symbol_name("_USER_setParams")
     327                      .dwattr $C$DW$55, DW_AT_declaration
     328                      .dwattr $C$DW$55, DW_AT_external
     329              $C$DW$56        .dwtag  DW_TAG_formal_parameter
     330                      .dwattr $C$DW$56, DW_AT_type(*$C$DW$T$226)
     331                      .dwendtag $C$DW$55
     332              
TMS320C2000 Assembler PC v6.4.10 Mon Jul 11 12:58:34 2016

Tools Copyright (c) 1996-2015 Texas Instruments Incorporated
C:\Users\bee25\AppData\Local\Temp\2398010                            PAGE    8

     333              
     334              $C$DW$57        .dwtag  DW_TAG_subprogram, DW_AT_name("EST_setFlag_enableRsRecalc")
     335                      .dwattr $C$DW$57, DW_AT_TI_symbol_name("_EST_setFlag_enableRsRecalc")
     336                      .dwattr $C$DW$57, DW_AT_declaration
     337                      .dwattr $C$DW$57, DW_AT_external
     338              $C$DW$58        .dwtag  DW_TAG_formal_parameter
     339                      .dwattr $C$DW$58, DW_AT_type(*$C$DW$T$62)
     340              $C$DW$59        .dwtag  DW_TAG_formal_parameter
     341                      .dwattr $C$DW$59, DW_AT_type(*$C$DW$T$299)
     342                      .dwendtag $C$DW$57
     343              
     344              
     345              $C$DW$60        .dwtag  DW_TAG_subprogram, DW_AT_name("EST_setFlag_enableForceAngle")
     346                      .dwattr $C$DW$60, DW_AT_TI_symbol_name("_EST_setFlag_enableForceAngle")
     347                      .dwattr $C$DW$60, DW_AT_declaration
     348                      .dwattr $C$DW$60, DW_AT_external
     349              $C$DW$61        .dwtag  DW_TAG_formal_parameter
     350                      .dwattr $C$DW$61, DW_AT_type(*$C$DW$T$62)
     351              $C$DW$62        .dwtag  DW_TAG_formal_parameter
     352                      .dwattr $C$DW$62, DW_AT_type(*$C$DW$T$299)
     353                      .dwendtag $C$DW$60
     354              
     355                      .global _gCounter_updateGlobals
     356 00000000       _gCounter_updateGlobals:        .usect  ".ebss",1,1,0
     357              $C$DW$63        .dwtag  DW_TAG_variable, DW_AT_name("gCounter_updateGlobals")
     358                      .dwattr $C$DW$63, DW_AT_TI_symbol_name("_gCounter_updateGlobals")
     359                      .dwattr $C$DW$63, DW_AT_location[DW_OP_addr _gCounter_updateGlobals]
     360                      .dwattr $C$DW$63, DW_AT_type(*$C$DW$T$82)
     361                      .dwattr $C$DW$63, DW_AT_external
     362                      .global _Flag_Latch_softwareUpdate
     363 00000001       _Flag_Latch_softwareUpdate:     .usect  ".ebss",1,1,0
     364              $C$DW$64        .dwtag  DW_TAG_variable, DW_AT_name("Flag_Latch_softwareUpdate")
     365                      .dwattr $C$DW$64, DW_AT_TI_symbol_name("_Flag_Latch_softwareUpdate")
     366                      .dwattr $C$DW$64, DW_AT_location[DW_OP_addr _Flag_Latch_softwareUpdate]
     367                      .dwattr $C$DW$64, DW_AT_type(*$C$DW$T$85)
     368                      .dwattr $C$DW$64, DW_AT_external
     369                      .global _gLEDcnt
     370 00000002       _gLEDcnt:       .usect  ".ebss",1,1,0
     371              $C$DW$65        .dwtag  DW_TAG_variable, DW_AT_name("gLEDcnt")
     372                      .dwattr $C$DW$65, DW_AT_TI_symbol_name("_gLEDcnt")
     373                      .dwattr $C$DW$65, DW_AT_location[DW_OP_addr _gLEDcnt]
     374                      .dwattr $C$DW$65, DW_AT_type(*$C$DW$T$22)
     375                      .dwattr $C$DW$65, DW_AT_external
     376              
     377              $C$DW$66        .dwtag  DW_TAG_subprogram, DW_AT_name("CTRL_updateState")
     378                      .dwattr $C$DW$66, DW_AT_TI_symbol_name("_CTRL_updateState")
     379                      .dwattr $C$DW$66, DW_AT_type(*$C$DW$T$85)
     380                      .dwattr $C$DW$66, DW_AT_declaration
     381                      .dwattr $C$DW$66, DW_AT_external
     382              $C$DW$67        .dwtag  DW_TAG_formal_parameter
     383                      .dwattr $C$DW$67, DW_AT_type(*$C$DW$T$219)
     384                      .dwendtag $C$DW$66
     385              
     386              
     387              $C$DW$68        .dwtag  DW_TAG_subprogram, DW_AT_name("EST_isMotorIdentified")
TMS320C2000 Assembler PC v6.4.10 Mon Jul 11 12:58:34 2016

Tools Copyright (c) 1996-2015 Texas Instruments Incorporated
C:\Users\bee25\AppData\Local\Temp\2398010                            PAGE    9

     388                      .dwattr $C$DW$68, DW_AT_TI_symbol_name("_EST_isMotorIdentified")
     389                      .dwattr $C$DW$68, DW_AT_type(*$C$DW$T$85)
     390                      .dwattr $C$DW$68, DW_AT_declaration
     391                      .dwattr $C$DW$68, DW_AT_external
     392              $C$DW$69        .dwtag  DW_TAG_formal_parameter
     393                      .dwattr $C$DW$69, DW_AT_type(*$C$DW$T$62)
     394                      .dwendtag $C$DW$68
     395              
     396              
     397              $C$DW$70        .dwtag  DW_TAG_subprogram, DW_AT_name("EST_getState")
     398                      .dwattr $C$DW$70, DW_AT_TI_symbol_name("_EST_getState")
     399                      .dwattr $C$DW$70, DW_AT_type(*$C$DW$T$183)
     400                      .dwattr $C$DW$70, DW_AT_declaration
     401                      .dwattr $C$DW$70, DW_AT_external
     402              $C$DW$71        .dwtag  DW_TAG_formal_parameter
     403                      .dwattr $C$DW$71, DW_AT_type(*$C$DW$T$62)
     404                      .dwendtag $C$DW$70
     405              
     406              
     407              $C$DW$72        .dwtag  DW_TAG_subprogram, DW_AT_name("USER_getErrorCode")
     408                      .dwattr $C$DW$72, DW_AT_TI_symbol_name("_USER_getErrorCode")
     409                      .dwattr $C$DW$72, DW_AT_type(*$C$DW$T$185)
     410                      .dwattr $C$DW$72, DW_AT_declaration
     411                      .dwattr $C$DW$72, DW_AT_external
     412              $C$DW$73        .dwtag  DW_TAG_formal_parameter
     413                      .dwattr $C$DW$73, DW_AT_type(*$C$DW$T$226)
     414                      .dwendtag $C$DW$72
     415              
     416              
     417              $C$DW$74        .dwtag  DW_TAG_subprogram, DW_AT_name("USER_computeTorque_Flux_Iq_pu_to_Nm_sf")
     418                      .dwattr $C$DW$74, DW_AT_TI_symbol_name("_USER_computeTorque_Flux_Iq_pu_to_Nm_sf")
     419                      .dwattr $C$DW$74, DW_AT_type(*$C$DW$T$47)
     420                      .dwattr $C$DW$74, DW_AT_declaration
     421                      .dwattr $C$DW$74, DW_AT_external
     422              
     423              $C$DW$75        .dwtag  DW_TAG_subprogram, DW_AT_name("USER_computeTorque_Ls_Id_Iq_pu_to_Nm_sf")
     424                      .dwattr $C$DW$75, DW_AT_TI_symbol_name("_USER_computeTorque_Ls_Id_Iq_pu_to_Nm_sf")
     425                      .dwattr $C$DW$75, DW_AT_type(*$C$DW$T$47)
     426                      .dwattr $C$DW$75, DW_AT_declaration
     427                      .dwattr $C$DW$75, DW_AT_external
     428                      .global _gMaxCurrentSlope
     429 00000004       _gMaxCurrentSlope:      .usect  ".ebss",2,1,1
     430              $C$DW$76        .dwtag  DW_TAG_variable, DW_AT_name("gMaxCurrentSlope")
     431                      .dwattr $C$DW$76, DW_AT_TI_symbol_name("_gMaxCurrentSlope")
     432                      .dwattr $C$DW$76, DW_AT_location[DW_OP_addr _gMaxCurrentSlope]
     433                      .dwattr $C$DW$76, DW_AT_type(*$C$DW$T$47)
     434                      .dwattr $C$DW$76, DW_AT_external
     435              $C$DW$77        .dwtag  DW_TAG_variable, DW_AT_name("RamfuncsLoadStart")
     436                      .dwattr $C$DW$77, DW_AT_TI_symbol_name("_RamfuncsLoadStart")
     437                      .dwattr $C$DW$77, DW_AT_type(*$C$DW$T$296)
     438                      .dwattr $C$DW$77, DW_AT_declaration
     439                      .dwattr $C$DW$77, DW_AT_external
     440                      .global _ctrlHandle
     441 00000006       _ctrlHandle:    .usect  ".ebss",2,1,1
     442              $C$DW$78        .dwtag  DW_TAG_variable, DW_AT_name("ctrlHandle")
TMS320C2000 Assembler PC v6.4.10 Mon Jul 11 12:58:34 2016

Tools Copyright (c) 1996-2015 Texas Instruments Incorporated
C:\Users\bee25\AppData\Local\Temp\2398010                            PAGE   10

     443                      .dwattr $C$DW$78, DW_AT_TI_symbol_name("_ctrlHandle")
     444                      .dwattr $C$DW$78, DW_AT_location[DW_OP_addr _ctrlHandle]
     445                      .dwattr $C$DW$78, DW_AT_type(*$C$DW$T$219)
     446                      .dwattr $C$DW$78, DW_AT_external
     447              
     448              $C$DW$79        .dwtag  DW_TAG_subprogram, DW_AT_name("EST_get_pu_to_krpm_sf")
     449                      .dwattr $C$DW$79, DW_AT_TI_symbol_name("_EST_get_pu_to_krpm_sf")
     450                      .dwattr $C$DW$79, DW_AT_type(*$C$DW$T$47)
     451                      .dwattr $C$DW$79, DW_AT_declaration
     452                      .dwattr $C$DW$79, DW_AT_external
     453              $C$DW$80        .dwtag  DW_TAG_formal_parameter
     454                      .dwattr $C$DW$80, DW_AT_type(*$C$DW$T$62)
     455                      .dwendtag $C$DW$79
     456              
     457              
     458              $C$DW$81        .dwtag  DW_TAG_subprogram, DW_AT_name("USER_computeFlux_pu_to_Wb_sf")
     459                      .dwattr $C$DW$81, DW_AT_TI_symbol_name("_USER_computeFlux_pu_to_Wb_sf")
     460                      .dwattr $C$DW$81, DW_AT_type(*$C$DW$T$47)
     461                      .dwattr $C$DW$81, DW_AT_declaration
     462                      .dwattr $C$DW$81, DW_AT_external
     463              
     464              $C$DW$82        .dwtag  DW_TAG_subprogram, DW_AT_name("EST_getIdRated")
     465                      .dwattr $C$DW$82, DW_AT_TI_symbol_name("_EST_getIdRated")
     466                      .dwattr $C$DW$82, DW_AT_type(*$C$DW$T$83)
     467                      .dwattr $C$DW$82, DW_AT_declaration
     468                      .dwattr $C$DW$82, DW_AT_external
     469              $C$DW$83        .dwtag  DW_TAG_formal_parameter
     470                      .dwattr $C$DW$83, DW_AT_type(*$C$DW$T$62)
     471                      .dwendtag $C$DW$82
     472              
     473              
     474              $C$DW$84        .dwtag  DW_TAG_subprogram, DW_AT_name("EST_getFlux_VpHz")
     475                      .dwattr $C$DW$84, DW_AT_TI_symbol_name("_EST_getFlux_VpHz")
     476                      .dwattr $C$DW$84, DW_AT_type(*$C$DW$T$83)
     477                      .dwattr $C$DW$84, DW_AT_declaration
     478                      .dwattr $C$DW$84, DW_AT_external
     479              $C$DW$85        .dwtag  DW_TAG_formal_parameter
     480                      .dwattr $C$DW$85, DW_AT_type(*$C$DW$T$62)
     481                      .dwendtag $C$DW$84
     482              
     483              
     484              $C$DW$86        .dwtag  DW_TAG_subprogram, DW_AT_name("__IQmpy")
     485                      .dwattr $C$DW$86, DW_AT_TI_symbol_name("___IQmpy")
     486                      .dwattr $C$DW$86, DW_AT_type(*$C$DW$T$12)
     487                      .dwattr $C$DW$86, DW_AT_declaration
     488                      .dwattr $C$DW$86, DW_AT_external
     489              $C$DW$87        .dwtag  DW_TAG_formal_parameter
     490                      .dwattr $C$DW$87, DW_AT_type(*$C$DW$T$12)
     491              $C$DW$88        .dwtag  DW_TAG_formal_parameter
     492                      .dwattr $C$DW$88, DW_AT_type(*$C$DW$T$12)
     493              $C$DW$89        .dwtag  DW_TAG_formal_parameter
     494                      .dwattr $C$DW$89, DW_AT_type(*$C$DW$T$10)
     495                      .dwendtag $C$DW$86
     496              
     497                      .global _halHandle
TMS320C2000 Assembler PC v6.4.10 Mon Jul 11 12:58:34 2016

Tools Copyright (c) 1996-2015 Texas Instruments Incorporated
C:\Users\bee25\AppData\Local\Temp\2398010                            PAGE   11

     498 00000000       _halHandle:     .usect  "rom_accessed_data",2,1,1
     499              $C$DW$90        .dwtag  DW_TAG_variable, DW_AT_name("halHandle")
     500                      .dwattr $C$DW$90, DW_AT_TI_symbol_name("_halHandle")
     501                      .dwattr $C$DW$90, DW_AT_location[DW_OP_addr _halHandle]
     502                      .dwattr $C$DW$90, DW_AT_type(*$C$DW$T$276)
     503                      .dwattr $C$DW$90, DW_AT_external
     504              
     505              $C$DW$91        .dwtag  DW_TAG_subprogram, DW_AT_name("_IQ24sqrt")
     506                      .dwattr $C$DW$91, DW_AT_TI_symbol_name("__IQ24sqrt")
     507                      .dwattr $C$DW$91, DW_AT_type(*$C$DW$T$12)
     508                      .dwattr $C$DW$91, DW_AT_declaration
     509                      .dwattr $C$DW$91, DW_AT_external
     510              $C$DW$92        .dwtag  DW_TAG_formal_parameter
     511                      .dwattr $C$DW$92, DW_AT_type(*$C$DW$T$12)
     512                      .dwendtag $C$DW$91
     513              
     514                      .global _fwHandle
     515 00000008       _fwHandle:      .usect  ".ebss",2,1,1
     516              $C$DW$93        .dwtag  DW_TAG_variable, DW_AT_name("fwHandle")
     517                      .dwattr $C$DW$93, DW_AT_TI_symbol_name("_fwHandle")
     518                      .dwattr $C$DW$93, DW_AT_location[DW_OP_addr _fwHandle]
     519                      .dwattr $C$DW$93, DW_AT_type(*$C$DW$T$265)
     520                      .dwattr $C$DW$93, DW_AT_external
     521                      .global _Iq_Max_pu
     522 0000000a       _Iq_Max_pu:     .usect  ".ebss",2,1,1
     523              $C$DW$94        .dwtag  DW_TAG_variable, DW_AT_name("Iq_Max_pu")
     524                      .dwattr $C$DW$94, DW_AT_TI_symbol_name("_Iq_Max_pu")
     525                      .dwattr $C$DW$94, DW_AT_location[DW_OP_addr _Iq_Max_pu]
     526                      .dwattr $C$DW$94, DW_AT_type(*$C$DW$T$47)
     527                      .dwattr $C$DW$94, DW_AT_external
     528              $C$DW$95        .dwtag  DW_TAG_variable, DW_AT_name("switch_end")
     529                      .dwattr $C$DW$95, DW_AT_TI_symbol_name("_switch_end")
     530                      .dwattr $C$DW$95, DW_AT_type(*$C$DW$T$296)
     531                      .dwattr $C$DW$95, DW_AT_declaration
     532                      .dwattr $C$DW$95, DW_AT_external
     533              $C$DW$96        .dwtag  DW_TAG_variable, DW_AT_name("switch_ram_load")
     534                      .dwattr $C$DW$96, DW_AT_TI_symbol_name("_switch_ram_load")
     535                      .dwattr $C$DW$96, DW_AT_type(*$C$DW$T$296)
     536                      .dwattr $C$DW$96, DW_AT_declaration
     537                      .dwattr $C$DW$96, DW_AT_external
     538                      .global _gTorque_Ls_Id_Iq_pu_to_Nm_sf
     539 0000000c       _gTorque_Ls_Id_Iq_pu_to_Nm_sf:  .usect  ".ebss",2,1,1
     540              $C$DW$97        .dwtag  DW_TAG_variable, DW_AT_name("gTorque_Ls_Id_Iq_pu_to_Nm_sf")
     541                      .dwattr $C$DW$97, DW_AT_TI_symbol_name("_gTorque_Ls_Id_Iq_pu_to_Nm_sf")
     542                      .dwattr $C$DW$97, DW_AT_location[DW_OP_addr _gTorque_Ls_Id_Iq_pu_to_Nm_sf]
     543                      .dwattr $C$DW$97, DW_AT_type(*$C$DW$T$47)
     544                      .dwattr $C$DW$97, DW_AT_external
     545                      .global _gTorque_Flux_Iq_pu_to_Nm_sf
     546 0000000e       _gTorque_Flux_Iq_pu_to_Nm_sf:   .usect  ".ebss",2,1,1
     547              $C$DW$98        .dwtag  DW_TAG_variable, DW_AT_name("gTorque_Flux_Iq_pu_to_Nm_sf")
     548                      .dwattr $C$DW$98, DW_AT_TI_symbol_name("_gTorque_Flux_Iq_pu_to_Nm_sf")
     549                      .dwattr $C$DW$98, DW_AT_location[DW_OP_addr _gTorque_Flux_Iq_pu_to_Nm_sf]
     550                      .dwattr $C$DW$98, DW_AT_type(*$C$DW$T$47)
     551                      .dwattr $C$DW$98, DW_AT_external
     552                      .global _gFlux_pu_to_Wb_sf
TMS320C2000 Assembler PC v6.4.10 Mon Jul 11 12:58:34 2016

Tools Copyright (c) 1996-2015 Texas Instruments Incorporated
C:\Users\bee25\AppData\Local\Temp\2398010                            PAGE   12

     553 00000010       _gFlux_pu_to_Wb_sf:     .usect  ".ebss",2,1,1
     554              $C$DW$99        .dwtag  DW_TAG_variable, DW_AT_name("gFlux_pu_to_Wb_sf")
     555                      .dwattr $C$DW$99, DW_AT_TI_symbol_name("_gFlux_pu_to_Wb_sf")
     556                      .dwattr $C$DW$99, DW_AT_location[DW_OP_addr _gFlux_pu_to_Wb_sf]
     557                      .dwattr $C$DW$99, DW_AT_type(*$C$DW$T$47)
     558                      .dwattr $C$DW$99, DW_AT_external
     559              $C$DW$100       .dwtag  DW_TAG_variable, DW_AT_name("RamfuncsRunStart")
     560                      .dwattr $C$DW$100, DW_AT_TI_symbol_name("_RamfuncsRunStart")
     561                      .dwattr $C$DW$100, DW_AT_type(*$C$DW$T$296)
     562                      .dwattr $C$DW$100, DW_AT_declaration
     563                      .dwattr $C$DW$100, DW_AT_external
     564              $C$DW$101       .dwtag  DW_TAG_variable, DW_AT_name("econst_start")
     565                      .dwattr $C$DW$101, DW_AT_TI_symbol_name("_econst_start")
     566                      .dwattr $C$DW$101, DW_AT_type(*$C$DW$T$296)
     567                      .dwattr $C$DW$101, DW_AT_declaration
     568                      .dwattr $C$DW$101, DW_AT_external
     569              
     570              $C$DW$102       .dwtag  DW_TAG_subprogram, DW_AT_name("__IQsat")
     571                      .dwattr $C$DW$102, DW_AT_TI_symbol_name("___IQsat")
     572                      .dwattr $C$DW$102, DW_AT_type(*$C$DW$T$12)
     573                      .dwattr $C$DW$102, DW_AT_declaration
     574                      .dwattr $C$DW$102, DW_AT_external
     575              $C$DW$103       .dwtag  DW_TAG_formal_parameter
     576                      .dwattr $C$DW$103, DW_AT_type(*$C$DW$T$12)
     577              $C$DW$104       .dwtag  DW_TAG_formal_parameter
     578                      .dwattr $C$DW$104, DW_AT_type(*$C$DW$T$12)
     579              $C$DW$105       .dwtag  DW_TAG_formal_parameter
     580                      .dwattr $C$DW$105, DW_AT_type(*$C$DW$T$12)
     581                      .dwendtag $C$DW$102
     582              
     583              $C$DW$106       .dwtag  DW_TAG_variable, DW_AT_name("RamfuncsLoadEnd")
     584                      .dwattr $C$DW$106, DW_AT_TI_symbol_name("_RamfuncsLoadEnd")
     585                      .dwattr $C$DW$106, DW_AT_type(*$C$DW$T$296)
     586                      .dwattr $C$DW$106, DW_AT_declaration
     587                      .dwattr $C$DW$106, DW_AT_external
     588              $C$DW$107       .dwtag  DW_TAG_variable, DW_AT_name("switch_start")
     589                      .dwattr $C$DW$107, DW_AT_TI_symbol_name("_switch_start")
     590                      .dwattr $C$DW$107, DW_AT_type(*$C$DW$T$296)
     591                      .dwattr $C$DW$107, DW_AT_declaration
     592                      .dwattr $C$DW$107, DW_AT_external
     593                      .global _gFlux_pu_to_VpHz_sf
     594 00000012       _gFlux_pu_to_VpHz_sf:   .usect  ".ebss",2,1,1
     595              $C$DW$108       .dwtag  DW_TAG_variable, DW_AT_name("gFlux_pu_to_VpHz_sf")
     596                      .dwattr $C$DW$108, DW_AT_TI_symbol_name("_gFlux_pu_to_VpHz_sf")
     597                      .dwattr $C$DW$108, DW_AT_location[DW_OP_addr _gFlux_pu_to_VpHz_sf]
     598                      .dwattr $C$DW$108, DW_AT_type(*$C$DW$T$47)
     599                      .dwattr $C$DW$108, DW_AT_external
     600              $C$DW$109       .dwtag  DW_TAG_variable, DW_AT_name("econst_end")
     601                      .dwattr $C$DW$109, DW_AT_TI_symbol_name("_econst_end")
     602                      .dwattr $C$DW$109, DW_AT_type(*$C$DW$T$296)
     603                      .dwattr $C$DW$109, DW_AT_declaration
     604                      .dwattr $C$DW$109, DW_AT_external
     605              
     606              $C$DW$110       .dwtag  DW_TAG_subprogram, DW_AT_name("CTRL_initCtrl")
     607                      .dwattr $C$DW$110, DW_AT_TI_symbol_name("_CTRL_initCtrl")
TMS320C2000 Assembler PC v6.4.10 Mon Jul 11 12:58:34 2016

Tools Copyright (c) 1996-2015 Texas Instruments Incorporated
C:\Users\bee25\AppData\Local\Temp\2398010                            PAGE   13

     608                      .dwattr $C$DW$110, DW_AT_type(*$C$DW$T$219)
     609                      .dwattr $C$DW$110, DW_AT_declaration
     610                      .dwattr $C$DW$110, DW_AT_external
     611              $C$DW$111       .dwtag  DW_TAG_formal_parameter
     612                      .dwattr $C$DW$111, DW_AT_type(*$C$DW$T$249)
     613              $C$DW$112       .dwtag  DW_TAG_formal_parameter
     614                      .dwattr $C$DW$112, DW_AT_type(*$C$DW$T$3)
     615              $C$DW$113       .dwtag  DW_TAG_formal_parameter
     616                      .dwattr $C$DW$113, DW_AT_type(*$C$DW$T$251)
     617                      .dwendtag $C$DW$110
     618              
     619              
     620              $C$DW$114       .dwtag  DW_TAG_subprogram, DW_AT_name("USER_computeTorque_Nm")
     621                      .dwattr $C$DW$114, DW_AT_TI_symbol_name("_USER_computeTorque_Nm")
     622                      .dwattr $C$DW$114, DW_AT_type(*$C$DW$T$47)
     623                      .dwattr $C$DW$114, DW_AT_declaration
     624                      .dwattr $C$DW$114, DW_AT_external
     625              $C$DW$115       .dwtag  DW_TAG_formal_parameter
     626                      .dwattr $C$DW$115, DW_AT_type(*$C$DW$T$219)
     627              $C$DW$116       .dwtag  DW_TAG_formal_parameter
     628                      .dwattr $C$DW$116, DW_AT_type(*$C$DW$T$302)
     629              $C$DW$117       .dwtag  DW_TAG_formal_parameter
     630                      .dwattr $C$DW$117, DW_AT_type(*$C$DW$T$302)
     631                      .dwendtag $C$DW$114
     632              
     633              
     634              $C$DW$118       .dwtag  DW_TAG_subprogram, DW_AT_name("FW_init")
     635                      .dwattr $C$DW$118, DW_AT_TI_symbol_name("_FW_init")
     636                      .dwattr $C$DW$118, DW_AT_type(*$C$DW$T$265)
     637                      .dwattr $C$DW$118, DW_AT_declaration
     638                      .dwattr $C$DW$118, DW_AT_external
     639              $C$DW$119       .dwtag  DW_TAG_formal_parameter
     640                      .dwattr $C$DW$119, DW_AT_type(*$C$DW$T$3)
     641              $C$DW$120       .dwtag  DW_TAG_formal_parameter
     642                      .dwattr $C$DW$120, DW_AT_type(*$C$DW$T$251)
     643                      .dwendtag $C$DW$118
     644              
     645              
     646              $C$DW$121       .dwtag  DW_TAG_subprogram, DW_AT_name("EST_getRs_Ohm")
     647                      .dwattr $C$DW$121, DW_AT_TI_symbol_name("_EST_getRs_Ohm")
     648                      .dwattr $C$DW$121, DW_AT_type(*$C$DW$T$83)
     649                      .dwattr $C$DW$121, DW_AT_declaration
     650                      .dwattr $C$DW$121, DW_AT_external
     651              $C$DW$122       .dwtag  DW_TAG_formal_parameter
     652                      .dwattr $C$DW$122, DW_AT_type(*$C$DW$T$62)
     653                      .dwendtag $C$DW$121
     654              
     655              
     656              $C$DW$123       .dwtag  DW_TAG_subprogram, DW_AT_name("EST_getRr_Ohm")
     657                      .dwattr $C$DW$123, DW_AT_TI_symbol_name("_EST_getRr_Ohm")
     658                      .dwattr $C$DW$123, DW_AT_type(*$C$DW$T$83)
     659                      .dwattr $C$DW$123, DW_AT_declaration
     660                      .dwattr $C$DW$123, DW_AT_external
     661              $C$DW$124       .dwtag  DW_TAG_formal_parameter
     662                      .dwattr $C$DW$124, DW_AT_type(*$C$DW$T$62)
TMS320C2000 Assembler PC v6.4.10 Mon Jul 11 12:58:34 2016

Tools Copyright (c) 1996-2015 Texas Instruments Incorporated
C:\Users\bee25\AppData\Local\Temp\2398010                            PAGE   14

     663                      .dwendtag $C$DW$123
     664              
     665              
     666              $C$DW$125       .dwtag  DW_TAG_subprogram, DW_AT_name("EST_getSpeed_krpm")
     667                      .dwattr $C$DW$125, DW_AT_TI_symbol_name("_EST_getSpeed_krpm")
     668                      .dwattr $C$DW$125, DW_AT_type(*$C$DW$T$47)
     669                      .dwattr $C$DW$125, DW_AT_declaration
     670                      .dwattr $C$DW$125, DW_AT_external
     671              $C$DW$126       .dwtag  DW_TAG_formal_parameter
     672                      .dwattr $C$DW$126, DW_AT_type(*$C$DW$T$62)
     673                      .dwendtag $C$DW$125
     674              
     675              
     676              $C$DW$127       .dwtag  DW_TAG_subprogram, DW_AT_name("EST_getLs_d_H")
     677                      .dwattr $C$DW$127, DW_AT_TI_symbol_name("_EST_getLs_d_H")
     678                      .dwattr $C$DW$127, DW_AT_type(*$C$DW$T$83)
     679                      .dwattr $C$DW$127, DW_AT_declaration
     680                      .dwattr $C$DW$127, DW_AT_external
     681              $C$DW$128       .dwtag  DW_TAG_formal_parameter
     682                      .dwattr $C$DW$128, DW_AT_type(*$C$DW$T$62)
     683                      .dwendtag $C$DW$127
     684              
     685              $C$DW$129       .dwtag  DW_TAG_variable, DW_AT_name("econst_ram_load")
     686                      .dwattr $C$DW$129, DW_AT_TI_symbol_name("_econst_ram_load")
     687                      .dwattr $C$DW$129, DW_AT_type(*$C$DW$T$296)
     688                      .dwattr $C$DW$129, DW_AT_declaration
     689                      .dwattr $C$DW$129, DW_AT_external
     690              
     691              $C$DW$130       .dwtag  DW_TAG_subprogram, DW_AT_name("EST_getMaxCurrentSlope_pu")
     692                      .dwattr $C$DW$130, DW_AT_TI_symbol_name("_EST_getMaxCurrentSlope_pu")
     693                      .dwattr $C$DW$130, DW_AT_type(*$C$DW$T$47)
     694                      .dwattr $C$DW$130, DW_AT_declaration
     695                      .dwattr $C$DW$130, DW_AT_external
     696              $C$DW$131       .dwtag  DW_TAG_formal_parameter
     697                      .dwattr $C$DW$131, DW_AT_type(*$C$DW$T$62)
     698                      .dwendtag $C$DW$130
     699              
     700              
     701              $C$DW$132       .dwtag  DW_TAG_subprogram, DW_AT_name("USER_computeFlux")
     702                      .dwattr $C$DW$132, DW_AT_TI_symbol_name("_USER_computeFlux")
     703                      .dwattr $C$DW$132, DW_AT_type(*$C$DW$T$47)
     704                      .dwattr $C$DW$132, DW_AT_declaration
     705                      .dwattr $C$DW$132, DW_AT_external
     706              $C$DW$133       .dwtag  DW_TAG_formal_parameter
     707                      .dwattr $C$DW$133, DW_AT_type(*$C$DW$T$219)
     708              $C$DW$134       .dwtag  DW_TAG_formal_parameter
     709                      .dwattr $C$DW$134, DW_AT_type(*$C$DW$T$302)
     710                      .dwendtag $C$DW$132
     711              
     712              
     713              $C$DW$135       .dwtag  DW_TAG_subprogram, DW_AT_name("USER_computeFlux_pu_to_VpHz_sf")
     714                      .dwattr $C$DW$135, DW_AT_TI_symbol_name("_USER_computeFlux_pu_to_VpHz_sf")
     715                      .dwattr $C$DW$135, DW_AT_type(*$C$DW$T$47)
     716                      .dwattr $C$DW$135, DW_AT_declaration
     717                      .dwattr $C$DW$135, DW_AT_external
TMS320C2000 Assembler PC v6.4.10 Mon Jul 11 12:58:34 2016

Tools Copyright (c) 1996-2015 Texas Instruments Incorporated
C:\Users\bee25\AppData\Local\Temp\2398010                            PAGE   15

     718              
     719              $C$DW$136       .dwtag  DW_TAG_subprogram, DW_AT_name("HAL_init")
     720                      .dwattr $C$DW$136, DW_AT_TI_symbol_name("_HAL_init")
     721                      .dwattr $C$DW$136, DW_AT_type(*$C$DW$T$276)
     722                      .dwattr $C$DW$136, DW_AT_declaration
     723                      .dwattr $C$DW$136, DW_AT_external
     724              $C$DW$137       .dwtag  DW_TAG_formal_parameter
     725                      .dwattr $C$DW$137, DW_AT_type(*$C$DW$T$3)
     726              $C$DW$138       .dwtag  DW_TAG_formal_parameter
     727                      .dwattr $C$DW$138, DW_AT_type(*$C$DW$T$251)
     728                      .dwendtag $C$DW$136
     729              
     730              
     731              $C$DW$139       .dwtag  DW_TAG_subprogram, DW_AT_name("EST_getLs_q_H")
     732                      .dwattr $C$DW$139, DW_AT_TI_symbol_name("_EST_getLs_q_H")
     733                      .dwattr $C$DW$139, DW_AT_type(*$C$DW$T$83)
     734                      .dwattr $C$DW$139, DW_AT_declaration
     735                      .dwattr $C$DW$139, DW_AT_external
     736              $C$DW$140       .dwtag  DW_TAG_formal_parameter
     737                      .dwattr $C$DW$140, DW_AT_type(*$C$DW$T$62)
     738                      .dwendtag $C$DW$139
     739              
     740                      .global _gPwmData
     741 00000014       _gPwmData:      .usect  ".ebss",6,1,1
     742              $C$DW$141       .dwtag  DW_TAG_variable, DW_AT_name("gPwmData")
     743                      .dwattr $C$DW$141, DW_AT_TI_symbol_name("_gPwmData")
     744                      .dwattr $C$DW$141, DW_AT_location[DW_OP_addr _gPwmData]
     745                      .dwattr $C$DW$141, DW_AT_type(*$C$DW$T$280)
     746                      .dwattr $C$DW$141, DW_AT_external
     747                      .global _gAdcData
     748 0000001a       _gAdcData:      .usect  ".ebss",16,1,1
     749              $C$DW$142       .dwtag  DW_TAG_variable, DW_AT_name("gAdcData")
     750                      .dwattr $C$DW$142, DW_AT_TI_symbol_name("_gAdcData")
     751                      .dwattr $C$DW$142, DW_AT_location[DW_OP_addr _gAdcData]
     752                      .dwattr $C$DW$142, DW_AT_type(*$C$DW$T$162)
     753                      .dwattr $C$DW$142, DW_AT_external
     754                      .global _fw
     755 0000002a       _fw:    .usect  ".ebss",20,1,1
     756              $C$DW$143       .dwtag  DW_TAG_variable, DW_AT_name("fw")
     757                      .dwattr $C$DW$143, DW_AT_TI_symbol_name("_fw")
     758                      .dwattr $C$DW$143, DW_AT_location[DW_OP_addr _fw]
     759                      .dwattr $C$DW$143, DW_AT_type(*$C$DW$T$262)
     760                      .dwattr $C$DW$143, DW_AT_external
     761                      .global _gDrvSpi8301Vars
     762 00000040       _gDrvSpi8301Vars:       .usect  ".ebss",24,1,0
     763              $C$DW$144       .dwtag  DW_TAG_variable, DW_AT_name("gDrvSpi8301Vars")
     764                      .dwattr $C$DW$144, DW_AT_TI_symbol_name("_gDrvSpi8301Vars")
     765                      .dwattr $C$DW$144, DW_AT_location[DW_OP_addr _gDrvSpi8301Vars]
     766                      .dwattr $C$DW$144, DW_AT_type(*$C$DW$T$259)
     767                      .dwattr $C$DW$144, DW_AT_external
     768                      .global _gMotorVars
     769 00000080       _gMotorVars:    .usect  ".ebss",104,1,1
     770              $C$DW$145       .dwtag  DW_TAG_variable, DW_AT_name("gMotorVars")
     771                      .dwattr $C$DW$145, DW_AT_TI_symbol_name("_gMotorVars")
     772                      .dwattr $C$DW$145, DW_AT_location[DW_OP_addr _gMotorVars]
TMS320C2000 Assembler PC v6.4.10 Mon Jul 11 12:58:34 2016

Tools Copyright (c) 1996-2015 Texas Instruments Incorporated
C:\Users\bee25\AppData\Local\Temp\2398010                            PAGE   16

     773                      .dwattr $C$DW$145, DW_AT_type(*$C$DW$T$284)
     774                      .dwattr $C$DW$145, DW_AT_external
     775                      .global _gUserParams
     776 00000040       _gUserParams:   .usect  "rom_accessed_data",172,1,1
     777              $C$DW$146       .dwtag  DW_TAG_variable, DW_AT_name("gUserParams")
     778                      .dwattr $C$DW$146, DW_AT_TI_symbol_name("_gUserParams")
     779                      .dwattr $C$DW$146, DW_AT_location[DW_OP_addr _gUserParams]
     780                      .dwattr $C$DW$146, DW_AT_type(*$C$DW$T$225)
     781                      .dwattr $C$DW$146, DW_AT_external
     782              $C$DW$147       .dwtag  DW_TAG_variable, DW_AT_name("hal")
     783                      .dwattr $C$DW$147, DW_AT_TI_symbol_name("_hal")
     784                      .dwattr $C$DW$147, DW_AT_type(*$C$DW$T$273)
     785                      .dwattr $C$DW$147, DW_AT_declaration
     786                      .dwattr $C$DW$147, DW_AT_external
     787                      .global _ctrl
     788 00000100       _ctrl:  .usect  "rom_accessed_data",264,1,1
     789              $C$DW$148       .dwtag  DW_TAG_variable, DW_AT_name("ctrl")
     790                      .dwattr $C$DW$148, DW_AT_TI_symbol_name("_ctrl")
     791                      .dwattr $C$DW$148, DW_AT_location[DW_OP_addr _ctrl]
     792                      .dwattr $C$DW$148, DW_AT_type(*$C$DW$T$246)
     793                      .dwattr $C$DW$148, DW_AT_external
     794              ;       C:\ti\ccsv6\tools\compiler\ti-cgt-c2000_6.4.10\bin\opt2000.exe C:\\Users\\bee25\\AppData\\Local\\Temp
     795              ;       C:\ti\ccsv6\tools\compiler\ti-cgt-c2000_6.4.10\bin\ac2000.exe -@C:\\Users\\bee25\\AppData\\Local\\Tem
     796 00000000               .sect   ".text"
     797                      .clink
     798                      .global _updateKpKiGains
     799              
     800              $C$DW$149       .dwtag  DW_TAG_subprogram, DW_AT_name("updateKpKiGains")
     801                      .dwattr $C$DW$149, DW_AT_low_pc(_updateKpKiGains)
     802                      .dwattr $C$DW$149, DW_AT_high_pc(0x00)
     803                      .dwattr $C$DW$149, DW_AT_TI_symbol_name("_updateKpKiGains")
     804                      .dwattr $C$DW$149, DW_AT_external
     805                      .dwattr $C$DW$149, DW_AT_TI_begin_file("C:/ti/motorware/motorware_1_01_00_16/sw/solutions/instaspin_f
     806                      .dwattr $C$DW$149, DW_AT_TI_begin_line(0x276)
     807                      .dwattr $C$DW$149, DW_AT_TI_begin_column(0x06)
     808                      .dwattr $C$DW$149, DW_AT_TI_max_frame_size(-2)
     809                      .dwpsn  file "C:/ti/motorware/motorware_1_01_00_16/sw/solutions/instaspin_foc/src/proj_lab09.c",line 
     810              
     811                      .dwfde $C$DW$CIE, _updateKpKiGains
     812              $C$DW$150       .dwtag  DW_TAG_formal_parameter, DW_AT_name("handle")
     813                      .dwattr $C$DW$150, DW_AT_TI_symbol_name("_handle")
     814                      .dwattr $C$DW$150, DW_AT_type(*$C$DW$T$219)
     815                      .dwattr $C$DW$150, DW_AT_location[DW_OP_reg12]
     816              
     817              ;***************************************************************
     818              ;* FNAME: _updateKpKiGains              FR SIZE:   0           *
     819              ;*                                                             *
     820              ;* FUNCTION ENVIRONMENT                                        *
     821              ;*                                                             *
     822              ;* FUNCTION PROPERTIES                                         *
     823              ;*                            0 Parameter,  0 Auto,  0 SOE     *
     824              ;***************************************************************
     825              
     826              _updateKpKiGains:
     827              ;* AR4   assigned to _handle
TMS320C2000 Assembler PC v6.4.10 Mon Jul 11 12:58:34 2016

Tools Copyright (c) 1996-2015 Texas Instruments Incorporated
C:\Users\bee25\AppData\Local\Temp\2398010                            PAGE   17

     828              $C$DW$151       .dwtag  DW_TAG_variable, DW_AT_name("handle")
     829                      .dwattr $C$DW$151, DW_AT_TI_symbol_name("_handle")
     830                      .dwattr $C$DW$151, DW_AT_type(*$C$DW$T$248)
     831                      .dwattr $C$DW$151, DW_AT_location[DW_OP_reg12]
     832              ;* AL    assigned to _Ki
     833              $C$DW$152       .dwtag  DW_TAG_variable, DW_AT_name("Ki")
     834                      .dwattr $C$DW$152, DW_AT_TI_symbol_name("_Ki")
     835                      .dwattr $C$DW$152, DW_AT_type(*$C$DW$T$47)
     836                      .dwattr $C$DW$152, DW_AT_location[DW_OP_reg0]
     837              ;* AL    assigned to _Kp
     838              $C$DW$153       .dwtag  DW_TAG_variable, DW_AT_name("Kp")
     839                      .dwattr $C$DW$153, DW_AT_TI_symbol_name("_Kp")
     840                      .dwattr $C$DW$153, DW_AT_type(*$C$DW$T$47)
     841                      .dwattr $C$DW$153, DW_AT_location[DW_OP_reg0]
     842              ;* AL    assigned to _Ki
     843              $C$DW$154       .dwtag  DW_TAG_variable, DW_AT_name("Ki")
     844                      .dwattr $C$DW$154, DW_AT_TI_symbol_name("_Ki")
     845                      .dwattr $C$DW$154, DW_AT_type(*$C$DW$T$47)
     846                      .dwattr $C$DW$154, DW_AT_location[DW_OP_reg0]
     847              ;* AL    assigned to _Kp
     848              $C$DW$155       .dwtag  DW_TAG_variable, DW_AT_name("Kp")
     849                      .dwattr $C$DW$155, DW_AT_TI_symbol_name("_Kp")
     850                      .dwattr $C$DW$155, DW_AT_type(*$C$DW$T$47)
     851                      .dwattr $C$DW$155, DW_AT_location[DW_OP_reg0]
     852              ;* AL    assigned to _Ki
     853              $C$DW$156       .dwtag  DW_TAG_variable, DW_AT_name("Ki")
     854                      .dwattr $C$DW$156, DW_AT_TI_symbol_name("_Ki")
     855                      .dwattr $C$DW$156, DW_AT_type(*$C$DW$T$47)
     856                      .dwattr $C$DW$156, DW_AT_location[DW_OP_reg0]
     857              ;* AL    assigned to _Kp
     858              $C$DW$157       .dwtag  DW_TAG_variable, DW_AT_name("Kp")
     859                      .dwattr $C$DW$157, DW_AT_TI_symbol_name("_Kp")
     860                      .dwattr $C$DW$157, DW_AT_type(*$C$DW$T$47)
     861                      .dwattr $C$DW$157, DW_AT_location[DW_OP_reg0]
     862                      .dwcfi  cfa_offset, -2
     863                      .dwcfi  save_reg_to_mem, 26, 0
     864 00000000 761F-         MOVW      DP,#_gMotorVars+10    ; [CPU_U] 
         00000001 0002 
     865                      .dwpsn  file "C:/ti/motorware/motorware_1_01_00_16/sw/solutions/instaspin_foc/src/proj_lab09.c",line 
     866 00000002 920A-         MOV       AL,@_gMotorVars+10    ; [CPU_] |632| 
     867 00000003 5203          CMPB      AL,#3                 ; [CPU_] |632| 
     868 00000004 ED1D          BF        $C$L1,NEQ             ; [CPU_] |632| 
     869                      ; branchcc occurs ; [] |632| 
     870 00000005 9202-         MOV       AL,@_gMotorVars+2     ; [CPU_] |632| 
     871 00000006 5201          CMPB      AL,#1                 ; [CPU_] |632| 
     872 00000007 ED1A          BF        $C$L1,NEQ             ; [CPU_] |632| 
     873                      ; branchcc occurs ; [] |632| 
     874 00000008 761F-         MOVW      DP,#_Flag_Latch_softwareUpdate ; [CPU_U] 
         00000009 0000 
     875 0000000a 9201-         MOV       AL,@_Flag_Latch_softwareUpdate ; [CPU_] |632| 
     876 0000000b 5201          CMPB      AL,#1                 ; [CPU_] |632| 
     877 0000000c EC15          BF        $C$L1,EQ              ; [CPU_] |632| 
     878                      ; branchcc occurs ; [] |632| 
     879 0000000d 761F-         MOVW      DP,#_gMotorVars+68    ; [CPU_U] 
         0000000e 0003 
TMS320C2000 Assembler PC v6.4.10 Mon Jul 11 12:58:34 2016

Tools Copyright (c) 1996-2015 Texas Instruments Incorporated
C:\Users\bee25\AppData\Local\Temp\2398010                            PAGE   18

     880                      .dwpsn  file "C:/ti/motorware/motorware_1_01_00_16/sw/modules/ctrl/src/32b/ctrl.h",line 1505,column 7
     881 0000000f D0CE          MOVB      XAR0,#206             ; [CPU_] |1505| 
     882                      .dwpsn  file "C:/ti/motorware/motorware_1_01_00_16/sw/solutions/instaspin_foc/src/proj_lab09.c",line 
     883 00000010 0604-         MOVL      ACC,@_gMotorVars+68   ; [CPU_] |635| 
     884                      .dwpsn  file "C:/ti/motorware/motorware_1_01_00_16/sw/modules/ctrl/src/32b/ctrl.h",line 1505,column 7
     885 00000011 1E94          MOVL      *+XAR4[AR0],ACC       ; [CPU_] |1505| 
     886                      .dwpsn  file "C:/ti/motorware/motorware_1_01_00_16/sw/modules/ctrl/src/32b/ctrl.h",line 1480,column 7
     887 00000012 D0D4          MOVB      XAR0,#212             ; [CPU_] |1480| 
     888                      .dwpsn  file "C:/ti/motorware/motorware_1_01_00_16/sw/solutions/instaspin_foc/src/proj_lab09.c",line 
     889 00000013 0606-         MOVL      ACC,@_gMotorVars+70   ; [CPU_] |636| 
     890                      .dwpsn  file "C:/ti/motorware/motorware_1_01_00_16/sw/modules/ctrl/src/32b/ctrl.h",line 1480,column 7
     891 00000014 1E94          MOVL      *+XAR4[AR0],ACC       ; [CPU_] |1480| 
     892                      .dwpsn  file "C:/ti/motorware/motorware_1_01_00_16/sw/modules/ctrl/src/32b/ctrl.h",line 1509,column 7
     893 00000015 D0CA          MOVB      XAR0,#202             ; [CPU_] |1509| 
     894                      .dwpsn  file "C:/ti/motorware/motorware_1_01_00_16/sw/solutions/instaspin_foc/src/proj_lab09.c",line 
     895 00000016 0608-         MOVL      ACC,@_gMotorVars+72   ; [CPU_] |639| 
     896                      .dwpsn  file "C:/ti/motorware/motorware_1_01_00_16/sw/modules/ctrl/src/32b/ctrl.h",line 1509,column 7
     897 00000017 1E94          MOVL      *+XAR4[AR0],ACC       ; [CPU_] |1509| 
     898                      .dwpsn  file "C:/ti/motorware/motorware_1_01_00_16/sw/modules/ctrl/src/32b/ctrl.h",line 1484,column 7
     899 00000018 D0D0          MOVB      XAR0,#208             ; [CPU_] |1484| 
     900                      .dwpsn  file "C:/ti/motorware/motorware_1_01_00_16/sw/solutions/instaspin_foc/src/proj_lab09.c",line 
     901 00000019 060A-         MOVL      ACC,@_gMotorVars+74   ; [CPU_] |640| 
     902                      .dwpsn  file "C:/ti/motorware/motorware_1_01_00_16/sw/modules/ctrl/src/32b/ctrl.h",line 1484,column 7
     903 0000001a 1E94          MOVL      *+XAR4[AR0],ACC       ; [CPU_] |1484| 
     904                      .dwpsn  file "C:/ti/motorware/motorware_1_01_00_16/sw/modules/ctrl/src/32b/ctrl.h",line 1513,column 7
     905 0000001b D0CC          MOVB      XAR0,#204             ; [CPU_] |1513| 
     906                      .dwpsn  file "C:/ti/motorware/motorware_1_01_00_16/sw/solutions/instaspin_foc/src/proj_lab09.c",line 
     907 0000001c 0608-         MOVL      ACC,@_gMotorVars+72   ; [CPU_] |641| 
     908                      .dwpsn  file "C:/ti/motorware/motorware_1_01_00_16/sw/modules/ctrl/src/32b/ctrl.h",line 1513,column 7
     909 0000001d 1E94          MOVL      *+XAR4[AR0],ACC       ; [CPU_] |1513| 
     910                      .dwpsn  file "C:/ti/motorware/motorware_1_01_00_16/sw/solutions/instaspin_foc/src/proj_lab09.c",line 
     911 0000001e 060A-         MOVL      ACC,@_gMotorVars+74   ; [CPU_] |642| 
     912                      .dwpsn  file "C:/ti/motorware/motorware_1_01_00_16/sw/modules/ctrl/src/32b/ctrl.h",line 1488,column 7
     913 0000001f D0D2          MOVB      XAR0,#210             ; [CPU_] |1488| 
     914 00000020 1E94          MOVL      *+XAR4[AR0],ACC       ; [CPU_] |1488| 
     915              $C$L1:    
     916              $C$DW$158       .dwtag  DW_TAG_TI_branch
     917                      .dwattr $C$DW$158, DW_AT_low_pc(0x00)
     918                      .dwattr $C$DW$158, DW_AT_TI_return
     919 00000021 0006          LRETR     ; [CPU_] 
     920                      ; return occurs ; [] 
     921                      .dwattr $C$DW$149, DW_AT_TI_end_file("C:/ti/motorware/motorware_1_01_00_16/sw/solutions/instaspin_foc
     922                      .dwattr $C$DW$149, DW_AT_TI_end_line(0x286)
     923                      .dwattr $C$DW$149, DW_AT_TI_end_column(0x01)
     924                      .dwendentry
     925                      .dwendtag $C$DW$149
     926              
     927 00000022               .sect   ".text"
     928                      .clink
     929                      .global _updateGlobalVariables_motor
     930              
     931              $C$DW$159       .dwtag  DW_TAG_subprogram, DW_AT_name("updateGlobalVariables_motor")
     932                      .dwattr $C$DW$159, DW_AT_low_pc(_updateGlobalVariables_motor)
     933                      .dwattr $C$DW$159, DW_AT_high_pc(0x00)
     934                      .dwattr $C$DW$159, DW_AT_TI_symbol_name("_updateGlobalVariables_motor")
TMS320C2000 Assembler PC v6.4.10 Mon Jul 11 12:58:34 2016

Tools Copyright (c) 1996-2015 Texas Instruments Incorporated
C:\Users\bee25\AppData\Local\Temp\2398010                            PAGE   19

     935                      .dwattr $C$DW$159, DW_AT_external
     936                      .dwattr $C$DW$159, DW_AT_TI_begin_file("C:/ti/motorware/motorware_1_01_00_16/sw/solutions/instaspin_f
     937                      .dwattr $C$DW$159, DW_AT_TI_begin_line(0x239)
     938                      .dwattr $C$DW$159, DW_AT_TI_begin_column(0x06)
     939                      .dwattr $C$DW$159, DW_AT_TI_max_frame_size(-8)
     940                      .dwpsn  file "C:/ti/motorware/motorware_1_01_00_16/sw/solutions/instaspin_foc/src/proj_lab09.c",line 
     941              
     942                      .dwfde $C$DW$CIE, _updateGlobalVariables_motor
     943              $C$DW$160       .dwtag  DW_TAG_formal_parameter, DW_AT_name("handle")
     944                      .dwattr $C$DW$160, DW_AT_TI_symbol_name("_handle")
     945                      .dwattr $C$DW$160, DW_AT_type(*$C$DW$T$219)
     946                      .dwattr $C$DW$160, DW_AT_location[DW_OP_reg12]
     947              
     948              ;***************************************************************
     949              ;* FNAME: _updateGlobalVariables_motor  FR SIZE:   6           *
     950              ;*                                                             *
     951              ;* FUNCTION ENVIRONMENT                                        *
     952              ;*                                                             *
     953              ;* FUNCTION PROPERTIES                                         *
     954              ;*                            2 Parameter,  0 Auto,  4 SOE     *
     955              ;***************************************************************
     956              
     957              _updateGlobalVariables_motor:
     958              ;* AR4   assigned to $O$C7
     959              ;* AR4   assigned to $O$C8
     960              ;* XT    assigned to $O$R6
     961              ;* AR2   assigned to _handle
     962              $C$DW$161       .dwtag  DW_TAG_variable, DW_AT_name("handle")
     963                      .dwattr $C$DW$161, DW_AT_TI_symbol_name("_handle")
     964                      .dwattr $C$DW$161, DW_AT_type(*$C$DW$T$248)
     965                      .dwattr $C$DW$161, DW_AT_location[DW_OP_reg8]
     966                      .dwcfi  cfa_offset, -2
     967                      .dwcfi  save_reg_to_mem, 26, 0
     968 00000022 B2BD          MOVL      *SP++,XAR1            ; [CPU_] 
     969                      .dwcfi  save_reg_to_mem, 7, 2
     970                      .dwcfi  cfa_offset, -4
     971 00000023 AABD          MOVL      *SP++,XAR2            ; [CPU_] 
     972                      .dwcfi  save_reg_to_mem, 9, 4
     973                      .dwcfi  cfa_offset, -6
     974 00000024 FE02          ADDB      SP,#2                 ; [CPU_U] 
     975                      .dwcfi  cfa_offset, -8
     976 00000025 86A4          MOVL      XAR2,XAR4             ; [CPU_] |570| 
     977                      .dwpsn  file "C:/ti/motorware/motorware_1_01_00_16/sw/solutions/instaspin_foc/src/proj_lab09.c",line 
     978 00000026 D018          MOVB      XAR0,#24              ; [CPU_] |574| 
     979 00000027 8A92          MOVL      XAR4,*+XAR2[AR0]      ; [CPU_] |574| 
     980              $C$DW$162       .dwtag  DW_TAG_TI_branch
     981                      .dwattr $C$DW$162, DW_AT_low_pc(0x00)
     982                      .dwattr $C$DW$162, DW_AT_name("_EST_getSpeed_krpm")
     983                      .dwattr $C$DW$162, DW_AT_TI_call
     984 00000028 7640!         LCR       #_EST_getSpeed_krpm   ; [CPU_] |574| 
         00000029 0000 
     985                      ; call occurs [#_EST_getSpeed_krpm] ; [] |574| 
     986 0000002a 761F-         MOVW      DP,#_gMotorVars+30    ; [CPU_U] 
         0000002b 0002 
     987                      .dwpsn  file "C:/ti/motorware/motorware_1_01_00_16/sw/modules/traj/src/32b/traj.h",line 96,column 3,i
TMS320C2000 Assembler PC v6.4.10 Mon Jul 11 12:58:34 2016

Tools Copyright (c) 1996-2015 Texas Instruments Incorporated
C:\Users\bee25\AppData\Local\Temp\2398010                            PAGE   20

     988 0000002c D06C          MOVB      XAR0,#108             ; [CPU_] |96| 
     989                      .dwpsn  file "C:/ti/motorware/motorware_1_01_00_16/sw/solutions/instaspin_foc/src/proj_lab09.c",line 
     990 0000002d 1E1E-         MOVL      @_gMotorVars+30,ACC   ; [CPU_] |574| 
     991                      .dwpsn  file "C:/ti/motorware/motorware_1_01_00_16/sw/modules/traj/src/32b/traj.h",line 96,column 3,i
     992 0000002e 8A92          MOVL      XAR4,*+XAR2[AR0]      ; [CPU_] |96| 
     993                      .dwpsn  file "C:/ti/motorware/motorware_1_01_00_16/sw/solutions/instaspin_foc/src/proj_lab09.c",line 
     994 0000002f D018          MOVB      XAR0,#24              ; [CPU_] |577| 
     995                      .dwpsn  file "C:/ti/motorware/motorware_1_01_00_16/sw/modules/traj/src/32b/traj.h",line 96,column 3,i
     996 00000030 8BD4          MOVL      XAR1,*+XAR4[2]        ; [CPU_] |96| 
     997                      .dwpsn  file "C:/ti/motorware/motorware_1_01_00_16/sw/solutions/instaspin_foc/src/proj_lab09.c",line 
     998 00000031 8A92          MOVL      XAR4,*+XAR2[AR0]      ; [CPU_] |577| 
     999              $C$DW$163       .dwtag  DW_TAG_TI_branch
    1000                      .dwattr $C$DW$163, DW_AT_low_pc(0x00)
    1001                      .dwattr $C$DW$163, DW_AT_name("_EST_get_pu_to_krpm_sf")
    1002                      .dwattr $C$DW$163, DW_AT_TI_call
    1003 00000032 7640!         LCR       #_EST_get_pu_to_krpm_sf ; [CPU_] |577| 
         00000033 0000 
    1004                      ; call occurs [#_EST_get_pu_to_krpm_sf] ; [] |577| 
    1005 00000034 761F-         MOVW      DP,#_gMotorVars+26    ; [CPU_U] 
         00000035 0002 
    1006 00000036 B2AC          MOVL      XT,XAR1               ; [CPU_] |577| 
    1007                      .dwpsn  file "C:/ti/motorware/motorware_1_01_00_16/sw/solutions/instaspin_foc/src/proj_lab09.c",line 
    1008 00000037 8AA2          MOVL      XAR4,XAR2             ; [CPU_] |580| 
    1009                      .dwpsn  file "C:/ti/motorware/motorware_1_01_00_16/sw/solutions/instaspin_foc/src/proj_lab09.c",line 
    1010 00000038 5605          IMPYL     P,XT,ACC              ; [CPU_] |577| 
         00000039 00A9 
    1011 0000003a 5663          QMPYL     ACC,XT,ACC            ; [CPU_] |577| 
         0000003b 00A9 
    1012 0000003c 56A7          LSL64     ACC:P,#8              ; [CPU_] |577| 
    1013 0000003d 1E1A-         MOVL      @_gMotorVars+26,ACC   ; [CPU_] |577| 
    1014 0000003e 761F-         MOVW      DP,#_gTorque_Ls_Id_Iq_pu_to_Nm_sf ; [CPU_U] 
         0000003f 0000 
    1015                      .dwpsn  file "C:/ti/motorware/motorware_1_01_00_16/sw/solutions/instaspin_foc/src/proj_lab09.c",line 
    1016 00000040 060C-         MOVL      ACC,@_gTorque_Ls_Id_Iq_pu_to_Nm_sf ; [CPU_] |580| 
    1017 00000041 1E42          MOVL      *-SP[2],ACC           ; [CPU_] |580| 
    1018 00000042 060E-         MOVL      ACC,@_gTorque_Flux_Iq_pu_to_Nm_sf ; [CPU_] |580| 
    1019              $C$DW$164       .dwtag  DW_TAG_TI_branch
    1020                      .dwattr $C$DW$164, DW_AT_low_pc(0x00)
    1021                      .dwattr $C$DW$164, DW_AT_name("_USER_computeTorque_Nm")
    1022                      .dwattr $C$DW$164, DW_AT_TI_call
    1023 00000043 7640!         LCR       #_USER_computeTorque_Nm ; [CPU_] |580| 
         00000044 0000 
    1024                      ; call occurs [#_USER_computeTorque_Nm] ; [] |580| 
    1025 00000045 761F-         MOVW      DP,#_gMotorVars+40    ; [CPU_U] 
         00000046 0002 
    1026                      .dwpsn  file "C:/ti/motorware/motorware_1_01_00_16/sw/solutions/instaspin_foc/src/proj_lab09.c",line 
    1027 00000047 D018          MOVB      XAR0,#24              ; [CPU_] |583| 
    1028                      .dwpsn  file "C:/ti/motorware/motorware_1_01_00_16/sw/solutions/instaspin_foc/src/proj_lab09.c",line 
    1029 00000048 1E28-         MOVL      @_gMotorVars+40,ACC   ; [CPU_] |580| 
    1030                      .dwpsn  file "C:/ti/motorware/motorware_1_01_00_16/sw/solutions/instaspin_foc/src/proj_lab09.c",line 
    1031 00000049 8A92          MOVL      XAR4,*+XAR2[AR0]      ; [CPU_] |583| 
    1032              $C$DW$165       .dwtag  DW_TAG_TI_branch
    1033                      .dwattr $C$DW$165, DW_AT_low_pc(0x00)
    1034                      .dwattr $C$DW$165, DW_AT_name("_EST_getIdRated")
    1035                      .dwattr $C$DW$165, DW_AT_TI_call
TMS320C2000 Assembler PC v6.4.10 Mon Jul 11 12:58:34 2016

Tools Copyright (c) 1996-2015 Texas Instruments Incorporated
C:\Users\bee25\AppData\Local\Temp\2398010                            PAGE   21

    1036 0000004a 7640!         LCR       #_EST_getIdRated      ; [CPU_] |583| 
         0000004b 0000 
    1037                      ; call occurs [#_EST_getIdRated] ; [] |583| 
    1038 0000004c 761F-         MOVW      DP,#_gMotorVars+42    ; [CPU_U] 
         0000004d 0002 
    1039                      .dwpsn  file "C:/ti/motorware/motorware_1_01_00_16/sw/solutions/instaspin_foc/src/proj_lab09.c",line 
    1040 0000004e D018          MOVB      XAR0,#24              ; [CPU_] |586| 
    1041                      .dwpsn  file "C:/ti/motorware/motorware_1_01_00_16/sw/solutions/instaspin_foc/src/proj_lab09.c",line 
    1042 0000004f 1E2A-         MOVL      @_gMotorVars+42,ACC   ; [CPU_] |583| 
    1043                      .dwpsn  file "C:/ti/motorware/motorware_1_01_00_16/sw/solutions/instaspin_foc/src/proj_lab09.c",line 
    1044 00000050 8A92          MOVL      XAR4,*+XAR2[AR0]      ; [CPU_] |586| 
    1045              $C$DW$166       .dwtag  DW_TAG_TI_branch
    1046                      .dwattr $C$DW$166, DW_AT_low_pc(0x00)
    1047                      .dwattr $C$DW$166, DW_AT_name("_EST_getRr_Ohm")
    1048                      .dwattr $C$DW$166, DW_AT_TI_call
    1049 00000051 7640!         LCR       #_EST_getRr_Ohm       ; [CPU_] |586| 
         00000052 0000 
    1050                      ; call occurs [#_EST_getRr_Ohm] ; [] |586| 
    1051 00000053 761F-         MOVW      DP,#_gMotorVars+44    ; [CPU_U] 
         00000054 0002 
    1052                      .dwpsn  file "C:/ti/motorware/motorware_1_01_00_16/sw/solutions/instaspin_foc/src/proj_lab09.c",line 
    1053 00000055 D018          MOVB      XAR0,#24              ; [CPU_] |589| 
    1054                      .dwpsn  file "C:/ti/motorware/motorware_1_01_00_16/sw/solutions/instaspin_foc/src/proj_lab09.c",line 
    1055 00000056 1E2C-         MOVL      @_gMotorVars+44,ACC   ; [CPU_] |586| 
    1056                      .dwpsn  file "C:/ti/motorware/motorware_1_01_00_16/sw/solutions/instaspin_foc/src/proj_lab09.c",line 
    1057 00000057 8A92          MOVL      XAR4,*+XAR2[AR0]      ; [CPU_] |589| 
    1058              $C$DW$167       .dwtag  DW_TAG_TI_branch
    1059                      .dwattr $C$DW$167, DW_AT_low_pc(0x00)
    1060                      .dwattr $C$DW$167, DW_AT_name("_EST_getRs_Ohm")
    1061                      .dwattr $C$DW$167, DW_AT_TI_call
    1062 00000058 7640!         LCR       #_EST_getRs_Ohm       ; [CPU_] |589| 
         00000059 0000 
    1063                      ; call occurs [#_EST_getRs_Ohm] ; [] |589| 
    1064 0000005a 761F-         MOVW      DP,#_gMotorVars+46    ; [CPU_U] 
         0000005b 0002 
    1065                      .dwpsn  file "C:/ti/motorware/motorware_1_01_00_16/sw/solutions/instaspin_foc/src/proj_lab09.c",line 
    1066 0000005c D018          MOVB      XAR0,#24              ; [CPU_] |592| 
    1067                      .dwpsn  file "C:/ti/motorware/motorware_1_01_00_16/sw/solutions/instaspin_foc/src/proj_lab09.c",line 
    1068 0000005d 1E2E-         MOVL      @_gMotorVars+46,ACC   ; [CPU_] |589| 
    1069                      .dwpsn  file "C:/ti/motorware/motorware_1_01_00_16/sw/solutions/instaspin_foc/src/proj_lab09.c",line 
    1070 0000005e 8A92          MOVL      XAR4,*+XAR2[AR0]      ; [CPU_] |592| 
    1071              $C$DW$168       .dwtag  DW_TAG_TI_branch
    1072                      .dwattr $C$DW$168, DW_AT_low_pc(0x00)
    1073                      .dwattr $C$DW$168, DW_AT_name("_EST_getLs_d_H")
    1074                      .dwattr $C$DW$168, DW_AT_TI_call
    1075 0000005f 7640!         LCR       #_EST_getLs_d_H       ; [CPU_] |592| 
         00000060 0000 
    1076                      ; call occurs [#_EST_getLs_d_H] ; [] |592| 
    1077 00000061 761F-         MOVW      DP,#_gMotorVars+50    ; [CPU_U] 
         00000062 0002 
    1078                      .dwpsn  file "C:/ti/motorware/motorware_1_01_00_16/sw/solutions/instaspin_foc/src/proj_lab09.c",line 
    1079 00000063 D018          MOVB      XAR0,#24              ; [CPU_] |595| 
    1080                      .dwpsn  file "C:/ti/motorware/motorware_1_01_00_16/sw/solutions/instaspin_foc/src/proj_lab09.c",line 
    1081 00000064 1E32-         MOVL      @_gMotorVars+50,ACC   ; [CPU_] |592| 
    1082                      .dwpsn  file "C:/ti/motorware/motorware_1_01_00_16/sw/solutions/instaspin_foc/src/proj_lab09.c",line 
TMS320C2000 Assembler PC v6.4.10 Mon Jul 11 12:58:34 2016

Tools Copyright (c) 1996-2015 Texas Instruments Incorporated
C:\Users\bee25\AppData\Local\Temp\2398010                            PAGE   22

    1083 00000065 8A92          MOVL      XAR4,*+XAR2[AR0]      ; [CPU_] |595| 
    1084              $C$DW$169       .dwtag  DW_TAG_TI_branch
    1085                      .dwattr $C$DW$169, DW_AT_low_pc(0x00)
    1086                      .dwattr $C$DW$169, DW_AT_name("_EST_getLs_q_H")
    1087                      .dwattr $C$DW$169, DW_AT_TI_call
    1088 00000066 7640!         LCR       #_EST_getLs_q_H       ; [CPU_] |595| 
         00000067 0000 
    1089                      ; call occurs [#_EST_getLs_q_H] ; [] |595| 
    1090 00000068 761F-         MOVW      DP,#_gMotorVars+52    ; [CPU_U] 
         00000069 0002 
    1091                      .dwpsn  file "C:/ti/motorware/motorware_1_01_00_16/sw/solutions/instaspin_foc/src/proj_lab09.c",line 
    1092 0000006a D018          MOVB      XAR0,#24              ; [CPU_] |598| 
    1093                      .dwpsn  file "C:/ti/motorware/motorware_1_01_00_16/sw/solutions/instaspin_foc/src/proj_lab09.c",line 
    1094 0000006b 1E34-         MOVL      @_gMotorVars+52,ACC   ; [CPU_] |595| 
    1095                      .dwpsn  file "C:/ti/motorware/motorware_1_01_00_16/sw/solutions/instaspin_foc/src/proj_lab09.c",line 
    1096 0000006c 8A92          MOVL      XAR4,*+XAR2[AR0]      ; [CPU_] |598| 
    1097              $C$DW$170       .dwtag  DW_TAG_TI_branch
    1098                      .dwattr $C$DW$170, DW_AT_low_pc(0x00)
    1099                      .dwattr $C$DW$170, DW_AT_name("_EST_getFlux_VpHz")
    1100                      .dwattr $C$DW$170, DW_AT_TI_call
    1101 0000006d 7640!         LCR       #_EST_getFlux_VpHz    ; [CPU_] |598| 
         0000006e 0000 
    1102                      ; call occurs [#_EST_getFlux_VpHz] ; [] |598| 
    1103 0000006f 761F-         MOVW      DP,#_gMotorVars+54    ; [CPU_U] 
         00000070 0002 
    1104 00000071 1E36-         MOVL      @_gMotorVars+54,ACC   ; [CPU_] |598| 
    1105                      .dwpsn  file "C:/ti/motorware/motorware_1_01_00_16/sw/solutions/instaspin_foc/src/proj_lab09.c",line 
    1106 00000072 8AA2          MOVL      XAR4,XAR2             ; [CPU_] |601| 
    1107 00000073 761F-         MOVW      DP,#_gFlux_pu_to_Wb_sf ; [CPU_U] 
         00000074 0000 
    1108 00000075 0610-         MOVL      ACC,@_gFlux_pu_to_Wb_sf ; [CPU_] |601| 
    1109              $C$DW$171       .dwtag  DW_TAG_TI_branch
    1110                      .dwattr $C$DW$171, DW_AT_low_pc(0x00)
    1111                      .dwattr $C$DW$171, DW_AT_name("_USER_computeFlux")
    1112                      .dwattr $C$DW$171, DW_AT_TI_call
    1113 00000076 7640!         LCR       #_USER_computeFlux    ; [CPU_] |601| 
         00000077 0000 
    1114                      ; call occurs [#_USER_computeFlux] ; [] |601| 
    1115 00000078 761F-         MOVW      DP,#_gMotorVars+38    ; [CPU_U] 
         00000079 0002 
    1116                      .dwpsn  file "C:/ti/motorware/motorware_1_01_00_16/sw/solutions/instaspin_foc/src/proj_lab09.c",line 
    1117 0000007a D018          MOVB      XAR0,#24              ; [CPU_] |607| 
    1118                      .dwpsn  file "C:/ti/motorware/motorware_1_01_00_16/sw/solutions/instaspin_foc/src/proj_lab09.c",line 
    1119 0000007b 1E26-         MOVL      @_gMotorVars+38,ACC   ; [CPU_] |601| 
    1120                      .dwpsn  file "C:/ti/motorware/motorware_1_01_00_16/sw/solutions/instaspin_foc/src/proj_lab09.c",line 
    1121 0000007c 92E2          MOV       AL,*+XAR2[4]          ; [CPU_] |604| 
    1122 0000007d 960A-         MOV       @_gMotorVars+10,AL    ; [CPU_] |604| 
    1123                      .dwpsn  file "C:/ti/motorware/motorware_1_01_00_16/sw/solutions/instaspin_foc/src/proj_lab09.c",line 
    1124 0000007e 8A92          MOVL      XAR4,*+XAR2[AR0]      ; [CPU_] |607| 
    1125              $C$DW$172       .dwtag  DW_TAG_TI_branch
    1126                      .dwattr $C$DW$172, DW_AT_low_pc(0x00)
    1127                      .dwattr $C$DW$172, DW_AT_name("_EST_getState")
    1128                      .dwattr $C$DW$172, DW_AT_TI_call
    1129 0000007f 7640!         LCR       #_EST_getState        ; [CPU_] |607| 
         00000080 0000 
TMS320C2000 Assembler PC v6.4.10 Mon Jul 11 12:58:34 2016

Tools Copyright (c) 1996-2015 Texas Instruments Incorporated
C:\Users\bee25\AppData\Local\Temp\2398010                            PAGE   23

    1130                      ; call occurs [#_EST_getState] ; [] |607| 
    1131 00000081 761F-         MOVW      DP,#_gMotorVars+11    ; [CPU_U] 
         00000082 0002 
    1132 00000083 960B-         MOV       @_gMotorVars+11,AL    ; [CPU_] |607| 
    1133 00000084 761F-         MOVW      DP,#_ctrlHandle       ; [CPU_U] 
         00000085 0000 
    1134                      .dwpsn  file "C:/ti/motorware/motorware_1_01_00_16/sw/solutions/instaspin_foc/src/proj_lab09.c",line 
    1135 00000086 8A06-         MOVL      XAR4,@_ctrlHandle     ; [CPU_] |610| 
    1136 00000087 D0C0          MOVB      XAR0,#192             ; [CPU_] |610| 
    1137 00000088 761F-         MOVW      DP,#_gMotorVars+76    ; [CPU_U] 
         00000089 0003 
    1138 0000008a 0694          MOVL      ACC,*+XAR4[AR0]       ; [CPU_] |610| 
    1139                      .dwpsn  file "C:/ti/motorware/motorware_1_01_00_16/sw/solutions/instaspin_foc/src/proj_lab09.c",line 
    1140 0000008b D0C2          MOVB      XAR0,#194             ; [CPU_] |611| 
    1141                      .dwpsn  file "C:/ti/motorware/motorware_1_01_00_16/sw/solutions/instaspin_foc/src/proj_lab09.c",line 
    1142 0000008c 1E0C-         MOVL      @_gMotorVars+76,ACC   ; [CPU_] |610| 
    1143                      .dwpsn  file "C:/ti/motorware/motorware_1_01_00_16/sw/solutions/instaspin_foc/src/proj_lab09.c",line 
    1144 0000008d 0694          MOVL      ACC,*+XAR4[AR0]       ; [CPU_] |611| 
    1145 0000008e 1E0E-         MOVL      @_gMotorVars+78,ACC   ; [CPU_] |611| 
    1146                      .dwpsn  file "C:/ti/motorware/motorware_1_01_00_16/sw/solutions/instaspin_foc/src/proj_lab09.c",line 
    1147 0000008f 870C-         MOVL      XT,@_gMotorVars+76    ; [CPU_] |614| 
    1148 00000090 5605-         IMPYL     P,XT,@_gMotorVars+76  ; [CPU_] |614| 
         00000091 000C 
    1149 00000092 5663-         QMPYL     ACC,XT,@_gMotorVars+76 ; [CPU_] |614| 
         00000093 000C 
    1150 00000094 56A7          LSL64     ACC:P,#8              ; [CPU_] |614| 
    1151 00000095 1EA6          MOVL      XAR6,ACC              ; [CPU_] |614| 
    1152 00000096 870E-         MOVL      XT,@_gMotorVars+78    ; [CPU_] |614| 
    1153 00000097 5605-         IMPYL     P,XT,@_gMotorVars+78  ; [CPU_] |614| 
         00000098 000E 
    1154 00000099 5663-         QMPYL     ACC,XT,@_gMotorVars+78 ; [CPU_] |614| 
         0000009a 000E 
    1155 0000009b 56A7          LSL64     ACC:P,#8              ; [CPU_] |614| 
    1156 0000009c 07A6          ADDL      ACC,XAR6              ; [CPU_] |614| 
    1157              $C$DW$173       .dwtag  DW_TAG_TI_branch
    1158                      .dwattr $C$DW$173, DW_AT_low_pc(0x00)
    1159                      .dwattr $C$DW$173, DW_AT_name("__IQ24sqrt")
    1160                      .dwattr $C$DW$173, DW_AT_TI_call
    1161 0000009d 7640!         LCR       #__IQ24sqrt           ; [CPU_] |614| 
         0000009e 0000 
    1162                      ; call occurs [#__IQ24sqrt] ; [] |614| 
    1163 0000009f 761F-         MOVW      DP,#_gMotorVars+80    ; [CPU_U] 
         000000a0 0003 
    1164 000000a1 1E10-         MOVL      @_gMotorVars+80,ACC   ; [CPU_] |614| 
    1165 000000a2 761F-         MOVW      DP,#_ctrlHandle       ; [CPU_U] 
         000000a3 0000 
    1166                      .dwpsn  file "C:/ti/motorware/motorware_1_01_00_16/sw/solutions/instaspin_foc/src/proj_lab09.c",line 
    1167 000000a4 8A06-         MOVL      XAR4,@_ctrlHandle     ; [CPU_] |617| 
    1168 000000a5 D0B2          MOVB      XAR0,#178             ; [CPU_] |617| 
    1169 000000a6 FF2F          MOV       ACC,#10240 << 15      ; [CPU_] |617| 
         000000a7 2800 
    1170 000000a8 761F-         MOVW      DP,#_gMotorVars+86    ; [CPU_U] 
         000000a9 0003 
    1171 000000aa 8794          MOVL      XT,*+XAR4[AR0]        ; [CPU_] |617| 
    1172                      .dwpsn  file "C:/ti/motorware/motorware_1_01_00_16/sw/solutions/instaspin_foc/src/proj_lab09.c",line 
TMS320C2000 Assembler PC v6.4.10 Mon Jul 11 12:58:34 2016

Tools Copyright (c) 1996-2015 Texas Instruments Incorporated
C:\Users\bee25\AppData\Local\Temp\2398010                            PAGE   24

    1173 000000ab D0B4          MOVB      XAR0,#180             ; [CPU_] |618| 
    1174                      .dwpsn  file "C:/ti/motorware/motorware_1_01_00_16/sw/solutions/instaspin_foc/src/proj_lab09.c",line 
    1175 000000ac 5605          IMPYL     P,XT,ACC              ; [CPU_] |617| 
         000000ad 00A9 
    1176 000000ae 5663          QMPYL     ACC,XT,ACC            ; [CPU_] |617| 
         000000af 00A9 
    1177 000000b0 56A7          LSL64     ACC:P,#8              ; [CPU_] |617| 
    1178 000000b1 1E16-         MOVL      @_gMotorVars+86,ACC   ; [CPU_] |617| 
    1179                      .dwpsn  file "C:/ti/motorware/motorware_1_01_00_16/sw/solutions/instaspin_foc/src/proj_lab09.c",line 
    1180 000000b2 FF2F          MOV       ACC,#10240 << 15      ; [CPU_] |618| 
         000000b3 2800 
    1181 000000b4 8794          MOVL      XT,*+XAR4[AR0]        ; [CPU_] |618| 
    1182 000000b5 5605          IMPYL     P,XT,ACC              ; [CPU_] |618| 
         000000b6 00A9 
    1183 000000b7 5663          QMPYL     ACC,XT,ACC            ; [CPU_] |618| 
         000000b8 00A9 
    1184 000000b9 56A7          LSL64     ACC:P,#8              ; [CPU_] |618| 
    1185 000000ba 1E18-         MOVL      @_gMotorVars+88,ACC   ; [CPU_] |618| 
    1186                      .dwpsn  file "C:/ti/motorware/motorware_1_01_00_16/sw/solutions/instaspin_foc/src/proj_lab09.c",line 
    1187 000000bb 8716-         MOVL      XT,@_gMotorVars+86    ; [CPU_] |621| 
    1188 000000bc 5605-         IMPYL     P,XT,@_gMotorVars+86  ; [CPU_] |621| 
         000000bd 0016 
    1189 000000be 5663-         QMPYL     ACC,XT,@_gMotorVars+86 ; [CPU_] |621| 
         000000bf 0016 
    1190 000000c0 56A7          LSL64     ACC:P,#8              ; [CPU_] |621| 
    1191 000000c1 8718-         MOVL      XT,@_gMotorVars+88    ; [CPU_] |621| 
    1192 000000c2 1EA6          MOVL      XAR6,ACC              ; [CPU_] |621| 
    1193 000000c3 5605-         IMPYL     P,XT,@_gMotorVars+88  ; [CPU_] |621| 
         000000c4 0018 
    1194 000000c5 5663-         QMPYL     ACC,XT,@_gMotorVars+88 ; [CPU_] |621| 
         000000c6 0018 
    1195 000000c7 56A7          LSL64     ACC:P,#8              ; [CPU_] |621| 
    1196 000000c8 07A6          ADDL      ACC,XAR6              ; [CPU_] |621| 
    1197              $C$DW$174       .dwtag  DW_TAG_TI_branch
    1198                      .dwattr $C$DW$174, DW_AT_low_pc(0x00)
    1199                      .dwattr $C$DW$174, DW_AT_name("__IQ24sqrt")
    1200                      .dwattr $C$DW$174, DW_AT_TI_call
    1201 000000c9 7640!         LCR       #__IQ24sqrt           ; [CPU_] |621| 
         000000ca 0000 
    1202                      ; call occurs [#__IQ24sqrt] ; [] |621| 
    1203 000000cb 761F-         MOVW      DP,#_gMotorVars+90    ; [CPU_U] 
         000000cc 0003 
    1204                      .dwpsn  file "C:/ti/motorware/motorware_1_01_00_16/sw/solutions/instaspin_foc/src/proj_lab09.c",line 
    1205 000000cd 8F27          MOVL      XAR4,#2583691         ; [CPU_U] |624| 
         000000ce 6C8B 
    1206                      .dwpsn  file "C:/ti/motorware/motorware_1_01_00_16/sw/solutions/instaspin_foc/src/proj_lab09.c",line 
    1207 000000cf 1E1A-         MOVL      @_gMotorVars+90,ACC   ; [CPU_] |621| 
    1208 000000d0 761F-         MOVW      DP,#_gAdcData+12      ; [CPU_U] 
         000000d1 0000 
    1209                      .dwpsn  file "C:/ti/motorware/motorware_1_01_00_16/sw/solutions/instaspin_foc/src/proj_lab09.c",line 
    1210 000000d2 8726-         MOVL      XT,@_gAdcData+12      ; [CPU_] |624| 
    1211 000000d3 5605          IMPYL     P,XT,XAR4             ; [CPU_] |624| 
         000000d4 00A4 
    1212 000000d5 5663          QMPYL     ACC,XT,XAR4           ; [CPU_] |624| 
         000000d6 00A4 
TMS320C2000 Assembler PC v6.4.10 Mon Jul 11 12:58:34 2016

Tools Copyright (c) 1996-2015 Texas Instruments Incorporated
C:\Users\bee25\AppData\Local\Temp\2398010                            PAGE   25

    1213 000000d7 FE82          SUBB      SP,#2                 ; [CPU_U] 
    1214                      .dwcfi  cfa_offset, -6
    1215 000000d8 56A7          LSL64     ACC:P,#8              ; [CPU_] |624| 
    1216 000000d9 86BE          MOVL      XAR2,*--SP            ; [CPU_] 
    1217                      .dwcfi  cfa_offset, -4
    1218                      .dwcfi  restore_reg, 9
    1219 000000da 8BBE          MOVL      XAR1,*--SP            ; [CPU_] 
    1220                      .dwcfi  cfa_offset, -2
    1221                      .dwcfi  restore_reg, 7
    1222 000000db 761F-         MOVW      DP,#_gMotorVars+84    ; [CPU_U] 
         000000dc 0003 
    1223 000000dd 1E14-         MOVL      @_gMotorVars+84,ACC   ; [CPU_] |624| 
    1224              $C$DW$175       .dwtag  DW_TAG_TI_branch
    1225                      .dwattr $C$DW$175, DW_AT_low_pc(0x00)
    1226                      .dwattr $C$DW$175, DW_AT_TI_return
    1227 000000de 0006          LRETR     ; [CPU_] 
    1228                      ; return occurs ; [] 
    1229                      .dwattr $C$DW$159, DW_AT_TI_end_file("C:/ti/motorware/motorware_1_01_00_16/sw/solutions/instaspin_foc
    1230                      .dwattr $C$DW$159, DW_AT_TI_end_line(0x273)
    1231                      .dwattr $C$DW$159, DW_AT_TI_end_column(0x01)
    1232                      .dwendentry
    1233                      .dwendtag $C$DW$159
    1234              
    1235 00000000               .sect   "ramfuncs:retain"
    1236                      .retain
    1237                      .retainrefs
    1238                      .global _mainISR
    1239              
    1240              $C$DW$176       .dwtag  DW_TAG_subprogram, DW_AT_name("mainISR")
    1241                      .dwattr $C$DW$176, DW_AT_low_pc(_mainISR)
    1242                      .dwattr $C$DW$176, DW_AT_high_pc(0x00)
    1243                      .dwattr $C$DW$176, DW_AT_TI_symbol_name("_mainISR")
    1244                      .dwattr $C$DW$176, DW_AT_external
    1245                      .dwattr $C$DW$176, DW_AT_TI_begin_file("C:/ti/motorware/motorware_1_01_00_16/sw/solutions/instaspin_f
    1246                      .dwattr $C$DW$176, DW_AT_TI_begin_line(0x1fb)
    1247                      .dwattr $C$DW$176, DW_AT_TI_begin_column(0x10)
    1248                      .dwattr $C$DW$176, DW_AT_TI_interrupt
    1249                      .dwattr $C$DW$176, DW_AT_TI_max_frame_size(-18)
    1250                      .dwpsn  file "C:/ti/motorware/motorware_1_01_00_16/sw/solutions/instaspin_foc/src/proj_lab09.c",line 
    1251              
    1252                      .dwfde $C$DW$CIE, _mainISR
    1253              
    1254              ;***************************************************************
    1255              ;* FNAME: _mainISR                      FR SIZE:  16           *
    1256              ;*                                                             *
    1257              ;* FUNCTION ENVIRONMENT                                        *
    1258              ;*                                                             *
    1259              ;* FUNCTION PROPERTIES                                         *
    1260              ;*                            4 Parameter,  0 Auto, 12 SOE     *
    1261              ;***************************************************************
    1262              
    1263              _mainISR:
    1264              ;* AL    assigned to $O$C5
    1265              ;* AR5   assigned to $O$C6
    1266              ;* AR1   assigned to $O$C7
TMS320C2000 Assembler PC v6.4.10 Mon Jul 11 12:58:34 2016

Tools Copyright (c) 1996-2015 Texas Instruments Incorporated
C:\Users\bee25\AppData\Local\Temp\2398010                            PAGE   26

    1267              ;* AR4   assigned to $O$C8
    1268              ;* AR6   assigned to $O$C9
    1269              ;* AR7   assigned to $O$C10
    1270              ;* AR7   assigned to $O$C11
    1271              ;* AR4   assigned to $O$v3
    1272              ;* AR4   assigned to $O$v2
    1273              ;* AR5   assigned to $O$v1
    1274              ;* AL    assigned to _value
    1275              $C$DW$177       .dwtag  DW_TAG_variable, DW_AT_name("value")
    1276                      .dwattr $C$DW$177, DW_AT_TI_symbol_name("_value")
    1277                      .dwattr $C$DW$177, DW_AT_type(*$C$DW$T$47)
    1278                      .dwattr $C$DW$177, DW_AT_location[DW_OP_reg0]
    1279              ;* XT    assigned to _value
    1280              $C$DW$178       .dwtag  DW_TAG_variable, DW_AT_name("value")
    1281                      .dwattr $C$DW$178, DW_AT_TI_symbol_name("_value")
    1282                      .dwattr $C$DW$178, DW_AT_type(*$C$DW$T$47)
    1283                      .dwattr $C$DW$178, DW_AT_location[DW_OP_reg21]
    1284              ;* XT    assigned to _value
    1285              $C$DW$179       .dwtag  DW_TAG_variable, DW_AT_name("value")
    1286                      .dwattr $C$DW$179, DW_AT_TI_symbol_name("_value")
    1287                      .dwattr $C$DW$179, DW_AT_type(*$C$DW$T$47)
    1288                      .dwattr $C$DW$179, DW_AT_location[DW_OP_reg21]
    1289              ;* XT    assigned to _value
    1290              $C$DW$180       .dwtag  DW_TAG_variable, DW_AT_name("value")
    1291                      .dwattr $C$DW$180, DW_AT_TI_symbol_name("_value")
    1292                      .dwattr $C$DW$180, DW_AT_type(*$C$DW$T$47)
    1293                      .dwattr $C$DW$180, DW_AT_location[DW_OP_reg21]
    1294              ;* XT    assigned to _value
    1295              $C$DW$181       .dwtag  DW_TAG_variable, DW_AT_name("value")
    1296                      .dwattr $C$DW$181, DW_AT_TI_symbol_name("_value")
    1297                      .dwattr $C$DW$181, DW_AT_type(*$C$DW$T$47)
    1298                      .dwattr $C$DW$181, DW_AT_location[DW_OP_reg21]
    1299              ;* XT    assigned to _value
    1300              $C$DW$182       .dwtag  DW_TAG_variable, DW_AT_name("value")
    1301                      .dwattr $C$DW$182, DW_AT_TI_symbol_name("_value")
    1302                      .dwattr $C$DW$182, DW_AT_type(*$C$DW$T$47)
    1303                      .dwattr $C$DW$182, DW_AT_location[DW_OP_reg21]
    1304              ;* XT    assigned to _value
    1305              $C$DW$183       .dwtag  DW_TAG_variable, DW_AT_name("value")
    1306                      .dwattr $C$DW$183, DW_AT_TI_symbol_name("_value")
    1307                      .dwattr $C$DW$183, DW_AT_type(*$C$DW$T$47)
    1308                      .dwattr $C$DW$183, DW_AT_location[DW_OP_reg21]
    1309              ;* XT    assigned to _value
    1310              $C$DW$184       .dwtag  DW_TAG_variable, DW_AT_name("value")
    1311                      .dwattr $C$DW$184, DW_AT_TI_symbol_name("_value")
    1312                      .dwattr $C$DW$184, DW_AT_type(*$C$DW$T$47)
    1313                      .dwattr $C$DW$184, DW_AT_location[DW_OP_reg21]
    1314              ;* AR7   assigned to _refValue
    1315              $C$DW$185       .dwtag  DW_TAG_variable, DW_AT_name("refValue")
    1316                      .dwattr $C$DW$185, DW_AT_TI_symbol_name("_refValue")
    1317                      .dwattr $C$DW$185, DW_AT_type(*$C$DW$T$47)
    1318                      .dwattr $C$DW$185, DW_AT_location[DW_OP_reg18]
    1319              ;* AR6   assigned to _fbackValue
    1320              $C$DW$186       .dwtag  DW_TAG_variable, DW_AT_name("fbackValue")
    1321                      .dwattr $C$DW$186, DW_AT_TI_symbol_name("_fbackValue")
TMS320C2000 Assembler PC v6.4.10 Mon Jul 11 12:58:34 2016

Tools Copyright (c) 1996-2015 Texas Instruments Incorporated
C:\Users\bee25\AppData\Local\Temp\2398010                            PAGE   27

    1322                      .dwattr $C$DW$186, DW_AT_type(*$C$DW$T$47)
    1323                      .dwattr $C$DW$186, DW_AT_location[DW_OP_reg16]
    1324              ;* AL    assigned to _Id_ref_pu
    1325              $C$DW$187       .dwtag  DW_TAG_variable, DW_AT_name("Id_ref_pu")
    1326                      .dwattr $C$DW$187, DW_AT_TI_symbol_name("_Id_ref_pu")
    1327                      .dwattr $C$DW$187, DW_AT_type(*$C$DW$T$47)
    1328                      .dwattr $C$DW$187, DW_AT_location[DW_OP_reg0]
    1329              ;* AR5   assigned to _delta_dec
    1330              $C$DW$188       .dwtag  DW_TAG_variable, DW_AT_name("delta_dec")
    1331                      .dwattr $C$DW$188, DW_AT_TI_symbol_name("_delta_dec")
    1332                      .dwattr $C$DW$188, DW_AT_type(*$C$DW$T$47)
    1333                      .dwattr $C$DW$188, DW_AT_location[DW_OP_reg14]
    1334              ;* PL    assigned to _output
    1335              $C$DW$189       .dwtag  DW_TAG_variable, DW_AT_name("output")
    1336                      .dwattr $C$DW$189, DW_AT_TI_symbol_name("_output")
    1337                      .dwattr $C$DW$189, DW_AT_type(*$C$DW$T$47)
    1338                      .dwattr $C$DW$189, DW_AT_location[DW_OP_reg2]
    1339              ;* AR4   assigned to _fw
    1340              $C$DW$190       .dwtag  DW_TAG_variable, DW_AT_name("fw")
    1341                      .dwattr $C$DW$190, DW_AT_TI_symbol_name("_fw")
    1342                      .dwattr $C$DW$190, DW_AT_type(*$C$DW$T$263)
    1343                      .dwattr $C$DW$190, DW_AT_location[DW_OP_reg12]
    1344              ;* AR6   assigned to _fbackValue
    1345              $C$DW$191       .dwtag  DW_TAG_variable, DW_AT_name("fbackValue")
    1346                      .dwattr $C$DW$191, DW_AT_TI_symbol_name("_fbackValue")
    1347                      .dwattr $C$DW$191, DW_AT_type(*$C$DW$T$47)
    1348                      .dwattr $C$DW$191, DW_AT_location[DW_OP_reg16]
    1349              ;* AR7   assigned to _refValue
    1350              $C$DW$192       .dwtag  DW_TAG_variable, DW_AT_name("refValue")
    1351                      .dwattr $C$DW$192, DW_AT_TI_symbol_name("_refValue")
    1352                      .dwattr $C$DW$192, DW_AT_type(*$C$DW$T$47)
    1353                      .dwattr $C$DW$192, DW_AT_location[DW_OP_reg18]
    1354              ;* AR7   assigned to _period
    1355              $C$DW$193       .dwtag  DW_TAG_variable, DW_AT_name("period")
    1356                      .dwattr $C$DW$193, DW_AT_TI_symbol_name("_period")
    1357                      .dwattr $C$DW$193, DW_AT_type(*$C$DW$T$47)
    1358                      .dwattr $C$DW$193, DW_AT_location[DW_OP_reg18]
    1359              ;* AR5   assigned to _obj
    1360              $C$DW$194       .dwtag  DW_TAG_variable, DW_AT_name("obj")
    1361                      .dwattr $C$DW$194, DW_AT_TI_symbol_name("_obj")
    1362                      .dwattr $C$DW$194, DW_AT_type(*$C$DW$T$274)
    1363                      .dwattr $C$DW$194, DW_AT_location[DW_OP_reg14]
    1364              ;* AR1   assigned to $O$U112
    1365              ;* AR4   assigned to $O$U104
    1366                      .dwcfi  cfa_offset, -2
    1367                      .dwcfi  save_reg_to_mem, 26, 0
    1368 00000000 761B          ASP       ; [CPU_] 
    1369 00000001 0005          PUSH      AR1H:AR0H             ; [CPU_] 
    1370                      .dwcfi  save_reg_to_mem, 5, 2
    1371                      .dwcfi  save_reg_to_mem, 7, 3
    1372                      .dwcfi  cfa_offset, -4
    1373 00000002 ABBD          MOVL      *SP++,XT              ; [CPU_] 
    1374                      .dwcfi  save_reg_to_mem, 21, 4
    1375                      .dwcfi  save_reg_to_mem, 22, 5
    1376                      .dwcfi  cfa_offset, -6
TMS320C2000 Assembler PC v6.4.10 Mon Jul 11 12:58:34 2016

Tools Copyright (c) 1996-2015 Texas Instruments Incorporated
C:\Users\bee25\AppData\Local\Temp\2398010                            PAGE   28

    1377 00000003 A8BD          MOVL      *SP++,XAR4            ; [CPU_] 
    1378                      .dwcfi  save_reg_to_mem, 12, 6
    1379                      .dwcfi  save_reg_to_mem, 13, 7
    1380                      .dwcfi  cfa_offset, -8
    1381 00000004 A0BD          MOVL      *SP++,XAR5            ; [CPU_] 
    1382                      .dwcfi  save_reg_to_mem, 14, 8
    1383                      .dwcfi  save_reg_to_mem, 15, 9
    1384                      .dwcfi  cfa_offset, -10
    1385 00000005 C2BD          MOVL      *SP++,XAR6            ; [CPU_] 
    1386                      .dwcfi  save_reg_to_mem, 16, 10
    1387                      .dwcfi  save_reg_to_mem, 17, 11
    1388                      .dwcfi  cfa_offset, -12
    1389 00000006 C3BD          MOVL      *SP++,XAR7            ; [CPU_] 
    1390                      .dwcfi  save_reg_to_mem, 18, 12
    1391                      .dwcfi  save_reg_to_mem, 19, 13
    1392                      .dwcfi  cfa_offset, -14
    1393 00000007 FE04          ADDB      SP,#4                 ; [CPU_U] 
    1394                      .dwcfi  cfa_offset, -18
    1395 00000008 FF69          SPM       0                     ; [CPU_] 
    1396 00000009 2942          CLRC      PAGE0,OVM             ; [CPU_] 
    1397 0000000a 5616          CLRC      AMODE                 ; [CPU_] 
    1398 0000000b 761F-         MOVW      DP,#_gLEDcnt          ; [CPU_U] 
         0000000c 0000 
    1399                      .dwpsn  file "C:/ti/motorware/motorware_1_01_00_16/sw/solutions/instaspin_foc/src/proj_lab09.c",line 
    1400 0000000d 0A02-         INC       @_gLEDcnt             ; [CPU_] |510| 
    1401 0000000e 9202-         MOV       AL,@_gLEDcnt          ; [CPU_] |510| 
    1402 0000000f 9CFF          ADDB      AL,#-1                ; [CPU_] |510| 
    1403 00000010 1BA9          CMP       AL,#1333              ; [CPU_] |510| 
         00000011 0535 
    1404 00000012 56C9          BF        $C$L2,LOS             ; [CPU_] |510| 
         00000013 000E 
    1405                      ; branchcc occurs ; [] |510| 
    1406                      .dwpsn  file "C:/ti/motorware/motorware_1_01_00_16/sw/modules/hal/boards/boostxldrv8301_revB/f28x/f28
    1407 00000014 0208          MOVB      ACC,#8                ; [CPU_] |760| 
    1408 00000015 761F-         MOVW      DP,#_halHandle        ; [CPU_U] 
         00000016 0000 
    1409 00000017 0700-         ADDL      ACC,@_halHandle       ; [CPU_] |760| 
    1410 00000018 8AA9          MOVL      XAR4,ACC              ; [CPU_] |760| 
    1411 00000019 9A00          MOVB      AL,#0                 ; [CPU_] |760| 
    1412 0000001a 8AC4          MOVL      XAR4,*+XAR4[0]        ; [CPU_] |760| 
    1413              $C$DW$195       .dwtag  DW_TAG_TI_branch
    1414                      .dwattr $C$DW$195, DW_AT_low_pc(0x00)
    1415                      .dwattr $C$DW$195, DW_AT_name("_GPIO_toggle")
    1416                      .dwattr $C$DW$195, DW_AT_TI_call
    1417 0000001b 7640!         LCR       #_GPIO_toggle         ; [CPU_] |760| 
         0000001c 0000 
    1418                      ; call occurs [#_GPIO_toggle] ; [] |760| 
    1419 0000001d 761F-         MOVW      DP,#_gLEDcnt          ; [CPU_U] 
         0000001e 0000 
    1420                      .dwpsn  file "C:/ti/motorware/motorware_1_01_00_16/sw/solutions/instaspin_foc/src/proj_lab09.c",line 
    1421 0000001f 2B02-         MOV       @_gLEDcnt,#0          ; [CPU_] |513| 
    1422 00000020       $C$L2:    
    1423 00000020 761F-         MOVW      DP,#_halHandle        ; [CPU_U] 
         00000021 0000 
    1424                      .dwpsn  file "C:/ti/motorware/motorware_1_01_00_16/sw/solutions/instaspin_foc/src/proj_lab09.c",line 
TMS320C2000 Assembler PC v6.4.10 Mon Jul 11 12:58:34 2016

Tools Copyright (c) 1996-2015 Texas Instruments Incorporated
C:\Users\bee25\AppData\Local\Temp\2398010                            PAGE   29

    1425 00000022 8300-         MOVL      XAR5,@_halHandle      ; [CPU_] |518| 
    1426                      .dwpsn  file "C:/ti/motorware/motorware_1_01_00_16/sw/drivers/adc/src/32b/f28x/f2802x/adc.h",line 571
    1427 00000023 8F00          MOVL      XAR4,#26117           ; [CPU_U] |571| 
         00000024 6605 
    1428 00000025 A8A9          MOVL      ACC,XAR4              ; [CPU_] |571| 
    1429 00000026 07C5          ADDL      ACC,*+XAR5[0]         ; [CPU_] |571| 
    1430 00000027 8AA9          MOVL      XAR4,ACC              ; [CPU_] |571| 
    1431                      .dwpsn  file "C:/ti/motorware/motorware_1_01_00_16/sw/drivers/pie/src/32b/f28x/f2802x/pie.h",line 757
    1432 00000028 D078          MOVB      XAR0,#120             ; [CPU_] |757| 
    1433                      .dwpsn  file "C:/ti/motorware/motorware_1_01_00_16/sw/drivers/adc/src/32b/f28x/f2802x/adc.h",line 571
    1434 00000029 56BF          MOVB      *+XAR4[0],#1,UNC      ; [CPU_] |571| 
         0000002a 01C4 
    1435                      .dwpsn  file "C:/ti/motorware/motorware_1_01_00_16/sw/drivers/pie/src/32b/f28x/f2802x/pie.h",line 757
    1436 0000002b 8A95          MOVL      XAR4,*+XAR5[AR0]      ; [CPU_] |757| 
    1437                      .dwpsn  file "C:/ti/motorware/motorware_1_01_00_16/sw/modules/hal/boards/boostxldrv8301_revB/f28x/f28
    1438 0000002c D0A2          MOVB      XAR0,#162             ; [CPU_] |504| 
    1439                      .dwpsn  file "C:/ti/motorware/motorware_1_01_00_16/sw/drivers/pie/src/32b/f28x/f2802x/pie.h",line 757
    1440 0000002d 28CC          MOV       *+XAR4[1],#512        ; [CPU_] |757| 
         0000002e 0200 
    1441 0000002f 761F-         MOVW      DP,#_ctrlHandle       ; [CPU_U] 
         00000030 0000 
    1442                      .dwpsn  file "C:/ti/motorware/motorware_1_01_00_16/sw/drivers/adc/src/32b/f28x/f2802x/adc.h",line 684
    1443 00000031 C4C5          MOVL      XAR6,*+XAR5[0]        ; [CPU_] |684| 
    1444                      .dwpsn  file "C:/ti/motorware/motorware_1_01_00_16/sw/modules/hal/boards/boostxldrv8301_revB/f28x/f28
    1445 00000032 C595          MOVL      XAR7,*+XAR5[AR0]      ; [CPU_] |504| 
    1446                      .dwpsn  file "C:/ti/motorware/motorware_1_01_00_16/sw/modules/hal/boards/boostxldrv8301_revB/f28x/f28
    1447 00000033 8F00-         MOVL      XAR4,#_gAdcData       ; [CPU_U] |505| 
         00000034 001A 
    1448                      .dwpsn  file "C:/ti/motorware/motorware_1_01_00_16/sw/modules/hal/boards/boostxldrv8301_revB/f28x/f28
    1449 00000035 D092          MOVB      XAR0,#146             ; [CPU_] |504| 
    1450                      .dwpsn  file "C:/ti/motorware/motorware_1_01_00_16/sw/drivers/adc/src/32b/f28x/f2802x/adc.h",line 684
    1451 00000036 0ECE          MOVU      ACC,*+XAR6[1]         ; [CPU_] |684| 
    1452 00000037 1EAC          MOVL      XT,ACC                ; [CPU_] |684| 
    1453                      .dwpsn  file "C:/ti/motorware/motorware_1_01_00_16/sw/modules/hal/boards/boostxldrv8301_revB/f28x/f28
    1454 00000038 5605          IMPYL     P,XT,XAR7             ; [CPU_] |504| 
         00000039 00A7 
    1455 0000003a 5663          QMPYL     ACC,XT,XAR7           ; [CPU_] |504| 
         0000003b 00A7 
    1456 0000003c 568B          ASR64     ACC:P,#12             ; [CPU_] |504| 
    1457 0000003d A9A9          MOVL      ACC,P                 ; [CPU_] |504| 
    1458 0000003e 0395          SUBL      ACC,*+XAR5[AR0]       ; [CPU_] |504| 
    1459                      .dwpsn  file "C:/ti/motorware/motorware_1_01_00_16/sw/modules/hal/boards/boostxldrv8301_revB/f28x/f28
    1460 0000003f D094          MOVB      XAR0,#148             ; [CPU_] |509| 
    1461                      .dwpsn  file "C:/ti/motorware/motorware_1_01_00_16/sw/modules/hal/boards/boostxldrv8301_revB/f28x/f28
    1462 00000040 1EC4          MOVL      *+XAR4[0],ACC         ; [CPU_] |505| 
    1463                      .dwpsn  file "C:/ti/motorware/motorware_1_01_00_16/sw/drivers/adc/src/32b/f28x/f2802x/adc.h",line 684
    1464 00000041 0ED6          MOVU      ACC,*+XAR6[2]         ; [CPU_] |684| 
    1465 00000042 1EAC          MOVL      XT,ACC                ; [CPU_] |684| 
    1466                      .dwpsn  file "C:/ti/motorware/motorware_1_01_00_16/sw/modules/hal/boards/boostxldrv8301_revB/f28x/f28
    1467 00000043 5605          IMPYL     P,XT,XAR7             ; [CPU_] |509| 
         00000044 00A7 
    1468 00000045 5663          QMPYL     ACC,XT,XAR7           ; [CPU_] |509| 
         00000046 00A7 
    1469 00000047 568B          ASR64     ACC:P,#12             ; [CPU_] |509| 
    1470 00000048 A9A9          MOVL      ACC,P                 ; [CPU_] |509| 
TMS320C2000 Assembler PC v6.4.10 Mon Jul 11 12:58:34 2016

Tools Copyright (c) 1996-2015 Texas Instruments Incorporated
C:\Users\bee25\AppData\Local\Temp\2398010                            PAGE   30

    1471 00000049 0395          SUBL      ACC,*+XAR5[AR0]       ; [CPU_] |509| 
    1472                      .dwpsn  file "C:/ti/motorware/motorware_1_01_00_16/sw/modules/hal/boards/boostxldrv8301_revB/f28x/f28
    1473 0000004a D096          MOVB      XAR0,#150             ; [CPU_] |514| 
    1474                      .dwpsn  file "C:/ti/motorware/motorware_1_01_00_16/sw/modules/hal/boards/boostxldrv8301_revB/f28x/f28
    1475 0000004b 1ED4          MOVL      *+XAR4[2],ACC         ; [CPU_] |510| 
    1476                      .dwpsn  file "C:/ti/motorware/motorware_1_01_00_16/sw/drivers/adc/src/32b/f28x/f2802x/adc.h",line 684
    1477 0000004c 0EDE          MOVU      ACC,*+XAR6[3]         ; [CPU_] |684| 
    1478 0000004d 1EAC          MOVL      XT,ACC                ; [CPU_] |684| 
    1479                      .dwpsn  file "C:/ti/motorware/motorware_1_01_00_16/sw/modules/hal/boards/boostxldrv8301_revB/f28x/f28
    1480 0000004e 5605          IMPYL     P,XT,XAR7             ; [CPU_] |514| 
         0000004f 00A7 
    1481 00000050 5663          QMPYL     ACC,XT,XAR7           ; [CPU_] |514| 
         00000051 00A7 
    1482 00000052 568B          ASR64     ACC:P,#12             ; [CPU_] |514| 
    1483 00000053 A9A9          MOVL      ACC,P                 ; [CPU_] |514| 
    1484 00000054 0395          SUBL      ACC,*+XAR5[AR0]       ; [CPU_] |514| 
    1485                      .dwpsn  file "C:/ti/motorware/motorware_1_01_00_16/sw/modules/hal/boards/boostxldrv8301_revB/f28x/f28
    1486 00000055 D0A4          MOVB      XAR0,#164             ; [CPU_] |519| 
    1487                      .dwpsn  file "C:/ti/motorware/motorware_1_01_00_16/sw/modules/hal/boards/boostxldrv8301_revB/f28x/f28
    1488 00000056 1EE4          MOVL      *+XAR4[4],ACC         ; [CPU_] |515| 
    1489                      .dwpsn  file "C:/ti/motorware/motorware_1_01_00_16/sw/drivers/adc/src/32b/f28x/f2802x/adc.h",line 684
    1490 00000057 0EE6          MOVU      ACC,*+XAR6[4]         ; [CPU_] |684| 
    1491                      .dwpsn  file "C:/ti/motorware/motorware_1_01_00_16/sw/modules/hal/boards/boostxldrv8301_revB/f28x/f28
    1492 00000058 C595          MOVL      XAR7,*+XAR5[AR0]      ; [CPU_] |519| 
    1493                      .dwpsn  file "C:/ti/motorware/motorware_1_01_00_16/sw/solutions/instaspin_foc/src/proj_lab09.c",line 
    1494 00000059 8D40-         MOVL      XAR1,#_gPwmData       ; [CPU_U] |526| 
         0000005a 0014 
    1495                      .dwpsn  file "C:/ti/motorware/motorware_1_01_00_16/sw/drivers/adc/src/32b/f28x/f2802x/adc.h",line 684
    1496 0000005b 1EAC          MOVL      XT,ACC                ; [CPU_] |684| 
    1497                      .dwpsn  file "C:/ti/motorware/motorware_1_01_00_16/sw/modules/hal/boards/boostxldrv8301_revB/f28x/f28
    1498 0000005c D098          MOVB      XAR0,#152             ; [CPU_] |519| 
    1499 0000005d 5605          IMPYL     P,XT,XAR7             ; [CPU_] |519| 
         0000005e 00A7 
    1500 0000005f 5663          QMPYL     ACC,XT,XAR7           ; [CPU_] |519| 
         00000060 00A7 
    1501 00000061 568B          ASR64     ACC:P,#12             ; [CPU_] |519| 
    1502 00000062 A9A9          MOVL      ACC,P                 ; [CPU_] |519| 
    1503 00000063 0395          SUBL      ACC,*+XAR5[AR0]       ; [CPU_] |519| 
    1504                      .dwpsn  file "C:/ti/motorware/motorware_1_01_00_16/sw/modules/hal/boards/boostxldrv8301_revB/f28x/f28
    1505 00000064 D09A          MOVB      XAR0,#154             ; [CPU_] |524| 
    1506                      .dwpsn  file "C:/ti/motorware/motorware_1_01_00_16/sw/modules/hal/boards/boostxldrv8301_revB/f28x/f28
    1507 00000065 1EF4          MOVL      *+XAR4[6],ACC         ; [CPU_] |520| 
    1508                      .dwpsn  file "C:/ti/motorware/motorware_1_01_00_16/sw/drivers/adc/src/32b/f28x/f2802x/adc.h",line 684
    1509 00000066 0EEE          MOVU      ACC,*+XAR6[5]         ; [CPU_] |684| 
    1510 00000067 1EAC          MOVL      XT,ACC                ; [CPU_] |684| 
    1511                      .dwpsn  file "C:/ti/motorware/motorware_1_01_00_16/sw/modules/hal/boards/boostxldrv8301_revB/f28x/f28
    1512 00000068 5605          IMPYL     P,XT,XAR7             ; [CPU_] |524| 
         00000069 00A7 
    1513 0000006a 5663          QMPYL     ACC,XT,XAR7           ; [CPU_] |524| 
         0000006b 00A7 
    1514 0000006c 568B          ASR64     ACC:P,#12             ; [CPU_] |524| 
    1515 0000006d A9A9          MOVL      ACC,P                 ; [CPU_] |524| 
    1516 0000006e 0395          SUBL      ACC,*+XAR5[AR0]       ; [CPU_] |524| 
    1517                      .dwpsn  file "C:/ti/motorware/motorware_1_01_00_16/sw/modules/hal/boards/boostxldrv8301_revB/f28x/f28
    1518 0000006f D008          MOVB      XAR0,#8               ; [CPU_] |525| 
TMS320C2000 Assembler PC v6.4.10 Mon Jul 11 12:58:34 2016

Tools Copyright (c) 1996-2015 Texas Instruments Incorporated
C:\Users\bee25\AppData\Local\Temp\2398010                            PAGE   31

    1519 00000070 1E94          MOVL      *+XAR4[AR0],ACC       ; [CPU_] |525| 
    1520                      .dwpsn  file "C:/ti/motorware/motorware_1_01_00_16/sw/modules/hal/boards/boostxldrv8301_revB/f28x/f28
    1521 00000071 D09C          MOVB      XAR0,#156             ; [CPU_] |529| 
    1522                      .dwpsn  file "C:/ti/motorware/motorware_1_01_00_16/sw/drivers/adc/src/32b/f28x/f2802x/adc.h",line 684
    1523 00000072 0EF6          MOVU      ACC,*+XAR6[6]         ; [CPU_] |684| 
    1524 00000073 1EAC          MOVL      XT,ACC                ; [CPU_] |684| 
    1525                      .dwpsn  file "C:/ti/motorware/motorware_1_01_00_16/sw/modules/hal/boards/boostxldrv8301_revB/f28x/f28
    1526 00000074 5605          IMPYL     P,XT,XAR7             ; [CPU_] |529| 
         00000075 00A7 
    1527 00000076 5663          QMPYL     ACC,XT,XAR7           ; [CPU_] |529| 
         00000077 00A7 
    1528 00000078 568B          ASR64     ACC:P,#12             ; [CPU_] |529| 
    1529 00000079 A9A9          MOVL      ACC,P                 ; [CPU_] |529| 
    1530 0000007a 0395          SUBL      ACC,*+XAR5[AR0]       ; [CPU_] |529| 
    1531                      .dwpsn  file "C:/ti/motorware/motorware_1_01_00_16/sw/modules/hal/boards/boostxldrv8301_revB/f28x/f28
    1532 0000007b D00A          MOVB      XAR0,#10              ; [CPU_] |530| 
    1533 0000007c 1E94          MOVL      *+XAR4[AR0],ACC       ; [CPU_] |530| 
    1534                      .dwpsn  file "C:/ti/motorware/motorware_1_01_00_16/sw/modules/hal/boards/boostxldrv8301_revB/f28x/f28
    1535 0000007d D00C          MOVB      XAR0,#12              ; [CPU_] |535| 
    1536                      .dwpsn  file "C:/ti/motorware/motorware_1_01_00_16/sw/drivers/adc/src/32b/f28x/f2802x/adc.h",line 684
    1537 0000007e 0EFE          MOVU      ACC,*+XAR6[7]         ; [CPU_] |684| 
    1538 0000007f 1EAC          MOVL      XT,ACC                ; [CPU_] |684| 
    1539                      .dwpsn  file "C:/ti/motorware/motorware_1_01_00_16/sw/modules/hal/boards/boostxldrv8301_revB/f28x/f28
    1540 00000080 5605          IMPYL     P,XT,XAR7             ; [CPU_] |534| 
         00000081 00A7 
    1541 00000082 5663          QMPYL     ACC,XT,XAR7           ; [CPU_] |534| 
         00000083 00A7 
    1542 00000084 568B          ASR64     ACC:P,#12             ; [CPU_] |534| 
    1543                      .dwpsn  file "C:/ti/motorware/motorware_1_01_00_16/sw/modules/hal/boards/boostxldrv8301_revB/f28x/f28
    1544 00000085 A994          MOVL      *+XAR4[AR0],P         ; [CPU_] |535| 
    1545                      .dwpsn  file "C:/ti/motorware/motorware_1_01_00_16/sw/drivers/adc/src/32b/f28x/f2802x/adc.h",line 684
    1546 00000086 D008          MOVB      XAR0,#8               ; [CPU_] |684| 
    1547 00000087 0E96          MOVU      ACC,*+XAR6[AR0]       ; [CPU_] |684| 
    1548                      .dwpsn  file "C:/ti/motorware/motorware_1_01_00_16/sw/modules/hal/boards/boostxldrv8301_revB/f28x/f28
    1549 00000088 D00E          MOVB      XAR0,#14              ; [CPU_] |539| 
    1550 00000089 1E94          MOVL      *+XAR4[AR0],ACC       ; [CPU_] |539| 
    1551                      .dwpsn  file "C:/ti/motorware/motorware_1_01_00_16/sw/solutions/instaspin_foc/src/proj_lab09.c",line 
    1552 0000008a A842          MOVL      *-SP[2],XAR4          ; [CPU_] |526| 
    1553 0000008b 8A06-         MOVL      XAR4,@_ctrlHandle     ; [CPU_] |526| 
    1554 0000008c B244          MOVL      *-SP[4],XAR1          ; [CPU_] |526| 
    1555              $C$DW$196       .dwtag  DW_TAG_TI_branch
    1556                      .dwattr $C$DW$196, DW_AT_low_pc(0x00)
    1557                      .dwattr $C$DW$196, DW_AT_name("_CTRL_run")
    1558                      .dwattr $C$DW$196, DW_AT_TI_call
    1559 0000008d 7640!         LCR       #_CTRL_run            ; [CPU_] |526| 
         0000008e 0000 
    1560                      ; call occurs [#_CTRL_run] ; [] |526| 
    1561 0000008f 761F-         MOVW      DP,#_halHandle        ; [CPU_U] 
         00000090 0000 
    1562 00000091 027C          MOVB      ACC,#124              ; [CPU_] 
    1563 00000092 BE02          MOVB      XAR6,#2               ; [CPU_] 
    1564 00000093 0700-         ADDL      ACC,@_halHandle       ; [CPU_] 
    1565 00000094 8AA9          MOVL      XAR4,ACC              ; [CPU_] 
    1566 00000095 3B01          SETC      SXM                   ; [CPU_] 
    1567 00000096       $C$L3:    
TMS320C2000 Assembler PC v6.4.10 Mon Jul 11 12:58:34 2016

Tools Copyright (c) 1996-2015 Texas Instruments Incorporated
C:\Users\bee25\AppData\Local\Temp\2398010                            PAGE   32

    1568                      .dwpsn  file "C:/ti/motorware/motorware_1_01_00_16/sw/drivers/pwm/src/32b/f28x/f2802x/pwm.h",line 171
    1569 00000096 FF2F          MOV       ACC,#-512 << 15       ; [CPU_] |1717| 
         00000097 FE00 
    1570 00000098 8781          MOVL      XT,*XAR1++            ; [CPU_] |1717| 
    1571                      .dwpsn  file "C:/ti/motorware/motorware_1_01_00_16/sw/modules/hal/boards/boostxldrv8301_revB/f28x/f28
    1572 00000099 8384          MOVL      XAR5,*XAR4++          ; [CPU_] |1067| 
    1573                      .dwpsn  file "C:/ti/motorware/motorware_1_01_00_16/sw/drivers/pwm/src/32b/f28x/f2802x/pwm.h",line 171
    1574 0000009a 5605          IMPYL     P,XT,ACC              ; [CPU_] |1717| 
         0000009b 00A9 
    1575 0000009c 5663          QMPYL     ACC,XT,ACC            ; [CPU_] |1717| 
         0000009d 00A9 
    1576 0000009e 56A7          LSL64     ACC:P,#8              ; [CPU_] |1717| 
    1577 0000009f 2BAB          MOV       PL,#0                 ; [CPU_] |1717| 
    1578 000000a0 28AA          MOV       PH,#128               ; [CPU_] |1717| 
         000000a1 0080 
    1579 000000a2 A9A0          MOVL      XAR0,P                ; [CPU_] |1717| 
    1580                      .dwpsn  file "C:/ti/motorware/motorware_1_01_00_16/sw/modules/hal/boards/boostxldrv8301_revB/f28x/f28
    1581 000000a3 80ED          MOVZ      AR7,*+XAR5[5]         ; [CPU_] |1067| 
    1582                      .dwpsn  file "C:/ti/motorware/motorware_1_01_00_16/sw/drivers/pwm/src/32b/f28x/f2802x/pwm.h",line 171
    1583 000000a4 2BAB          MOV       PL,#0                 ; [CPU_] |1717| 
    1584 000000a5 28AA          MOV       PH,#65408             ; [CPU_] |1717| 
         000000a6 FF80 
    1585 000000a7 5650          MINL      ACC,XAR0              ; [CPU_] |1717| 
         000000a8 00A0 
    1586 000000a9 5661          MAXL      ACC,P                 ; [CPU_] |1717| 
         000000aa 00AB 
    1587 000000ab D009          MOVB      XAR0,#9               ; [CPU_] |1717| 
    1588 000000ac FF1F          ADD       ACC,#256 << 15        ; [CPU_] |1717| 
         000000ad 0100 
    1589 000000ae 1EAC          MOVL      XT,ACC                ; [CPU_] |1717| 
    1590 000000af 5605          IMPYL     P,XT,XAR7             ; [CPU_] |1717| 
         000000b0 00A7 
    1591 000000b1 5663          QMPYL     ACC,XT,XAR7           ; [CPU_] |1717| 
         000000b2 00A7 
    1592 000000b3 56A7          LSL64     ACC:P,#8              ; [CPU_] |1717| 
    1593 000000b4 3100          MOV       P,#0                  ; [CPU_] |1717| 
    1594 000000b5 5650          MINL      ACC,XAR7              ; [CPU_] |1717| 
         000000b6 00A7 
    1595 000000b7 5661          MAXL      ACC,P                 ; [CPU_] |1717| 
         000000b8 00AB 
    1596 000000b9 9695          MOV       *+XAR5[AR0],AL        ; [CPU_] |1717| 
    1597                      .dwpsn  file "C:/ti/motorware/motorware_1_01_00_16/sw/modules/hal/boards/boostxldrv8301_revB/f28x/f28
    1598 000000ba 000E          BANZ      $C$L3,AR6--           ; [CPU_] |1064| 
         000000bb FFDC 
    1599                      ; branchcc occurs ; [] |1064| 
    1600 000000bc 761F-         MOVW      DP,#_fwHandle         ; [CPU_U] 
         000000bd 0000 
    1601                      .dwpsn  file "C:/ti/motorware/motorware_1_01_00_16/sw/solutions/instaspin_foc/src/proj_lab09.c",line 
    1602 000000be 8A08-         MOVL      XAR4,@_fwHandle       ; [CPU_] |533| 
    1603 000000bf D012          MOVB      XAR0,#18              ; [CPU_] |533| 
    1604 000000c0 9294          MOV       AL,*+XAR4[AR0]        ; [CPU_] |533| 
    1605 000000c1 5201          CMPB      AL,#1                 ; [CPU_] |533| 
    1606 000000c2 ED3E          BF        $C$L7,NEQ             ; [CPU_] |533| 
    1607                      ; branchcc occurs ; [] |533| 
    1608                      .dwpsn  file "C:/ti/motorware/motorware_1_01_00_16/sw/modules/fw/src/32b/fw.h",line 214,column 3,is_s
TMS320C2000 Assembler PC v6.4.10 Mon Jul 11 12:58:34 2016

Tools Copyright (c) 1996-2015 Texas Instruments Incorporated
C:\Users\bee25\AppData\Local\Temp\2398010                            PAGE   33

    1609 000000c3 0201          MOVB      ACC,#1                ; [CPU_] |214| 
    1610 000000c4 5601          ADDL      *+XAR4[2],ACC         ; [CPU_] |214| 
         000000c5 00D4 
    1611                      .dwpsn  file "C:/ti/motorware/motorware_1_01_00_16/sw/solutions/instaspin_foc/src/proj_lab09.c",line 
    1612 000000c6 06C4          MOVL      ACC,*+XAR4[0]         ; [CPU_] |537| 
    1613 000000c7 0FD4          CMPL      ACC,*+XAR4[2]         ; [CPU_] |537| 
    1614 000000c8 56C7          BF        $C$L6,HIS             ; [CPU_] |537| 
         000000c9 0036 
    1615                      ; branchcc occurs ; [] |537| 
    1616                      .dwpsn  file "C:/ti/motorware/motorware_1_01_00_16/sw/modules/fw/src/32b/fw.h",line 202,column 3,is_s
    1617 000000ca 0200          MOVB      ACC,#0                ; [CPU_] |202| 
    1618 000000cb 761F-         MOVW      DP,#_gMotorVars+82    ; [CPU_U] 
         000000cc 0003 
    1619                      .dwpsn  file "C:/ti/motorware/motorware_1_01_00_16/sw/modules/fw/src/32b/fw.h",line 288,column 14,is_
    1620 000000cd D00C          MOVB      XAR0,#12              ; [CPU_] |288| 
    1621                      .dwpsn  file "C:/ti/motorware/motorware_1_01_00_16/sw/modules/fw/src/32b/fw.h",line 202,column 3,is_s
    1622 000000ce 1ED4          MOVL      *+XAR4[2],ACC         ; [CPU_] |202| 
    1623                      .dwpsn  file "C:/ti/motorware/motorware_1_01_00_16/sw/solutions/instaspin_foc/src/proj_lab09.c",line 
    1624 000000cf C512-         MOVL      XAR7,@_gMotorVars+82  ; [CPU_] |545| 
    1625                      .dwpsn  file "C:/ti/motorware/motorware_1_01_00_16/sw/solutions/instaspin_foc/src/proj_lab09.c",line 
    1626 000000d0 C410-         MOVL      XAR6,@_gMotorVars+80  ; [CPU_] |547| 
    1627                      .dwpsn  file "C:/ti/motorware/motorware_1_01_00_16/sw/modules/fw/src/32b/fw.h",line 288,column 14,is_
    1628 000000d1 A394          MOVL      P,*+XAR4[AR0]         ; [CPU_] |288| 
    1629                      .dwpsn  file "C:/ti/motorware/motorware_1_01_00_16/sw/modules/fw/src/32b/fw.h",line 290,column 17,is_
    1630 000000d2 83E4          MOVL      XAR5,*+XAR4[4]        ; [CPU_] |290| 
    1631                      .dwpsn  file "C:/ti/motorware/motorware_1_01_00_16/sw/modules/fw/src/32b/fw.h",line 295,column 3,is_s
    1632 000000d3 06A7          MOVL      ACC,XAR7              ; [CPU_] |295| 
    1633 000000d4 03A6          SUBL      ACC,XAR6              ; [CPU_] |295| 
    1634 000000d5 56C4          BF        $C$L4,LT              ; [CPU_] |295| 
         000000d6 0008 
    1635                      ; branchcc occurs ; [] |295| 
    1636                      .dwpsn  file "C:/ti/motorware/motorware_1_01_00_16/sw/modules/fw/src/32b/fw.h",line 299,column 8,is_s
    1637 000000d7 FF58          TEST      ACC                   ; [CPU_] |299| 
    1638 000000d8 56C5          BF        $C$L5,LEQ             ; [CPU_] |299| 
         000000d9 0007 
    1639                      ; branchcc occurs ; [] |299| 
    1640                      .dwpsn  file "C:/ti/motorware/motorware_1_01_00_16/sw/modules/fw/src/32b/fw.h",line 301,column 4,is_s
    1641 000000da 5657          ADDUL     P,XAR5                ; [CPU_] |301| 
         000000db 00A5 
    1642 000000dc 6F03          B         $C$L5,UNC             ; [CPU_] |301| 
    1643                      ; branch occurs ; [] |301| 
    1644 000000dd       $C$L4:    
    1645                      .dwpsn  file "C:/ti/motorware/motorware_1_01_00_16/sw/modules/fw/src/32b/fw.h",line 297,column 4,is_s
    1646 000000dd 565D          SUBUL     P,XAR5                ; [CPU_] |297| 
         000000de 00A5 
    1647 000000df       $C$L5:    
    1648                      .dwpsn  file "C:/ti/motorware/motorware_1_01_00_16/sw/modules/fw/src/32b/fw.h",line 304,column 3,is_s
    1649 000000df D110          MOVB      XAR1,#16              ; [CPU_] |304| 
    1650 000000e0 A9A9          MOVL      ACC,P                 ; [CPU_] |304| 
    1651 000000e1 D00E          MOVB      XAR0,#14              ; [CPU_] |304| 
    1652 000000e2 761F-         MOVW      DP,#_ctrlHandle       ; [CPU_U] 
         000000e3 0000 
    1653 000000e4 5650          MINL      ACC,*+XAR4[AR1]       ; [CPU_] |304| 
         000000e5 009C 
    1654 000000e6 5661          MAXL      ACC,*+XAR4[AR0]       ; [CPU_] |304| 
TMS320C2000 Assembler PC v6.4.10 Mon Jul 11 12:58:34 2016

Tools Copyright (c) 1996-2015 Texas Instruments Incorporated
C:\Users\bee25\AppData\Local\Temp\2398010                            PAGE   34

         000000e7 0094 
    1655                      .dwpsn  file "C:/ti/motorware/motorware_1_01_00_16/sw/modules/fw/src/32b/fw.h",line 306,column 3,is_s
    1656 000000e8 D00C          MOVB      XAR0,#12              ; [CPU_] |306| 
    1657 000000e9 1E94          MOVL      *+XAR4[AR0],ACC       ; [CPU_] |306| 
    1658                      .dwpsn  file "C:/ti/motorware/motorware_1_01_00_16/sw/modules/fw/src/32b/fw.h",line 307,column 3,is_s
    1659 000000ea D008          MOVB      XAR0,#8               ; [CPU_] |307| 
    1660 000000eb C394          MOVL      *+XAR4[AR0],XAR7      ; [CPU_] |307| 
    1661                      .dwpsn  file "C:/ti/motorware/motorware_1_01_00_16/sw/modules/fw/src/32b/fw.h",line 308,column 3,is_s
    1662 000000ec D00A          MOVB      XAR0,#10              ; [CPU_] |308| 
    1663 000000ed C294          MOVL      *+XAR4[AR0],XAR6      ; [CPU_] |308| 
    1664                      .dwpsn  file "C:/ti/motorware/motorware_1_01_00_16/sw/solutions/instaspin_foc/src/proj_lab09.c",line 
    1665 000000ee 8A06-         MOVL      XAR4,@_ctrlHandle     ; [CPU_] |551| 
    1666                      .dwpsn  file "C:/ti/motorware/motorware_1_01_00_16/sw/modules/ctrl/src/32b/ctrl.h",line 1347,column 3
    1667 000000ef D0E2          MOVB      XAR0,#226             ; [CPU_] |1347| 
    1668 000000f0 761F-         MOVW      DP,#_gMotorVars+18    ; [CPU_U] 
         000000f1 0002 
    1669 000000f2 1E94          MOVL      *+XAR4[AR0],ACC       ; [CPU_] |1347| 
    1670                      .dwpsn  file "C:/ti/motorware/motorware_1_01_00_16/sw/solutions/instaspin_foc/src/proj_lab09.c",line 
    1671 000000f3 D0E2          MOVB      XAR0,#226             ; [CPU_] |553| 
    1672 000000f4 FF2F          MOV       ACC,#10240 << 15      ; [CPU_] |553| 
         000000f5 2800 
    1673 000000f6 8794          MOVL      XT,*+XAR4[AR0]        ; [CPU_] |553| 
    1674 000000f7 5605          IMPYL     P,XT,ACC              ; [CPU_] |553| 
         000000f8 00A9 
    1675 000000f9 5663          QMPYL     ACC,XT,ACC            ; [CPU_] |553| 
         000000fa 00A9 
    1676 000000fb 56A7          LSL64     ACC:P,#8              ; [CPU_] |553| 
    1677 000000fc 1E12-         MOVL      @_gMotorVars+18,ACC   ; [CPU_] |553| 
    1678 000000fd 6F10          B         $C$L8,UNC             ; [CPU_] |553| 
    1679                      ; branch occurs ; [] |553| 
    1680 000000fe       $C$L6:    
    1681 000000fe 8A06-         MOVL      XAR4,@_ctrlHandle     ; [CPU_] 
    1682 000000ff 6F0E          B         $C$L8,UNC             ; [CPU_] 
    1683                      ; branch occurs ; [] 
    1684 00000100       $C$L7:    
    1685                      .dwpsn  file "C:/ti/motorware/motorware_1_01_00_16/sw/solutions/instaspin_foc/src/proj_lab09.c",line 
    1686 00000100 8A06-         MOVL      XAR4,@_ctrlHandle     ; [CPU_] |558| 
    1687 00000101 761F-         MOVW      DP,#_gMotorVars+18    ; [CPU_U] 
         00000102 0002 
    1688 00000103 8F4C          MOVL      XAR5,#838860          ; [CPU_U] |558| 
         00000104 CCCC 
    1689 00000105 8712-         MOVL      XT,@_gMotorVars+18    ; [CPU_] |558| 
    1690                      .dwpsn  file "C:/ti/motorware/motorware_1_01_00_16/sw/modules/ctrl/src/32b/ctrl.h",line 1347,column 3
    1691 00000106 D0E2          MOVB      XAR0,#226             ; [CPU_] |1347| 
    1692                      .dwpsn  file "C:/ti/motorware/motorware_1_01_00_16/sw/solutions/instaspin_foc/src/proj_lab09.c",line 
    1693 00000107 5605          IMPYL     P,XT,XAR5             ; [CPU_] |558| 
         00000108 00A5 
    1694 00000109 5663          QMPYL     ACC,XT,XAR5           ; [CPU_] |558| 
         0000010a 00A5 
    1695 0000010b 56A7          LSL64     ACC:P,#8              ; [CPU_] |558| 
    1696                      .dwpsn  file "C:/ti/motorware/motorware_1_01_00_16/sw/modules/ctrl/src/32b/ctrl.h",line 1347,column 3
    1697 0000010c 1E94          MOVL      *+XAR4[AR0],ACC       ; [CPU_] |1347| 
    1698 0000010d       $C$L8:    
    1699                      .dwpsn  file "C:/ti/motorware/motorware_1_01_00_16/sw/solutions/instaspin_foc/src/proj_lab09.c",line 
    1700              $C$DW$197       .dwtag  DW_TAG_TI_branch
TMS320C2000 Assembler PC v6.4.10 Mon Jul 11 12:58:34 2016

Tools Copyright (c) 1996-2015 Texas Instruments Incorporated
C:\Users\bee25\AppData\Local\Temp\2398010                            PAGE   35

    1701                      .dwattr $C$DW$197, DW_AT_low_pc(0x00)
    1702                      .dwattr $C$DW$197, DW_AT_name("_CTRL_setup")
    1703                      .dwattr $C$DW$197, DW_AT_TI_call
    1704 0000010d 7640!         LCR       #_CTRL_setup          ; [CPU_] |562| 
         0000010e 0000 
    1705                      ; call occurs [#_CTRL_setup] ; [] |562| 
    1706 0000010f FE84          SUBB      SP,#4                 ; [CPU_U] 
    1707                      .dwcfi  cfa_offset, -14
    1708 00000110 C5BE          MOVL      XAR7,*--SP            ; [CPU_] 
    1709                      .dwcfi  cfa_offset, -12
    1710                      .dwcfi  restore_reg, 18
    1711 00000111 C4BE          MOVL      XAR6,*--SP            ; [CPU_] 
    1712                      .dwcfi  cfa_offset, -10
    1713                      .dwcfi  restore_reg, 16
    1714 00000112 83BE          MOVL      XAR5,*--SP            ; [CPU_] 
    1715                      .dwcfi  cfa_offset, -8
    1716                      .dwcfi  restore_reg, 14
    1717 00000113 8ABE          MOVL      XAR4,*--SP            ; [CPU_] 
    1718                      .dwcfi  cfa_offset, -6
    1719                      .dwcfi  restore_reg, 12
    1720 00000114 87BE          MOVL      XT,*--SP              ; [CPU_] 
    1721                      .dwcfi  cfa_offset, -4
    1722                      .dwcfi  restore_reg, 22
    1723                      .dwcfi  restore_reg, 21
    1724 00000115 0003          POP       AR1H:AR0H             ; [CPU_] 
    1725                      .dwcfi  cfa_offset, -2
    1726                      .dwcfi  restore_reg, 5
    1727                      .dwcfi  restore_reg, 7
    1728 00000116 7617          NASP      ; [CPU_] 
    1729              $C$DW$198       .dwtag  DW_TAG_TI_branch
    1730                      .dwattr $C$DW$198, DW_AT_low_pc(0x00)
    1731                      .dwattr $C$DW$198, DW_AT_TI_return
    1732 00000117 7602          IRET      ; [CPU_] 
    1733                      ; return occurs ; [] 
    1734                      .dwattr $C$DW$176, DW_AT_TI_end_file("C:/ti/motorware/motorware_1_01_00_16/sw/solutions/instaspin_foc
    1735                      .dwattr $C$DW$176, DW_AT_TI_end_line(0x236)
    1736                      .dwattr $C$DW$176, DW_AT_TI_end_column(0x01)
    1737                      .dwendentry
    1738                      .dwendtag $C$DW$176
    1739              
    1740 000000df               .sect   ".text"
    1741                      .clink
    1742                      .global _main
    1743              
    1744              $C$DW$199       .dwtag  DW_TAG_subprogram, DW_AT_name("main")
    1745                      .dwattr $C$DW$199, DW_AT_low_pc(_main)
    1746                      .dwattr $C$DW$199, DW_AT_high_pc(0x00)
    1747                      .dwattr $C$DW$199, DW_AT_TI_symbol_name("_main")
    1748                      .dwattr $C$DW$199, DW_AT_external
    1749                      .dwattr $C$DW$199, DW_AT_TI_begin_file("C:/ti/motorware/motorware_1_01_00_16/sw/solutions/instaspin_f
    1750                      .dwattr $C$DW$199, DW_AT_TI_begin_line(0x8d)
    1751                      .dwattr $C$DW$199, DW_AT_TI_begin_column(0x06)
    1752                      .dwattr $C$DW$199, DW_AT_TI_max_frame_size(-20)
    1753                      .dwpsn  file "C:/ti/motorware/motorware_1_01_00_16/sw/solutions/instaspin_foc/src/proj_lab09.c",line 
    1754              
TMS320C2000 Assembler PC v6.4.10 Mon Jul 11 12:58:34 2016

Tools Copyright (c) 1996-2015 Texas Instruments Incorporated
C:\Users\bee25\AppData\Local\Temp\2398010                            PAGE   36

    1755                      .dwfde $C$DW$CIE, _main
    1756              
    1757              ;***************************************************************
    1758              ;* FNAME: _main                         FR SIZE:  18           *
    1759              ;*                                                             *
    1760              ;* FUNCTION ENVIRONMENT                                        *
    1761              ;*                                                             *
    1762              ;* FUNCTION PROPERTIES                                         *
    1763              ;*                            2 Parameter, 10 Auto,  6 SOE     *
    1764              ;***************************************************************
    1765              
    1766              _main:
    1767              ;* AR5   assigned to $O$C19
    1768              ;* AR5   assigned to $O$C20
    1769              ;* AR4   assigned to $O$C21
    1770              ;* AR5   assigned to $O$C22
    1771              ;* AR7   assigned to $O$C23
    1772              ;* AR7   assigned to $O$C24
    1773              ;* AR7   assigned to $O$C26
    1774              ;* XT    assigned to $O$C27
    1775              ;* AR6   assigned to $O$C28
    1776              ;* AR6   assigned to $O$C29
    1777              ;* AR6   assigned to $O$C30
    1778              ;* AR3   assigned to $O$K80
    1779              ;* AR5   assigned to _obj
    1780              $C$DW$200       .dwtag  DW_TAG_variable, DW_AT_name("obj")
    1781                      .dwattr $C$DW$200, DW_AT_TI_symbol_name("_obj")
    1782                      .dwattr $C$DW$200, DW_AT_type(*$C$DW$T$274)
    1783                      .dwattr $C$DW$200, DW_AT_location[DW_OP_reg14]
    1784              ;* AL    assigned to _state
    1785              $C$DW$201       .dwtag  DW_TAG_variable, DW_AT_name("state")
    1786                      .dwattr $C$DW$201, DW_AT_TI_symbol_name("_state")
    1787                      .dwattr $C$DW$201, DW_AT_type(*$C$DW$T$85)
    1788                      .dwattr $C$DW$201, DW_AT_location[DW_OP_reg0]
    1789              ;* AL    assigned to _state
    1790              $C$DW$202       .dwtag  DW_TAG_variable, DW_AT_name("state")
    1791                      .dwattr $C$DW$202, DW_AT_TI_symbol_name("_state")
    1792                      .dwattr $C$DW$202, DW_AT_type(*$C$DW$T$85)
    1793                      .dwattr $C$DW$202, DW_AT_location[DW_OP_reg0]
    1794              ;* AR4   assigned to _obj
    1795              $C$DW$203       .dwtag  DW_TAG_variable, DW_AT_name("obj")
    1796                      .dwattr $C$DW$203, DW_AT_TI_symbol_name("_obj")
    1797                      .dwattr $C$DW$203, DW_AT_type(*$C$DW$T$274)
    1798                      .dwattr $C$DW$203, DW_AT_location[DW_OP_reg12]
    1799              ;* AH    assigned to _state
    1800              $C$DW$204       .dwtag  DW_TAG_variable, DW_AT_name("state")
    1801                      .dwattr $C$DW$204, DW_AT_TI_symbol_name("_state")
    1802                      .dwattr $C$DW$204, DW_AT_type(*$C$DW$T$85)
    1803                      .dwattr $C$DW$204, DW_AT_location[DW_OP_reg1]
    1804              ;* AR5   assigned to _obj
    1805              $C$DW$205       .dwtag  DW_TAG_variable, DW_AT_name("obj")
    1806                      .dwattr $C$DW$205, DW_AT_TI_symbol_name("_obj")
    1807                      .dwattr $C$DW$205, DW_AT_type(*$C$DW$T$274)
    1808                      .dwattr $C$DW$205, DW_AT_location[DW_OP_reg14]
    1809              ;* AR6   assigned to _handle
TMS320C2000 Assembler PC v6.4.10 Mon Jul 11 12:58:34 2016

Tools Copyright (c) 1996-2015 Texas Instruments Incorporated
C:\Users\bee25\AppData\Local\Temp\2398010                            PAGE   37

    1810              $C$DW$206       .dwtag  DW_TAG_variable, DW_AT_name("handle")
    1811                      .dwattr $C$DW$206, DW_AT_TI_symbol_name("_handle")
    1812                      .dwattr $C$DW$206, DW_AT_type(*$C$DW$T$276)
    1813                      .dwattr $C$DW$206, DW_AT_location[DW_OP_reg16]
    1814              ;* AR6   assigned to _obj
    1815              $C$DW$207       .dwtag  DW_TAG_variable, DW_AT_name("obj")
    1816                      .dwattr $C$DW$207, DW_AT_TI_symbol_name("_obj")
    1817                      .dwattr $C$DW$207, DW_AT_type(*$C$DW$T$274)
    1818                      .dwattr $C$DW$207, DW_AT_location[DW_OP_reg16]
    1819              ;* AR5   assigned to _obj
    1820              $C$DW$208       .dwtag  DW_TAG_variable, DW_AT_name("obj")
    1821                      .dwattr $C$DW$208, DW_AT_TI_symbol_name("_obj")
    1822                      .dwattr $C$DW$208, DW_AT_type(*$C$DW$T$274)
    1823                      .dwattr $C$DW$208, DW_AT_location[DW_OP_reg14]
    1824              ;* AR6   assigned to _spdMax
    1825              $C$DW$209       .dwtag  DW_TAG_variable, DW_AT_name("spdMax")
    1826                      .dwattr $C$DW$209, DW_AT_TI_symbol_name("_spdMax")
    1827                      .dwattr $C$DW$209, DW_AT_type(*$C$DW$T$47)
    1828                      .dwattr $C$DW$209, DW_AT_location[DW_OP_reg16]
    1829              ;* AL    assigned to _maxAccel_pu
    1830              $C$DW$210       .dwtag  DW_TAG_variable, DW_AT_name("maxAccel_pu")
    1831                      .dwattr $C$DW$210, DW_AT_TI_symbol_name("_maxAccel_pu")
    1832                      .dwattr $C$DW$210, DW_AT_type(*$C$DW$T$47)
    1833                      .dwattr $C$DW$210, DW_AT_location[DW_OP_reg0]
    1834              ;* AR6   assigned to _state
    1835              $C$DW$211       .dwtag  DW_TAG_variable, DW_AT_name("state")
    1836                      .dwattr $C$DW$211, DW_AT_TI_symbol_name("_state")
    1837                      .dwattr $C$DW$211, DW_AT_type(*$C$DW$T$85)
    1838                      .dwattr $C$DW$211, DW_AT_location[DW_OP_reg16]
    1839              ;* AR6   assigned to _state
    1840              $C$DW$212       .dwtag  DW_TAG_variable, DW_AT_name("state")
    1841                      .dwattr $C$DW$212, DW_AT_TI_symbol_name("_state")
    1842                      .dwattr $C$DW$212, DW_AT_type(*$C$DW$T$85)
    1843                      .dwattr $C$DW$212, DW_AT_location[DW_OP_reg16]
    1844              ;* AR4   assigned to _obj
    1845              $C$DW$213       .dwtag  DW_TAG_variable, DW_AT_name("obj")
    1846                      .dwattr $C$DW$213, DW_AT_TI_symbol_name("_obj")
    1847                      .dwattr $C$DW$213, DW_AT_type(*$C$DW$T$274)
    1848                      .dwattr $C$DW$213, DW_AT_location[DW_OP_reg12]
    1849              $C$DW$214       .dwtag  DW_TAG_variable, DW_AT_name("ctrlState")
    1850                      .dwattr $C$DW$214, DW_AT_TI_symbol_name("_ctrlState")
    1851                      .dwattr $C$DW$214, DW_AT_type(*$C$DW$T$55)
    1852                      .dwattr $C$DW$214, DW_AT_location[DW_OP_breg20 -7]
    1853              ;* AL    assigned to _flag_ctrlStateChanged
    1854              $C$DW$215       .dwtag  DW_TAG_variable, DW_AT_name("flag_ctrlStateChanged")
    1855                      .dwattr $C$DW$215, DW_AT_TI_symbol_name("_flag_ctrlStateChanged")
    1856                      .dwattr $C$DW$215, DW_AT_type(*$C$DW$T$85)
    1857                      .dwattr $C$DW$215, DW_AT_location[DW_OP_reg0]
    1858              ;* AR2   assigned to _obj
    1859              $C$DW$216       .dwtag  DW_TAG_variable, DW_AT_name("obj")
    1860                      .dwattr $C$DW$216, DW_AT_TI_symbol_name("_obj")
    1861                      .dwattr $C$DW$216, DW_AT_type(*$C$DW$T$247)
    1862                      .dwattr $C$DW$216, DW_AT_location[DW_OP_reg8]
    1863              $C$DW$217       .dwtag  DW_TAG_variable, DW_AT_name("cnt")
    1864                      .dwattr $C$DW$217, DW_AT_TI_symbol_name("_cnt")
TMS320C2000 Assembler PC v6.4.10 Mon Jul 11 12:58:34 2016

Tools Copyright (c) 1996-2015 Texas Instruments Incorporated
C:\Users\bee25\AppData\Local\Temp\2398010                            PAGE   38

    1865                      .dwattr $C$DW$217, DW_AT_type(*$C$DW$T$48)
    1866                      .dwattr $C$DW$217, DW_AT_location[DW_OP_breg20 -8]
    1867              ;* T     assigned to _cnt
    1868              $C$DW$218       .dwtag  DW_TAG_variable, DW_AT_name("cnt")
    1869                      .dwattr $C$DW$218, DW_AT_TI_symbol_name("_cnt")
    1870                      .dwattr $C$DW$218, DW_AT_type(*$C$DW$T$48)
    1871                      .dwattr $C$DW$218, DW_AT_location[DW_OP_reg22]
    1872              ;* AL    assigned to _bias
    1873              $C$DW$219       .dwtag  DW_TAG_variable, DW_AT_name("bias")
    1874                      .dwattr $C$DW$219, DW_AT_TI_symbol_name("_bias")
    1875                      .dwattr $C$DW$219, DW_AT_type(*$C$DW$T$47)
    1876                      .dwattr $C$DW$219, DW_AT_location[DW_OP_reg0]
    1877              ;* AL    assigned to _bias
    1878              $C$DW$220       .dwtag  DW_TAG_variable, DW_AT_name("bias")
    1879                      .dwattr $C$DW$220, DW_AT_TI_symbol_name("_bias")
    1880                      .dwattr $C$DW$220, DW_AT_type(*$C$DW$T$47)
    1881                      .dwattr $C$DW$220, DW_AT_location[DW_OP_reg0]
    1882              ;* AR4   assigned to $O$v2
    1883              ;* AR1   assigned to $O$K33
    1884              ;* AR1   assigned to $O$K33
    1885              ;* AR6   assigned to $O$K33
    1886              ;* AR1   assigned to $O$K33
    1887              ;* AR4   assigned to $O$K33
    1888              ;* AR1   assigned to $O$K33
    1889              ;* AR4   assigned to $O$v1
    1890              ;* AR4   assigned to $O$v1
    1891              ;* AR4   assigned to $O$v1
    1892              ;* AR4   assigned to $O$v1
    1893              ;* AR2   assigned to $O$v1
    1894              ;* AR4   assigned to $O$v3
    1895              ;* AR4   assigned to $O$v3
    1896              ;* AR4   assigned to $O$v3
    1897              ;* AR5   assigned to $O$v3
    1898              $C$DW$221       .dwtag  DW_TAG_variable, DW_AT_name("version")
    1899                      .dwattr $C$DW$221, DW_AT_TI_symbol_name("_version")
    1900                      .dwattr $C$DW$221, DW_AT_type(*$C$DW$T$53)
    1901                      .dwattr $C$DW$221, DW_AT_location[DW_OP_breg20 -6]
    1902                      .dwcfi  cfa_offset, -2
    1903                      .dwcfi  save_reg_to_mem, 26, 0
    1904 000000df B2BD          MOVL      *SP++,XAR1            ; [CPU_] 
    1905                      .dwcfi  save_reg_to_mem, 7, 2
    1906                      .dwcfi  cfa_offset, -4
    1907 000000e0 AABD          MOVL      *SP++,XAR2            ; [CPU_] 
    1908                      .dwcfi  save_reg_to_mem, 9, 4
    1909                      .dwcfi  cfa_offset, -6
    1910 000000e1 A2BD          MOVL      *SP++,XAR3            ; [CPU_] 
    1911                      .dwcfi  save_reg_to_mem, 11, 6
    1912                      .dwcfi  cfa_offset, -8
    1913 000000e2 FE0C          ADDB      SP,#12                ; [CPU_U] 
    1914                      .dwcfi  cfa_offset, -20
    1915                      .dwpsn  file "C:/ti/motorware/motorware_1_01_00_16/sw/solutions/instaspin_foc/src/proj_lab09.c",line 
    1916 000000e3 8F00!         MOVL      XAR4,#_RamfuncsRunStart ; [CPU_U] |155| 
         000000e4 0000 
    1917 000000e5 8F40!         MOVL      XAR5,#_RamfuncsLoadEnd ; [CPU_U] |155| 
         000000e6 0000 
TMS320C2000 Assembler PC v6.4.10 Mon Jul 11 12:58:34 2016

Tools Copyright (c) 1996-2015 Texas Instruments Incorporated
C:\Users\bee25\AppData\Local\Temp\2398010                            PAGE   39

    1918 000000e7 A842          MOVL      *-SP[2],XAR4          ; [CPU_] |155| 
    1919 000000e8 8F00!         MOVL      XAR4,#_RamfuncsLoadStart ; [CPU_U] |155| 
         000000e9 0000 
    1920              $C$DW$222       .dwtag  DW_TAG_TI_branch
    1921                      .dwattr $C$DW$222, DW_AT_low_pc(0x00)
    1922                      .dwattr $C$DW$222, DW_AT_name("_memCopy")
    1923                      .dwattr $C$DW$222, DW_AT_TI_call
    1924 000000ea 7640!         LCR       #_memCopy             ; [CPU_] |155| 
         000000eb 0000 
    1925                      ; call occurs [#_memCopy] ; [] |155| 
    1926 000000ec 761F!         MOVW      DP,#_econst_start     ; [CPU_U] 
         000000ed 0000 
    1927                      .dwpsn  file "C:/ti/motorware/motorware_1_01_00_16/sw/solutions/instaspin_foc/src/proj_lab09.c",line 
    1928 000000ee 8A00!         MOVL      XAR4,@_econst_start   ; [CPU_] |159| 
    1929 000000ef 761F!         MOVW      DP,#_econst_end       ; [CPU_U] 
         000000f0 0000 
    1930 000000f1 0EC4          MOVU      ACC,*+XAR4[0]         ; [CPU_] |159| 
    1931 000000f2 8A00!         MOVL      XAR4,@_econst_end     ; [CPU_] |159| 
    1932 000000f3 88C4          MOVZ      AR6,*+XAR4[0]         ; [CPU_] |159| 
    1933 000000f4 0FA6          CMPL      ACC,XAR6              ; [CPU_] |159| 
    1934 000000f5 EC0A          BF        $C$L9,EQ              ; [CPU_] |159| 
    1935                      ; branchcc occurs ; [] |159| 
    1936                      .dwpsn  file "C:/ti/motorware/motorware_1_01_00_16/sw/solutions/instaspin_foc/src/proj_lab09.c",line 
    1937 000000f6 8F00!         MOVL      XAR4,#_econst_ram_load ; [CPU_U] |161| 
         000000f7 0000 
    1938 000000f8 8F40!         MOVL      XAR5,#_econst_end     ; [CPU_U] |161| 
         000000f9 0000 
    1939 000000fa A842          MOVL      *-SP[2],XAR4          ; [CPU_] |161| 
    1940 000000fb 8F00!         MOVL      XAR4,#_econst_start   ; [CPU_U] |161| 
         000000fc 0000 
    1941              $C$DW$223       .dwtag  DW_TAG_TI_branch
    1942                      .dwattr $C$DW$223, DW_AT_low_pc(0x00)
    1943                      .dwattr $C$DW$223, DW_AT_name("_memCopy")
    1944                      .dwattr $C$DW$223, DW_AT_TI_call
    1945 000000fd 7640!         LCR       #_memCopy             ; [CPU_] |161| 
         000000fe 0000 
    1946                      ; call occurs [#_memCopy] ; [] |161| 
    1947 000000ff       $C$L9:    
    1948 000000ff 761F!         MOVW      DP,#_switch_start     ; [CPU_U] 
         00000100 0000 
    1949                      .dwpsn  file "C:/ti/motorware/motorware_1_01_00_16/sw/solutions/instaspin_foc/src/proj_lab09.c",line 
    1950 00000101 8A00!         MOVL      XAR4,@_switch_start   ; [CPU_] |165| 
    1951 00000102 761F!         MOVW      DP,#_switch_end       ; [CPU_U] 
         00000103 0000 
    1952 00000104 0EC4          MOVU      ACC,*+XAR4[0]         ; [CPU_] |165| 
    1953 00000105 8A00!         MOVL      XAR4,@_switch_end     ; [CPU_] |165| 
    1954 00000106 88C4          MOVZ      AR6,*+XAR4[0]         ; [CPU_] |165| 
    1955 00000107 0FA6          CMPL      ACC,XAR6              ; [CPU_] |165| 
    1956 00000108 EC0A          BF        $C$L10,EQ             ; [CPU_] |165| 
    1957                      ; branchcc occurs ; [] |165| 
    1958                      .dwpsn  file "C:/ti/motorware/motorware_1_01_00_16/sw/solutions/instaspin_foc/src/proj_lab09.c",line 
    1959 00000109 8F00!         MOVL      XAR4,#_switch_ram_load ; [CPU_U] |167| 
         0000010a 0000 
    1960 0000010b 8F40!         MOVL      XAR5,#_switch_end     ; [CPU_U] |167| 
         0000010c 0000 
TMS320C2000 Assembler PC v6.4.10 Mon Jul 11 12:58:34 2016

Tools Copyright (c) 1996-2015 Texas Instruments Incorporated
C:\Users\bee25\AppData\Local\Temp\2398010                            PAGE   40

    1961 0000010d A842          MOVL      *-SP[2],XAR4          ; [CPU_] |167| 
    1962 0000010e 8F00!         MOVL      XAR4,#_switch_start   ; [CPU_U] |167| 
         0000010f 0000 
    1963              $C$DW$224       .dwtag  DW_TAG_TI_branch
    1964                      .dwattr $C$DW$224, DW_AT_low_pc(0x00)
    1965                      .dwattr $C$DW$224, DW_AT_name("_memCopy")
    1966                      .dwattr $C$DW$224, DW_AT_TI_call
    1967 00000110 7640!         LCR       #_memCopy             ; [CPU_] |167| 
         00000111 0000 
    1968                      ; call occurs [#_memCopy] ; [] |167| 
    1969 00000112       $C$L10:    
    1970                      .dwpsn  file "C:/ti/motorware/motorware_1_01_00_16/sw/solutions/instaspin_foc/src/proj_lab09.c",line 
    1971 00000112 8F00!         MOVL      XAR4,#_hal            ; [CPU_U] |174| 
         00000113 0000 
    1972 00000114 02EA          MOVB      ACC,#234              ; [CPU_] |174| 
    1973              $C$DW$225       .dwtag  DW_TAG_TI_branch
    1974                      .dwattr $C$DW$225, DW_AT_low_pc(0x00)
    1975                      .dwattr $C$DW$225, DW_AT_name("_HAL_init")
    1976                      .dwattr $C$DW$225, DW_AT_TI_call
    1977 00000115 7640!         LCR       #_HAL_init            ; [CPU_] |174| 
         00000116 0000 
    1978                      ; call occurs [#_HAL_init] ; [] |174| 
    1979                      .dwpsn  file "C:/ti/motorware/motorware_1_01_00_16/sw/solutions/instaspin_foc/src/proj_lab09.c",line 
    1980 00000117 8D40-         MOVL      XAR1,#_gUserParams    ; [CPU_U] |178| 
         00000118 0040 
    1981 00000119 761F-         MOVW      DP,#_halHandle        ; [CPU_U] 
         0000011a 0000 
    1982 0000011b B24C          MOVL      *-SP[12],XAR1         ; [CPU_] |178| 
    1983                      .dwpsn  file "C:/ti/motorware/motorware_1_01_00_16/sw/solutions/instaspin_foc/src/proj_lab09.c",line 
    1984 0000011c A800-         MOVL      @_halHandle,XAR4      ; [CPU_] |174| 
    1985                      .dwpsn  file "C:/ti/motorware/motorware_1_01_00_16/sw/solutions/instaspin_foc/src/proj_lab09.c",line 
    1986 0000011d 8AA1          MOVL      XAR4,XAR1             ; [CPU_] |178| 
    1987              $C$DW$226       .dwtag  DW_TAG_TI_branch
    1988                      .dwattr $C$DW$226, DW_AT_low_pc(0x00)
    1989                      .dwattr $C$DW$226, DW_AT_name("_USER_checkForErrors")
    1990                      .dwattr $C$DW$226, DW_AT_TI_call
    1991 0000011e 7640!         LCR       #_USER_checkForErrors ; [CPU_] |178| 
         0000011f 0000 
    1992                      ; call occurs [#_USER_checkForErrors] ; [] |178| 
    1993                      .dwpsn  file "C:/ti/motorware/motorware_1_01_00_16/sw/solutions/instaspin_foc/src/proj_lab09.c",line 
    1994 00000120 8AA1          MOVL      XAR4,XAR1             ; [CPU_] |182| 
    1995              $C$DW$227       .dwtag  DW_TAG_TI_branch
    1996                      .dwattr $C$DW$227, DW_AT_low_pc(0x00)
    1997                      .dwattr $C$DW$227, DW_AT_name("_USER_getErrorCode")
    1998                      .dwattr $C$DW$227, DW_AT_TI_call
    1999 00000121 7640!         LCR       #_USER_getErrorCode   ; [CPU_] |182| 
         00000122 0000 
    2000                      ; call occurs [#_USER_getErrorCode] ; [] |182| 
    2001 00000123 8D40-         MOVL      XAR1,#_gMotorVars     ; [CPU_U] |182| 
         00000124 0080 
    2002 00000125 D00C          MOVB      XAR0,#12              ; [CPU_] |182| 
    2003 00000126 9691          MOV       *+XAR1[AR0],AL        ; [CPU_] |182| 
    2004                      .dwpsn  file "C:/ti/motorware/motorware_1_01_00_16/sw/solutions/instaspin_foc/src/proj_lab09.c",line 
    2005 00000127 D00C          MOVB      XAR0,#12              ; [CPU_] |186| 
    2006 00000128 9291          MOV       AL,*+XAR1[AR0]        ; [CPU_] |186| 
TMS320C2000 Assembler PC v6.4.10 Mon Jul 11 12:58:34 2016

Tools Copyright (c) 1996-2015 Texas Instruments Incorporated
C:\Users\bee25\AppData\Local\Temp\2398010                            PAGE   41

    2007 00000129 56C0          BF        $C$L29,NEQ            ; [CPU_] |186| 
         0000012a 028F 
    2008                      ; branchcc occurs ; [] |186| 
    2009 0000012b 864C          MOVL      XAR2,*-SP[12]         ; [CPU_] 
    2010                      .dwpsn  file "C:/ti/motorware/motorware_1_01_00_16/sw/solutions/instaspin_foc/src/proj_lab09.c",line 
    2011 0000012c 8AA2          MOVL      XAR4,XAR2             ; [CPU_] |196| 
    2012              $C$DW$228       .dwtag  DW_TAG_TI_branch
    2013                      .dwattr $C$DW$228, DW_AT_low_pc(0x00)
    2014                      .dwattr $C$DW$228, DW_AT_name("_USER_setParams")
    2015                      .dwattr $C$DW$228, DW_AT_TI_call
    2016 0000012d 7640!         LCR       #_USER_setParams      ; [CPU_] |196| 
         0000012e 0000 
    2017                      ; call occurs [#_USER_setParams] ; [] |196| 
    2018 0000012f 761F-         MOVW      DP,#_halHandle        ; [CPU_U] 
         00000130 0000 
    2019                      .dwpsn  file "C:/ti/motorware/motorware_1_01_00_16/sw/solutions/instaspin_foc/src/proj_lab09.c",line 
    2020 00000131 8A00-         MOVL      XAR4,@_halHandle      ; [CPU_] |200| 
    2021 00000132 83A2          MOVL      XAR5,XAR2             ; [CPU_] |200| 
    2022              $C$DW$229       .dwtag  DW_TAG_TI_branch
    2023                      .dwattr $C$DW$229, DW_AT_low_pc(0x00)
    2024                      .dwattr $C$DW$229, DW_AT_name("_HAL_setParams")
    2025                      .dwattr $C$DW$229, DW_AT_TI_call
    2026 00000133 7640!         LCR       #_HAL_setParams       ; [CPU_] |200| 
         00000134 0000 
    2027                      ; call occurs [#_HAL_setParams] ; [] |200| 
    2028                      .dwpsn  file "C:/ti/motorware/motorware_1_01_00_16/sw/solutions/instaspin_foc/src/proj_lab09.c",line 
    2029 00000135 D500          MOVB      XAR5,#0               ; [CPU_] |208| 
    2030 00000136 7680          MOVL      XAR6,#264             ; [CPU_U] |208| 
         00000137 0108 
    2031 00000138 8F00-         MOVL      XAR4,#_ctrl           ; [CPU_U] |208| 
         00000139 0100 
    2032 0000013a 06A6          MOVL      ACC,XAR6              ; [CPU_] |208| 
    2033              $C$DW$230       .dwtag  DW_TAG_TI_branch
    2034                      .dwattr $C$DW$230, DW_AT_low_pc(0x00)
    2035                      .dwattr $C$DW$230, DW_AT_name("_CTRL_initCtrl")
    2036                      .dwattr $C$DW$230, DW_AT_TI_call
    2037 0000013b 7640!         LCR       #_CTRL_initCtrl       ; [CPU_] |208| 
         0000013c 0000 
    2038                      ; call occurs [#_CTRL_initCtrl] ; [] |208| 
    2039                      .dwpsn  file "C:/ti/motorware/motorware_1_01_00_16/sw/solutions/instaspin_foc/src/proj_lab09.c",line 
    2040 0000013d 5DAD          MOVZ      AR5,SP                ; [CPU_] |216| 
    2041 0000013e 761F-         MOVW      DP,#_ctrlHandle       ; [CPU_U] 
         0000013f 0000 
    2042                      .dwpsn  file "C:/ti/motorware/motorware_1_01_00_16/sw/solutions/instaspin_foc/src/proj_lab09.c",line 
    2043 00000140 A806-         MOVL      @_ctrlHandle,XAR4     ; [CPU_] |208| 
    2044                      .dwpsn  file "C:/ti/motorware/motorware_1_01_00_16/sw/solutions/instaspin_foc/src/proj_lab09.c",line 
    2045 00000141 DD86          SUBB      XAR5,#6               ; [CPU_U] |216| 
    2046 00000142 5DA5          MOVZ      AR5,AR5               ; [CPU_] |216| 
    2047              $C$DW$231       .dwtag  DW_TAG_TI_branch
    2048                      .dwattr $C$DW$231, DW_AT_low_pc(0x00)
    2049                      .dwattr $C$DW$231, DW_AT_name("_CTRL_getVersion")
    2050                      .dwattr $C$DW$231, DW_AT_TI_call
    2051 00000143 7640!         LCR       #_CTRL_getVersion     ; [CPU_] |216| 
         00000144 0000 
    2052                      ; call occurs [#_CTRL_getVersion] ; [] |216| 
TMS320C2000 Assembler PC v6.4.10 Mon Jul 11 12:58:34 2016

Tools Copyright (c) 1996-2015 Texas Instruments Incorporated
C:\Users\bee25\AppData\Local\Temp\2398010                            PAGE   42

    2053                      .dwpsn  file "C:/ti/motorware/motorware_1_01_00_16/sw/solutions/instaspin_foc/src/proj_lab09.c",line 
    2054 00000145 5CAD          MOVZ      AR4,SP                ; [CPU_] |218| 
    2055 00000146 DC86          SUBB      XAR4,#6               ; [CPU_U] |218| 
    2056 00000147 80A4          MOVZ      AR7,AR4               ; [CPU_] |218| 
    2057 00000148 D90D          ADDB      XAR1,#13              ; [CPU_] |218| 
    2058 00000149 761F-         MOVW      DP,#_ctrlHandle       ; [CPU_U] 
         0000014a 0000 
    2059                      .dwpsn  file "C:/ti/motorware/motorware_1_01_00_16/sw/solutions/instaspin_foc/src/proj_lab09.c",line 
    2060 0000014b 83A2          MOVL      XAR5,XAR2             ; [CPU_] |223| 
    2061                      .dwpsn  file "C:/ti/motorware/motorware_1_01_00_16/sw/solutions/instaspin_foc/src/proj_lab09.c",line 
    2062 0000014c F603          RPT       #3
    2063 0000014d 2481  ||     PREAD     *XAR1++,*XAR7         ; [CPU_] |218| 
    2064                      .dwpsn  file "C:/ti/motorware/motorware_1_01_00_16/sw/solutions/instaspin_foc/src/proj_lab09.c",line 
    2065 0000014e 8A06-         MOVL      XAR4,@_ctrlHandle     ; [CPU_] |223| 
    2066              $C$DW$232       .dwtag  DW_TAG_TI_branch
    2067                      .dwattr $C$DW$232, DW_AT_low_pc(0x00)
    2068                      .dwattr $C$DW$232, DW_AT_name("_CTRL_setParams")
    2069                      .dwattr $C$DW$232, DW_AT_TI_call
    2070 0000014f 7640!         LCR       #_CTRL_setParams      ; [CPU_] |223| 
         00000150 0000 
    2071                      ; call occurs [#_CTRL_setParams] ; [] |223| 
    2072                      .dwpsn  file "C:/ti/motorware/motorware_1_01_00_16/sw/solutions/instaspin_foc/src/proj_lab09.c",line 
    2073 00000151 8F00-         MOVL      XAR4,#_fw             ; [CPU_U] |227| 
         00000152 002A 
    2074 00000153 0214          MOVB      ACC,#20               ; [CPU_] |227| 
    2075              $C$DW$233       .dwtag  DW_TAG_TI_branch
    2076                      .dwattr $C$DW$233, DW_AT_low_pc(0x00)
    2077                      .dwattr $C$DW$233, DW_AT_name("_FW_init")
    2078                      .dwattr $C$DW$233, DW_AT_TI_call
    2079 00000154 7640!         LCR       #_FW_init             ; [CPU_] |227| 
         00000155 0000 
    2080                      ; call occurs [#_FW_init] ; [] |227| 
    2081 00000156 761F-         MOVW      DP,#_fwHandle         ; [CPU_U] 
         00000157 0000 
    2082                      .dwpsn  file "C:/ti/motorware/motorware_1_01_00_16/sw/modules/fw/src/32b/fw.h",line 237,column 3,is_s
    2083 00000158 D012          MOVB      XAR0,#18              ; [CPU_] |237| 
    2084                      .dwpsn  file "C:/ti/motorware/motorware_1_01_00_16/sw/modules/fw/src/32b/fw.h",line 202,column 3,is_s
    2085 00000159 0200          MOVB      ACC,#0                ; [CPU_] |202| 
    2086                      .dwpsn  file "C:/ti/motorware/motorware_1_01_00_16/sw/solutions/instaspin_foc/src/proj_lab09.c",line 
    2087 0000015a A808-         MOVL      @_fwHandle,XAR4       ; [CPU_] |227| 
    2088                      .dwpsn  file "C:/ti/motorware/motorware_1_01_00_16/sw/modules/fw/src/32b/fw.h",line 164,column 3,is_s
    2089 0000015b 8F40          MOVL      XAR5,#1000            ; [CPU_U] |164| 
         0000015c 03E8 
    2090 0000015d 3B01          SETC      SXM                   ; [CPU_] 
    2091                      .dwpsn  file "C:/ti/motorware/motorware_1_01_00_16/sw/modules/fw/src/32b/fw.h",line 237,column 3,is_s
    2092 0000015e 2B94          MOV       *+XAR4[AR0],#0        ; [CPU_] |237| 
    2093 0000015f 761F-         MOVW      DP,#_halHandle        ; [CPU_U] 
         00000160 0000 
    2094                      .dwpsn  file "C:/ti/motorware/motorware_1_01_00_16/sw/modules/fw/src/32b/fw.h",line 261,column 3,is_s
    2095 00000161 D00C          MOVB      XAR0,#12              ; [CPU_] |261| 
    2096                      .dwpsn  file "C:/ti/motorware/motorware_1_01_00_16/sw/modules/fw/src/32b/fw.h",line 202,column 3,is_s
    2097 00000162 1ED4          MOVL      *+XAR4[2],ACC         ; [CPU_] |202| 
    2098                      .dwpsn  file "C:/ti/motorware/motorware_1_01_00_16/sw/modules/fw/src/32b/fw.h",line 179,column 3,is_s
    2099 00000163 020A          MOVB      ACC,#10               ; [CPU_] |179| 
    2100 00000164 1EC4          MOVL      *+XAR4[0],ACC         ; [CPU_] |179| 
TMS320C2000 Assembler PC v6.4.10 Mon Jul 11 12:58:34 2016

Tools Copyright (c) 1996-2015 Texas Instruments Incorporated
C:\Users\bee25\AppData\Local\Temp\2398010                            PAGE   43

    2101                      .dwpsn  file "C:/ti/motorware/motorware_1_01_00_16/sw/modules/fw/src/32b/fw.h",line 261,column 3,is_s
    2102 00000165 0200          MOVB      ACC,#0                ; [CPU_] |261| 
    2103                      .dwpsn  file "C:/ti/motorware/motorware_1_01_00_16/sw/modules/fw/src/32b/fw.h",line 164,column 3,is_s
    2104 00000166 A0E4          MOVL      *+XAR4[4],XAR5        ; [CPU_] |164| 
    2105                      .dwpsn  file "C:/ti/motorware/motorware_1_01_00_16/sw/modules/fw/src/32b/fw.h",line 166,column 3,is_s
    2106 00000167 A0F4          MOVL      *+XAR4[6],XAR5        ; [CPU_] |166| 
    2107                      .dwpsn  file "C:/ti/motorware/motorware_1_01_00_16/sw/modules/fw/src/32b/fw.h",line 261,column 3,is_s
    2108 00000168 1E94          MOVL      *+XAR4[AR0],ACC       ; [CPU_] |261| 
    2109                      .dwpsn  file "C:/ti/motorware/motorware_1_01_00_16/sw/modules/fw/src/32b/fw.h",line 149,column 3,is_s
    2110 00000169 D00E          MOVB      XAR0,#14              ; [CPU_] |149| 
    2111 0000016a FF2F          MOV       ACC,#-256 << 15       ; [CPU_] |149| 
         0000016b FF00 
    2112 0000016c 1E94          MOVL      *+XAR4[AR0],ACC       ; [CPU_] |149| 
    2113                      .dwpsn  file "C:/ti/motorware/motorware_1_01_00_16/sw/modules/fw/src/32b/fw.h",line 150,column 3,is_s
    2114 0000016d D010          MOVB      XAR0,#16              ; [CPU_] |150| 
    2115 0000016e 0200          MOVB      ACC,#0                ; [CPU_] |150| 
    2116 0000016f 1E94          MOVL      *+XAR4[AR0],ACC       ; [CPU_] |150| 
    2117                      .dwpsn  file "C:/ti/motorware/motorware_1_01_00_16/sw/solutions/instaspin_foc/src/proj_lab09.c",line 
    2118 00000170 8A00-         MOVL      XAR4,@_halHandle      ; [CPU_] |255| 
    2119              $C$DW$234       .dwtag  DW_TAG_TI_branch
    2120                      .dwattr $C$DW$234, DW_AT_low_pc(0x00)
    2121                      .dwattr $C$DW$234, DW_AT_name("_HAL_setupFaults")
    2122                      .dwattr $C$DW$234, DW_AT_TI_call
    2123 00000171 7640!         LCR       #_HAL_setupFaults     ; [CPU_] |255| 
         00000172 0000 
    2124                      ; call occurs [#_HAL_setupFaults] ; [] |255| 
    2125 00000173 761F-         MOVW      DP,#_halHandle        ; [CPU_U] 
         00000174 0000 
    2126                      .dwpsn  file "C:/ti/motorware/motorware_1_01_00_16/sw/solutions/instaspin_foc/src/proj_lab09.c",line 
    2127 00000175 8A00-         MOVL      XAR4,@_halHandle      ; [CPU_] |259| 
    2128 00000176 7622   EALLOW
    2129                      .dwpsn  file "C:/ti/motorware/motorware_1_01_00_16/sw/modules/hal/boards/boostxldrv8301_revB/f28x/f28
    2130 00000177 D078          MOVB      XAR0,#120             ; [CPU_] |477| 
    2131 00000178 02F0          MOVB      ACC,#240              ; [CPU_] |477| 
    2132 00000179 0794          ADDL      ACC,*+XAR4[AR0]       ; [CPU_] |477| 
    2133 0000017a 83A9          MOVL      XAR5,ACC              ; [CPU_] |477| 
    2134 0000017b 7680+         MOVL      XAR6,#_mainISR        ; [CPU_U] |477| 
         0000017c 0000 
    2135 0000017d C2C5          MOVL      *+XAR5[0],XAR6        ; [CPU_] |477| 
    2136 0000017e 761A   EDIS
    2137 0000017f FF69          SPM       #0                    ; [CPU_] 
    2138                      .dwpsn  file "C:/ti/motorware/motorware_1_01_00_16/sw/solutions/instaspin_foc/src/proj_lab09.c",line 
    2139              $C$DW$235       .dwtag  DW_TAG_TI_branch
    2140                      .dwattr $C$DW$235, DW_AT_low_pc(0x00)
    2141                      .dwattr $C$DW$235, DW_AT_name("_HAL_enableAdcInts")
    2142                      .dwattr $C$DW$235, DW_AT_TI_call
    2143 00000180 7640!         LCR       #_HAL_enableAdcInts   ; [CPU_] |263| 
         00000181 0000 
    2144                      ; call occurs [#_HAL_enableAdcInts] ; [] |263| 
    2145 00000182 761F-         MOVW      DP,#_halHandle        ; [CPU_U] 
         00000183 0000 
    2146                      .dwpsn  file "C:/ti/motorware/motorware_1_01_00_16/sw/solutions/instaspin_foc/src/proj_lab09.c",line 
    2147 00000184 8A00-         MOVL      XAR4,@_halHandle      ; [CPU_] |267| 
    2148              $C$DW$236       .dwtag  DW_TAG_TI_branch
    2149                      .dwattr $C$DW$236, DW_AT_low_pc(0x00)
TMS320C2000 Assembler PC v6.4.10 Mon Jul 11 12:58:34 2016

Tools Copyright (c) 1996-2015 Texas Instruments Incorporated
C:\Users\bee25\AppData\Local\Temp\2398010                            PAGE   44

    2150                      .dwattr $C$DW$236, DW_AT_name("_HAL_enableGlobalInts")
    2151                      .dwattr $C$DW$236, DW_AT_TI_call
    2152 00000185 7640!         LCR       #_HAL_enableGlobalInts ; [CPU_] |267| 
         00000186 0000 
    2153                      ; call occurs [#_HAL_enableGlobalInts] ; [] |267| 
    2154 00000187 761F-         MOVW      DP,#_halHandle        ; [CPU_U] 
         00000188 0000 
    2155                      .dwpsn  file "C:/ti/motorware/motorware_1_01_00_16/sw/solutions/instaspin_foc/src/proj_lab09.c",line 
    2156 00000189 8A00-         MOVL      XAR4,@_halHandle      ; [CPU_] |271| 
    2157              $C$DW$237       .dwtag  DW_TAG_TI_branch
    2158                      .dwattr $C$DW$237, DW_AT_low_pc(0x00)
    2159                      .dwattr $C$DW$237, DW_AT_name("_HAL_enableDebugInt")
    2160                      .dwattr $C$DW$237, DW_AT_TI_call
    2161 0000018a 7640!         LCR       #_HAL_enableDebugInt  ; [CPU_] |271| 
         0000018b 0000 
    2162                      ; call occurs [#_HAL_enableDebugInt] ; [] |271| 
    2163 0000018c 761F-         MOVW      DP,#_halHandle        ; [CPU_U] 
         0000018d 0000 
    2164                      .dwpsn  file "C:/ti/motorware/motorware_1_01_00_16/sw/solutions/instaspin_foc/src/proj_lab09.c",line 
    2165 0000018e 8A00-         MOVL      XAR4,@_halHandle      ; [CPU_] |275| 
    2166                      .dwpsn  file "C:/ti/motorware/motorware_1_01_00_16/sw/modules/hal/boards/boostxldrv8301_revB/f28x/f28
    2167 0000018f 83A4          MOVL      XAR5,XAR4             ; [CPU_] |240| 
    2168 00000190 DD7E          ADDB      XAR5,#126             ; [CPU_] |240| 
    2169 00000191 7622   EALLOW
    2170                      .dwpsn  file "C:/ti/motorware/motorware_1_01_00_16/sw/drivers/pwm/src/32b/f28x/f2802x/pwm.h",line 156
    2171 00000192 D07C          MOVB      XAR0,#124             ; [CPU_] |1567| 
    2172 00000193 0218          MOVB      ACC,#24               ; [CPU_] |1567| 
    2173 00000194 0794          ADDL      ACC,*+XAR4[AR0]       ; [CPU_] |1567| 
    2174 00000195 1EA6          MOVL      XAR6,ACC              ; [CPU_] |1567| 
    2175 00000196 1AC6          OR        *+XAR6[0],#0x0004     ; [CPU_] |1567| 
         00000197 0004 
    2176 00000198 761A   EDIS
    2177 00000199 7622   EALLOW
    2178 0000019a 0218          MOVB      ACC,#24               ; [CPU_] |1567| 
    2179 0000019b 07C5          ADDL      ACC,*+XAR5[0]         ; [CPU_] |1567| 
    2180 0000019c 1EA6          MOVL      XAR6,ACC              ; [CPU_] |1567| 
    2181 0000019d 1AC6          OR        *+XAR6[0],#0x0004     ; [CPU_] |1567| 
         0000019e 0004 
    2182 0000019f 761A   EDIS
    2183 000001a0 7622   EALLOW
    2184 000001a1 0218          MOVB      ACC,#24               ; [CPU_] |1567| 
    2185 000001a2 07D5          ADDL      ACC,*+XAR5[2]         ; [CPU_] |1567| 
    2186 000001a3 83A9          MOVL      XAR5,ACC              ; [CPU_] |1567| 
    2187 000001a4 1AC5          OR        *+XAR5[0],#0x0004     ; [CPU_] |1567| 
         000001a5 0004 
    2188 000001a6 761A   EDIS
    2189 000001a7 FF69          SPM       #0                    ; [CPU_] 
    2190                      .dwpsn  file "C:/ti/motorware/motorware_1_01_00_16/sw/solutions/instaspin_foc/src/proj_lab09.c",line 
    2191              $C$DW$238       .dwtag  DW_TAG_TI_branch
    2192                      .dwattr $C$DW$238, DW_AT_low_pc(0x00)
    2193                      .dwattr $C$DW$238, DW_AT_name("_HAL_enableDrv")
    2194                      .dwattr $C$DW$238, DW_AT_TI_call
    2195 000001a8 7640!         LCR       #_HAL_enableDrv       ; [CPU_] |280| 
         000001a9 0000 
    2196                      ; call occurs [#_HAL_enableDrv] ; [] |280| 
TMS320C2000 Assembler PC v6.4.10 Mon Jul 11 12:58:34 2016

Tools Copyright (c) 1996-2015 Texas Instruments Incorporated
C:\Users\bee25\AppData\Local\Temp\2398010                            PAGE   45

    2197 000001aa 761F-         MOVW      DP,#_halHandle        ; [CPU_U] 
         000001ab 0000 
    2198                      .dwpsn  file "C:/ti/motorware/motorware_1_01_00_16/sw/solutions/instaspin_foc/src/proj_lab09.c",line 
    2199 000001ac 8DC0-         MOVL      XAR3,#_gDrvSpi8301Vars ; [CPU_U] |282| 
         000001ad 0040 
    2200 000001ae 8A00-         MOVL      XAR4,@_halHandle      ; [CPU_] |282| 
    2201 000001af 83A3          MOVL      XAR5,XAR3             ; [CPU_] |282| 
    2202              $C$DW$239       .dwtag  DW_TAG_TI_branch
    2203                      .dwattr $C$DW$239, DW_AT_low_pc(0x00)
    2204                      .dwattr $C$DW$239, DW_AT_name("_HAL_setupDrvSpi")
    2205                      .dwattr $C$DW$239, DW_AT_TI_call
    2206 000001b0 7640!         LCR       #_HAL_setupDrvSpi     ; [CPU_] |282| 
         000001b1 0000 
    2207                      ; call occurs [#_HAL_setupDrvSpi] ; [] |282| 
    2208 000001b2 761F-         MOVW      DP,#_ctrlHandle       ; [CPU_U] 
         000001b3 0000 
    2209                      .dwpsn  file "C:/ti/motorware/motorware_1_01_00_16/sw/modules/ctrl/src/32b/ctrl.h",line 1246,column 3
    2210 000001b4 02F1          MOVB      ACC,#241              ; [CPU_] |1246| 
    2211 000001b5 0706-         ADDL      ACC,@_ctrlHandle      ; [CPU_] |1246| 
    2212 000001b6 8AA9          MOVL      XAR4,ACC              ; [CPU_] |1246| 
    2213 000001b7 56BF          MOVB      *+XAR4[0],#1,UNC      ; [CPU_] |1246| 
         000001b8 01C4 
    2214                      .dwpsn  file "C:/ti/motorware/motorware_1_01_00_16/sw/solutions/instaspin_foc/src/proj_lab09.c",line 
    2215              $C$DW$240       .dwtag  DW_TAG_TI_branch
    2216                      .dwattr $C$DW$240, DW_AT_low_pc(0x00)
    2217                      .dwattr $C$DW$240, DW_AT_name("_USER_computeFlux_pu_to_Wb_sf")
    2218                      .dwattr $C$DW$240, DW_AT_TI_call
    2219 000001b9 7640!         LCR       #_USER_computeFlux_pu_to_Wb_sf ; [CPU_] |298| 
         000001ba 0000 
    2220                      ; call occurs [#_USER_computeFlux_pu_to_Wb_sf] ; [] |298| 
    2221 000001bb 761F-         MOVW      DP,#_gFlux_pu_to_Wb_sf ; [CPU_U] 
         000001bc 0000 
    2222 000001bd 1E10-         MOVL      @_gFlux_pu_to_Wb_sf,ACC ; [CPU_] |298| 
    2223                      .dwpsn  file "C:/ti/motorware/motorware_1_01_00_16/sw/solutions/instaspin_foc/src/proj_lab09.c",line 
    2224              $C$DW$241       .dwtag  DW_TAG_TI_branch
    2225                      .dwattr $C$DW$241, DW_AT_low_pc(0x00)
    2226                      .dwattr $C$DW$241, DW_AT_name("_USER_computeFlux_pu_to_VpHz_sf")
    2227                      .dwattr $C$DW$241, DW_AT_TI_call
    2228 000001be 7640!         LCR       #_USER_computeFlux_pu_to_VpHz_sf ; [CPU_] |299| 
         000001bf 0000 
    2229                      ; call occurs [#_USER_computeFlux_pu_to_VpHz_sf] ; [] |299| 
    2230 000001c0 761F-         MOVW      DP,#_gFlux_pu_to_VpHz_sf ; [CPU_U] 
         000001c1 0000 
    2231 000001c2 1E12-         MOVL      @_gFlux_pu_to_VpHz_sf,ACC ; [CPU_] |299| 
    2232                      .dwpsn  file "C:/ti/motorware/motorware_1_01_00_16/sw/solutions/instaspin_foc/src/proj_lab09.c",line 
    2233              $C$DW$242       .dwtag  DW_TAG_TI_branch
    2234                      .dwattr $C$DW$242, DW_AT_low_pc(0x00)
    2235                      .dwattr $C$DW$242, DW_AT_name("_USER_computeTorque_Ls_Id_Iq_pu_to_Nm_sf")
    2236                      .dwattr $C$DW$242, DW_AT_TI_call
    2237 000001c3 7640!         LCR       #_USER_computeTorque_Ls_Id_Iq_pu_to_Nm_sf ; [CPU_] |300| 
         000001c4 0000 
    2238                      ; call occurs [#_USER_computeTorque_Ls_Id_Iq_pu_to_Nm_sf] ; [] |300| 
    2239 000001c5 761F-         MOVW      DP,#_gTorque_Ls_Id_Iq_pu_to_Nm_sf ; [CPU_U] 
         000001c6 0000 
    2240 000001c7 1E0C-         MOVL      @_gTorque_Ls_Id_Iq_pu_to_Nm_sf,ACC ; [CPU_] |300| 
TMS320C2000 Assembler PC v6.4.10 Mon Jul 11 12:58:34 2016

Tools Copyright (c) 1996-2015 Texas Instruments Incorporated
C:\Users\bee25\AppData\Local\Temp\2398010                            PAGE   46

    2241                      .dwpsn  file "C:/ti/motorware/motorware_1_01_00_16/sw/solutions/instaspin_foc/src/proj_lab09.c",line 
    2242              $C$DW$243       .dwtag  DW_TAG_TI_branch
    2243                      .dwattr $C$DW$243, DW_AT_low_pc(0x00)
    2244                      .dwattr $C$DW$243, DW_AT_name("_USER_computeTorque_Flux_Iq_pu_to_Nm_sf")
    2245                      .dwattr $C$DW$243, DW_AT_TI_call
    2246 000001c8 7640!         LCR       #_USER_computeTorque_Flux_Iq_pu_to_Nm_sf ; [CPU_] |301| 
         000001c9 0000 
    2247                      ; call occurs [#_USER_computeTorque_Flux_Iq_pu_to_Nm_sf] ; [] |301| 
    2248 000001ca 761F-         MOVW      DP,#_gTorque_Flux_Iq_pu_to_Nm_sf ; [CPU_U] 
         000001cb 0000 
    2249 000001cc 1E0E-         MOVL      @_gTorque_Flux_Iq_pu_to_Nm_sf,ACC ; [CPU_] |301| 
    2250 000001cd       $C$L11:    
    2251 000001cd 761F-         MOVW      DP,#_gMotorVars       ; [CPU_U] 
         000001ce 0002 
    2252                      .dwpsn  file "C:/ti/motorware/motorware_1_01_00_16/sw/solutions/instaspin_foc/src/proj_lab09.c",line 
    2253 000001cf 9200-         MOV       AL,@_gMotorVars       ; [CPU_] |307| 
    2254 000001d0 ECFD          BF        $C$L11,EQ             ; [CPU_] |307| 
    2255                      ; branchcc occurs ; [] |307| 
    2256 000001d1 761F-         MOVW      DP,#_Flag_Latch_softwareUpdate ; [CPU_U] 
         000001d2 0000 
    2257                      .dwpsn  file "C:/ti/motorware/motorware_1_01_00_16/sw/solutions/instaspin_foc/src/proj_lab09.c",line 
    2258 000001d3 8606-         MOVL      XAR2,@_ctrlHandle     ; [CPU_] |312| 
    2259                      .dwpsn  file "C:/ti/motorware/motorware_1_01_00_16/sw/modules/ctrl/src/32b/ctrl.h",line 1288,column 3
    2260 000001d4 D0F4          MOVB      XAR0,#244             ; [CPU_] |1288| 
    2261                      .dwpsn  file "C:/ti/motorware/motorware_1_01_00_16/sw/solutions/instaspin_foc/src/proj_lab09.c",line 
    2262 000001d5 56BF-         MOVB      @_Flag_Latch_softwareUpdate,#1,UNC ; [CPU_] |309| 
         000001d6 0101 
    2263                      .dwpsn  file "C:/ti/motorware/motorware_1_01_00_16/sw/modules/ctrl/src/32b/ctrl.h",line 1288,column 3
    2264 000001d7 56BF          MOVB      *+XAR2[AR0],#1,UNC    ; [CPU_] |1288| 
         000001d8 0192 
    2265                      .dwpsn  file "C:/ti/motorware/motorware_1_01_00_16/sw/solutions/instaspin_foc/src/proj_lab09.c",line 
    2266 000001d9 FFEF          B         $C$L28,UNC            ; [CPU_] |315| 
         000001da 01B5 
    2267                      ; branch occurs ; [] |315| 
    2268 000001db       $C$L12:    
    2269                      .dwpsn  file "C:/ti/motorware/motorware_1_01_00_16/sw/solutions/instaspin_foc/src/proj_lab09.c",line 
    2270 000001db 0A00-         INC       @_gCounter_updateGlobals ; [CPU_] |320| 
    2271                      .dwpsn  file "C:/ti/motorware/motorware_1_01_00_16/sw/modules/ctrl/src/32b/ctrl.h",line 1304,column 3
    2272 000001dc D0F5          MOVB      XAR0,#245             ; [CPU_] |1304| 
    2273                      .dwpsn  file "C:/ti/motorware/motorware_1_01_00_16/sw/solutions/instaspin_foc/src/proj_lab09.c",line 
    2274 000001dd 92F1          MOV       AL,*+XAR1[6]          ; [CPU_] |323| 
    2275                      .dwpsn  file "C:/ti/motorware/motorware_1_01_00_16/sw/modules/ctrl/src/32b/ctrl.h",line 1304,column 3
    2276 000001de 9692          MOV       *+XAR2[AR0],AL        ; [CPU_] |1304| 
    2277                      .dwpsn  file "C:/ti/motorware/motorware_1_01_00_16/sw/solutions/instaspin_foc/src/proj_lab09.c",line 
    2278 000001df D018          MOVB      XAR0,#24              ; [CPU_] |326| 
    2279 000001e0 8A92          MOVL      XAR4,*+XAR2[AR0]      ; [CPU_] |326| 
    2280 000001e1 92E9          MOV       AL,*+XAR1[5]          ; [CPU_] |326| 
    2281              $C$DW$244       .dwtag  DW_TAG_TI_branch
    2282                      .dwattr $C$DW$244, DW_AT_low_pc(0x00)
    2283                      .dwattr $C$DW$244, DW_AT_name("_EST_setFlag_enableRsRecalc")
    2284                      .dwattr $C$DW$244, DW_AT_TI_call
    2285 000001e2 7640!         LCR       #_EST_setFlag_enableRsRecalc ; [CPU_] |326| 
         000001e3 0000 
    2286                      ; call occurs [#_EST_setFlag_enableRsRecalc] ; [] |326| 
    2287 000001e4 761F-         MOVW      DP,#_ctrlHandle       ; [CPU_U] 
TMS320C2000 Assembler PC v6.4.10 Mon Jul 11 12:58:34 2016

Tools Copyright (c) 1996-2015 Texas Instruments Incorporated
C:\Users\bee25\AppData\Local\Temp\2398010                            PAGE   47

         000001e5 0000 
    2288                      .dwpsn  file "C:/ti/motorware/motorware_1_01_00_16/sw/solutions/instaspin_foc/src/proj_lab09.c",line 
    2289 000001e6 8A06-         MOVL      XAR4,@_ctrlHandle     ; [CPU_] |329| 
    2290                      .dwpsn  file "C:/ti/motorware/motorware_1_01_00_16/sw/modules/ctrl/src/32b/ctrl.h",line 1275,column 3
    2291 000001e7 D0F3          MOVB      XAR0,#243             ; [CPU_] |1275| 
    2292                      .dwpsn  file "C:/ti/motorware/motorware_1_01_00_16/sw/solutions/instaspin_foc/src/proj_lab09.c",line 
    2293 000001e8 92F9          MOV       AL,*+XAR1[7]          ; [CPU_] |329| 
    2294                      .dwpsn  file "C:/ti/motorware/motorware_1_01_00_16/sw/modules/ctrl/src/32b/ctrl.h",line 1275,column 3
    2295 000001e9 9694          MOV       *+XAR4[AR0],AL        ; [CPU_] |1275| 
    2296                      .dwpsn  file "C:/ti/motorware/motorware_1_01_00_16/sw/modules/ctrl/src/32b/ctrl.h",line 1060,column 3
    2297 000001ea 92E4          MOV       AL,*+XAR4[4]          ; [CPU_] |1060| 
    2298 000001eb 56C1          BF        $C$L23,EQ             ; [CPU_] |1060| 
         000001ec 00EB 
    2299                      ; branchcc occurs ; [] |1060| 
    2300                      .dwpsn  file "C:/ti/motorware/motorware_1_01_00_16/sw/solutions/instaspin_foc/src/proj_lab09.c",line 
    2301              $C$DW$245       .dwtag  DW_TAG_TI_branch
    2302                      .dwattr $C$DW$245, DW_AT_low_pc(0x00)
    2303                      .dwattr $C$DW$245, DW_AT_name("_CTRL_updateState")
    2304                      .dwattr $C$DW$245, DW_AT_TI_call
    2305 000001ed 7640!         LCR       #_CTRL_updateState    ; [CPU_] |346| 
         000001ee 0000 
    2306                      ; call occurs [#_CTRL_updateState] ; [] |346| 
    2307 000001ef 761F-         MOVW      DP,#_ctrlHandle       ; [CPU_U] 
         000001f0 0000 
    2308                      .dwpsn  file "C:/ti/motorware/motorware_1_01_00_16/sw/solutions/instaspin_foc/src/proj_lab09.c",line 
    2309 000001f1 8A06-         MOVL      XAR4,@_ctrlHandle     ; [CPU_] |349| 
    2310 000001f2 93C9          MOV       AH,*+XAR1[1]          ; [CPU_] |349| 
    2311                      .dwpsn  file "C:/ti/motorware/motorware_1_01_00_16/sw/modules/ctrl/src/32b/ctrl.h",line 1218,column 3
    2312 000001f3 D0F0          MOVB      XAR0,#240             ; [CPU_] |1218| 
    2313                      .dwpsn  file "C:/ti/motorware/motorware_1_01_00_16/sw/solutions/instaspin_foc/src/proj_lab09.c",line 
    2314 000001f4 5200          CMPB      AL,#0                 ; [CPU_] |351| 
    2315                      .dwpsn  file "C:/ti/motorware/motorware_1_01_00_16/sw/modules/ctrl/src/32b/ctrl.h",line 1218,column 3
    2316 000001f5 9794          MOV       *+XAR4[AR0],AH        ; [CPU_] |1218| 
    2317                      .dwpsn  file "C:/ti/motorware/motorware_1_01_00_16/sw/solutions/instaspin_foc/src/proj_lab09.c",line 
    2318 000001f6 56C1          BF        $C$L24,EQ             ; [CPU_] |351| 
         000001f7 0100 
    2319                      ; branchcc occurs ; [] |351| 
    2320                      .dwpsn  file "C:/ti/motorware/motorware_1_01_00_16/sw/modules/ctrl/src/32b/ctrl.h",line 771,column 3,
    2321 000001f8 92E4          MOV       AL,*+XAR4[4]          ; [CPU_] |771| 
    2322 000001f9 9647          MOV       *-SP[7],AL            ; [CPU_] |771| 
    2323 000001fa 5202          CMPB      AL,#2                 ; [CPU_] |771| 
    2324 000001fb 56C1          BF        $C$L20,EQ             ; [CPU_] |771| 
         000001fc 00AF 
    2325                      ; branchcc occurs ; [] |771| 
    2326                      .dwpsn  file "C:/ti/motorware/motorware_1_01_00_16/sw/solutions/instaspin_foc/src/proj_lab09.c",line 
    2327 000001fd 5203          CMPB      AL,#3                 ; [CPU_] |360| 
    2328 000001fe EC22          BF        $C$L13,EQ             ; [CPU_] |360| 
    2329                      ; branchcc occurs ; [] |360| 
    2330                      .dwpsn  file "C:/ti/motorware/motorware_1_01_00_16/sw/solutions/instaspin_foc/src/proj_lab09.c",line 
    2331 000001ff 5201          CMPB      AL,#1                 ; [CPU_] |393| 
    2332 00000200 56C0          BF        $C$L22,NEQ            ; [CPU_] |393| 
         00000201 00C5 
    2333                      ; branchcc occurs ; [] |393| 
    2334 00000202 761F-         MOVW      DP,#_halHandle        ; [CPU_U] 
         00000203 0000 
TMS320C2000 Assembler PC v6.4.10 Mon Jul 11 12:58:34 2016

Tools Copyright (c) 1996-2015 Texas Instruments Incorporated
C:\Users\bee25\AppData\Local\Temp\2398010                            PAGE   48

    2335                      .dwpsn  file "C:/ti/motorware/motorware_1_01_00_16/sw/modules/hal/boards/boostxldrv8301_revB/f28x/f28
    2336 00000204 C400-         MOVL      XAR6,@_halHandle      ; [CPU_] |240| 
    2337 00000205 83A6          MOVL      XAR5,XAR6             ; [CPU_] |240| 
    2338 00000206 DD7E          ADDB      XAR5,#126             ; [CPU_] |240| 
    2339 00000207 7622   EALLOW
    2340                      .dwpsn  file "C:/ti/motorware/motorware_1_01_00_16/sw/drivers/pwm/src/32b/f28x/f2802x/pwm.h",line 156
    2341 00000208 D07C          MOVB      XAR0,#124             ; [CPU_] |1567| 
    2342 00000209 0218          MOVB      ACC,#24               ; [CPU_] |1567| 
    2343 0000020a 0796          ADDL      ACC,*+XAR6[AR0]       ; [CPU_] |1567| 
    2344 0000020b 1EA6          MOVL      XAR6,ACC              ; [CPU_] |1567| 
    2345 0000020c 1AC6          OR        *+XAR6[0],#0x0004     ; [CPU_] |1567| 
         0000020d 0004 
    2346 0000020e 761A   EDIS
    2347 0000020f 7622   EALLOW
    2348 00000210 0218          MOVB      ACC,#24               ; [CPU_] |1567| 
    2349 00000211 07C5          ADDL      ACC,*+XAR5[0]         ; [CPU_] |1567| 
    2350 00000212 1EA6          MOVL      XAR6,ACC              ; [CPU_] |1567| 
    2351 00000213 1AC6          OR        *+XAR6[0],#0x0004     ; [CPU_] |1567| 
         00000214 0004 
    2352 00000215 761A   EDIS
    2353 00000216 7622   EALLOW
    2354 00000217 0218          MOVB      ACC,#24               ; [CPU_] |1567| 
    2355 00000218 07D5          ADDL      ACC,*+XAR5[2]         ; [CPU_] |1567| 
    2356 00000219 83A9          MOVL      XAR5,ACC              ; [CPU_] |1567| 
    2357 0000021a 1AC5          OR        *+XAR5[0],#0x0004     ; [CPU_] |1567| 
         0000021b 0004 
    2358 0000021c 761A   EDIS
    2359                      .dwpsn  file "C:/ti/motorware/motorware_1_01_00_16/sw/solutions/instaspin_foc/src/proj_lab09.c",line 
    2360 0000021d 2BC9          MOV       *+XAR1[1],#0          ; [CPU_] |397| 
    2361 0000021e FFEF          B         $C$L22,UNC            ; [CPU_] |397| 
         0000021f 00A7 
    2362                      ; branch occurs ; [] |397| 
    2363 00000220       $C$L13:    
    2364 00000220 761F-         MOVW      DP,#_gMotorVars+7     ; [CPU_U] 
         00000221 0002 
    2365                      .dwpsn  file "C:/ti/motorware/motorware_1_01_00_16/sw/solutions/instaspin_foc/src/proj_lab09.c",line 
    2366 00000222 9207-         MOV       AL,@_gMotorVars+7     ; [CPU_] |362| 
    2367 00000223 5201          CMPB      AL,#1                 ; [CPU_] |362| 
    2368 00000224 EC21          BF        $C$L14,EQ             ; [CPU_] |362| 
    2369                      ; branchcc occurs ; [] |362| 
    2370 00000225 761F-         MOVW      DP,#_halHandle        ; [CPU_U] 
         00000226 0000 
    2371                      .dwpsn  file "C:/ti/motorware/motorware_1_01_00_16/sw/solutions/instaspin_foc/src/proj_lab09.c",line 
    2372 00000227 C400-         MOVL      XAR6,@_halHandle      ; [CPU_] |370| 
    2373                      .dwpsn  file "C:/ti/motorware/motorware_1_01_00_16/sw/modules/hal/boards/boostxldrv8301_revB/f28x/f28
    2374 00000228 D092          MOVB      XAR0,#146             ; [CPU_] |721| 
    2375 00000229 28A9          MOV       AL,#7574              ; [CPU_] |721| 
         0000022a 1D96 
    2376 0000022b 9BDB          MOV       AH,#219               ; [CPU_] |721| 
    2377                      .dwpsn  file "C:/ti/motorware/motorware_1_01_00_16/sw/solutions/instaspin_foc/src/proj_lab09.c",line 
    2378 0000022c 83A6          MOVL      XAR5,XAR6             ; [CPU_] |370| 
    2379                      .dwpsn  file "C:/ti/motorware/motorware_1_01_00_16/sw/modules/hal/boards/boostxldrv8301_revB/f28x/f28
    2380 0000022d 1E96          MOVL      *+XAR6[AR0],ACC       ; [CPU_] |721| 
    2381 0000022e D018          MOVB      XAR0,#24              ; [CPU_] |721| 
    2382 0000022f 28A9          MOV       AL,#42816             ; [CPU_] |721| 
TMS320C2000 Assembler PC v6.4.10 Mon Jul 11 12:58:34 2016

Tools Copyright (c) 1996-2015 Texas Instruments Incorporated
C:\Users\bee25\AppData\Local\Temp\2398010                            PAGE   49

         00000230 A740 
    2383                      .dwpsn  file "C:/ti/motorware/motorware_1_01_00_16/sw/solutions/instaspin_foc/src/proj_lab09.c",line 
    2384 00000231 DD7C          ADDB      XAR5,#124             ; [CPU_] |370| 
    2385                      .dwpsn  file "C:/ti/motorware/motorware_1_01_00_16/sw/modules/hal/boards/boostxldrv8301_revB/f28x/f28
    2386 00000232 769A          MOVL      XAR6,#1710397         ; [CPU_U] |725| 
         00000233 193D 
    2387                      .dwpsn  file "C:/ti/motorware/motorware_1_01_00_16/sw/modules/hal/boards/boostxldrv8301_revB/f28x/f28
    2388 00000234 1E95          MOVL      *+XAR5[AR0],ACC       ; [CPU_] |721| 
    2389 00000235 D01A          MOVB      XAR0,#26              ; [CPU_] |721| 
    2390 00000236 28A9          MOV       AL,#7887              ; [CPU_] |721| 
         00000237 1ECF 
    2391 00000238 9BE0          MOV       AH,#224               ; [CPU_] |721| 
    2392 00000239 1E95          MOVL      *+XAR5[AR0],ACC       ; [CPU_] |721| 
    2393                      .dwpsn  file "C:/ti/motorware/motorware_1_01_00_16/sw/modules/hal/boards/boostxldrv8301_revB/f28x/f28
    2394 0000023a D01C          MOVB      XAR0,#28              ; [CPU_] |725| 
    2395 0000023b C295          MOVL      *+XAR5[AR0],XAR6      ; [CPU_] |725| 
    2396 0000023c D01E          MOVB      XAR0,#30              ; [CPU_] |725| 
    2397 0000023d 769A          MOVL      XAR6,#1713852         ; [CPU_U] |725| 
         0000023e 26BC 
    2398 0000023f C295          MOVL      *+XAR5[AR0],XAR6      ; [CPU_] |725| 
    2399 00000240 D020          MOVB      XAR0,#32              ; [CPU_] |725| 
    2400 00000241 769A          MOVL      XAR6,#1714641         ; [CPU_U] |725| 
         00000242 29D1 
    2401 00000243 C295          MOVL      *+XAR5[AR0],XAR6      ; [CPU_] |725| 
    2402 00000244 6F3E          B         $C$L19,UNC            ; [CPU_] |725| 
    2403                      ; branch occurs ; [] |725| 
    2404 00000245       $C$L14:    
    2405 00000245 761F-         MOVW      DP,#_halHandle        ; [CPU_U] 
         00000246 0000 
    2406                      .dwpsn  file "C:/ti/motorware/motorware_1_01_00_16/sw/solutions/instaspin_foc/src/proj_lab09.c",line 
    2407 00000247 C400-         MOVL      XAR6,@_halHandle      ; [CPU_] |365| 
    2408 00000248 83A6          MOVL      XAR5,XAR6             ; [CPU_] |365| 
    2409                      .dwpsn  file "C:/ti/motorware/motorware_1_01_00_16/sw/modules/hal/boards/boostxldrv8301_revB/f28x/f28
    2410 00000249 9A00          MOVB      AL,#0                 ; [CPU_] |1002| 
    2411 0000024a 9648          MOV       *-SP[8],AL            ; [CPU_] |1002| 
    2412                      .dwpsn  file "C:/ti/motorware/motorware_1_01_00_16/sw/solutions/instaspin_foc/src/proj_lab09.c",line 
    2413 0000024b DD7C          ADDB      XAR5,#124             ; [CPU_] |365| 
    2414 0000024c 2901          CLRC      SXM                   ; [CPU_] 
    2415                      .dwpsn  file "C:/ti/motorware/motorware_1_01_00_16/sw/modules/hal/boards/boostxldrv8301_revB/f28x/f28
    2416 0000024d 6F14          B         $C$L16,UNC            ; [CPU_] |1002| 
    2417                      ; branch occurs ; [] |1002| 
    2418 0000024e       $C$L15:    
    2419                      .dwpsn  file "C:/ti/motorware/motorware_1_01_00_16/sw/modules/hal/boards/boostxldrv8301_revB/f28x/f28
    2420 0000024e 5603          MOV       ACC,AL << 1           ; [CPU_] |334| 
         0000024f 01A9 
    2421 00000250 1EAC          MOVL      XT,ACC                ; [CPU_] |334| 
    2422                      .dwpsn  file "C:/ti/motorware/motorware_1_01_00_16/sw/modules/hal/boards/boostxldrv8301_revB/f28x/f28
    2423 00000251 8BA6          MOVL      XAR1,XAR6             ; [CPU_] |1006| 
    2424                      .dwpsn  file "C:/ti/motorware/motorware_1_01_00_16/sw/modules/hal/boards/boostxldrv8301_revB/f28x/f28
    2425 00000252 06A6          MOVL      ACC,XAR6              ; [CPU_] |334| 
    2426 00000253 07AC          ADDL      ACC,XT                ; [CPU_] |334| 
    2427 00000254 1EA7          MOVL      XAR7,ACC              ; [CPU_] |334| 
    2428                      .dwpsn  file "C:/ti/motorware/motorware_1_01_00_16/sw/modules/hal/boards/boostxldrv8301_revB/f28x/f28
    2429 00000255 ABA9          MOVL      ACC,XT                ; [CPU_] |1006| 
    2430 00000256 5601          ADDL      XAR1,ACC              ; [CPU_] |1006| 
TMS320C2000 Assembler PC v6.4.10 Mon Jul 11 12:58:34 2016

Tools Copyright (c) 1996-2015 Texas Instruments Incorporated
C:\Users\bee25\AppData\Local\Temp\2398010                            PAGE   50

         00000257 00A1 
    2431                      .dwpsn  file "C:/ti/motorware/motorware_1_01_00_16/sw/modules/hal/boards/boostxldrv8301_revB/f28x/f28
    2432 00000258 D092          MOVB      XAR0,#146             ; [CPU_] |334| 
    2433 00000259 0697          MOVL      ACC,*+XAR7[AR0]       ; [CPU_] |334| 
    2434                      .dwpsn  file "C:/ti/motorware/motorware_1_01_00_16/sw/modules/hal/boards/boostxldrv8301_revB/f28x/f28
    2435 0000025a D00A          MOVB      XAR0,#10              ; [CPU_] |1006| 
    2436 0000025b 8E91          MOVL      XAR0,*+XAR1[AR0]      ; [CPU_] |1006| 
    2437 0000025c 07C0          ADDL      ACC,*+XAR0[0]         ; [CPU_] |1006| 
    2438                      .dwpsn  file "C:/ti/motorware/motorware_1_01_00_16/sw/modules/hal/boards/boostxldrv8301_revB/f28x/f28
    2439 0000025d D092          MOVB      XAR0,#146             ; [CPU_] |721| 
    2440 0000025e 1E97          MOVL      *+XAR7[AR0],ACC       ; [CPU_] |721| 
    2441                      .dwpsn  file "C:/ti/motorware/motorware_1_01_00_16/sw/modules/hal/boards/boostxldrv8301_revB/f28x/f28
    2442 0000025f 0A48          INC       *-SP[8]               ; [CPU_] |1002| 
    2443                      .dwpsn  file "C:/ti/motorware/motorware_1_01_00_16/sw/modules/hal/boards/boostxldrv8301_revB/f28x/f28
    2444 00000260 9248          MOV       AL,*-SP[8]            ; [CPU_] |721| 
    2445 00000261       $C$L16:    
    2446                      .dwpsn  file "C:/ti/motorware/motorware_1_01_00_16/sw/modules/hal/boards/boostxldrv8301_revB/f28x/f28
    2447 00000261 D0A6          MOVB      XAR0,#166             ; [CPU_] |1002| 
    2448 00000262 5496          CMP       AL,*+XAR6[AR0]        ; [CPU_] |1002| 
    2449 00000263 56C8          BF        $C$L15,LO             ; [CPU_] |1002| 
         00000264 FFEB 
    2450                      ; branchcc occurs ; [] |1002| 
    2451                      .dwpsn  file "C:/ti/motorware/motorware_1_01_00_16/sw/modules/hal/boards/boostxldrv8301_revB/f28x/f28
    2452 00000265 2BAC          MOV       T,#0                  ; [CPU_] |1013| 
    2453 00000266 2901          CLRC      SXM                   ; [CPU_] 
    2454 00000267 6F16          B         $C$L18,UNC            ; [CPU_] |1013| 
    2455                      ; branch occurs ; [] |1013| 
    2456 00000268       $C$L17:    
    2457                      .dwpsn  file "C:/ti/motorware/motorware_1_01_00_16/sw/modules/hal/boards/boostxldrv8301_revB/f28x/f28
    2458 00000268 5603          MOV       ACC,AL << 1           ; [CPU_] |334| 
         00000269 01A9 
    2459 0000026a 1E4A          MOVL      *-SP[10],ACC          ; [CPU_] |334| 
    2460 0000026b C54A          MOVL      XAR7,*-SP[10]         ; [CPU_] |334| 
    2461                      .dwpsn  file "C:/ti/motorware/motorware_1_01_00_16/sw/modules/hal/boards/boostxldrv8301_revB/f28x/f28
    2462 0000026c 8BA6          MOVL      XAR1,XAR6             ; [CPU_] |1017| 
    2463                      .dwpsn  file "C:/ti/motorware/motorware_1_01_00_16/sw/modules/hal/boards/boostxldrv8301_revB/f28x/f28
    2464 0000026d 06A6          MOVL      ACC,XAR6              ; [CPU_] |334| 
    2465 0000026e 5601          ADDL      XAR7,ACC              ; [CPU_] |334| 
         0000026f 00A7 
    2466                      .dwpsn  file "C:/ti/motorware/motorware_1_01_00_16/sw/modules/hal/boards/boostxldrv8301_revB/f28x/f28
    2467 00000270 064A          MOVL      ACC,*-SP[10]          ; [CPU_] |1017| 
    2468 00000271 5601          ADDL      XAR1,ACC              ; [CPU_] |1017| 
         00000272 00A1 
    2469                      .dwpsn  file "C:/ti/motorware/motorware_1_01_00_16/sw/modules/hal/boards/boostxldrv8301_revB/f28x/f28
    2470 00000273 D098          MOVB      XAR0,#152             ; [CPU_] |334| 
    2471 00000274 0697          MOVL      ACC,*+XAR7[AR0]       ; [CPU_] |334| 
    2472                      .dwpsn  file "C:/ti/motorware/motorware_1_01_00_16/sw/modules/hal/boards/boostxldrv8301_revB/f28x/f28
    2473 00000275 D040          MOVB      XAR0,#64              ; [CPU_] |1017| 
    2474 00000276 8E91          MOVL      XAR0,*+XAR1[AR0]      ; [CPU_] |1017| 
    2475 00000277 07C0          ADDL      ACC,*+XAR0[0]         ; [CPU_] |1017| 
    2476                      .dwpsn  file "C:/ti/motorware/motorware_1_01_00_16/sw/modules/hal/boards/boostxldrv8301_revB/f28x/f28
    2477 00000278 D098          MOVB      XAR0,#152             ; [CPU_] |725| 
    2478 00000279 1E97          MOVL      *+XAR7[AR0],ACC       ; [CPU_] |725| 
    2479 0000027a 92AC          MOV       AL,T                  ; [CPU_] |725| 
    2480                      .dwpsn  file "C:/ti/motorware/motorware_1_01_00_16/sw/modules/hal/boards/boostxldrv8301_revB/f28x/f28
TMS320C2000 Assembler PC v6.4.10 Mon Jul 11 12:58:34 2016

Tools Copyright (c) 1996-2015 Texas Instruments Incorporated
C:\Users\bee25\AppData\Local\Temp\2398010                            PAGE   51

    2481 0000027b 9C01          ADDB      AL,#1                 ; [CPU_] |1013| 
    2482 0000027c 2DA9          MOV       T,AL                  ; [CPU_] |1013| 
    2483 0000027d       $C$L18:    
    2484                      .dwpsn  file "C:/ti/motorware/motorware_1_01_00_16/sw/modules/hal/boards/boostxldrv8301_revB/f28x/f28
    2485 0000027d D0A7          MOVB      XAR0,#167             ; [CPU_] |1013| 
    2486 0000027e 92AC          MOV       AL,T                  ; [CPU_] |1013| 
    2487 0000027f 5496          CMP       AL,*+XAR6[AR0]        ; [CPU_] |1013| 
    2488 00000280 56C8          BF        $C$L17,LO             ; [CPU_] |1013| 
         00000281 FFE8 
    2489                      ; branchcc occurs ; [] |1013| 
    2490 00000282       $C$L19:    
    2491                      .dwpsn  file "C:/ti/motorware/motorware_1_01_00_16/sw/solutions/instaspin_foc/src/proj_lab09.c",line 
    2492 00000282 D016          MOVB      XAR0,#22              ; [CPU_] |381| 
    2493 00000283 7680-         MOVL      XAR6,#_gMotorVars+92  ; [CPU_U] |381| 
         00000284 00DC 
    2494 00000285 0695          MOVL      ACC,*+XAR5[AR0]       ; [CPU_] |381| 
    2495                      .dwpsn  file "C:/ti/motorware/motorware_1_01_00_16/sw/solutions/instaspin_foc/src/proj_lab09.c",line 
    2496 00000286 D018          MOVB      XAR0,#24              ; [CPU_] |382| 
    2497                      .dwpsn  file "C:/ti/motorware/motorware_1_01_00_16/sw/solutions/instaspin_foc/src/proj_lab09.c",line 
    2498 00000287 1EC6          MOVL      *+XAR6[0],ACC         ; [CPU_] |381| 
    2499                      .dwpsn  file "C:/ti/motorware/motorware_1_01_00_16/sw/solutions/instaspin_foc/src/proj_lab09.c",line 
    2500 00000288 0695          MOVL      ACC,*+XAR5[AR0]       ; [CPU_] |382| 
    2501                      .dwpsn  file "C:/ti/motorware/motorware_1_01_00_16/sw/solutions/instaspin_foc/src/proj_lab09.c",line 
    2502 00000289 D01A          MOVB      XAR0,#26              ; [CPU_] |383| 
    2503                      .dwpsn  file "C:/ti/motorware/motorware_1_01_00_16/sw/solutions/instaspin_foc/src/proj_lab09.c",line 
    2504 0000028a 1ED6          MOVL      *+XAR6[2],ACC         ; [CPU_] |382| 
    2505                      .dwpsn  file "C:/ti/motorware/motorware_1_01_00_16/sw/solutions/instaspin_foc/src/proj_lab09.c",line 
    2506 0000028b 0695          MOVL      ACC,*+XAR5[AR0]       ; [CPU_] |383| 
    2507                      .dwpsn  file "C:/ti/motorware/motorware_1_01_00_16/sw/solutions/instaspin_foc/src/proj_lab09.c",line 
    2508 0000028c D01C          MOVB      XAR0,#28              ; [CPU_] |386| 
    2509                      .dwpsn  file "C:/ti/motorware/motorware_1_01_00_16/sw/solutions/instaspin_foc/src/proj_lab09.c",line 
    2510 0000028d 1EE6          MOVL      *+XAR6[4],ACC         ; [CPU_] |383| 
    2511                      .dwpsn  file "C:/ti/motorware/motorware_1_01_00_16/sw/solutions/instaspin_foc/src/proj_lab09.c",line 
    2512 0000028e 0695          MOVL      ACC,*+XAR5[AR0]       ; [CPU_] |386| 
    2513                      .dwpsn  file "C:/ti/motorware/motorware_1_01_00_16/sw/solutions/instaspin_foc/src/proj_lab09.c",line 
    2514 0000028f D01E          MOVB      XAR0,#30              ; [CPU_] |387| 
    2515                      .dwpsn  file "C:/ti/motorware/motorware_1_01_00_16/sw/solutions/instaspin_foc/src/proj_lab09.c",line 
    2516 00000290 1EF6          MOVL      *+XAR6[6],ACC         ; [CPU_] |386| 
    2517                      .dwpsn  file "C:/ti/motorware/motorware_1_01_00_16/sw/solutions/instaspin_foc/src/proj_lab09.c",line 
    2518 00000291 0695          MOVL      ACC,*+XAR5[AR0]       ; [CPU_] |387| 
    2519 00000292 D008          MOVB      XAR0,#8               ; [CPU_] |387| 
    2520 00000293 1E96          MOVL      *+XAR6[AR0],ACC       ; [CPU_] |387| 
    2521                      .dwpsn  file "C:/ti/motorware/motorware_1_01_00_16/sw/solutions/instaspin_foc/src/proj_lab09.c",line 
    2522 00000294 D020          MOVB      XAR0,#32              ; [CPU_] |388| 
    2523 00000295 0695          MOVL      ACC,*+XAR5[AR0]       ; [CPU_] |388| 
    2524 00000296 D00A          MOVB      XAR0,#10              ; [CPU_] |388| 
    2525 00000297 1E96          MOVL      *+XAR6[AR0],ACC       ; [CPU_] |388| 
    2526 00000298 7622   EALLOW
    2527                      .dwpsn  file "C:/ti/motorware/motorware_1_01_00_16/sw/drivers/pwm/src/32b/f28x/f2802x/pwm.h",line 951
    2528 00000299 0217          MOVB      ACC,#23               ; [CPU_] |951| 
    2529 0000029a 07C5          ADDL      ACC,*+XAR5[0]         ; [CPU_] |951| 
    2530 0000029b 1EA6          MOVL      XAR6,ACC              ; [CPU_] |951| 
    2531 0000029c 56BF          MOVB      *+XAR6[0],#4,UNC      ; [CPU_] |951| 
         0000029d 04C6 
    2532 0000029e 761A   EDIS
TMS320C2000 Assembler PC v6.4.10 Mon Jul 11 12:58:34 2016

Tools Copyright (c) 1996-2015 Texas Instruments Incorporated
C:\Users\bee25\AppData\Local\Temp\2398010                            PAGE   52

    2533 0000029f 7622   EALLOW
    2534 000002a0 0217          MOVB      ACC,#23               ; [CPU_] |951| 
    2535 000002a1 07D5          ADDL      ACC,*+XAR5[2]         ; [CPU_] |951| 
    2536 000002a2 1EA6          MOVL      XAR6,ACC              ; [CPU_] |951| 
    2537 000002a3 56BF          MOVB      *+XAR6[0],#4,UNC      ; [CPU_] |951| 
         000002a4 04C6 
    2538 000002a5 761A   EDIS
    2539 000002a6 7622   EALLOW
    2540 000002a7 0217          MOVB      ACC,#23               ; [CPU_] |951| 
    2541 000002a8 07E5          ADDL      ACC,*+XAR5[4]         ; [CPU_] |951| 
    2542                      .dwpsn  file "C:/ti/motorware/motorware_1_01_00_16/sw/drivers/pwm/src/32b/f28x/f2802x/pwm.h",line 955
    2543 000002a9 6F18          B         $C$L21,UNC            ; [CPU_] |955| 
    2544                      ; branch occurs ; [] |955| 
    2545 000002aa       $C$L20:    
    2546 000002aa 761F-         MOVW      DP,#_halHandle        ; [CPU_U] 
         000002ab 0000 
    2547                      .dwpsn  file "C:/ti/motorware/motorware_1_01_00_16/sw/modules/hal/boards/boostxldrv8301_revB/f28x/f28
    2548 000002ac C500-         MOVL      XAR7,@_halHandle      ; [CPU_] |282| 
    2549 000002ad 83A7          MOVL      XAR5,XAR7             ; [CPU_] |282| 
    2550 000002ae DD7E          ADDB      XAR5,#126             ; [CPU_] |282| 
    2551 000002af 7622   EALLOW
    2552                      .dwpsn  file "C:/ti/motorware/motorware_1_01_00_16/sw/drivers/pwm/src/32b/f28x/f2802x/pwm.h",line 951
    2553 000002b0 D07C          MOVB      XAR0,#124             ; [CPU_] |951| 
    2554 000002b1 0217          MOVB      ACC,#23               ; [CPU_] |951| 
    2555 000002b2 0797          ADDL      ACC,*+XAR7[AR0]       ; [CPU_] |951| 
    2556 000002b3 1EA6          MOVL      XAR6,ACC              ; [CPU_] |951| 
    2557 000002b4 56BF          MOVB      *+XAR6[0],#4,UNC      ; [CPU_] |951| 
         000002b5 04C6 
    2558 000002b6 761A   EDIS
    2559 000002b7 7622   EALLOW
    2560 000002b8 0217          MOVB      ACC,#23               ; [CPU_] |951| 
    2561 000002b9 07C5          ADDL      ACC,*+XAR5[0]         ; [CPU_] |951| 
    2562 000002ba 1EA6          MOVL      XAR6,ACC              ; [CPU_] |951| 
    2563 000002bb 56BF          MOVB      *+XAR6[0],#4,UNC      ; [CPU_] |951| 
         000002bc 04C6 
    2564 000002bd 761A   EDIS
    2565 000002be 7622   EALLOW
    2566 000002bf 0217          MOVB      ACC,#23               ; [CPU_] |951| 
    2567 000002c0 07D5          ADDL      ACC,*+XAR5[2]         ; [CPU_] |951| 
    2568 000002c1       $C$L21:    
    2569 000002c1 83A9          MOVL      XAR5,ACC              ; [CPU_] |951| 
    2570 000002c2 56BF          MOVB      *+XAR5[0],#4,UNC      ; [CPU_] |951| 
         000002c3 04C5 
    2571 000002c4 761A   EDIS
    2572 000002c5       $C$L22:    
    2573                      .dwpsn  file "C:/ti/motorware/motorware_1_01_00_16/sw/solutions/instaspin_foc/src/proj_lab09.c",line 
    2574 000002c5 D0F5          MOVB      XAR0,#245             ; [CPU_] |400| 
    2575 000002c6 9294          MOV       AL,*+XAR4[AR0]        ; [CPU_] |400| 
    2576 000002c7 5201          CMPB      AL,#1                 ; [CPU_] |400| 
    2577 000002c8 ED2E          BF        $C$L24,NEQ            ; [CPU_] |400| 
    2578                      ; branchcc occurs ; [] |400| 
    2579 000002c9 9247          MOV       AL,*-SP[7]            ; [CPU_] 
    2580 000002ca 5201          CMPB      AL,#1                 ; [CPU_] |400| 
    2581 000002cb 56C9          BF        $C$L24,LOS            ; [CPU_] |400| 
         000002cc 002B 
TMS320C2000 Assembler PC v6.4.10 Mon Jul 11 12:58:34 2016

Tools Copyright (c) 1996-2015 Texas Instruments Incorporated
C:\Users\bee25\AppData\Local\Temp\2398010                            PAGE   53

    2582                      ; branchcc occurs ; [] |400| 
    2583 000002cd 761F-         MOVW      DP,#_gMotorVars+16    ; [CPU_U] 
         000002ce 0002 
    2584 000002cf 9210-         MOV       AL,@_gMotorVars+16    ; [CPU_] |400| 
    2585 000002d0 5206          CMPB      AL,#6                 ; [CPU_] |400| 
    2586 000002d1 ED25          BF        $C$L24,NEQ            ; [CPU_] |400| 
    2587                      ; branchcc occurs ; [] |400| 
    2588 000002d2 FF69          SPM       #0                    ; [CPU_] 
    2589                      .dwpsn  file "C:/ti/motorware/motorware_1_01_00_16/sw/solutions/instaspin_foc/src/proj_lab09.c",line 
    2590              $C$DW$246       .dwtag  DW_TAG_TI_branch
    2591                      .dwattr $C$DW$246, DW_AT_low_pc(0x00)
    2592                      .dwattr $C$DW$246, DW_AT_name("_USER_softwareUpdate1p6")
    2593                      .dwattr $C$DW$246, DW_AT_TI_call
    2594 000002d3 7640!         LCR       #_USER_softwareUpdate1p6 ; [CPU_] |405| 
         000002d4 0000 
    2595                      ; call occurs [#_USER_softwareUpdate1p6] ; [] |405| 
    2596 000002d5 6F21          B         $C$L24,UNC            ; [CPU_] |405| 
    2597                      ; branch occurs ; [] |405| 
    2598 000002d6       $C$L23:    
    2599                      .dwpsn  file "C:/ti/motorware/motorware_1_01_00_16/sw/modules/ctrl/src/32b/ctrl.h",line 1218,column 3
    2600 000002d6 D0F0          MOVB      XAR0,#240             ; [CPU_] |1218| 
    2601 000002d7 761F-         MOVW      DP,#_gMotorVars       ; [CPU_U] 
         000002d8 0002 
    2602 000002d9 2B94          MOV       *+XAR4[AR0],#0        ; [CPU_] |1218| 
    2603                      .dwpsn  file "C:/ti/motorware/motorware_1_01_00_16/sw/solutions/instaspin_foc/src/proj_lab09.c",line 
    2604 000002da 2B00-         MOV       @_gMotorVars,#0       ; [CPU_] |338| 
    2605 000002db 761F-         MOVW      DP,#_halHandle        ; [CPU_U] 
         000002dc 0000 
    2606                      .dwpsn  file "C:/ti/motorware/motorware_1_01_00_16/sw/modules/hal/boards/boostxldrv8301_revB/f28x/f28
    2607 000002dd 8300-         MOVL      XAR5,@_halHandle      ; [CPU_] |240| 
    2608 000002de 8AA5          MOVL      XAR4,XAR5             ; [CPU_] |240| 
    2609 000002df DC7E          ADDB      XAR4,#126             ; [CPU_] |240| 
    2610 000002e0 7622   EALLOW
    2611                      .dwpsn  file "C:/ti/motorware/motorware_1_01_00_16/sw/drivers/pwm/src/32b/f28x/f2802x/pwm.h",line 156
    2612 000002e1 0218          MOVB      ACC,#24               ; [CPU_] |1567| 
    2613 000002e2 D07C          MOVB      XAR0,#124             ; [CPU_] |1567| 
    2614 000002e3 0795          ADDL      ACC,*+XAR5[AR0]       ; [CPU_] |1567| 
    2615 000002e4 83A9          MOVL      XAR5,ACC              ; [CPU_] |1567| 
    2616 000002e5 1AC5          OR        *+XAR5[0],#0x0004     ; [CPU_] |1567| 
         000002e6 0004 
    2617 000002e7 761A   EDIS
    2618 000002e8 7622   EALLOW
    2619 000002e9 0218          MOVB      ACC,#24               ; [CPU_] |1567| 
    2620 000002ea 07C4          ADDL      ACC,*+XAR4[0]         ; [CPU_] |1567| 
    2621 000002eb 83A9          MOVL      XAR5,ACC              ; [CPU_] |1567| 
    2622 000002ec 1AC5          OR        *+XAR5[0],#0x0004     ; [CPU_] |1567| 
         000002ed 0004 
    2623 000002ee 761A   EDIS
    2624 000002ef 7622   EALLOW
    2625 000002f0 0218          MOVB      ACC,#24               ; [CPU_] |1567| 
    2626 000002f1 07D4          ADDL      ACC,*+XAR4[2]         ; [CPU_] |1567| 
    2627 000002f2 8AA9          MOVL      XAR4,ACC              ; [CPU_] |1567| 
    2628 000002f3 1AC4          OR        *+XAR4[0],#0x0004     ; [CPU_] |1567| 
         000002f4 0004 
    2629 000002f5 761A   EDIS
TMS320C2000 Assembler PC v6.4.10 Mon Jul 11 12:58:34 2016

Tools Copyright (c) 1996-2015 Texas Instruments Incorporated
C:\Users\bee25\AppData\Local\Temp\2398010                            PAGE   54

    2630 000002f6       $C$L24:    
    2631                      .dwpsn  file "C:/ti/motorware/motorware_1_01_00_16/sw/solutions/instaspin_foc/src/proj_lab09.c",line 
    2632 000002f6 D018          MOVB      XAR0,#24              ; [CPU_] |412| 
    2633 000002f7 FF69          SPM       #0                    ; [CPU_] 
    2634 000002f8 8A92          MOVL      XAR4,*+XAR2[AR0]      ; [CPU_] |412| 
    2635              $C$DW$247       .dwtag  DW_TAG_TI_branch
    2636                      .dwattr $C$DW$247, DW_AT_low_pc(0x00)
    2637                      .dwattr $C$DW$247, DW_AT_name("_EST_isMotorIdentified")
    2638                      .dwattr $C$DW$247, DW_AT_TI_call
    2639 000002f9 7640!         LCR       #_EST_isMotorIdentified ; [CPU_] |412| 
         000002fa 0000 
    2640                      ; call occurs [#_EST_isMotorIdentified] ; [] |412| 
    2641 000002fb 5200          CMPB      AL,#0                 ; [CPU_] |412| 
    2642 000002fc EC4C          BF        $C$L25,EQ             ; [CPU_] |412| 
    2643                      ; branchcc occurs ; [] |412| 
    2644 000002fd 761F-         MOVW      DP,#_ctrlHandle       ; [CPU_U] 
         000002fe 0000 
    2645                      .dwpsn  file "C:/ti/motorware/motorware_1_01_00_16/sw/solutions/instaspin_foc/src/proj_lab09.c",line 
    2646 000002ff 8A06-         MOVL      XAR4,@_ctrlHandle     ; [CPU_] |419| 
    2647 00000300 D1E2          MOVB      XAR1,#226             ; [CPU_] |419| 
    2648 00000301 D0E2          MOVB      XAR0,#226             ; [CPU_] |419| 
    2649 00000302 879C          MOVL      XT,*+XAR4[AR1]        ; [CPU_] |419| 
    2650 00000303 5605          IMPYL     P,XT,*+XAR4[AR0]      ; [CPU_] |419| 
         00000304 0094 
    2651 00000305 5663          QMPYL     ACC,XT,*+XAR4[AR0]    ; [CPU_] |419| 
         00000306 0094 
    2652 00000307 56A7          LSL64     ACC:P,#8              ; [CPU_] |419| 
    2653 00000308 2BAB          MOV       PL,#0                 ; [CPU_] |419| 
    2654 00000309 28AA          MOV       PH,#256               ; [CPU_] |419| 
         0000030a 0100 
    2655 0000030b 5641          SUBL      P,ACC                 ; [CPU_] |419| 
         0000030c 00AB 
    2656 0000030d A9A9          MOVL      ACC,P                 ; [CPU_] |419| 
    2657              $C$DW$248       .dwtag  DW_TAG_TI_branch
    2658                      .dwattr $C$DW$248, DW_AT_low_pc(0x00)
    2659                      .dwattr $C$DW$248, DW_AT_name("__IQ24sqrt")
    2660                      .dwattr $C$DW$248, DW_AT_TI_call
    2661 0000030e 7640!         LCR       #__IQ24sqrt           ; [CPU_] |419| 
         0000030f 0000 
    2662                      ; call occurs [#__IQ24sqrt] ; [] |419| 
    2663 00000310 761F-         MOVW      DP,#_Iq_Max_pu        ; [CPU_U] 
         00000311 0000 
    2664 00000312 1E0A-         MOVL      @_Iq_Max_pu,ACC       ; [CPU_] |419| 
    2665                      .dwpsn  file "C:/ti/motorware/motorware_1_01_00_16/sw/modules/traj/src/32b/traj.h",line 158,column 3,
    2666 00000313 0278          MOVB      ACC,#120              ; [CPU_] |158| 
    2667 00000314 0706-         ADDL      ACC,@_ctrlHandle      ; [CPU_] |158| 
    2668 00000315 8AA9          MOVL      XAR4,ACC              ; [CPU_] |158| 
    2669                      .dwpsn  file "C:/ti/motorware/motorware_1_01_00_16/sw/solutions/instaspin_foc/src/proj_lab09.c",line 
    2670 00000316 C40A-         MOVL      XAR6,@_Iq_Max_pu      ; [CPU_] |422| 
    2671                      .dwpsn  file "C:/ti/motorware/motorware_1_01_00_16/sw/modules/traj/src/32b/traj.h",line 158,column 3,
    2672 00000317 8AC4          MOVL      XAR4,*+XAR4[0]        ; [CPU_] |158| 
    2673                      .dwpsn  file "C:/ti/motorware/motorware_1_01_00_16/sw/solutions/instaspin_foc/src/proj_lab09.c",line 
    2674 00000318 D018          MOVB      XAR0,#24              ; [CPU_] |425| 
    2675                      .dwpsn  file "C:/ti/motorware/motorware_1_01_00_16/sw/modules/traj/src/32b/traj.h",line 158,column 3,
    2676 00000319 C2D4          MOVL      *+XAR4[2],XAR6        ; [CPU_] |158| 
TMS320C2000 Assembler PC v6.4.10 Mon Jul 11 12:58:34 2016

Tools Copyright (c) 1996-2015 Texas Instruments Incorporated
C:\Users\bee25\AppData\Local\Temp\2398010                            PAGE   55

    2677                      .dwpsn  file "C:/ti/motorware/motorware_1_01_00_16/sw/solutions/instaspin_foc/src/proj_lab09.c",line 
    2678 0000031a 0604-         MOVL      ACC,@_gMaxCurrentSlope ; [CPU_] |425| 
    2679 0000031b 8A92          MOVL      XAR4,*+XAR2[AR0]      ; [CPU_] |425| 
    2680              $C$DW$249       .dwtag  DW_TAG_TI_branch
    2681                      .dwattr $C$DW$249, DW_AT_low_pc(0x00)
    2682                      .dwattr $C$DW$249, DW_AT_name("_EST_setMaxCurrentSlope_pu")
    2683                      .dwattr $C$DW$249, DW_AT_TI_call
    2684 0000031c 7640!         LCR       #_EST_setMaxCurrentSlope_pu ; [CPU_] |425| 
         0000031d 0000 
    2685                      ; call occurs [#_EST_setMaxCurrentSlope_pu] ; [] |425| 
    2686                      .dwpsn  file "C:/ti/motorware/motorware_1_01_00_16/sw/solutions/instaspin_foc/src/proj_lab09.c",line 
    2687 0000031e 8D40-         MOVL      XAR1,#_gMotorVars     ; [CPU_U] |426| 
         0000031f 0080 
    2688 00000320 761F-         MOVW      DP,#_ctrlHandle       ; [CPU_U] 
         00000321 0000 
    2689                      .dwpsn  file "C:/ti/motorware/motorware_1_01_00_16/sw/solutions/instaspin_foc/src/proj_lab09.c",line 
    2690 00000322 D018          MOVB      XAR0,#24              ; [CPU_] |429| 
    2691                      .dwpsn  file "C:/ti/motorware/motorware_1_01_00_16/sw/solutions/instaspin_foc/src/proj_lab09.c",line 
    2692 00000323 56BF          MOVB      *+XAR1[2],#1,UNC      ; [CPU_] |426| 
         00000324 01D1 
    2693                      .dwpsn  file "C:/ti/motorware/motorware_1_01_00_16/sw/solutions/instaspin_foc/src/proj_lab09.c",line 
    2694 00000325 8A06-         MOVL      XAR4,@_ctrlHandle     ; [CPU_] |429| 
    2695 00000326 0691          MOVL      ACC,*+XAR1[AR0]       ; [CPU_] |429| 
    2696              $C$DW$250       .dwtag  DW_TAG_TI_branch
    2697                      .dwattr $C$DW$250, DW_AT_low_pc(0x00)
    2698                      .dwattr $C$DW$250, DW_AT_name("_CTRL_setSpd_ref_krpm")
    2699                      .dwattr $C$DW$250, DW_AT_TI_call
    2700 00000327 7640!         LCR       #_CTRL_setSpd_ref_krpm ; [CPU_] |429| 
         00000328 0000 
    2701                      ; call occurs [#_CTRL_setSpd_ref_krpm] ; [] |429| 
    2702 00000329 761F-         MOVW      DP,#_ctrlHandle       ; [CPU_U] 
         0000032a 0000 
    2703                      .dwpsn  file "C:/ti/motorware/motorware_1_01_00_16/sw/solutions/instaspin_foc/src/proj_lab09.c",line 
    2704 0000032b D01C          MOVB      XAR0,#28              ; [CPU_] |432| 
    2705 0000032c 8F40          MOVL      XAR5,#5452            ; [CPU_U] |432| 
         0000032d 154C 
    2706 0000032e A0AC          MOVL      XT,XAR5               ; [CPU_] |432| 
    2707 0000032f 8A06-         MOVL      XAR4,@_ctrlHandle     ; [CPU_] |432| 
    2708 00000330 5605          IMPYL     P,XT,*+XAR1[AR0]      ; [CPU_] |432| 
         00000331 0091 
    2709 00000332 5663          QMPYL     ACC,XT,*+XAR1[AR0]    ; [CPU_] |432| 
         00000333 0091 
    2710                      .dwpsn  file "C:/ti/motorware/motorware_1_01_00_16/sw/modules/ctrl/src/32b/ctrl.h",line 1560,column 3
    2711 00000334 D076          MOVB      XAR0,#118             ; [CPU_] |1560| 
    2712                      .dwpsn  file "C:/ti/motorware/motorware_1_01_00_16/sw/solutions/instaspin_foc/src/proj_lab09.c",line 
    2713 00000335 56A7          LSL64     ACC:P,#8              ; [CPU_] |432| 
    2714                      .dwpsn  file "C:/ti/motorware/motorware_1_01_00_16/sw/modules/ctrl/src/32b/ctrl.h",line 1560,column 3
    2715 00000336 1E94          MOVL      *+XAR4[AR0],ACC       ; [CPU_] |1560| 
    2716                      .dwpsn  file "C:/ti/motorware/motorware_1_01_00_16/sw/solutions/instaspin_foc/src/proj_lab09.c",line 
    2717 00000337 9201-         MOV       AL,@_Flag_Latch_softwareUpdate ; [CPU_] |434| 
    2718 00000338 EC27          BF        $C$L26,EQ             ; [CPU_] |434| 
    2719                      ; branchcc occurs ; [] |434| 
    2720                      .dwpsn  file "C:/ti/motorware/motorware_1_01_00_16/sw/solutions/instaspin_foc/src/proj_lab09.c",line 
    2721 00000339 2B01-         MOV       @_Flag_Latch_softwareUpdate,#0 ; [CPU_] |436| 
    2722                      .dwpsn  file "C:/ti/motorware/motorware_1_01_00_16/sw/solutions/instaspin_foc/src/proj_lab09.c",line 
TMS320C2000 Assembler PC v6.4.10 Mon Jul 11 12:58:34 2016

Tools Copyright (c) 1996-2015 Texas Instruments Incorporated
C:\Users\bee25\AppData\Local\Temp\2398010                            PAGE   56

    2723              $C$DW$251       .dwtag  DW_TAG_TI_branch
    2724                      .dwattr $C$DW$251, DW_AT_low_pc(0x00)
    2725                      .dwattr $C$DW$251, DW_AT_name("_USER_calcPIgains")
    2726                      .dwattr $C$DW$251, DW_AT_TI_call
    2727 0000033a 7640!         LCR       #_USER_calcPIgains    ; [CPU_] |438| 
         0000033b 0000 
    2728                      ; call occurs [#_USER_calcPIgains] ; [] |438| 
    2729 0000033c 761F-         MOVW      DP,#_ctrlHandle       ; [CPU_U] 
         0000033d 0000 
    2730                      .dwpsn  file "C:/ti/motorware/motorware_1_01_00_16/sw/solutions/instaspin_foc/src/proj_lab09.c",line 
    2731 0000033e 8A06-         MOVL      XAR4,@_ctrlHandle     ; [CPU_] |441| 
    2732 0000033f D0CA          MOVB      XAR0,#202             ; [CPU_] |441| 
    2733 00000340 0694          MOVL      ACC,*+XAR4[AR0]       ; [CPU_] |441| 
    2734 00000341 D048          MOVB      XAR0,#72              ; [CPU_] |441| 
    2735 00000342 1E91          MOVL      *+XAR1[AR0],ACC       ; [CPU_] |441| 
    2736                      .dwpsn  file "C:/ti/motorware/motorware_1_01_00_16/sw/solutions/instaspin_foc/src/proj_lab09.c",line 
    2737 00000343 D0D0          MOVB      XAR0,#208             ; [CPU_] |442| 
    2738 00000344 0694          MOVL      ACC,*+XAR4[AR0]       ; [CPU_] |442| 
    2739 00000345 D04A          MOVB      XAR0,#74              ; [CPU_] |442| 
    2740 00000346 1E91          MOVL      *+XAR1[AR0],ACC       ; [CPU_] |442| 
    2741 00000347 6F18          B         $C$L26,UNC            ; [CPU_] |442| 
    2742                      ; branch occurs ; [] |442| 
    2743 00000348       $C$L25:    
    2744 00000348 761F-         MOVW      DP,#_Flag_Latch_softwareUpdate ; [CPU_U] 
         00000349 0000 
    2745                      .dwpsn  file "C:/ti/motorware/motorware_1_01_00_16/sw/solutions/instaspin_foc/src/proj_lab09.c",line 
    2746 0000034a D0CE          MOVB      XAR0,#206             ; [CPU_] |451| 
    2747 0000034b 8306-         MOVL      XAR5,@_ctrlHandle     ; [CPU_] |451| 
    2748                      .dwpsn  file "C:/ti/motorware/motorware_1_01_00_16/sw/solutions/instaspin_foc/src/proj_lab09.c",line 
    2749 0000034c 56BF-         MOVB      @_Flag_Latch_softwareUpdate,#1,UNC ; [CPU_] |448| 
         0000034d 0101 
    2750                      .dwpsn  file "C:/ti/motorware/motorware_1_01_00_16/sw/solutions/instaspin_foc/src/proj_lab09.c",line 
    2751 0000034e 8F00-         MOVL      XAR4,#_gMotorVars     ; [CPU_U] |451| 
         0000034f 0080 
    2752 00000350 D144          MOVB      XAR1,#68              ; [CPU_] |451| 
    2753 00000351 0695          MOVL      ACC,*+XAR5[AR0]       ; [CPU_] |451| 
    2754                      .dwpsn  file "C:/ti/motorware/motorware_1_01_00_16/sw/solutions/instaspin_foc/src/proj_lab09.c",line 
    2755 00000352 D0D4          MOVB      XAR0,#212             ; [CPU_] |452| 
    2756                      .dwpsn  file "C:/ti/motorware/motorware_1_01_00_16/sw/solutions/instaspin_foc/src/proj_lab09.c",line 
    2757 00000353 1E9C          MOVL      *+XAR4[AR1],ACC       ; [CPU_] |451| 
    2758                      .dwpsn  file "C:/ti/motorware/motorware_1_01_00_16/sw/solutions/instaspin_foc/src/proj_lab09.c",line 
    2759 00000354 0695          MOVL      ACC,*+XAR5[AR0]       ; [CPU_] |452| 
    2760 00000355 D046          MOVB      XAR0,#70              ; [CPU_] |452| 
    2761 00000356 1E94          MOVL      *+XAR4[AR0],ACC       ; [CPU_] |452| 
    2762                      .dwpsn  file "C:/ti/motorware/motorware_1_01_00_16/sw/solutions/instaspin_foc/src/proj_lab09.c",line 
    2763 00000357 D018          MOVB      XAR0,#24              ; [CPU_] |456| 
    2764 00000358 8A92          MOVL      XAR4,*+XAR2[AR0]      ; [CPU_] |456| 
    2765              $C$DW$252       .dwtag  DW_TAG_TI_branch
    2766                      .dwattr $C$DW$252, DW_AT_low_pc(0x00)
    2767                      .dwattr $C$DW$252, DW_AT_name("_EST_getMaxCurrentSlope_pu")
    2768                      .dwattr $C$DW$252, DW_AT_TI_call
    2769 00000359 7640!         LCR       #_EST_getMaxCurrentSlope_pu ; [CPU_] |456| 
         0000035a 0000 
    2770                      ; call occurs [#_EST_getMaxCurrentSlope_pu] ; [] |456| 
    2771 0000035b 761F-         MOVW      DP,#_gMaxCurrentSlope ; [CPU_U] 
TMS320C2000 Assembler PC v6.4.10 Mon Jul 11 12:58:34 2016

Tools Copyright (c) 1996-2015 Texas Instruments Incorporated
C:\Users\bee25\AppData\Local\Temp\2398010                            PAGE   57

         0000035c 0000 
    2772 0000035d 1E04-         MOVL      @_gMaxCurrentSlope,ACC ; [CPU_] |456| 
    2773 0000035e 8A06-         MOVL      XAR4,@_ctrlHandle     ; [CPU_] |456| 
    2774 0000035f       $C$L26:    
    2775                      .dwpsn  file "C:/ti/motorware/motorware_1_01_00_16/sw/solutions/instaspin_foc/src/proj_lab09.c",line 
    2776 0000035f 9200-         MOV       AL,@_gCounter_updateGlobals ; [CPU_] |461| 
    2777 00000360 EC07          BF        $C$L27,EQ             ; [CPU_] |461| 
    2778                      ; branchcc occurs ; [] |461| 
    2779                      .dwpsn  file "C:/ti/motorware/motorware_1_01_00_16/sw/solutions/instaspin_foc/src/proj_lab09.c",line 
    2780 00000361 2B00-         MOV       @_gCounter_updateGlobals,#0 ; [CPU_] |464| 
    2781                      .dwpsn  file "C:/ti/motorware/motorware_1_01_00_16/sw/solutions/instaspin_foc/src/proj_lab09.c",line 
    2782              $C$DW$253       .dwtag  DW_TAG_TI_branch
    2783                      .dwattr $C$DW$253, DW_AT_low_pc(0x00)
    2784                      .dwattr $C$DW$253, DW_AT_name("_updateGlobalVariables_motor")
    2785                      .dwattr $C$DW$253, DW_AT_TI_call
    2786 00000362 7640'         LCR       #_updateGlobalVariables_motor ; [CPU_] |466| 
         00000363 0022 
    2787                      ; call occurs [#_updateGlobalVariables_motor] ; [] |466| 
    2788 00000364 761F-         MOVW      DP,#_ctrlHandle       ; [CPU_U] 
         00000365 0000 
    2789 00000366 8A06-         MOVL      XAR4,@_ctrlHandle     ; [CPU_] |466| 
    2790 00000367       $C$L27:    
    2791                      .dwpsn  file "C:/ti/motorware/motorware_1_01_00_16/sw/solutions/instaspin_foc/src/proj_lab09.c",line 
    2792              $C$DW$254       .dwtag  DW_TAG_TI_branch
    2793                      .dwattr $C$DW$254, DW_AT_low_pc(0x00)
    2794                      .dwattr $C$DW$254, DW_AT_name("_updateKpKiGains")
    2795                      .dwattr $C$DW$254, DW_AT_TI_call
    2796 00000367 7640'         LCR       #_updateKpKiGains     ; [CPU_] |471| 
         00000368 0000 
    2797                      ; call occurs [#_updateKpKiGains] ; [] |471| 
    2798                      .dwpsn  file "C:/ti/motorware/motorware_1_01_00_16/sw/solutions/instaspin_foc/src/proj_lab09.c",line 
    2799 00000369 8D40-         MOVL      XAR1,#_gMotorVars     ; [CPU_U] |474| 
         0000036a 0080 
    2800 0000036b 761F-         MOVW      DP,#_fwHandle         ; [CPU_U] 
         0000036c 0000 
    2801                      .dwpsn  file "C:/ti/motorware/motorware_1_01_00_16/sw/modules/fw/src/32b/fw.h",line 237,column 3,is_s
    2802 0000036d 0212          MOVB      ACC,#18               ; [CPU_] |237| 
    2803                      .dwpsn  file "C:/ti/motorware/motorware_1_01_00_16/sw/solutions/instaspin_foc/src/proj_lab09.c",line 
    2804 0000036e 88E1          MOVZ      AR6,*+XAR1[4]         ; [CPU_] |474| 
    2805                      .dwpsn  file "C:/ti/motorware/motorware_1_01_00_16/sw/modules/fw/src/32b/fw.h",line 237,column 3,is_s
    2806 0000036f 0708-         ADDL      ACC,@_fwHandle        ; [CPU_] |237| 
    2807 00000370 8AA9          MOVL      XAR4,ACC              ; [CPU_] |237| 
    2808                      .dwpsn  file "C:/ti/motorware/motorware_1_01_00_16/sw/solutions/instaspin_foc/src/proj_lab09.c",line 
    2809 00000371 D018          MOVB      XAR0,#24              ; [CPU_] |477| 
    2810                      .dwpsn  file "C:/ti/motorware/motorware_1_01_00_16/sw/modules/fw/src/32b/fw.h",line 237,column 3,is_s
    2811 00000372 7EC4          MOV       *+XAR4[0],AR6         ; [CPU_] |237| 
    2812                      .dwpsn  file "C:/ti/motorware/motorware_1_01_00_16/sw/solutions/instaspin_foc/src/proj_lab09.c",line 
    2813 00000373 8A92          MOVL      XAR4,*+XAR2[AR0]      ; [CPU_] |477| 
    2814 00000374 92D9          MOV       AL,*+XAR1[3]          ; [CPU_] |477| 
    2815              $C$DW$255       .dwtag  DW_TAG_TI_branch
    2816                      .dwattr $C$DW$255, DW_AT_low_pc(0x00)
    2817                      .dwattr $C$DW$255, DW_AT_name("_EST_setFlag_enableForceAngle")
    2818                      .dwattr $C$DW$255, DW_AT_TI_call
    2819 00000375 7640!         LCR       #_EST_setFlag_enableForceAngle ; [CPU_] |477| 
         00000376 0000 
TMS320C2000 Assembler PC v6.4.10 Mon Jul 11 12:58:34 2016

Tools Copyright (c) 1996-2015 Texas Instruments Incorporated
C:\Users\bee25\AppData\Local\Temp\2398010                            PAGE   58

    2820                      ; call occurs [#_EST_setFlag_enableForceAngle] ; [] |477| 
    2821                      .dwpsn  file "C:/ti/motorware/motorware_1_01_00_16/sw/solutions/instaspin_foc/src/proj_lab09.c",line 
    2822 00000377 D008          MOVB      XAR0,#8               ; [CPU_] |480| 
    2823 00000378 761F-         MOVW      DP,#_ctrlHandle       ; [CPU_U] 
         00000379 0000 
    2824                      .dwpsn  file "C:/ti/motorware/motorware_1_01_00_16/sw/modules/ctrl/src/32b/ctrl.h",line 1262,column 3
    2825 0000037a 02F2          MOVB      ACC,#242              ; [CPU_] |1262| 
    2826                      .dwpsn  file "C:/ti/motorware/motorware_1_01_00_16/sw/solutions/instaspin_foc/src/proj_lab09.c",line 
    2827 0000037b 8891          MOVZ      AR6,*+XAR1[AR0]       ; [CPU_] |480| 
    2828                      .dwpsn  file "C:/ti/motorware/motorware_1_01_00_16/sw/modules/ctrl/src/32b/ctrl.h",line 1262,column 3
    2829 0000037c 0706-         ADDL      ACC,@_ctrlHandle      ; [CPU_] |1262| 
    2830 0000037d 8AA9          MOVL      XAR4,ACC              ; [CPU_] |1262| 
    2831 0000037e 761F-         MOVW      DP,#_halHandle        ; [CPU_U] 
         0000037f 0000 
    2832                      .dwpsn  file "C:/ti/motorware/motorware_1_01_00_16/sw/solutions/instaspin_foc/src/proj_lab09.c",line 
    2833 00000380 83A3          MOVL      XAR5,XAR3             ; [CPU_] |483| 
    2834                      .dwpsn  file "C:/ti/motorware/motorware_1_01_00_16/sw/modules/ctrl/src/32b/ctrl.h",line 1262,column 3
    2835 00000381 7EC4          MOV       *+XAR4[0],AR6         ; [CPU_] |1262| 
    2836                      .dwpsn  file "C:/ti/motorware/motorware_1_01_00_16/sw/solutions/instaspin_foc/src/proj_lab09.c",line 
    2837 00000382 8A00-         MOVL      XAR4,@_halHandle      ; [CPU_] |483| 
    2838              $C$DW$256       .dwtag  DW_TAG_TI_branch
    2839                      .dwattr $C$DW$256, DW_AT_low_pc(0x00)
    2840                      .dwattr $C$DW$256, DW_AT_name("_HAL_writeDrvData")
    2841                      .dwattr $C$DW$256, DW_AT_TI_call
    2842 00000383 7640!         LCR       #_HAL_writeDrvData    ; [CPU_] |483| 
         00000384 0000 
    2843                      ; call occurs [#_HAL_writeDrvData] ; [] |483| 
    2844 00000385 761F-         MOVW      DP,#_halHandle        ; [CPU_U] 
         00000386 0000 
    2845                      .dwpsn  file "C:/ti/motorware/motorware_1_01_00_16/sw/solutions/instaspin_foc/src/proj_lab09.c",line 
    2846 00000387 83A3          MOVL      XAR5,XAR3             ; [CPU_] |485| 
    2847 00000388 8A00-         MOVL      XAR4,@_halHandle      ; [CPU_] |485| 
    2848              $C$DW$257       .dwtag  DW_TAG_TI_branch
    2849                      .dwattr $C$DW$257, DW_AT_low_pc(0x00)
    2850                      .dwattr $C$DW$257, DW_AT_name("_HAL_readDrvData")
    2851                      .dwattr $C$DW$257, DW_AT_TI_call
    2852 00000389 7640!         LCR       #_HAL_readDrvData     ; [CPU_] |485| 
         0000038a 0000 
    2853                      ; call occurs [#_HAL_readDrvData] ; [] |485| 
    2854 0000038b 761F-         MOVW      DP,#_ctrlHandle       ; [CPU_U] 
         0000038c 0000 
    2855 0000038d 8606-         MOVL      XAR2,@_ctrlHandle     ; [CPU_] |485| 
    2856 0000038e       $C$L28:    
    2857                      .dwpsn  file "C:/ti/motorware/motorware_1_01_00_16/sw/solutions/instaspin_foc/src/proj_lab09.c",line 
    2858 0000038e 8D40-         MOVL      XAR1,#_gMotorVars     ; [CPU_U] |315| 
         0000038f 0080 
    2859 00000390 92C1          MOV       AL,*+XAR1[0]          ; [CPU_] |315| 
    2860 00000391 56C0          BF        $C$L12,NEQ            ; [CPU_] |315| 
         00000392 FE4A 
    2861                      ; branchcc occurs ; [] |315| 
    2862 00000393 761F-         MOVW      DP,#_halHandle        ; [CPU_U] 
         00000394 0000 
    2863                      .dwpsn  file "C:/ti/motorware/motorware_1_01_00_16/sw/modules/hal/boards/boostxldrv8301_revB/f28x/f28
    2864 00000395 8300-         MOVL      XAR5,@_halHandle      ; [CPU_] |240| 
    2865 00000396 8AA5          MOVL      XAR4,XAR5             ; [CPU_] |240| 
TMS320C2000 Assembler PC v6.4.10 Mon Jul 11 12:58:34 2016

Tools Copyright (c) 1996-2015 Texas Instruments Incorporated
C:\Users\bee25\AppData\Local\Temp\2398010                            PAGE   59

    2866 00000397 DC7E          ADDB      XAR4,#126             ; [CPU_] |240| 
    2867 00000398 7622   EALLOW
    2868                      .dwpsn  file "C:/ti/motorware/motorware_1_01_00_16/sw/drivers/pwm/src/32b/f28x/f2802x/pwm.h",line 156
    2869 00000399 D07C          MOVB      XAR0,#124             ; [CPU_] |1567| 
    2870 0000039a 0218          MOVB      ACC,#24               ; [CPU_] |1567| 
    2871 0000039b 0795          ADDL      ACC,*+XAR5[AR0]       ; [CPU_] |1567| 
    2872 0000039c 83A9          MOVL      XAR5,ACC              ; [CPU_] |1567| 
    2873 0000039d 1AC5          OR        *+XAR5[0],#0x0004     ; [CPU_] |1567| 
         0000039e 0004 
    2874 0000039f 761A   EDIS
    2875 000003a0 7622   EALLOW
    2876 000003a1 0218          MOVB      ACC,#24               ; [CPU_] |1567| 
    2877 000003a2 07C4          ADDL      ACC,*+XAR4[0]         ; [CPU_] |1567| 
    2878 000003a3 83A9          MOVL      XAR5,ACC              ; [CPU_] |1567| 
    2879 000003a4 1AC5          OR        *+XAR5[0],#0x0004     ; [CPU_] |1567| 
         000003a5 0004 
    2880 000003a6 761A   EDIS
    2881 000003a7 7622   EALLOW
    2882 000003a8 0218          MOVB      ACC,#24               ; [CPU_] |1567| 
    2883 000003a9 07D4          ADDL      ACC,*+XAR4[2]         ; [CPU_] |1567| 
    2884 000003aa 8AA9          MOVL      XAR4,ACC              ; [CPU_] |1567| 
    2885 000003ab 1AC4          OR        *+XAR4[0],#0x0004     ; [CPU_] |1567| 
         000003ac 0004 
    2886 000003ad 761A   EDIS
    2887 000003ae FF69          SPM       #0                    ; [CPU_] 
    2888                      .dwpsn  file "C:/ti/motorware/motorware_1_01_00_16/sw/solutions/instaspin_foc/src/proj_lab09.c",line 
    2889 000003af 8AA2          MOVL      XAR4,XAR2             ; [CPU_] |499| 
    2890 000003b0 834C          MOVL      XAR5,*-SP[12]         ; [CPU_] |499| 
    2891              $C$DW$258       .dwtag  DW_TAG_TI_branch
    2892                      .dwattr $C$DW$258, DW_AT_low_pc(0x00)
    2893                      .dwattr $C$DW$258, DW_AT_name("_CTRL_setParams")
    2894                      .dwattr $C$DW$258, DW_AT_TI_call
    2895 000003b1 7640!         LCR       #_CTRL_setParams      ; [CPU_] |499| 
         000003b2 0000 
    2896                      ; call occurs [#_CTRL_setParams] ; [] |499| 
    2897 000003b3 761F-         MOVW      DP,#_gMotorVars+1     ; [CPU_U] 
         000003b4 0002 
    2898                      .dwpsn  file "C:/ti/motorware/motorware_1_01_00_16/sw/solutions/instaspin_foc/src/proj_lab09.c",line 
    2899 000003b5 2B01-         MOV       @_gMotorVars+1,#0     ; [CPU_] |500| 
    2900                      .dwpsn  file "C:/ti/motorware/motorware_1_01_00_16/sw/solutions/instaspin_foc/src/proj_lab09.c",line 
    2901 000003b6 FFEF          B         $C$L11,UNC            ; [CPU_] |502| 
         000003b7 FE17 
    2902                      ; branch occurs ; [] |502| 
    2903 000003b8       $C$L29:    
    2904 000003b8 761F-         MOVW      DP,#_gMotorVars       ; [CPU_U] 
         000003b9 0002 
    2905                      .dwpsn  file "C:/ti/motorware/motorware_1_01_00_16/sw/solutions/instaspin_foc/src/proj_lab09.c",line 
    2906 000003ba 2B00-         MOV       @_gMotorVars,#0       ; [CPU_] |190| 
    2907                      .dwpsn  file "C:/ti/motorware/motorware_1_01_00_16/sw/solutions/instaspin_foc/src/proj_lab09.c",line 
    2908 000003bb 6FFD          B         $C$L29,UNC            ; [CPU_] |191| 
    2909                      ; branch occurs ; [] |191| 
    2910                      .dwattr $C$DW$199, DW_AT_TI_end_file("C:/ti/motorware/motorware_1_01_00_16/sw/solutions/instaspin_foc
    2911                      .dwattr $C$DW$199, DW_AT_TI_end_line(0x1f8)
    2912                      .dwattr $C$DW$199, DW_AT_TI_end_column(0x01)
    2913                      .dwendentry
TMS320C2000 Assembler PC v6.4.10 Mon Jul 11 12:58:34 2016

Tools Copyright (c) 1996-2015 Texas Instruments Incorporated
C:\Users\bee25\AppData\Local\Temp\2398010                            PAGE   60

    2914                      .dwendtag $C$DW$199
    2915              
    2916              ;**************************************************************
    2917              ;* UNDEFINED EXTERNAL REFERENCES                              *
    2918              ;**************************************************************
    2919                      .global _CTRL_setParams
    2920                      .global _CTRL_setSpd_ref_krpm
    2921                      .global _CTRL_setup
    2922                      .global _CTRL_run
    2923                      .global _CTRL_getVersion
