TMS320C2000 Assembler PC v6.4.10 Thu Jun 09 16:10:28 2016

Tools Copyright (c) 1996-2015 Texas Instruments Incorporated
C:\Users\bee25\AppData\Local\Temp\3229610                            PAGE    1

       1              ;***************************************************************
       2              ;* TMS320C2000 C/C++ Codegen                        PC v6.4.10 *
       3              ;* Date/Time created: Thu Jun 09 16:10:28 2016                 *
       4              ;***************************************************************
       5                      .compiler_opts --float_support=softlib --hll_source=on --mem_model:code=flat --mem_model:data=large -
       6        0002  FP      .set    XAR2
       7              
       8              $C$DW$CU        .dwtag  DW_TAG_compile_unit
       9                      .dwattr $C$DW$CU, DW_AT_name("C:/ti/motorware/motorware_1_01_00_16/sw/modules/cpu_usage/src/32b/cpu_u
      10                      .dwattr $C$DW$CU, DW_AT_producer("TI TMS320C2000 C/C++ Codegen PC v6.4.10 Copyright (c) 1996-2015 Tex
      11                      .dwattr $C$DW$CU, DW_AT_TI_version(0x01)
      12                      .dwattr $C$DW$CU, DW_AT_comp_dir("C:\ti\motorware\motorware_1_01_00_16\sw\solutions\instaspin_foc\boa
      13              ;       C:\ti\ccsv6\tools\compiler\ti-cgt-c2000_6.4.10\bin\opt2000.exe C:\\Users\\bee25\\AppData\\Local\\Temp
      14              ;       C:\ti\ccsv6\tools\compiler\ti-cgt-c2000_6.4.10\bin\ac2000.exe -@C:\\Users\\bee25\\AppData\\Local\\Tem
      15 00000000               .sect   ".text"
      16                      .clink
      17                      .global _CPU_USAGE_setParams
      18              
      19              $C$DW$1 .dwtag  DW_TAG_subprogram, DW_AT_name("CPU_USAGE_setParams")
      20                      .dwattr $C$DW$1, DW_AT_low_pc(_CPU_USAGE_setParams)
      21                      .dwattr $C$DW$1, DW_AT_high_pc(0x00)
      22                      .dwattr $C$DW$1, DW_AT_TI_symbol_name("_CPU_USAGE_setParams")
      23                      .dwattr $C$DW$1, DW_AT_external
      24                      .dwattr $C$DW$1, DW_AT_TI_begin_file("C:/ti/motorware/motorware_1_01_00_16/sw/modules/cpu_usage/src/3
      25                      .dwattr $C$DW$1, DW_AT_TI_begin_line(0x22)
      26                      .dwattr $C$DW$1, DW_AT_TI_begin_column(0x06)
      27                      .dwattr $C$DW$1, DW_AT_TI_max_frame_size(-2)
      28                      .dwpsn  file "C:/ti/motorware/motorware_1_01_00_16/sw/modules/cpu_usage/src/32b/cpu_usage.c",line 37,
      29              
      30                      .dwfde $C$DW$CIE, _CPU_USAGE_setParams
      31              $C$DW$2 .dwtag  DW_TAG_formal_parameter, DW_AT_name("handle")
      32                      .dwattr $C$DW$2, DW_AT_TI_symbol_name("_handle")
      33                      .dwattr $C$DW$2, DW_AT_type(*$C$DW$T$24)
      34                      .dwattr $C$DW$2, DW_AT_location[DW_OP_reg12]
      35              $C$DW$3 .dwtag  DW_TAG_formal_parameter, DW_AT_name("timerPeriod_cnts")
      36                      .dwattr $C$DW$3, DW_AT_TI_symbol_name("_timerPeriod_cnts")
      37                      .dwattr $C$DW$3, DW_AT_type(*$C$DW$T$32)
      38                      .dwattr $C$DW$3, DW_AT_location[DW_OP_reg0]
      39              $C$DW$4 .dwtag  DW_TAG_formal_parameter, DW_AT_name("numDeltaCntsAvg")
      40                      .dwattr $C$DW$4, DW_AT_TI_symbol_name("_numDeltaCntsAvg")
      41                      .dwattr $C$DW$4, DW_AT_type(*$C$DW$T$32)
      42                      .dwattr $C$DW$4, DW_AT_location[DW_OP_breg20 -4]
      43              
      44              ;***************************************************************
      45              ;* FNAME: _CPU_USAGE_setParams          FR SIZE:   0           *
      46              ;*                                                             *
      47              ;* FUNCTION ENVIRONMENT                                        *
      48              ;*                                                             *
      49              ;* FUNCTION PROPERTIES                                         *
      50              ;*                            0 Parameter,  0 Auto,  0 SOE     *
      51              ;***************************************************************
      52              
      53              _CPU_USAGE_setParams:
      54              ;* AR4   assigned to _handle
      55              $C$DW$5 .dwtag  DW_TAG_variable, DW_AT_name("handle")
TMS320C2000 Assembler PC v6.4.10 Thu Jun 09 16:10:28 2016

Tools Copyright (c) 1996-2015 Texas Instruments Incorporated
C:\Users\bee25\AppData\Local\Temp\3229610                            PAGE    2

      56                      .dwattr $C$DW$5, DW_AT_TI_symbol_name("_handle")
      57                      .dwattr $C$DW$5, DW_AT_type(*$C$DW$T$25)
      58                      .dwattr $C$DW$5, DW_AT_location[DW_OP_reg12]
      59              ;* AL    assigned to _timerPeriod_cnts
      60              $C$DW$6 .dwtag  DW_TAG_variable, DW_AT_name("timerPeriod_cnts")
      61                      .dwattr $C$DW$6, DW_AT_TI_symbol_name("_timerPeriod_cnts")
      62                      .dwattr $C$DW$6, DW_AT_type(*$C$DW$T$32)
      63                      .dwattr $C$DW$6, DW_AT_location[DW_OP_reg0]
      64              ;* AR7   assigned to _numDeltaCntsAvg
      65              $C$DW$7 .dwtag  DW_TAG_variable, DW_AT_name("numDeltaCntsAvg")
      66                      .dwattr $C$DW$7, DW_AT_TI_symbol_name("_numDeltaCntsAvg")
      67                      .dwattr $C$DW$7, DW_AT_type(*$C$DW$T$32)
      68                      .dwattr $C$DW$7, DW_AT_location[DW_OP_reg18]
      69                      .dwcfi  cfa_offset, -2
      70                      .dwcfi  save_reg_to_mem, 26, 0
      71                      .dwpsn  file "C:/ti/motorware/motorware_1_01_00_16/sw/modules/cpu_usage/src/32b/cpu_usage.h",line 220
      72 00000000 BE00          MOVB      XAR6,#0               ; [CPU_] |220| 
      73                      .dwpsn  file "C:/ti/motorware/motorware_1_01_00_16/sw/modules/cpu_usage/src/32b/cpu_usage.c",line 37,
      74 00000001 C544          MOVL      XAR7,*-SP[4]          ; [CPU_] |37| 
      75                      .dwpsn  file "C:/ti/motorware/motorware_1_01_00_16/sw/modules/cpu_usage/src/32b/cpu_usage.h",line 207
      76 00000002 1EC4          MOVL      *+XAR4[0],ACC         ; [CPU_] |207| 
      77                      .dwpsn  file "C:/ti/motorware/motorware_1_01_00_16/sw/modules/cpu_usage/src/32b/cpu_usage.h",line 259
      78 00000003 D008          MOVB      XAR0,#8               ; [CPU_] |259| 
      79                      .dwpsn  file "C:/ti/motorware/motorware_1_01_00_16/sw/modules/cpu_usage/src/32b/cpu_usage.h",line 220
      80 00000004 C2D4          MOVL      *+XAR4[2],XAR6        ; [CPU_] |220| 
      81                      .dwpsn  file "C:/ti/motorware/motorware_1_01_00_16/sw/modules/cpu_usage/src/32b/cpu_usage.h",line 233
      82 00000005 C2E4          MOVL      *+XAR4[4],XAR6        ; [CPU_] |233| 
      83                      .dwpsn  file "C:/ti/motorware/motorware_1_01_00_16/sw/modules/cpu_usage/src/32b/cpu_usage.h",line 246
      84 00000006 C2F4          MOVL      *+XAR4[6],XAR6        ; [CPU_] |246| 
      85                      .dwpsn  file "C:/ti/motorware/motorware_1_01_00_16/sw/modules/cpu_usage/src/32b/cpu_usage.h",line 259
      86 00000007 C294          MOVL      *+XAR4[AR0],XAR6      ; [CPU_] |259| 
      87                      .dwpsn  file "C:/ti/motorware/motorware_1_01_00_16/sw/modules/cpu_usage/src/32b/cpu_usage.h",line 272
      88 00000008 D00A          MOVB      XAR0,#10              ; [CPU_] |272| 
      89 00000009 C294          MOVL      *+XAR4[AR0],XAR6      ; [CPU_] |272| 
      90                      .dwpsn  file "C:/ti/motorware/motorware_1_01_00_16/sw/modules/cpu_usage/src/32b/cpu_usage.h",line 285
      91 0000000a D00C          MOVB      XAR0,#12              ; [CPU_] |285| 
      92 0000000b C394          MOVL      *+XAR4[AR0],XAR7      ; [CPU_] |285| 
      93                      .dwpsn  file "C:/ti/motorware/motorware_1_01_00_16/sw/modules/cpu_usage/src/32b/cpu_usage.h",line 298
      94 0000000c D00E          MOVB      XAR0,#14              ; [CPU_] |298| 
      95 0000000d 1E94          MOVL      *+XAR4[AR0],ACC       ; [CPU_] |298| 
      96                      .dwpsn  file "C:/ti/motorware/motorware_1_01_00_16/sw/modules/cpu_usage/src/32b/cpu_usage.h",line 311
      97 0000000e D010          MOVB      XAR0,#16              ; [CPU_] |311| 
      98 0000000f 0200          MOVB      ACC,#0                ; [CPU_] |311| 
      99 00000010 1E94          MOVL      *+XAR4[AR0],ACC       ; [CPU_] |311| 
     100                      .dwpsn  file "C:/ti/motorware/motorware_1_01_00_16/sw/modules/cpu_usage/src/32b/cpu_usage.h",line 324
     101 00000011 D012          MOVB      XAR0,#18              ; [CPU_] |324| 
     102 00000012 1E94          MOVL      *+XAR4[AR0],ACC       ; [CPU_] |324| 
     103                      .dwpsn  file "C:/ti/motorware/motorware_1_01_00_16/sw/modules/cpu_usage/src/32b/cpu_usage.h",line 337
     104 00000013 D014          MOVB      XAR0,#20              ; [CPU_] |337| 
     105 00000014 2B94          MOV       *+XAR4[AR0],#0        ; [CPU_] |337| 
     106              $C$DW$8 .dwtag  DW_TAG_TI_branch
     107                      .dwattr $C$DW$8, DW_AT_low_pc(0x00)
     108                      .dwattr $C$DW$8, DW_AT_TI_return
     109 00000015 0006          LRETR     ; [CPU_] 
     110                      ; return occurs ; [] 
TMS320C2000 Assembler PC v6.4.10 Thu Jun 09 16:10:28 2016

Tools Copyright (c) 1996-2015 Texas Instruments Incorporated
C:\Users\bee25\AppData\Local\Temp\3229610                            PAGE    3

     111                      .dwattr $C$DW$1, DW_AT_TI_end_file("C:/ti/motorware/motorware_1_01_00_16/sw/modules/cpu_usage/src/32b
     112                      .dwattr $C$DW$1, DW_AT_TI_end_line(0x37)
     113                      .dwattr $C$DW$1, DW_AT_TI_end_column(0x01)
     114                      .dwendentry
     115                      .dwendtag $C$DW$1
     116              
     117 00000016               .sect   ".text"
     118                      .clink
     119                      .global _CPU_USAGE_init
     120              
     121              $C$DW$9 .dwtag  DW_TAG_subprogram, DW_AT_name("CPU_USAGE_init")
     122                      .dwattr $C$DW$9, DW_AT_low_pc(_CPU_USAGE_init)
     123                      .dwattr $C$DW$9, DW_AT_high_pc(0x00)
     124                      .dwattr $C$DW$9, DW_AT_TI_symbol_name("_CPU_USAGE_init")
     125                      .dwattr $C$DW$9, DW_AT_external
     126                      .dwattr $C$DW$9, DW_AT_type(*$C$DW$T$24)
     127                      .dwattr $C$DW$9, DW_AT_TI_begin_file("C:/ti/motorware/motorware_1_01_00_16/sw/modules/cpu_usage/src/3
     128                      .dwattr $C$DW$9, DW_AT_TI_begin_line(0x15)
     129                      .dwattr $C$DW$9, DW_AT_TI_begin_column(0x12)
     130                      .dwattr $C$DW$9, DW_AT_TI_max_frame_size(-2)
     131                      .dwpsn  file "C:/ti/motorware/motorware_1_01_00_16/sw/modules/cpu_usage/src/32b/cpu_usage.c",line 22,
     132              
     133                      .dwfde $C$DW$CIE, _CPU_USAGE_init
     134              $C$DW$10        .dwtag  DW_TAG_formal_parameter, DW_AT_name("pMemory")
     135                      .dwattr $C$DW$10, DW_AT_TI_symbol_name("_pMemory")
     136                      .dwattr $C$DW$10, DW_AT_type(*$C$DW$T$3)
     137                      .dwattr $C$DW$10, DW_AT_location[DW_OP_reg12]
     138              $C$DW$11        .dwtag  DW_TAG_formal_parameter, DW_AT_name("numBytes")
     139                      .dwattr $C$DW$11, DW_AT_TI_symbol_name("_numBytes")
     140                      .dwattr $C$DW$11, DW_AT_type(*$C$DW$T$27)
     141                      .dwattr $C$DW$11, DW_AT_location[DW_OP_reg0]
     142              
     143              ;***************************************************************
     144              ;* FNAME: _CPU_USAGE_init               FR SIZE:   0           *
     145              ;*                                                             *
     146              ;* FUNCTION ENVIRONMENT                                        *
     147              ;*                                                             *
     148              ;* FUNCTION PROPERTIES                                         *
     149              ;*                            0 Parameter,  0 Auto,  0 SOE     *
     150              ;***************************************************************
     151              
     152              _CPU_USAGE_init:
     153              ;* AR6   assigned to _numBytes
     154              $C$DW$12        .dwtag  DW_TAG_variable, DW_AT_name("numBytes")
     155                      .dwattr $C$DW$12, DW_AT_TI_symbol_name("_numBytes")
     156                      .dwattr $C$DW$12, DW_AT_type(*$C$DW$T$27)
     157                      .dwattr $C$DW$12, DW_AT_location[DW_OP_reg16]
     158                      .dwcfi  cfa_offset, -2
     159                      .dwcfi  save_reg_to_mem, 26, 0
     160 00000016 1EA6          MOVL      XAR6,ACC              ; [CPU_] |22| 
     161                      .dwpsn  file "C:/ti/motorware/motorware_1_01_00_16/sw/modules/cpu_usage/src/32b/cpu_usage.c",line 26,
     162 00000017 0216          MOVB      ACC,#22               ; [CPU_] |26| 
     163 00000018 0FA6          CMPL      ACC,XAR6              ; [CPU_] |26| 
     164 00000019 56C9          BF        $C$L1,LOS             ; [CPU_] |26| 
         0000001a 0003 
TMS320C2000 Assembler PC v6.4.10 Thu Jun 09 16:10:28 2016

Tools Copyright (c) 1996-2015 Texas Instruments Incorporated
C:\Users\bee25\AppData\Local\Temp\3229610                            PAGE    4

     165                      ; branchcc occurs ; [] |26| 
     166 0000001b D400          MOVB      XAR4,#0               ; [CPU_] |26| 
     167              $C$L1:    
     168              $C$DW$13        .dwtag  DW_TAG_TI_branch
     169                      .dwattr $C$DW$13, DW_AT_low_pc(0x00)
     170                      .dwattr $C$DW$13, DW_AT_TI_return
     171 0000001c 0006          LRETR     ; [CPU_] 
     172                      ; return occurs ; [] 
     173                      .dwattr $C$DW$9, DW_AT_TI_end_file("C:/ti/motorware/motorware_1_01_00_16/sw/modules/cpu_usage/src/32b
     174                      .dwattr $C$DW$9, DW_AT_TI_end_line(0x20)
     175                      .dwattr $C$DW$9, DW_AT_TI_end_column(0x01)
     176                      .dwendentry
     177                      .dwendtag $C$DW$9
     178              
     179              
     180              ;***************************************************************
     181              ;* TYPE INFORMATION                                            *
     182              ;***************************************************************
     183              
     184              $C$DW$T$21      .dwtag  DW_TAG_structure_type
     185                      .dwattr $C$DW$T$21, DW_AT_name("_CPU_USAGE_Obj_")
     186                      .dwattr $C$DW$T$21, DW_AT_byte_size(0x16)
     187              $C$DW$14        .dwtag  DW_TAG_member
     188                      .dwattr $C$DW$14, DW_AT_type(*$C$DW$T$19)
     189                      .dwattr $C$DW$14, DW_AT_name("timerPeriod_cnts")
     190                      .dwattr $C$DW$14, DW_AT_TI_symbol_name("_timerPeriod_cnts")
     191                      .dwattr $C$DW$14, DW_AT_data_member_location[DW_OP_plus_uconst 0x0]
     192                      .dwattr $C$DW$14, DW_AT_accessibility(DW_ACCESS_public)
     193              $C$DW$15        .dwtag  DW_TAG_member
     194                      .dwattr $C$DW$15, DW_AT_type(*$C$DW$T$19)
     195                      .dwattr $C$DW$15, DW_AT_name("cnt_z0")
     196                      .dwattr $C$DW$15, DW_AT_TI_symbol_name("_cnt_z0")
     197                      .dwattr $C$DW$15, DW_AT_data_member_location[DW_OP_plus_uconst 0x2]
     198                      .dwattr $C$DW$15, DW_AT_accessibility(DW_ACCESS_public)
     199              $C$DW$16        .dwtag  DW_TAG_member
     200                      .dwattr $C$DW$16, DW_AT_type(*$C$DW$T$19)
     201                      .dwattr $C$DW$16, DW_AT_name("cnt_z1")
     202                      .dwattr $C$DW$16, DW_AT_TI_symbol_name("_cnt_z1")
     203                      .dwattr $C$DW$16, DW_AT_data_member_location[DW_OP_plus_uconst 0x4]
     204                      .dwattr $C$DW$16, DW_AT_accessibility(DW_ACCESS_public)
     205              $C$DW$17        .dwtag  DW_TAG_member
     206                      .dwattr $C$DW$17, DW_AT_type(*$C$DW$T$19)
     207                      .dwattr $C$DW$17, DW_AT_name("deltaCnt")
     208                      .dwattr $C$DW$17, DW_AT_TI_symbol_name("_deltaCnt")
     209                      .dwattr $C$DW$17, DW_AT_data_member_location[DW_OP_plus_uconst 0x6]
     210                      .dwattr $C$DW$17, DW_AT_accessibility(DW_ACCESS_public)
     211              $C$DW$18        .dwtag  DW_TAG_member
     212                      .dwattr $C$DW$18, DW_AT_type(*$C$DW$T$19)
     213                      .dwattr $C$DW$18, DW_AT_name("deltaCntAcc")
     214                      .dwattr $C$DW$18, DW_AT_TI_symbol_name("_deltaCntAcc")
     215                      .dwattr $C$DW$18, DW_AT_data_member_location[DW_OP_plus_uconst 0x8]
     216                      .dwattr $C$DW$18, DW_AT_accessibility(DW_ACCESS_public)
     217              $C$DW$19        .dwtag  DW_TAG_member
     218                      .dwattr $C$DW$19, DW_AT_type(*$C$DW$T$19)
     219                      .dwattr $C$DW$19, DW_AT_name("deltaCntAccNum")
TMS320C2000 Assembler PC v6.4.10 Thu Jun 09 16:10:28 2016

Tools Copyright (c) 1996-2015 Texas Instruments Incorporated
C:\Users\bee25\AppData\Local\Temp\3229610                            PAGE    5

     220                      .dwattr $C$DW$19, DW_AT_TI_symbol_name("_deltaCntAccNum")
     221                      .dwattr $C$DW$19, DW_AT_data_member_location[DW_OP_plus_uconst 0xa]
     222                      .dwattr $C$DW$19, DW_AT_accessibility(DW_ACCESS_public)
     223              $C$DW$20        .dwtag  DW_TAG_member
     224                      .dwattr $C$DW$20, DW_AT_type(*$C$DW$T$19)
     225                      .dwattr $C$DW$20, DW_AT_name("deltaCntAccNumMax")
     226                      .dwattr $C$DW$20, DW_AT_TI_symbol_name("_deltaCntAccNumMax")
     227                      .dwattr $C$DW$20, DW_AT_data_member_location[DW_OP_plus_uconst 0xc]
     228                      .dwattr $C$DW$20, DW_AT_accessibility(DW_ACCESS_public)
     229              $C$DW$21        .dwtag  DW_TAG_member
     230                      .dwattr $C$DW$21, DW_AT_type(*$C$DW$T$19)
     231                      .dwattr $C$DW$21, DW_AT_name("minDeltaCntObserved")
     232                      .dwattr $C$DW$21, DW_AT_TI_symbol_name("_minDeltaCntObserved")
     233                      .dwattr $C$DW$21, DW_AT_data_member_location[DW_OP_plus_uconst 0xe]
     234                      .dwattr $C$DW$21, DW_AT_accessibility(DW_ACCESS_public)
     235              $C$DW$22        .dwtag  DW_TAG_member
     236                      .dwattr $C$DW$22, DW_AT_type(*$C$DW$T$19)
     237                      .dwattr $C$DW$22, DW_AT_name("avgDeltaCntObserved")
     238                      .dwattr $C$DW$22, DW_AT_TI_symbol_name("_avgDeltaCntObserved")
     239                      .dwattr $C$DW$22, DW_AT_data_member_location[DW_OP_plus_uconst 0x10]
     240                      .dwattr $C$DW$22, DW_AT_accessibility(DW_ACCESS_public)
     241              $C$DW$23        .dwtag  DW_TAG_member
     242                      .dwattr $C$DW$23, DW_AT_type(*$C$DW$T$19)
     243                      .dwattr $C$DW$23, DW_AT_name("maxDeltaCntObserved")
     244                      .dwattr $C$DW$23, DW_AT_TI_symbol_name("_maxDeltaCntObserved")
     245                      .dwattr $C$DW$23, DW_AT_data_member_location[DW_OP_plus_uconst 0x12]
     246                      .dwattr $C$DW$23, DW_AT_accessibility(DW_ACCESS_public)
     247              $C$DW$24        .dwtag  DW_TAG_member
     248                      .dwattr $C$DW$24, DW_AT_type(*$C$DW$T$20)
     249                      .dwattr $C$DW$24, DW_AT_name("flag_resetStats")
     250                      .dwattr $C$DW$24, DW_AT_TI_symbol_name("_flag_resetStats")
     251                      .dwattr $C$DW$24, DW_AT_data_member_location[DW_OP_plus_uconst 0x14]
     252                      .dwattr $C$DW$24, DW_AT_accessibility(DW_ACCESS_public)
     253                      .dwendtag $C$DW$T$21
     254              
     255              $C$DW$T$22      .dwtag  DW_TAG_typedef, DW_AT_name("CPU_USAGE_Obj")
     256                      .dwattr $C$DW$T$22, DW_AT_type(*$C$DW$T$21)
     257                      .dwattr $C$DW$T$22, DW_AT_language(DW_LANG_C)
     258              $C$DW$T$23      .dwtag  DW_TAG_pointer_type
     259                      .dwattr $C$DW$T$23, DW_AT_type(*$C$DW$T$21)
     260                      .dwattr $C$DW$T$23, DW_AT_address_class(0x20)
     261              $C$DW$T$24      .dwtag  DW_TAG_typedef, DW_AT_name("CPU_USAGE_Handle")
     262                      .dwattr $C$DW$T$24, DW_AT_type(*$C$DW$T$23)
     263                      .dwattr $C$DW$T$24, DW_AT_language(DW_LANG_C)
     264              $C$DW$25        .dwtag  DW_TAG_TI_far_type
     265                      .dwattr $C$DW$25, DW_AT_type(*$C$DW$T$24)
     266              $C$DW$T$25      .dwtag  DW_TAG_const_type
     267                      .dwattr $C$DW$T$25, DW_AT_type(*$C$DW$25)
     268              $C$DW$T$2       .dwtag  DW_TAG_unspecified_type
     269                      .dwattr $C$DW$T$2, DW_AT_name("void")
     270              $C$DW$T$3       .dwtag  DW_TAG_pointer_type
     271                      .dwattr $C$DW$T$3, DW_AT_type(*$C$DW$T$2)
     272                      .dwattr $C$DW$T$3, DW_AT_address_class(0x20)
     273              $C$DW$T$4       .dwtag  DW_TAG_base_type
     274                      .dwattr $C$DW$T$4, DW_AT_encoding(DW_ATE_boolean)
TMS320C2000 Assembler PC v6.4.10 Thu Jun 09 16:10:28 2016

Tools Copyright (c) 1996-2015 Texas Instruments Incorporated
C:\Users\bee25\AppData\Local\Temp\3229610                            PAGE    6

     275                      .dwattr $C$DW$T$4, DW_AT_name("bool")
     276                      .dwattr $C$DW$T$4, DW_AT_byte_size(0x01)
     277              $C$DW$T$5       .dwtag  DW_TAG_base_type
     278                      .dwattr $C$DW$T$5, DW_AT_encoding(DW_ATE_signed_char)
     279                      .dwattr $C$DW$T$5, DW_AT_name("signed char")
     280                      .dwattr $C$DW$T$5, DW_AT_byte_size(0x01)
     281              $C$DW$T$6       .dwtag  DW_TAG_base_type
     282                      .dwattr $C$DW$T$6, DW_AT_encoding(DW_ATE_unsigned_char)
     283                      .dwattr $C$DW$T$6, DW_AT_name("unsigned char")
     284                      .dwattr $C$DW$T$6, DW_AT_byte_size(0x01)
     285              $C$DW$T$7       .dwtag  DW_TAG_base_type
     286                      .dwattr $C$DW$T$7, DW_AT_encoding(DW_ATE_signed_char)
     287                      .dwattr $C$DW$T$7, DW_AT_name("wchar_t")
     288                      .dwattr $C$DW$T$7, DW_AT_byte_size(0x01)
     289              $C$DW$T$8       .dwtag  DW_TAG_base_type
     290                      .dwattr $C$DW$T$8, DW_AT_encoding(DW_ATE_signed)
     291                      .dwattr $C$DW$T$8, DW_AT_name("short")
     292                      .dwattr $C$DW$T$8, DW_AT_byte_size(0x01)
     293              $C$DW$T$9       .dwtag  DW_TAG_base_type
     294                      .dwattr $C$DW$T$9, DW_AT_encoding(DW_ATE_unsigned)
     295                      .dwattr $C$DW$T$9, DW_AT_name("unsigned short")
     296                      .dwattr $C$DW$T$9, DW_AT_byte_size(0x01)
     297              $C$DW$T$10      .dwtag  DW_TAG_base_type
     298                      .dwattr $C$DW$T$10, DW_AT_encoding(DW_ATE_signed)
     299                      .dwattr $C$DW$T$10, DW_AT_name("int")
     300                      .dwattr $C$DW$T$10, DW_AT_byte_size(0x01)
     301              $C$DW$T$11      .dwtag  DW_TAG_base_type
     302                      .dwattr $C$DW$T$11, DW_AT_encoding(DW_ATE_unsigned)
     303                      .dwattr $C$DW$T$11, DW_AT_name("unsigned int")
     304                      .dwattr $C$DW$T$11, DW_AT_byte_size(0x01)
     305              $C$DW$T$12      .dwtag  DW_TAG_base_type
     306                      .dwattr $C$DW$T$12, DW_AT_encoding(DW_ATE_signed)
     307                      .dwattr $C$DW$T$12, DW_AT_name("long")
     308                      .dwattr $C$DW$T$12, DW_AT_byte_size(0x02)
     309              $C$DW$T$13      .dwtag  DW_TAG_base_type
     310                      .dwattr $C$DW$T$13, DW_AT_encoding(DW_ATE_unsigned)
     311                      .dwattr $C$DW$T$13, DW_AT_name("unsigned long")
     312                      .dwattr $C$DW$T$13, DW_AT_byte_size(0x02)
     313              $C$DW$T$26      .dwtag  DW_TAG_typedef, DW_AT_name("size_t")
     314                      .dwattr $C$DW$T$26, DW_AT_type(*$C$DW$T$13)
     315                      .dwattr $C$DW$T$26, DW_AT_language(DW_LANG_C)
     316              $C$DW$26        .dwtag  DW_TAG_TI_far_type
     317                      .dwattr $C$DW$26, DW_AT_type(*$C$DW$T$26)
     318              $C$DW$T$27      .dwtag  DW_TAG_const_type
     319                      .dwattr $C$DW$T$27, DW_AT_type(*$C$DW$26)
     320              $C$DW$T$19      .dwtag  DW_TAG_typedef, DW_AT_name("uint32_t")
     321                      .dwattr $C$DW$T$19, DW_AT_type(*$C$DW$T$13)
     322                      .dwattr $C$DW$T$19, DW_AT_language(DW_LANG_C)
     323              $C$DW$27        .dwtag  DW_TAG_TI_far_type
     324                      .dwattr $C$DW$27, DW_AT_type(*$C$DW$T$19)
     325              $C$DW$T$32      .dwtag  DW_TAG_const_type
     326                      .dwattr $C$DW$T$32, DW_AT_type(*$C$DW$27)
     327              $C$DW$T$14      .dwtag  DW_TAG_base_type
     328                      .dwattr $C$DW$T$14, DW_AT_encoding(DW_ATE_signed)
     329                      .dwattr $C$DW$T$14, DW_AT_name("long long")
TMS320C2000 Assembler PC v6.4.10 Thu Jun 09 16:10:28 2016

Tools Copyright (c) 1996-2015 Texas Instruments Incorporated
C:\Users\bee25\AppData\Local\Temp\3229610                            PAGE    7

     330                      .dwattr $C$DW$T$14, DW_AT_byte_size(0x04)
     331              $C$DW$T$15      .dwtag  DW_TAG_base_type
     332                      .dwattr $C$DW$T$15, DW_AT_encoding(DW_ATE_unsigned)
     333                      .dwattr $C$DW$T$15, DW_AT_name("unsigned long long")
     334                      .dwattr $C$DW$T$15, DW_AT_byte_size(0x04)
     335              $C$DW$T$16      .dwtag  DW_TAG_base_type
     336                      .dwattr $C$DW$T$16, DW_AT_encoding(DW_ATE_float)
     337                      .dwattr $C$DW$T$16, DW_AT_name("float")
     338                      .dwattr $C$DW$T$16, DW_AT_byte_size(0x02)
     339              $C$DW$T$17      .dwtag  DW_TAG_base_type
     340                      .dwattr $C$DW$T$17, DW_AT_encoding(DW_ATE_float)
     341                      .dwattr $C$DW$T$17, DW_AT_name("double")
     342                      .dwattr $C$DW$T$17, DW_AT_byte_size(0x02)
     343              $C$DW$T$18      .dwtag  DW_TAG_base_type
     344                      .dwattr $C$DW$T$18, DW_AT_encoding(DW_ATE_float)
     345                      .dwattr $C$DW$T$18, DW_AT_name("long double")
     346                      .dwattr $C$DW$T$18, DW_AT_byte_size(0x04)
     347              $C$DW$T$20      .dwtag  DW_TAG_base_type
     348                      .dwattr $C$DW$T$20, DW_AT_encoding(DW_ATE_unsigned_char)
     349                      .dwattr $C$DW$T$20, DW_AT_name("unsigned char")
     350                      .dwattr $C$DW$T$20, DW_AT_byte_size(0x01)
     351                      .dwattr $C$DW$CU, DW_AT_language(DW_LANG_C)
     352              
     353              ;***************************************************************
     354              ;* DWARF CIE ENTRIES                                           *
     355              ;***************************************************************
     356              
     357              $C$DW$CIE       .dwcie 26
     358                      .dwcfi  cfa_register, 20
     359                      .dwcfi  cfa_offset, 0
     360                      .dwcfi  undefined, 0
     361                      .dwcfi  undefined, 1
     362                      .dwcfi  undefined, 2
     363                      .dwcfi  undefined, 3
     364                      .dwcfi  undefined, 20
     365                      .dwcfi  undefined, 21
     366                      .dwcfi  undefined, 22
     367                      .dwcfi  undefined, 23
     368                      .dwcfi  undefined, 24
     369                      .dwcfi  undefined, 25
     370                      .dwcfi  undefined, 26
     371                      .dwcfi  same_value, 28
     372                      .dwcfi  undefined, 29
     373                      .dwcfi  undefined, 30
     374                      .dwcfi  undefined, 31
     375                      .dwcfi  undefined, 32
     376                      .dwcfi  undefined, 33
     377                      .dwcfi  undefined, 34
     378                      .dwcfi  undefined, 35
     379                      .dwcfi  undefined, 36
     380                      .dwcfi  undefined, 37
     381                      .dwcfi  undefined, 38
     382                      .dwcfi  undefined, 75
     383                      .dwcfi  undefined, 76
     384                      .dwcfi  undefined, 77
TMS320C2000 Assembler PC v6.4.10 Thu Jun 09 16:10:28 2016

Tools Copyright (c) 1996-2015 Texas Instruments Incorporated
C:\Users\bee25\AppData\Local\Temp\3229610                            PAGE    8

     385                      .dwcfi  undefined, 4
     386                      .dwcfi  undefined, 5
     387                      .dwcfi  same_value, 6
     388                      .dwcfi  same_value, 7
     389                      .dwcfi  same_value, 8
     390                      .dwcfi  same_value, 9
     391                      .dwcfi  same_value, 10
     392                      .dwcfi  same_value, 11
     393                      .dwcfi  undefined, 12
     394                      .dwcfi  undefined, 13
     395                      .dwcfi  undefined, 14
     396                      .dwcfi  undefined, 15
     397                      .dwcfi  undefined, 16
     398                      .dwcfi  undefined, 17
     399                      .dwcfi  undefined, 18
     400                      .dwcfi  undefined, 19
     401                      .dwendentry
     402              
     403              ;***************************************************************
     404              ;* DWARF REGISTER MAP                                          *
     405              ;***************************************************************
     406              
     407              $C$DW$28        .dwtag  DW_TAG_TI_assign_register, DW_AT_name("AL")
     408                      .dwattr $C$DW$28, DW_AT_location[DW_OP_reg0]
     409              $C$DW$29        .dwtag  DW_TAG_TI_assign_register, DW_AT_name("AH")
     410                      .dwattr $C$DW$29, DW_AT_location[DW_OP_reg1]
     411              $C$DW$30        .dwtag  DW_TAG_TI_assign_register, DW_AT_name("PL")
     412                      .dwattr $C$DW$30, DW_AT_location[DW_OP_reg2]
     413              $C$DW$31        .dwtag  DW_TAG_TI_assign_register, DW_AT_name("PH")
     414                      .dwattr $C$DW$31, DW_AT_location[DW_OP_reg3]
     415              $C$DW$32        .dwtag  DW_TAG_TI_assign_register, DW_AT_name("SP")
     416                      .dwattr $C$DW$32, DW_AT_location[DW_OP_reg20]
     417              $C$DW$33        .dwtag  DW_TAG_TI_assign_register, DW_AT_name("XT")
     418                      .dwattr $C$DW$33, DW_AT_location[DW_OP_reg21]
     419              $C$DW$34        .dwtag  DW_TAG_TI_assign_register, DW_AT_name("T")
     420                      .dwattr $C$DW$34, DW_AT_location[DW_OP_reg22]
     421              $C$DW$35        .dwtag  DW_TAG_TI_assign_register, DW_AT_name("ST0")
     422                      .dwattr $C$DW$35, DW_AT_location[DW_OP_reg23]
     423              $C$DW$36        .dwtag  DW_TAG_TI_assign_register, DW_AT_name("ST1")
     424                      .dwattr $C$DW$36, DW_AT_location[DW_OP_reg24]
     425              $C$DW$37        .dwtag  DW_TAG_TI_assign_register, DW_AT_name("PC")
     426                      .dwattr $C$DW$37, DW_AT_location[DW_OP_reg25]
     427              $C$DW$38        .dwtag  DW_TAG_TI_assign_register, DW_AT_name("RPC")
     428                      .dwattr $C$DW$38, DW_AT_location[DW_OP_reg26]
     429              $C$DW$39        .dwtag  DW_TAG_TI_assign_register, DW_AT_name("FP")
     430                      .dwattr $C$DW$39, DW_AT_location[DW_OP_reg28]
     431              $C$DW$40        .dwtag  DW_TAG_TI_assign_register, DW_AT_name("DP")
     432                      .dwattr $C$DW$40, DW_AT_location[DW_OP_reg29]
     433              $C$DW$41        .dwtag  DW_TAG_TI_assign_register, DW_AT_name("SXM")
     434                      .dwattr $C$DW$41, DW_AT_location[DW_OP_reg30]
     435              $C$DW$42        .dwtag  DW_TAG_TI_assign_register, DW_AT_name("PM")
     436                      .dwattr $C$DW$42, DW_AT_location[DW_OP_reg31]
     437              $C$DW$43        .dwtag  DW_TAG_TI_assign_register, DW_AT_name("OVM")
     438                      .dwattr $C$DW$43, DW_AT_location[DW_OP_regx 0x20]
     439              $C$DW$44        .dwtag  DW_TAG_TI_assign_register, DW_AT_name("PAGE0")
TMS320C2000 Assembler PC v6.4.10 Thu Jun 09 16:10:28 2016

Tools Copyright (c) 1996-2015 Texas Instruments Incorporated
C:\Users\bee25\AppData\Local\Temp\3229610                            PAGE    9

     440                      .dwattr $C$DW$44, DW_AT_location[DW_OP_regx 0x21]
     441              $C$DW$45        .dwtag  DW_TAG_TI_assign_register, DW_AT_name("AMODE")
     442                      .dwattr $C$DW$45, DW_AT_location[DW_OP_regx 0x22]
     443              $C$DW$46        .dwtag  DW_TAG_TI_assign_register, DW_AT_name("INTM")
     444                      .dwattr $C$DW$46, DW_AT_location[DW_OP_regx 0x23]
     445              $C$DW$47        .dwtag  DW_TAG_TI_assign_register, DW_AT_name("IFR")
     446                      .dwattr $C$DW$47, DW_AT_location[DW_OP_regx 0x24]
     447              $C$DW$48        .dwtag  DW_TAG_TI_assign_register, DW_AT_name("IER")
     448                      .dwattr $C$DW$48, DW_AT_location[DW_OP_regx 0x25]
     449              $C$DW$49        .dwtag  DW_TAG_TI_assign_register, DW_AT_name("V")
     450                      .dwattr $C$DW$49, DW_AT_location[DW_OP_regx 0x26]
     451              $C$DW$50        .dwtag  DW_TAG_TI_assign_register, DW_AT_name("PSEUDOH")
     452                      .dwattr $C$DW$50, DW_AT_location[DW_OP_regx 0x4c]
     453              $C$DW$51        .dwtag  DW_TAG_TI_assign_register, DW_AT_name("VOL")
     454                      .dwattr $C$DW$51, DW_AT_location[DW_OP_regx 0x4d]
     455              $C$DW$52        .dwtag  DW_TAG_TI_assign_register, DW_AT_name("AR0")
     456                      .dwattr $C$DW$52, DW_AT_location[DW_OP_reg4]
     457              $C$DW$53        .dwtag  DW_TAG_TI_assign_register, DW_AT_name("XAR0")
     458                      .dwattr $C$DW$53, DW_AT_location[DW_OP_reg5]
     459              $C$DW$54        .dwtag  DW_TAG_TI_assign_register, DW_AT_name("AR1")
     460                      .dwattr $C$DW$54, DW_AT_location[DW_OP_reg6]
     461              $C$DW$55        .dwtag  DW_TAG_TI_assign_register, DW_AT_name("XAR1")
     462                      .dwattr $C$DW$55, DW_AT_location[DW_OP_reg7]
     463              $C$DW$56        .dwtag  DW_TAG_TI_assign_register, DW_AT_name("AR2")
     464                      .dwattr $C$DW$56, DW_AT_location[DW_OP_reg8]
     465              $C$DW$57        .dwtag  DW_TAG_TI_assign_register, DW_AT_name("XAR2")
     466                      .dwattr $C$DW$57, DW_AT_location[DW_OP_reg9]
     467              $C$DW$58        .dwtag  DW_TAG_TI_assign_register, DW_AT_name("AR3")
     468                      .dwattr $C$DW$58, DW_AT_location[DW_OP_reg10]
     469              $C$DW$59        .dwtag  DW_TAG_TI_assign_register, DW_AT_name("XAR3")
     470                      .dwattr $C$DW$59, DW_AT_location[DW_OP_reg11]
     471              $C$DW$60        .dwtag  DW_TAG_TI_assign_register, DW_AT_name("AR4")
     472                      .dwattr $C$DW$60, DW_AT_location[DW_OP_reg12]
     473              $C$DW$61        .dwtag  DW_TAG_TI_assign_register, DW_AT_name("XAR4")
     474                      .dwattr $C$DW$61, DW_AT_location[DW_OP_reg13]
     475              $C$DW$62        .dwtag  DW_TAG_TI_assign_register, DW_AT_name("AR5")
     476                      .dwattr $C$DW$62, DW_AT_location[DW_OP_reg14]
     477              $C$DW$63        .dwtag  DW_TAG_TI_assign_register, DW_AT_name("XAR5")
     478                      .dwattr $C$DW$63, DW_AT_location[DW_OP_reg15]
     479              $C$DW$64        .dwtag  DW_TAG_TI_assign_register, DW_AT_name("AR6")
     480                      .dwattr $C$DW$64, DW_AT_location[DW_OP_reg16]
     481              $C$DW$65        .dwtag  DW_TAG_TI_assign_register, DW_AT_name("XAR6")
     482                      .dwattr $C$DW$65, DW_AT_location[DW_OP_reg17]
     483              $C$DW$66        .dwtag  DW_TAG_TI_assign_register, DW_AT_name("AR7")
     484                      .dwattr $C$DW$66, DW_AT_location[DW_OP_reg18]
     485              $C$DW$67        .dwtag  DW_TAG_TI_assign_register, DW_AT_name("XAR7")
     486                      .dwattr $C$DW$67, DW_AT_location[DW_OP_reg19]
     487                      .dwendtag $C$DW$CU
     488              

No Assembly Errors, No Assembly Warnings
