TMS320C2000 Assembler PC v6.4.11 Mon Oct 03 13:48:45 2016

Tools Copyright (c) 1996-2015 Texas Instruments Incorporated
C:\Users\bee25\AppData\Local\Temp\1032410                            PAGE    1

       1              ;***************************************************************
       2              ;* TMS320C2000 C/C++ Codegen                        PC v6.4.11 *
       3              ;* Date/Time created: Mon Oct 03 13:48:44 2016                 *
       4              ;***************************************************************
       5                      .compiler_opts --float_support=softlib --hll_source=on --mem_model:code=flat --mem_model:data=large -
       6        0002  FP      .set    XAR2
       7              
       8              $C$DW$CU        .dwtag  DW_TAG_compile_unit
       9                      .dwattr $C$DW$CU, DW_AT_name("C:/ti/motorware/motorware_1_01_00_16/sw/solutions/instaspin_foc/src/pro
      10                      .dwattr $C$DW$CU, DW_AT_producer("TI TMS320C2000 C/C++ Codegen PC v6.4.11 Copyright (c) 1996-2015 Tex
      11                      .dwattr $C$DW$CU, DW_AT_TI_version(0x01)
      12                      .dwattr $C$DW$CU, DW_AT_comp_dir("C:\ti\motorware\motorware_1_01_00_16\sw\solutions\instaspin_foc\boa
      13              ;**************************************************************
      14              ;* CINIT RECORDS                                              *
      15              ;**************************************************************
      16 00000000               .sect   ".cinit"
      17                      .align  1
      18 00000000 FFFF          .field          -1,16
      19 00000001 0000-         .field          _gLEDcnt+0,32
         00000002 0000 
      20 00000003 0000          .bits   0,16                    ; _gLEDcnt @ 0
      21              
      22 00000004               .sect   ".cinit"
      23                      .align  1
      24 00000004 FFFF          .field          -1,16
      25 00000005 0001-         .field          _Flag_Latch_softwareUpdate+0,32
         00000006 0000 
      26 00000007 0001          .bits   1,16                    ; _Flag_Latch_softwareUpdate @ 0
      27              
      28 00000008               .sect   ".cinit"
      29                      .align  1
      30 00000008 FFFF          .field          -1,16
      31 00000009 0002-         .field          _gCounter_updateGlobals+0,32
         0000000a 0000 
      32 0000000b 0000          .bits   0,16                    ; _gCounter_updateGlobals @ 0
      33              
      34 0000000c               .sect   ".cinit"
      35                      .align  1
      36 0000000c FFFF          .field          -1,16
      37 0000000d 0003-         .field          _data+0,32
         0000000e 0000 
      38 0000000f 0000          .bits   0,16                    ; _data @ 0
      39              
      40 00000010               .sect   ".cinit"
      41                      .align  1
      42 00000010 FFFE          .field          -2,16
      43 00000011 0004-         .field          _speed+0,32
         00000012 0000 
      44 00000013 0000          .bits   0,32                    ; _speed @ 0
         00000014 0000 
      45              
      46 00000015               .sect   ".cinit"
      47                      .align  1
      48 00000015 FFFE          .field          -2,16
      49 00000016 0006-         .field          _gMaxDeltaCntObserved+0,32
TMS320C2000 Assembler PC v6.4.11 Mon Oct 03 13:48:45 2016

Tools Copyright (c) 1996-2015 Texas Instruments Incorporated
C:\Users\bee25\AppData\Local\Temp\1032410                            PAGE    2

         00000017 0000 
      50 00000018 0000          .bits   0,32                    ; _gMaxDeltaCntObserved @ 0
         00000019 0000 
      51              
      52 0000001a               .sect   ".cinit"
      53                      .align  1
      54 0000001a FFFE          .field          -2,16
      55 0000001b 000C-         .field          _current$1+0,32
         0000001c 0000 
      56 0000001d 0000          .bits   0,32                    ; _current$1 @ 0
         0000001e 0000 
      57              
      58 0000001f               .sect   ".cinit"
      59                      .align  1
      60 0000001f FFFE          .field          -2,16
      61 00000020 0010-         .field          _gCpuUsagePercentageMin+0,32
         00000021 0000 
      62 00000022 0000          .xfloat $strtod("0x0p+0")               ; _gCpuUsagePercentageMin @ 0
         00000023 0000 
      63              
      64 00000024               .sect   ".cinit"
      65                      .align  1
      66 00000024 FFFE          .field          -2,16
      67 00000025 0014-         .field          _gMaxCurrentSlope+0,32
         00000026 0000 
      68 00000027 0000          .bits   0,32                    ; _gMaxCurrentSlope @ 0
         00000028 0000 
      69              
      70 00000029               .sect   ".cinit"
      71                      .align  1
      72 00000029 FFFE          .field          -2,16
      73 0000002a 0016-         .field          _gCpuUsagePercentageMax+0,32
         0000002b 0000 
      74 0000002c 0000          .xfloat $strtod("0x0p+0")               ; _gCpuUsagePercentageMax @ 0
         0000002d 0000 
      75              
      76 0000002e               .sect   ".cinit"
      77                      .align  1
      78 0000002e FFFE          .field          -2,16
      79 0000002f 0018-         .field          _gNumFreqErrors+0,32
         00000030 0000 
      80 00000031 0000          .bits   0,32                    ; _gNumFreqErrors @ 0
         00000032 0000 
      81              
      82 00000033               .sect   ".cinit"
      83                      .align  1
      84 00000033 FFFE          .field          -2,16
      85 00000034 001C-         .field          _gCpuUsagePercentageAvg+0,32
         00000035 0000 
      86 00000036 0000          .xfloat $strtod("0x0p+0")               ; _gCpuUsagePercentageAvg @ 0
         00000037 0000 
      87              
      88 00000038               .sect   ".cinit"
      89                      .align  1
      90 00000038 FFFA          .field          -$C$IR_1,16
TMS320C2000 Assembler PC v6.4.11 Mon Oct 03 13:48:45 2016

Tools Copyright (c) 1996-2015 Texas Instruments Incorporated
C:\Users\bee25\AppData\Local\Temp\1032410                            PAGE    3

      91 00000039 0022-         .field          _gPwmData+0,32
         0000003a 0000 
      92 0000003b 0000          .bits   0,32                    ; _gPwmData._Tabc._value[0] @ 0
         0000003c 0000 
      93 0000003d 0000          .bits   0,32                    ; _gPwmData._Tabc._value[1] @ 32
         0000003e 0000 
      94 0000003f 0000          .bits   0,32                    ; _gPwmData._Tabc._value[2] @ 64
         00000040 0000 
      95        0006  $C$IR_1:        .set    6
      96              
      97 00000041               .sect   ".cinit"
      98                      .align  1
      99 00000041 FF98          .field          -$C$IR_2,16
     100 00000042 0080-         .field          _gMotorVars+0,32
         00000043 0000 
     101 00000044 0000          .bits   0,16                    ; _gMotorVars._Flag_enableSys @ 0
     102 00000045 0000          .bits   0,16                    ; _gMotorVars._Flag_Run_Identify @ 16
     103 00000046 0000          .bits   0,16                    ; _gMotorVars._Flag_MotorIdentified @ 32
     104 00000047 0001          .bits   1,16                    ; _gMotorVars._Flag_enableForceAngle @ 48
     105 00000048 0000          .bits   0,16                    ; _gMotorVars._Flag_enableFieldWeakening @ 64
     106 00000049 0000          .bits   0,16                    ; _gMotorVars._Flag_enableRsRecalc @ 80
     107 0000004a 0001          .bits   1,16                    ; _gMotorVars._Flag_enableUserParams @ 96
     108 0000004b 0001          .bits   1,16                    ; _gMotorVars._Flag_enableOffsetcalc @ 112
     109 0000004c 0000          .bits   0,16                    ; _gMotorVars._Flag_enablePowerWarp @ 128
     110 0000004d 0000          .bits   0,16                    ; _gMotorVars._Flag_enableSpeedCtrl @ 144
     111 0000004e 0001          .bits   1,16                    ; _gMotorVars._CtrlState @ 160
     112 0000004f 0001          .bits   1,16                    ; _gMotorVars._EstState @ 176
     113 00000050 0000          .bits   0,16                    ; _gMotorVars._UserErrorCode @ 192
     114 00000051 0000          .bits   0,16                    ; _gMotorVars._CtrlVersion._rsvd @ 208
     115 00000052 0004          .bits   4,16                    ; _gMotorVars._CtrlVersion._targetProc @ 224
     116 00000053 0000          .bits   0,16                    ; _gMotorVars._CtrlVersion._major @ 240
     117 00000054 0000          .bits   0,16                    ; _gMotorVars._CtrlVersion._minor @ 256
     118 00000055               .space  16
     119 00000056 0000          .bits   0,32                    ; _gMotorVars._IdRef_A @ 288
         00000057 0000 
     120 00000058 0000          .bits   0,32                    ; _gMotorVars._IqRef_A @ 320
         00000059 0000 
     121 0000005a 0000          .bits   0,32                    ; _gMotorVars._SpeedRef_pu @ 352
         0000005b 0000 
     122 0000005c 9999          .bits   1677721,32                      ; _gMotorVars._SpeedRef_krpm @ 384
         0000005d 0019 
     123 0000005e 0000          .bits   0,32                    ; _gMotorVars._SpeedTraj_krpm @ 416
         0000005f 0000 
     124 00000060 3333          .bits   3355443,32                      ; _gMotorVars._MaxAccel_krpmps @ 448
         00000061 0033 
     125 00000062 0000          .bits   0,32                    ; _gMotorVars._Speed_krpm @ 480
         00000063 0000 
     126 00000064 0000          .bits   8388608,32                      ; _gMotorVars._OverModulation @ 512
         00000065 0080 
     127 00000066 0000          .bits   41943040,32                     ; _gMotorVars._RsOnLineCurrent_A @ 544
         00000067 0280 
     128 00000068 0190          .bits   400,32                  ; _gMotorVars._SvgenMaxModulation_ticks @ 576
         00000069 0000 
     129 0000006a 0000          .bits   0,32                    ; _gMotorVars._Flux_Wb @ 608
         0000006b 0000 
TMS320C2000 Assembler PC v6.4.11 Mon Oct 03 13:48:45 2016

Tools Copyright (c) 1996-2015 Texas Instruments Incorporated
C:\Users\bee25\AppData\Local\Temp\1032410                            PAGE    4

     130 0000006c 0000          .bits   0,32                    ; _gMotorVars._Torque_Nm @ 640
         0000006d 0000 
     131 0000006e 0000          .xfloat $strtod("0x0p+0")               ; _gMotorVars._MagnCurr_A @ 672
         0000006f 0000 
     132 00000070 0000          .xfloat $strtod("0x0p+0")               ; _gMotorVars._Rr_Ohm @ 704
         00000071 0000 
     133 00000072 0000          .xfloat $strtod("0x0p+0")               ; _gMotorVars._Rs_Ohm @ 736
         00000073 0000 
     134 00000074 0000          .xfloat $strtod("0x0p+0")               ; _gMotorVars._RsOnLine_Ohm @ 768
         00000075 0000 
     135 00000076 0000          .xfloat $strtod("0x0p+0")               ; _gMotorVars._Lsd_H @ 800
         00000077 0000 
     136 00000078 0000          .xfloat $strtod("0x0p+0")               ; _gMotorVars._Lsq_H @ 832
         00000079 0000 
     137 0000007a 0000          .xfloat $strtod("0x0p+0")               ; _gMotorVars._Flux_VpHz @ 864
         0000007b 0000 
     138 0000007c 0000          .xfloat $strtod("0x0p+0")               ; _gMotorVars._ipd_excFreq_Hz @ 896
         0000007d 0000 
     139 0000007e 0000          .bits   0,32                    ; _gMotorVars._ipd_Kspd @ 928
         0000007f 0000 
     140 00000080 0000          .bits   0,32                    ; _gMotorVars._ipd_excMag_coarse_pu @ 960
         00000081 0000 
     141 00000082 0000          .bits   0,32                    ; _gMotorVars._ipd_excMag_fine_pu @ 992
         00000083 0000 
     142 00000084 0000          .xfloat $strtod("0x0p+0")               ; _gMotorVars._ipd_waitTime_coarse_sec @ 1024
         00000085 0000 
     143 00000086 0000          .xfloat $strtod("0x0p+0")               ; _gMotorVars._ipd_waitTime_fine_sec @ 1056
         00000087 0000 
     144 00000088 0000          .bits   0,32                    ; _gMotorVars._Kp_spd @ 1088
         00000089 0000 
     145 0000008a 0000          .bits   0,32                    ; _gMotorVars._Ki_spd @ 1120
         0000008b 0000 
     146 0000008c 0000          .bits   0,32                    ; _gMotorVars._Kp_Idq @ 1152
         0000008d 0000 
     147 0000008e 0000          .bits   0,32                    ; _gMotorVars._Ki_Idq @ 1184
         0000008f 0000 
     148 00000090 0000          .bits   0,32                    ; _gMotorVars._Vd @ 1216
         00000091 0000 
     149 00000092 0000          .bits   0,32                    ; _gMotorVars._Vq @ 1248
         00000093 0000 
     150 00000094 0000          .bits   0,32                    ; _gMotorVars._Vs @ 1280
         00000095 0000 
     151 00000096 6666          .bits   6710886,32                      ; _gMotorVars._VsRef @ 1312
         00000097 0066 
     152 00000098 0000          .bits   0,32                    ; _gMotorVars._VdcBus_kV @ 1344
         00000099 0000 
     153 0000009a 0000          .bits   0,32                    ; _gMotorVars._Id_A @ 1376
         0000009b 0000 
     154 0000009c 0000          .bits   0,32                    ; _gMotorVars._Iq_A @ 1408
         0000009d 0000 
     155 0000009e 0000          .bits   0,32                    ; _gMotorVars._Is_A @ 1440
         0000009f 0000 
     156 000000a0 0000          .bits   0,32                    ; _gMotorVars._I_bias._value[0] @ 1472
         000000a1 0000 
     157 000000a2 0000          .bits   0,32                    ; _gMotorVars._I_bias._value[1] @ 1504
TMS320C2000 Assembler PC v6.4.11 Mon Oct 03 13:48:45 2016

Tools Copyright (c) 1996-2015 Texas Instruments Incorporated
C:\Users\bee25\AppData\Local\Temp\1032410                            PAGE    5

         000000a3 0000 
     158 000000a4 0000          .bits   0,32                    ; _gMotorVars._I_bias._value[2] @ 1536
         000000a5 0000 
     159 000000a6 0000          .bits   0,32                    ; _gMotorVars._V_bias._value[0] @ 1568
         000000a7 0000 
     160 000000a8 0000          .bits   0,32                    ; _gMotorVars._V_bias._value[1] @ 1600
         000000a9 0000 
     161 000000aa 0000          .bits   0,32                    ; _gMotorVars._V_bias._value[2] @ 1632
         000000ab 0000 
     162        0068  $C$IR_2:        .set    104
     163              
     164              
     165              $C$DW$1 .dwtag  DW_TAG_subprogram, DW_AT_name("USER_setParams")
     166                      .dwattr $C$DW$1, DW_AT_TI_symbol_name("_USER_setParams")
     167                      .dwattr $C$DW$1, DW_AT_declaration
     168                      .dwattr $C$DW$1, DW_AT_external
     169              $C$DW$2 .dwtag  DW_TAG_formal_parameter
     170                      .dwattr $C$DW$2, DW_AT_type(*$C$DW$T$208)
     171                      .dwendtag $C$DW$1
     172              
     173              
     174              $C$DW$3 .dwtag  DW_TAG_subprogram, DW_AT_name("USER_softwareUpdate1p6")
     175                      .dwattr $C$DW$3, DW_AT_TI_symbol_name("_USER_softwareUpdate1p6")
     176                      .dwattr $C$DW$3, DW_AT_declaration
     177                      .dwattr $C$DW$3, DW_AT_external
     178              $C$DW$4 .dwtag  DW_TAG_formal_parameter
     179                      .dwattr $C$DW$4, DW_AT_type(*$C$DW$T$202)
     180                      .dwendtag $C$DW$3
     181              
     182              
     183              $C$DW$5 .dwtag  DW_TAG_subprogram, DW_AT_name("USER_checkForErrors")
     184                      .dwattr $C$DW$5, DW_AT_TI_symbol_name("_USER_checkForErrors")
     185                      .dwattr $C$DW$5, DW_AT_declaration
     186                      .dwattr $C$DW$5, DW_AT_external
     187              $C$DW$6 .dwtag  DW_TAG_formal_parameter
     188                      .dwattr $C$DW$6, DW_AT_type(*$C$DW$T$208)
     189                      .dwendtag $C$DW$5
     190              
     191              
     192              $C$DW$7 .dwtag  DW_TAG_subprogram, DW_AT_name("HAL_readDrvData")
     193                      .dwattr $C$DW$7, DW_AT_TI_symbol_name("_HAL_readDrvData")
     194                      .dwattr $C$DW$7, DW_AT_declaration
     195                      .dwattr $C$DW$7, DW_AT_external
     196              $C$DW$8 .dwtag  DW_TAG_formal_parameter
     197                      .dwattr $C$DW$8, DW_AT_type(*$C$DW$T$265)
     198              $C$DW$9 .dwtag  DW_TAG_formal_parameter
     199                      .dwattr $C$DW$9, DW_AT_type(*$C$DW$T$248)
     200                      .dwendtag $C$DW$7
     201              
     202              
     203              $C$DW$10        .dwtag  DW_TAG_subprogram, DW_AT_name("HAL_setupDrvSpi")
     204                      .dwattr $C$DW$10, DW_AT_TI_symbol_name("_HAL_setupDrvSpi")
     205                      .dwattr $C$DW$10, DW_AT_declaration
     206                      .dwattr $C$DW$10, DW_AT_external
     207              $C$DW$11        .dwtag  DW_TAG_formal_parameter
TMS320C2000 Assembler PC v6.4.11 Mon Oct 03 13:48:45 2016

Tools Copyright (c) 1996-2015 Texas Instruments Incorporated
C:\Users\bee25\AppData\Local\Temp\1032410                            PAGE    6

     208                      .dwattr $C$DW$11, DW_AT_type(*$C$DW$T$265)
     209              $C$DW$12        .dwtag  DW_TAG_formal_parameter
     210                      .dwattr $C$DW$12, DW_AT_type(*$C$DW$T$248)
     211                      .dwendtag $C$DW$10
     212              
     213              
     214              $C$DW$13        .dwtag  DW_TAG_subprogram, DW_AT_name("HAL_writeDrvData")
     215                      .dwattr $C$DW$13, DW_AT_TI_symbol_name("_HAL_writeDrvData")
     216                      .dwattr $C$DW$13, DW_AT_declaration
     217                      .dwattr $C$DW$13, DW_AT_external
     218              $C$DW$14        .dwtag  DW_TAG_formal_parameter
     219                      .dwattr $C$DW$14, DW_AT_type(*$C$DW$T$265)
     220              $C$DW$15        .dwtag  DW_TAG_formal_parameter
     221                      .dwattr $C$DW$15, DW_AT_type(*$C$DW$T$248)
     222                      .dwendtag $C$DW$13
     223              
     224              
     225              $C$DW$16        .dwtag  DW_TAG_subprogram, DW_AT_name("USER_calcPIgains")
     226                      .dwattr $C$DW$16, DW_AT_TI_symbol_name("_USER_calcPIgains")
     227                      .dwattr $C$DW$16, DW_AT_declaration
     228                      .dwattr $C$DW$16, DW_AT_external
     229              $C$DW$17        .dwtag  DW_TAG_formal_parameter
     230                      .dwattr $C$DW$17, DW_AT_type(*$C$DW$T$202)
     231                      .dwendtag $C$DW$16
     232              
     233              
     234              $C$DW$18        .dwtag  DW_TAG_subprogram, DW_AT_name("CTRL_getVersion")
     235                      .dwattr $C$DW$18, DW_AT_TI_symbol_name("_CTRL_getVersion")
     236                      .dwattr $C$DW$18, DW_AT_declaration
     237                      .dwattr $C$DW$18, DW_AT_external
     238              $C$DW$19        .dwtag  DW_TAG_formal_parameter
     239                      .dwattr $C$DW$19, DW_AT_type(*$C$DW$T$202)
     240              $C$DW$20        .dwtag  DW_TAG_formal_parameter
     241                      .dwattr $C$DW$20, DW_AT_type(*$C$DW$T$244)
     242                      .dwendtag $C$DW$18
     243              
     244              
     245              $C$DW$21        .dwtag  DW_TAG_subprogram, DW_AT_name("CPU_USAGE_setParams")
     246                      .dwattr $C$DW$21, DW_AT_TI_symbol_name("_CPU_USAGE_setParams")
     247                      .dwattr $C$DW$21, DW_AT_declaration
     248                      .dwattr $C$DW$21, DW_AT_external
     249              $C$DW$22        .dwtag  DW_TAG_formal_parameter
     250                      .dwattr $C$DW$22, DW_AT_type(*$C$DW$T$230)
     251              $C$DW$23        .dwtag  DW_TAG_formal_parameter
     252                      .dwattr $C$DW$23, DW_AT_type(*$C$DW$T$303)
     253              $C$DW$24        .dwtag  DW_TAG_formal_parameter
     254                      .dwattr $C$DW$24, DW_AT_type(*$C$DW$T$303)
     255                      .dwendtag $C$DW$21
     256              
     257              
     258              $C$DW$25        .dwtag  DW_TAG_subprogram, DW_AT_name("HAL_enableDrv")
     259                      .dwattr $C$DW$25, DW_AT_TI_symbol_name("_HAL_enableDrv")
     260                      .dwattr $C$DW$25, DW_AT_declaration
     261                      .dwattr $C$DW$25, DW_AT_external
     262              $C$DW$26        .dwtag  DW_TAG_formal_parameter
TMS320C2000 Assembler PC v6.4.11 Mon Oct 03 13:48:45 2016

Tools Copyright (c) 1996-2015 Texas Instruments Incorporated
C:\Users\bee25\AppData\Local\Temp\1032410                            PAGE    7

     263                      .dwattr $C$DW$26, DW_AT_type(*$C$DW$T$265)
     264                      .dwendtag $C$DW$25
     265              
     266              
     267              $C$DW$27        .dwtag  DW_TAG_subprogram, DW_AT_name("HAL_enableDebugInt")
     268                      .dwattr $C$DW$27, DW_AT_TI_symbol_name("_HAL_enableDebugInt")
     269                      .dwattr $C$DW$27, DW_AT_declaration
     270                      .dwattr $C$DW$27, DW_AT_external
     271              $C$DW$28        .dwtag  DW_TAG_formal_parameter
     272                      .dwattr $C$DW$28, DW_AT_type(*$C$DW$T$265)
     273                      .dwendtag $C$DW$27
     274              
     275              
     276              $C$DW$29        .dwtag  DW_TAG_subprogram, DW_AT_name("HAL_enableAdcInts")
     277                      .dwattr $C$DW$29, DW_AT_TI_symbol_name("_HAL_enableAdcInts")
     278                      .dwattr $C$DW$29, DW_AT_declaration
     279                      .dwattr $C$DW$29, DW_AT_external
     280              $C$DW$30        .dwtag  DW_TAG_formal_parameter
     281                      .dwattr $C$DW$30, DW_AT_type(*$C$DW$T$265)
     282                      .dwendtag $C$DW$29
     283              
     284              
     285              $C$DW$31        .dwtag  DW_TAG_subprogram, DW_AT_name("HAL_setupFaults")
     286                      .dwattr $C$DW$31, DW_AT_TI_symbol_name("_HAL_setupFaults")
     287                      .dwattr $C$DW$31, DW_AT_declaration
     288                      .dwattr $C$DW$31, DW_AT_external
     289              $C$DW$32        .dwtag  DW_TAG_formal_parameter
     290                      .dwattr $C$DW$32, DW_AT_type(*$C$DW$T$265)
     291                      .dwendtag $C$DW$31
     292              
     293              
     294              $C$DW$33        .dwtag  DW_TAG_subprogram, DW_AT_name("HAL_enableGlobalInts")
     295                      .dwattr $C$DW$33, DW_AT_TI_symbol_name("_HAL_enableGlobalInts")
     296                      .dwattr $C$DW$33, DW_AT_declaration
     297                      .dwattr $C$DW$33, DW_AT_external
     298              $C$DW$34        .dwtag  DW_TAG_formal_parameter
     299                      .dwattr $C$DW$34, DW_AT_type(*$C$DW$T$265)
     300                      .dwendtag $C$DW$33
     301              
     302              
     303              $C$DW$35        .dwtag  DW_TAG_subprogram, DW_AT_name("HAL_setParams")
     304                      .dwattr $C$DW$35, DW_AT_TI_symbol_name("_HAL_setParams")
     305                      .dwattr $C$DW$35, DW_AT_declaration
     306                      .dwattr $C$DW$35, DW_AT_external
     307              $C$DW$36        .dwtag  DW_TAG_formal_parameter
     308                      .dwattr $C$DW$36, DW_AT_type(*$C$DW$T$265)
     309              $C$DW$37        .dwtag  DW_TAG_formal_parameter
     310                      .dwattr $C$DW$37, DW_AT_type(*$C$DW$T$291)
     311                      .dwendtag $C$DW$35
     312              
     313              
     314              $C$DW$38        .dwtag  DW_TAG_subprogram, DW_AT_name("CTRL_run")
     315                      .dwattr $C$DW$38, DW_AT_TI_symbol_name("_CTRL_run")
     316                      .dwattr $C$DW$38, DW_AT_declaration
     317                      .dwattr $C$DW$38, DW_AT_external
TMS320C2000 Assembler PC v6.4.11 Mon Oct 03 13:48:45 2016

Tools Copyright (c) 1996-2015 Texas Instruments Incorporated
C:\Users\bee25\AppData\Local\Temp\1032410                            PAGE    8

     318              $C$DW$39        .dwtag  DW_TAG_formal_parameter
     319                      .dwattr $C$DW$39, DW_AT_type(*$C$DW$T$202)
     320              $C$DW$40        .dwtag  DW_TAG_formal_parameter
     321                      .dwattr $C$DW$40, DW_AT_type(*$C$DW$T$265)
     322              $C$DW$41        .dwtag  DW_TAG_formal_parameter
     323                      .dwattr $C$DW$41, DW_AT_type(*$C$DW$T$257)
     324              $C$DW$42        .dwtag  DW_TAG_formal_parameter
     325                      .dwattr $C$DW$42, DW_AT_type(*$C$DW$T$272)
     326                      .dwendtag $C$DW$38
     327              
     328              
     329              $C$DW$43        .dwtag  DW_TAG_subprogram, DW_AT_name("CTRL_setup")
     330                      .dwattr $C$DW$43, DW_AT_TI_symbol_name("_CTRL_setup")
     331                      .dwattr $C$DW$43, DW_AT_declaration
     332                      .dwattr $C$DW$43, DW_AT_external
     333              $C$DW$44        .dwtag  DW_TAG_formal_parameter
     334                      .dwattr $C$DW$44, DW_AT_type(*$C$DW$T$202)
     335                      .dwendtag $C$DW$43
     336              
     337              
     338              $C$DW$45        .dwtag  DW_TAG_subprogram, DW_AT_name("CTRL_setSpd_ref_krpm")
     339                      .dwattr $C$DW$45, DW_AT_TI_symbol_name("_CTRL_setSpd_ref_krpm")
     340                      .dwattr $C$DW$45, DW_AT_declaration
     341                      .dwattr $C$DW$45, DW_AT_external
     342              $C$DW$46        .dwtag  DW_TAG_formal_parameter
     343                      .dwattr $C$DW$46, DW_AT_type(*$C$DW$T$202)
     344              $C$DW$47        .dwtag  DW_TAG_formal_parameter
     345                      .dwattr $C$DW$47, DW_AT_type(*$C$DW$T$300)
     346                      .dwendtag $C$DW$45
     347              
     348              
     349              $C$DW$48        .dwtag  DW_TAG_subprogram, DW_AT_name("CTRL_setParams")
     350                      .dwattr $C$DW$48, DW_AT_TI_symbol_name("_CTRL_setParams")
     351                      .dwattr $C$DW$48, DW_AT_declaration
     352                      .dwattr $C$DW$48, DW_AT_external
     353              $C$DW$49        .dwtag  DW_TAG_formal_parameter
     354                      .dwattr $C$DW$49, DW_AT_type(*$C$DW$T$202)
     355              $C$DW$50        .dwtag  DW_TAG_formal_parameter
     356                      .dwattr $C$DW$50, DW_AT_type(*$C$DW$T$208)
     357                      .dwendtag $C$DW$48
     358              
     359              
     360              $C$DW$51        .dwtag  DW_TAG_subprogram, DW_AT_name("EST_setMaxCurrentSlope_pu")
     361                      .dwattr $C$DW$51, DW_AT_TI_symbol_name("_EST_setMaxCurrentSlope_pu")
     362                      .dwattr $C$DW$51, DW_AT_declaration
     363                      .dwattr $C$DW$51, DW_AT_external
     364              $C$DW$52        .dwtag  DW_TAG_formal_parameter
     365                      .dwattr $C$DW$52, DW_AT_type(*$C$DW$T$50)
     366              $C$DW$53        .dwtag  DW_TAG_formal_parameter
     367                      .dwattr $C$DW$53, DW_AT_type(*$C$DW$T$300)
     368                      .dwendtag $C$DW$51
     369              
     370              
     371              $C$DW$54        .dwtag  DW_TAG_subprogram, DW_AT_name("EST_setFlag_enableRsRecalc")
     372                      .dwattr $C$DW$54, DW_AT_TI_symbol_name("_EST_setFlag_enableRsRecalc")
TMS320C2000 Assembler PC v6.4.11 Mon Oct 03 13:48:45 2016

Tools Copyright (c) 1996-2015 Texas Instruments Incorporated
C:\Users\bee25\AppData\Local\Temp\1032410                            PAGE    9

     373                      .dwattr $C$DW$54, DW_AT_declaration
     374                      .dwattr $C$DW$54, DW_AT_external
     375              $C$DW$55        .dwtag  DW_TAG_formal_parameter
     376                      .dwattr $C$DW$55, DW_AT_type(*$C$DW$T$50)
     377              $C$DW$56        .dwtag  DW_TAG_formal_parameter
     378                      .dwattr $C$DW$56, DW_AT_type(*$C$DW$T$297)
     379                      .dwendtag $C$DW$54
     380              
     381              
     382              $C$DW$57        .dwtag  DW_TAG_subprogram, DW_AT_name("EST_setFlag_enableForceAngle")
     383                      .dwattr $C$DW$57, DW_AT_TI_symbol_name("_EST_setFlag_enableForceAngle")
     384                      .dwattr $C$DW$57, DW_AT_declaration
     385                      .dwattr $C$DW$57, DW_AT_external
     386              $C$DW$58        .dwtag  DW_TAG_formal_parameter
     387                      .dwattr $C$DW$58, DW_AT_type(*$C$DW$T$50)
     388              $C$DW$59        .dwtag  DW_TAG_formal_parameter
     389                      .dwattr $C$DW$59, DW_AT_type(*$C$DW$T$297)
     390                      .dwendtag $C$DW$57
     391              
     392              
     393              $C$DW$60        .dwtag  DW_TAG_subprogram, DW_AT_name("FEM_setParams")
     394                      .dwattr $C$DW$60, DW_AT_TI_symbol_name("_FEM_setParams")
     395                      .dwattr $C$DW$60, DW_AT_declaration
     396                      .dwattr $C$DW$60, DW_AT_external
     397              $C$DW$61        .dwtag  DW_TAG_formal_parameter
     398                      .dwattr $C$DW$61, DW_AT_type(*$C$DW$T$252)
     399              $C$DW$62        .dwtag  DW_TAG_formal_parameter
     400                      .dwattr $C$DW$62, DW_AT_type(*$C$DW$T$306)
     401              $C$DW$63        .dwtag  DW_TAG_formal_parameter
     402                      .dwattr $C$DW$63, DW_AT_type(*$C$DW$T$303)
     403              $C$DW$64        .dwtag  DW_TAG_formal_parameter
     404                      .dwattr $C$DW$64, DW_AT_type(*$C$DW$T$306)
     405              $C$DW$65        .dwtag  DW_TAG_formal_parameter
     406                      .dwattr $C$DW$65, DW_AT_type(*$C$DW$T$306)
     407                      .dwendtag $C$DW$60
     408              
     409              
     410              $C$DW$66        .dwtag  DW_TAG_subprogram, DW_AT_name("memCopy")
     411                      .dwattr $C$DW$66, DW_AT_TI_symbol_name("_memCopy")
     412                      .dwattr $C$DW$66, DW_AT_declaration
     413                      .dwattr $C$DW$66, DW_AT_external
     414              $C$DW$67        .dwtag  DW_TAG_formal_parameter
     415                      .dwattr $C$DW$67, DW_AT_type(*$C$DW$T$294)
     416              $C$DW$68        .dwtag  DW_TAG_formal_parameter
     417                      .dwattr $C$DW$68, DW_AT_type(*$C$DW$T$294)
     418              $C$DW$69        .dwtag  DW_TAG_formal_parameter
     419                      .dwattr $C$DW$69, DW_AT_type(*$C$DW$T$294)
     420                      .dwendtag $C$DW$66
     421              
     422              
     423              $C$DW$70        .dwtag  DW_TAG_subprogram, DW_AT_name("EST_getState")
     424                      .dwattr $C$DW$70, DW_AT_TI_symbol_name("_EST_getState")
     425                      .dwattr $C$DW$70, DW_AT_type(*$C$DW$T$166)
     426                      .dwattr $C$DW$70, DW_AT_declaration
     427                      .dwattr $C$DW$70, DW_AT_external
TMS320C2000 Assembler PC v6.4.11 Mon Oct 03 13:48:45 2016

Tools Copyright (c) 1996-2015 Texas Instruments Incorporated
C:\Users\bee25\AppData\Local\Temp\1032410                            PAGE   10

     428              $C$DW$71        .dwtag  DW_TAG_formal_parameter
     429                      .dwattr $C$DW$71, DW_AT_type(*$C$DW$T$50)
     430                      .dwendtag $C$DW$70
     431              
     432              
     433              $C$DW$72        .dwtag  DW_TAG_subprogram, DW_AT_name("EST_isMotorIdentified")
     434                      .dwattr $C$DW$72, DW_AT_TI_symbol_name("_EST_isMotorIdentified")
     435                      .dwattr $C$DW$72, DW_AT_type(*$C$DW$T$39)
     436                      .dwattr $C$DW$72, DW_AT_declaration
     437                      .dwattr $C$DW$72, DW_AT_external
     438              $C$DW$73        .dwtag  DW_TAG_formal_parameter
     439                      .dwattr $C$DW$73, DW_AT_type(*$C$DW$T$50)
     440                      .dwendtag $C$DW$72
     441              
     442              
     443              $C$DW$74        .dwtag  DW_TAG_subprogram, DW_AT_name("CTRL_updateState")
     444                      .dwattr $C$DW$74, DW_AT_TI_symbol_name("_CTRL_updateState")
     445                      .dwattr $C$DW$74, DW_AT_type(*$C$DW$T$39)
     446                      .dwattr $C$DW$74, DW_AT_declaration
     447                      .dwattr $C$DW$74, DW_AT_external
     448              $C$DW$75        .dwtag  DW_TAG_formal_parameter
     449                      .dwattr $C$DW$75, DW_AT_type(*$C$DW$T$202)
     450                      .dwendtag $C$DW$74
     451              
     452                      .global _gLEDcnt
     453 00000000       _gLEDcnt:       .usect  ".ebss",1,1,0
     454              $C$DW$76        .dwtag  DW_TAG_variable, DW_AT_name("gLEDcnt")
     455                      .dwattr $C$DW$76, DW_AT_TI_symbol_name("_gLEDcnt")
     456                      .dwattr $C$DW$76, DW_AT_location[DW_OP_addr _gLEDcnt]
     457                      .dwattr $C$DW$76, DW_AT_type(*$C$DW$T$23)
     458                      .dwattr $C$DW$76, DW_AT_external
     459                      .global _Flag_Latch_softwareUpdate
     460 00000001       _Flag_Latch_softwareUpdate:     .usect  ".ebss",1,1,0
     461              $C$DW$77        .dwtag  DW_TAG_variable, DW_AT_name("Flag_Latch_softwareUpdate")
     462                      .dwattr $C$DW$77, DW_AT_TI_symbol_name("_Flag_Latch_softwareUpdate")
     463                      .dwattr $C$DW$77, DW_AT_location[DW_OP_addr _Flag_Latch_softwareUpdate]
     464                      .dwattr $C$DW$77, DW_AT_type(*$C$DW$T$39)
     465                      .dwattr $C$DW$77, DW_AT_external
     466                      .global _gCounter_updateGlobals
     467 00000002       _gCounter_updateGlobals:        .usect  ".ebss",1,1,0
     468              $C$DW$78        .dwtag  DW_TAG_variable, DW_AT_name("gCounter_updateGlobals")
     469                      .dwattr $C$DW$78, DW_AT_TI_symbol_name("_gCounter_updateGlobals")
     470                      .dwattr $C$DW$78, DW_AT_location[DW_OP_addr _gCounter_updateGlobals]
     471                      .dwattr $C$DW$78, DW_AT_type(*$C$DW$T$69)
     472                      .dwattr $C$DW$78, DW_AT_external
     473                      .global _data
     474 00000003       _data:  .usect  ".ebss",1,1,0
     475              $C$DW$79        .dwtag  DW_TAG_variable, DW_AT_name("data")
     476                      .dwattr $C$DW$79, DW_AT_TI_symbol_name("_data")
     477                      .dwattr $C$DW$79, DW_AT_location[DW_OP_addr _data]
     478                      .dwattr $C$DW$79, DW_AT_type(*$C$DW$T$10)
     479                      .dwattr $C$DW$79, DW_AT_external
     480              
     481              $C$DW$80        .dwtag  DW_TAG_subprogram, DW_AT_name("HAL_setSpeed")
     482                      .dwattr $C$DW$80, DW_AT_TI_symbol_name("_HAL_setSpeed")
TMS320C2000 Assembler PC v6.4.11 Mon Oct 03 13:48:45 2016

Tools Copyright (c) 1996-2015 Texas Instruments Incorporated
C:\Users\bee25\AppData\Local\Temp\1032410                            PAGE   11

     483                      .dwattr $C$DW$80, DW_AT_type(*$C$DW$T$10)
     484                      .dwattr $C$DW$80, DW_AT_declaration
     485                      .dwattr $C$DW$80, DW_AT_external
     486              
     487              $C$DW$81        .dwtag  DW_TAG_subprogram, DW_AT_name("USER_getErrorCode")
     488                      .dwattr $C$DW$81, DW_AT_TI_symbol_name("_USER_getErrorCode")
     489                      .dwattr $C$DW$81, DW_AT_type(*$C$DW$T$168)
     490                      .dwattr $C$DW$81, DW_AT_declaration
     491                      .dwattr $C$DW$81, DW_AT_external
     492              $C$DW$82        .dwtag  DW_TAG_formal_parameter
     493                      .dwattr $C$DW$82, DW_AT_type(*$C$DW$T$208)
     494                      .dwendtag $C$DW$81
     495              
     496              
     497              $C$DW$83        .dwtag  DW_TAG_subprogram, DW_AT_name("HAL_i2ctest")
     498                      .dwattr $C$DW$83, DW_AT_TI_symbol_name("_HAL_i2ctest")
     499                      .dwattr $C$DW$83, DW_AT_type(*$C$DW$T$10)
     500                      .dwattr $C$DW$83, DW_AT_declaration
     501                      .dwattr $C$DW$83, DW_AT_external
     502              
     503              $C$DW$84        .dwtag  DW_TAG_subprogram, DW_AT_name("HAL_setupI2C")
     504                      .dwattr $C$DW$84, DW_AT_TI_symbol_name("_HAL_setupI2C")
     505                      .dwattr $C$DW$84, DW_AT_type(*$C$DW$T$10)
     506                      .dwattr $C$DW$84, DW_AT_declaration
     507                      .dwattr $C$DW$84, DW_AT_external
     508              
     509              $C$DW$85        .dwtag  DW_TAG_subprogram, DW_AT_name("HAL_calcSpeedkph")
     510                      .dwattr $C$DW$85, DW_AT_TI_symbol_name("_HAL_calcSpeedkph")
     511                      .dwattr $C$DW$85, DW_AT_type(*$C$DW$T$10)
     512                      .dwattr $C$DW$85, DW_AT_declaration
     513                      .dwattr $C$DW$85, DW_AT_external
     514                      .global _speed
     515 00000004       _speed: .usect  ".ebss",2,1,1
     516              $C$DW$86        .dwtag  DW_TAG_variable, DW_AT_name("speed")
     517                      .dwattr $C$DW$86, DW_AT_TI_symbol_name("_speed")
     518                      .dwattr $C$DW$86, DW_AT_location[DW_OP_addr _speed]
     519                      .dwattr $C$DW$86, DW_AT_type(*$C$DW$T$12)
     520                      .dwattr $C$DW$86, DW_AT_external
     521              $C$DW$87        .dwtag  DW_TAG_variable, DW_AT_name("switch_end")
     522                      .dwattr $C$DW$87, DW_AT_TI_symbol_name("_switch_end")
     523                      .dwattr $C$DW$87, DW_AT_type(*$C$DW$T$294)
     524                      .dwattr $C$DW$87, DW_AT_declaration
     525                      .dwattr $C$DW$87, DW_AT_external
     526              $C$DW$88        .dwtag  DW_TAG_variable, DW_AT_name("switch_ram_load")
     527                      .dwattr $C$DW$88, DW_AT_TI_symbol_name("_switch_ram_load")
     528                      .dwattr $C$DW$88, DW_AT_type(*$C$DW$T$294)
     529                      .dwattr $C$DW$88, DW_AT_declaration
     530                      .dwattr $C$DW$88, DW_AT_external
     531              $C$DW$89        .dwtag  DW_TAG_variable, DW_AT_name("switch_start")
     532                      .dwattr $C$DW$89, DW_AT_TI_symbol_name("_switch_start")
     533                      .dwattr $C$DW$89, DW_AT_type(*$C$DW$T$294)
     534                      .dwattr $C$DW$89, DW_AT_declaration
     535                      .dwattr $C$DW$89, DW_AT_external
     536              $C$DW$90        .dwtag  DW_TAG_variable, DW_AT_name("econst_ram_load")
     537                      .dwattr $C$DW$90, DW_AT_TI_symbol_name("_econst_ram_load")
TMS320C2000 Assembler PC v6.4.11 Mon Oct 03 13:48:45 2016

Tools Copyright (c) 1996-2015 Texas Instruments Incorporated
C:\Users\bee25\AppData\Local\Temp\1032410                            PAGE   12

     538                      .dwattr $C$DW$90, DW_AT_type(*$C$DW$T$294)
     539                      .dwattr $C$DW$90, DW_AT_declaration
     540                      .dwattr $C$DW$90, DW_AT_external
     541                      .global _gMaxDeltaCntObserved
     542 00000006       _gMaxDeltaCntObserved:  .usect  ".ebss",2,1,1
     543              $C$DW$91        .dwtag  DW_TAG_variable, DW_AT_name("gMaxDeltaCntObserved")
     544                      .dwattr $C$DW$91, DW_AT_TI_symbol_name("_gMaxDeltaCntObserved")
     545                      .dwattr $C$DW$91, DW_AT_location[DW_OP_addr _gMaxDeltaCntObserved]
     546                      .dwattr $C$DW$91, DW_AT_type(*$C$DW$T$38)
     547                      .dwattr $C$DW$91, DW_AT_external
     548                      .global _cpu_usageHandle
     549 00000008       _cpu_usageHandle:       .usect  ".ebss",2,1,1
     550              $C$DW$92        .dwtag  DW_TAG_variable, DW_AT_name("cpu_usageHandle")
     551                      .dwattr $C$DW$92, DW_AT_TI_symbol_name("_cpu_usageHandle")
     552                      .dwattr $C$DW$92, DW_AT_location[DW_OP_addr _cpu_usageHandle]
     553                      .dwattr $C$DW$92, DW_AT_type(*$C$DW$T$230)
     554                      .dwattr $C$DW$92, DW_AT_external
     555                      .global _gTorque_Ls_Id_Iq_pu_to_Nm_sf
     556 0000000a       _gTorque_Ls_Id_Iq_pu_to_Nm_sf:  .usect  ".ebss",2,1,1
     557              $C$DW$93        .dwtag  DW_TAG_variable, DW_AT_name("gTorque_Ls_Id_Iq_pu_to_Nm_sf")
     558                      .dwattr $C$DW$93, DW_AT_TI_symbol_name("_gTorque_Ls_Id_Iq_pu_to_Nm_sf")
     559                      .dwattr $C$DW$93, DW_AT_location[DW_OP_addr _gTorque_Ls_Id_Iq_pu_to_Nm_sf]
     560                      .dwattr $C$DW$93, DW_AT_type(*$C$DW$T$32)
     561                      .dwattr $C$DW$93, DW_AT_external
     562 0000000c       _current$1:     .usect  ".ebss",2,1,1
     563                      .global _gFlux_pu_to_Wb_sf
     564 0000000e       _gFlux_pu_to_Wb_sf:     .usect  ".ebss",2,1,1
     565              $C$DW$94        .dwtag  DW_TAG_variable, DW_AT_name("gFlux_pu_to_Wb_sf")
     566                      .dwattr $C$DW$94, DW_AT_TI_symbol_name("_gFlux_pu_to_Wb_sf")
     567                      .dwattr $C$DW$94, DW_AT_location[DW_OP_addr _gFlux_pu_to_Wb_sf]
     568                      .dwattr $C$DW$94, DW_AT_type(*$C$DW$T$32)
     569                      .dwattr $C$DW$94, DW_AT_external
     570                      .global _gCpuUsagePercentageMin
     571 00000010       _gCpuUsagePercentageMin:        .usect  ".ebss",2,1,1
     572              $C$DW$95        .dwtag  DW_TAG_variable, DW_AT_name("gCpuUsagePercentageMin")
     573                      .dwattr $C$DW$95, DW_AT_TI_symbol_name("_gCpuUsagePercentageMin")
     574                      .dwattr $C$DW$95, DW_AT_location[DW_OP_addr _gCpuUsagePercentageMin]
     575                      .dwattr $C$DW$95, DW_AT_type(*$C$DW$T$70)
     576                      .dwattr $C$DW$95, DW_AT_external
     577                      .global _gTorque_Flux_Iq_pu_to_Nm_sf
     578 00000012       _gTorque_Flux_Iq_pu_to_Nm_sf:   .usect  ".ebss",2,1,1
     579              $C$DW$96        .dwtag  DW_TAG_variable, DW_AT_name("gTorque_Flux_Iq_pu_to_Nm_sf")
     580                      .dwattr $C$DW$96, DW_AT_TI_symbol_name("_gTorque_Flux_Iq_pu_to_Nm_sf")
     581                      .dwattr $C$DW$96, DW_AT_location[DW_OP_addr _gTorque_Flux_Iq_pu_to_Nm_sf]
     582                      .dwattr $C$DW$96, DW_AT_type(*$C$DW$T$32)
     583                      .dwattr $C$DW$96, DW_AT_external
     584                      .global _gMaxCurrentSlope
     585 00000014       _gMaxCurrentSlope:      .usect  ".ebss",2,1,1
     586              $C$DW$97        .dwtag  DW_TAG_variable, DW_AT_name("gMaxCurrentSlope")
     587                      .dwattr $C$DW$97, DW_AT_TI_symbol_name("_gMaxCurrentSlope")
     588                      .dwattr $C$DW$97, DW_AT_location[DW_OP_addr _gMaxCurrentSlope]
     589                      .dwattr $C$DW$97, DW_AT_type(*$C$DW$T$32)
     590                      .dwattr $C$DW$97, DW_AT_external
     591              $C$DW$98        .dwtag  DW_TAG_variable, DW_AT_name("RamfuncsRunStart")
     592                      .dwattr $C$DW$98, DW_AT_TI_symbol_name("_RamfuncsRunStart")
TMS320C2000 Assembler PC v6.4.11 Mon Oct 03 13:48:45 2016

Tools Copyright (c) 1996-2015 Texas Instruments Incorporated
C:\Users\bee25\AppData\Local\Temp\1032410                            PAGE   13

     593                      .dwattr $C$DW$98, DW_AT_type(*$C$DW$T$294)
     594                      .dwattr $C$DW$98, DW_AT_declaration
     595                      .dwattr $C$DW$98, DW_AT_external
     596                      .global _gCpuUsagePercentageMax
     597 00000016       _gCpuUsagePercentageMax:        .usect  ".ebss",2,1,1
     598              $C$DW$99        .dwtag  DW_TAG_variable, DW_AT_name("gCpuUsagePercentageMax")
     599                      .dwattr $C$DW$99, DW_AT_TI_symbol_name("_gCpuUsagePercentageMax")
     600                      .dwattr $C$DW$99, DW_AT_location[DW_OP_addr _gCpuUsagePercentageMax]
     601                      .dwattr $C$DW$99, DW_AT_type(*$C$DW$T$70)
     602                      .dwattr $C$DW$99, DW_AT_external
     603              $C$DW$100       .dwtag  DW_TAG_variable, DW_AT_name("RamfuncsLoadStart")
     604                      .dwattr $C$DW$100, DW_AT_TI_symbol_name("_RamfuncsLoadStart")
     605                      .dwattr $C$DW$100, DW_AT_type(*$C$DW$T$294)
     606                      .dwattr $C$DW$100, DW_AT_declaration
     607                      .dwattr $C$DW$100, DW_AT_external
     608                      .global _gNumFreqErrors
     609 00000018       _gNumFreqErrors:        .usect  ".ebss",2,1,1
     610              $C$DW$101       .dwtag  DW_TAG_variable, DW_AT_name("gNumFreqErrors")
     611                      .dwattr $C$DW$101, DW_AT_TI_symbol_name("_gNumFreqErrors")
     612                      .dwattr $C$DW$101, DW_AT_location[DW_OP_addr _gNumFreqErrors]
     613                      .dwattr $C$DW$101, DW_AT_type(*$C$DW$T$38)
     614                      .dwattr $C$DW$101, DW_AT_external
     615                      .global _femHandle
     616 0000001a       _femHandle:     .usect  ".ebss",2,1,1
     617              $C$DW$102       .dwtag  DW_TAG_variable, DW_AT_name("femHandle")
     618                      .dwattr $C$DW$102, DW_AT_TI_symbol_name("_femHandle")
     619                      .dwattr $C$DW$102, DW_AT_location[DW_OP_addr _femHandle]
     620                      .dwattr $C$DW$102, DW_AT_type(*$C$DW$T$252)
     621                      .dwattr $C$DW$102, DW_AT_external
     622              $C$DW$103       .dwtag  DW_TAG_variable, DW_AT_name("econst_start")
     623                      .dwattr $C$DW$103, DW_AT_TI_symbol_name("_econst_start")
     624                      .dwattr $C$DW$103, DW_AT_type(*$C$DW$T$294)
     625                      .dwattr $C$DW$103, DW_AT_declaration
     626                      .dwattr $C$DW$103, DW_AT_external
     627                      .global _gCpuUsagePercentageAvg
     628 0000001c       _gCpuUsagePercentageAvg:        .usect  ".ebss",2,1,1
     629              $C$DW$104       .dwtag  DW_TAG_variable, DW_AT_name("gCpuUsagePercentageAvg")
     630                      .dwattr $C$DW$104, DW_AT_TI_symbol_name("_gCpuUsagePercentageAvg")
     631                      .dwattr $C$DW$104, DW_AT_location[DW_OP_addr _gCpuUsagePercentageAvg]
     632                      .dwattr $C$DW$104, DW_AT_type(*$C$DW$T$70)
     633                      .dwattr $C$DW$104, DW_AT_external
     634                      .global _gFlux_pu_to_VpHz_sf
     635 0000001e       _gFlux_pu_to_VpHz_sf:   .usect  ".ebss",2,1,1
     636              $C$DW$105       .dwtag  DW_TAG_variable, DW_AT_name("gFlux_pu_to_VpHz_sf")
     637                      .dwattr $C$DW$105, DW_AT_TI_symbol_name("_gFlux_pu_to_VpHz_sf")
     638                      .dwattr $C$DW$105, DW_AT_location[DW_OP_addr _gFlux_pu_to_VpHz_sf]
     639                      .dwattr $C$DW$105, DW_AT_type(*$C$DW$T$32)
     640                      .dwattr $C$DW$105, DW_AT_external
     641                      .global _halHandle
     642 00000000       _halHandle:     .usect  "rom_accessed_data",2,1,1
     643              $C$DW$106       .dwtag  DW_TAG_variable, DW_AT_name("halHandle")
     644                      .dwattr $C$DW$106, DW_AT_TI_symbol_name("_halHandle")
     645                      .dwattr $C$DW$106, DW_AT_location[DW_OP_addr _halHandle]
     646                      .dwattr $C$DW$106, DW_AT_type(*$C$DW$T$265)
     647                      .dwattr $C$DW$106, DW_AT_external
TMS320C2000 Assembler PC v6.4.11 Mon Oct 03 13:48:45 2016

Tools Copyright (c) 1996-2015 Texas Instruments Incorporated
C:\Users\bee25\AppData\Local\Temp\1032410                            PAGE   14

     648              $C$DW$107       .dwtag  DW_TAG_variable, DW_AT_name("RamfuncsLoadEnd")
     649                      .dwattr $C$DW$107, DW_AT_TI_symbol_name("_RamfuncsLoadEnd")
     650                      .dwattr $C$DW$107, DW_AT_type(*$C$DW$T$294)
     651                      .dwattr $C$DW$107, DW_AT_declaration
     652                      .dwattr $C$DW$107, DW_AT_external
     653              $C$DW$108       .dwtag  DW_TAG_variable, DW_AT_name("econst_end")
     654                      .dwattr $C$DW$108, DW_AT_TI_symbol_name("_econst_end")
     655                      .dwattr $C$DW$108, DW_AT_type(*$C$DW$T$294)
     656                      .dwattr $C$DW$108, DW_AT_declaration
     657                      .dwattr $C$DW$108, DW_AT_external
     658              
     659              $C$DW$109       .dwtag  DW_TAG_subprogram, DW_AT_name("FEM_init")
     660                      .dwattr $C$DW$109, DW_AT_TI_symbol_name("_FEM_init")
     661                      .dwattr $C$DW$109, DW_AT_type(*$C$DW$T$252)
     662                      .dwattr $C$DW$109, DW_AT_declaration
     663                      .dwattr $C$DW$109, DW_AT_external
     664              $C$DW$110       .dwtag  DW_TAG_formal_parameter
     665                      .dwattr $C$DW$110, DW_AT_type(*$C$DW$T$3)
     666              $C$DW$111       .dwtag  DW_TAG_formal_parameter
     667                      .dwattr $C$DW$111, DW_AT_type(*$C$DW$T$232)
     668                      .dwendtag $C$DW$109
     669              
     670              
     671              $C$DW$112       .dwtag  DW_TAG_subprogram, DW_AT_name("EST_getIdRated")
     672                      .dwattr $C$DW$112, DW_AT_TI_symbol_name("_EST_getIdRated")
     673                      .dwattr $C$DW$112, DW_AT_type(*$C$DW$T$70)
     674                      .dwattr $C$DW$112, DW_AT_declaration
     675                      .dwattr $C$DW$112, DW_AT_external
     676              $C$DW$113       .dwtag  DW_TAG_formal_parameter
     677                      .dwattr $C$DW$113, DW_AT_type(*$C$DW$T$50)
     678                      .dwendtag $C$DW$112
     679              
     680              
     681              $C$DW$114       .dwtag  DW_TAG_subprogram, DW_AT_name("EST_getLs_d_H")
     682                      .dwattr $C$DW$114, DW_AT_TI_symbol_name("_EST_getLs_d_H")
     683                      .dwattr $C$DW$114, DW_AT_type(*$C$DW$T$70)
     684                      .dwattr $C$DW$114, DW_AT_declaration
     685                      .dwattr $C$DW$114, DW_AT_external
     686              $C$DW$115       .dwtag  DW_TAG_formal_parameter
     687                      .dwattr $C$DW$115, DW_AT_type(*$C$DW$T$50)
     688                      .dwendtag $C$DW$114
     689              
     690              
     691              $C$DW$116       .dwtag  DW_TAG_subprogram, DW_AT_name("EST_getFlux_VpHz")
     692                      .dwattr $C$DW$116, DW_AT_TI_symbol_name("_EST_getFlux_VpHz")
     693                      .dwattr $C$DW$116, DW_AT_type(*$C$DW$T$70)
     694                      .dwattr $C$DW$116, DW_AT_declaration
     695                      .dwattr $C$DW$116, DW_AT_external
     696              $C$DW$117       .dwtag  DW_TAG_formal_parameter
     697                      .dwattr $C$DW$117, DW_AT_type(*$C$DW$T$50)
     698                      .dwendtag $C$DW$116
     699              
     700              
     701              $C$DW$118       .dwtag  DW_TAG_subprogram, DW_AT_name("__IQsat")
     702                      .dwattr $C$DW$118, DW_AT_TI_symbol_name("___IQsat")
TMS320C2000 Assembler PC v6.4.11 Mon Oct 03 13:48:45 2016

Tools Copyright (c) 1996-2015 Texas Instruments Incorporated
C:\Users\bee25\AppData\Local\Temp\1032410                            PAGE   15

     703                      .dwattr $C$DW$118, DW_AT_type(*$C$DW$T$12)
     704                      .dwattr $C$DW$118, DW_AT_declaration
     705                      .dwattr $C$DW$118, DW_AT_external
     706              $C$DW$119       .dwtag  DW_TAG_formal_parameter
     707                      .dwattr $C$DW$119, DW_AT_type(*$C$DW$T$12)
     708              $C$DW$120       .dwtag  DW_TAG_formal_parameter
     709                      .dwattr $C$DW$120, DW_AT_type(*$C$DW$T$12)
     710              $C$DW$121       .dwtag  DW_TAG_formal_parameter
     711                      .dwattr $C$DW$121, DW_AT_type(*$C$DW$T$12)
     712                      .dwendtag $C$DW$118
     713              
     714              
     715              $C$DW$122       .dwtag  DW_TAG_subprogram, DW_AT_name("EST_get_pu_to_krpm_sf")
     716                      .dwattr $C$DW$122, DW_AT_TI_symbol_name("_EST_get_pu_to_krpm_sf")
     717                      .dwattr $C$DW$122, DW_AT_type(*$C$DW$T$32)
     718                      .dwattr $C$DW$122, DW_AT_declaration
     719                      .dwattr $C$DW$122, DW_AT_external
     720              $C$DW$123       .dwtag  DW_TAG_formal_parameter
     721                      .dwattr $C$DW$123, DW_AT_type(*$C$DW$T$50)
     722                      .dwendtag $C$DW$122
     723              
     724              
     725              $C$DW$124       .dwtag  DW_TAG_subprogram, DW_AT_name("__IQmpy")
     726                      .dwattr $C$DW$124, DW_AT_TI_symbol_name("___IQmpy")
     727                      .dwattr $C$DW$124, DW_AT_type(*$C$DW$T$12)
     728                      .dwattr $C$DW$124, DW_AT_declaration
     729                      .dwattr $C$DW$124, DW_AT_external
     730              $C$DW$125       .dwtag  DW_TAG_formal_parameter
     731                      .dwattr $C$DW$125, DW_AT_type(*$C$DW$T$12)
     732              $C$DW$126       .dwtag  DW_TAG_formal_parameter
     733                      .dwattr $C$DW$126, DW_AT_type(*$C$DW$T$12)
     734              $C$DW$127       .dwtag  DW_TAG_formal_parameter
     735                      .dwattr $C$DW$127, DW_AT_type(*$C$DW$T$10)
     736                      .dwendtag $C$DW$124
     737              
     738              
     739              $C$DW$128       .dwtag  DW_TAG_subprogram, DW_AT_name("EST_getSpeed_krpm")
     740                      .dwattr $C$DW$128, DW_AT_TI_symbol_name("_EST_getSpeed_krpm")
     741                      .dwattr $C$DW$128, DW_AT_type(*$C$DW$T$32)
     742                      .dwattr $C$DW$128, DW_AT_declaration
     743                      .dwattr $C$DW$128, DW_AT_external
     744              $C$DW$129       .dwtag  DW_TAG_formal_parameter
     745                      .dwattr $C$DW$129, DW_AT_type(*$C$DW$T$50)
     746                      .dwendtag $C$DW$128
     747              
     748              
     749              $C$DW$130       .dwtag  DW_TAG_subprogram, DW_AT_name("EST_getRs_Ohm")
     750                      .dwattr $C$DW$130, DW_AT_TI_symbol_name("_EST_getRs_Ohm")
     751                      .dwattr $C$DW$130, DW_AT_type(*$C$DW$T$70)
     752                      .dwattr $C$DW$130, DW_AT_declaration
     753                      .dwattr $C$DW$130, DW_AT_external
     754              $C$DW$131       .dwtag  DW_TAG_formal_parameter
     755                      .dwattr $C$DW$131, DW_AT_type(*$C$DW$T$50)
     756                      .dwendtag $C$DW$130
     757              
TMS320C2000 Assembler PC v6.4.11 Mon Oct 03 13:48:45 2016

Tools Copyright (c) 1996-2015 Texas Instruments Incorporated
C:\Users\bee25\AppData\Local\Temp\1032410                            PAGE   16

     758              
     759              $C$DW$132       .dwtag  DW_TAG_subprogram, DW_AT_name("EST_getMaxCurrentSlope_pu")
     760                      .dwattr $C$DW$132, DW_AT_TI_symbol_name("_EST_getMaxCurrentSlope_pu")
     761                      .dwattr $C$DW$132, DW_AT_type(*$C$DW$T$32)
     762                      .dwattr $C$DW$132, DW_AT_declaration
     763                      .dwattr $C$DW$132, DW_AT_external
     764              $C$DW$133       .dwtag  DW_TAG_formal_parameter
     765                      .dwattr $C$DW$133, DW_AT_type(*$C$DW$T$50)
     766                      .dwendtag $C$DW$132
     767              
     768              
     769              $C$DW$134       .dwtag  DW_TAG_subprogram, DW_AT_name("EST_getRr_Ohm")
     770                      .dwattr $C$DW$134, DW_AT_TI_symbol_name("_EST_getRr_Ohm")
     771                      .dwattr $C$DW$134, DW_AT_type(*$C$DW$T$70)
     772                      .dwattr $C$DW$134, DW_AT_declaration
     773                      .dwattr $C$DW$134, DW_AT_external
     774              $C$DW$135       .dwtag  DW_TAG_formal_parameter
     775                      .dwattr $C$DW$135, DW_AT_type(*$C$DW$T$50)
     776                      .dwendtag $C$DW$134
     777              
     778              
     779              $C$DW$136       .dwtag  DW_TAG_subprogram, DW_AT_name("EST_getLs_q_H")
     780                      .dwattr $C$DW$136, DW_AT_TI_symbol_name("_EST_getLs_q_H")
     781                      .dwattr $C$DW$136, DW_AT_type(*$C$DW$T$70)
     782                      .dwattr $C$DW$136, DW_AT_declaration
     783                      .dwattr $C$DW$136, DW_AT_external
     784              $C$DW$137       .dwtag  DW_TAG_formal_parameter
     785                      .dwattr $C$DW$137, DW_AT_type(*$C$DW$T$50)
     786                      .dwendtag $C$DW$136
     787              
     788              
     789              $C$DW$138       .dwtag  DW_TAG_subprogram, DW_AT_name("USER_computeTorque_Flux_Iq_pu_to_Nm_sf")
     790                      .dwattr $C$DW$138, DW_AT_TI_symbol_name("_USER_computeTorque_Flux_Iq_pu_to_Nm_sf")
     791                      .dwattr $C$DW$138, DW_AT_type(*$C$DW$T$32)
     792                      .dwattr $C$DW$138, DW_AT_declaration
     793                      .dwattr $C$DW$138, DW_AT_external
     794              
     795              $C$DW$139       .dwtag  DW_TAG_subprogram, DW_AT_name("USER_computeTorque_Ls_Id_Iq_pu_to_Nm_sf")
     796                      .dwattr $C$DW$139, DW_AT_TI_symbol_name("_USER_computeTorque_Ls_Id_Iq_pu_to_Nm_sf")
     797                      .dwattr $C$DW$139, DW_AT_type(*$C$DW$T$32)
     798                      .dwattr $C$DW$139, DW_AT_declaration
     799                      .dwattr $C$DW$139, DW_AT_external
     800              
     801              $C$DW$140       .dwtag  DW_TAG_subprogram, DW_AT_name("USER_computeFlux_pu_to_VpHz_sf")
     802                      .dwattr $C$DW$140, DW_AT_TI_symbol_name("_USER_computeFlux_pu_to_VpHz_sf")
     803                      .dwattr $C$DW$140, DW_AT_type(*$C$DW$T$32)
     804                      .dwattr $C$DW$140, DW_AT_declaration
     805                      .dwattr $C$DW$140, DW_AT_external
     806              
     807              $C$DW$141       .dwtag  DW_TAG_subprogram, DW_AT_name("HAL_init")
     808                      .dwattr $C$DW$141, DW_AT_TI_symbol_name("_HAL_init")
     809                      .dwattr $C$DW$141, DW_AT_type(*$C$DW$T$265)
     810                      .dwattr $C$DW$141, DW_AT_declaration
     811                      .dwattr $C$DW$141, DW_AT_external
     812              $C$DW$142       .dwtag  DW_TAG_formal_parameter
TMS320C2000 Assembler PC v6.4.11 Mon Oct 03 13:48:45 2016

Tools Copyright (c) 1996-2015 Texas Instruments Incorporated
C:\Users\bee25\AppData\Local\Temp\1032410                            PAGE   17

     813                      .dwattr $C$DW$142, DW_AT_type(*$C$DW$T$3)
     814              $C$DW$143       .dwtag  DW_TAG_formal_parameter
     815                      .dwattr $C$DW$143, DW_AT_type(*$C$DW$T$232)
     816                      .dwendtag $C$DW$141
     817              
     818              
     819              $C$DW$144       .dwtag  DW_TAG_subprogram, DW_AT_name("USER_computeFlux_pu_to_Wb_sf")
     820                      .dwattr $C$DW$144, DW_AT_TI_symbol_name("_USER_computeFlux_pu_to_Wb_sf")
     821                      .dwattr $C$DW$144, DW_AT_type(*$C$DW$T$32)
     822                      .dwattr $C$DW$144, DW_AT_declaration
     823                      .dwattr $C$DW$144, DW_AT_external
     824              
     825              $C$DW$145       .dwtag  DW_TAG_subprogram, DW_AT_name("CTRL_initCtrl")
     826                      .dwattr $C$DW$145, DW_AT_TI_symbol_name("_CTRL_initCtrl")
     827                      .dwattr $C$DW$145, DW_AT_type(*$C$DW$T$202)
     828                      .dwattr $C$DW$145, DW_AT_declaration
     829                      .dwattr $C$DW$145, DW_AT_external
     830              $C$DW$146       .dwtag  DW_TAG_formal_parameter
     831                      .dwattr $C$DW$146, DW_AT_type(*$C$DW$T$239)
     832              $C$DW$147       .dwtag  DW_TAG_formal_parameter
     833                      .dwattr $C$DW$147, DW_AT_type(*$C$DW$T$3)
     834              $C$DW$148       .dwtag  DW_TAG_formal_parameter
     835                      .dwattr $C$DW$148, DW_AT_type(*$C$DW$T$232)
     836                      .dwendtag $C$DW$145
     837              
     838              
     839              $C$DW$149       .dwtag  DW_TAG_subprogram, DW_AT_name("USER_computeFlux")
     840                      .dwattr $C$DW$149, DW_AT_TI_symbol_name("_USER_computeFlux")
     841                      .dwattr $C$DW$149, DW_AT_type(*$C$DW$T$32)
     842                      .dwattr $C$DW$149, DW_AT_declaration
     843                      .dwattr $C$DW$149, DW_AT_external
     844              $C$DW$150       .dwtag  DW_TAG_formal_parameter
     845                      .dwattr $C$DW$150, DW_AT_type(*$C$DW$T$202)
     846              $C$DW$151       .dwtag  DW_TAG_formal_parameter
     847                      .dwattr $C$DW$151, DW_AT_type(*$C$DW$T$300)
     848                      .dwendtag $C$DW$149
     849              
     850              
     851              $C$DW$152       .dwtag  DW_TAG_subprogram, DW_AT_name("USER_computeTorque_Nm")
     852                      .dwattr $C$DW$152, DW_AT_TI_symbol_name("_USER_computeTorque_Nm")
     853                      .dwattr $C$DW$152, DW_AT_type(*$C$DW$T$32)
     854                      .dwattr $C$DW$152, DW_AT_declaration
     855                      .dwattr $C$DW$152, DW_AT_external
     856              $C$DW$153       .dwtag  DW_TAG_formal_parameter
     857                      .dwattr $C$DW$153, DW_AT_type(*$C$DW$T$202)
     858              $C$DW$154       .dwtag  DW_TAG_formal_parameter
     859                      .dwattr $C$DW$154, DW_AT_type(*$C$DW$T$300)
     860              $C$DW$155       .dwtag  DW_TAG_formal_parameter
     861                      .dwattr $C$DW$155, DW_AT_type(*$C$DW$T$300)
     862                      .dwendtag $C$DW$152
     863              
     864                      .global _ctrlHandle
     865 00000020       _ctrlHandle:    .usect  ".ebss",2,1,1
     866              $C$DW$156       .dwtag  DW_TAG_variable, DW_AT_name("ctrlHandle")
     867                      .dwattr $C$DW$156, DW_AT_TI_symbol_name("_ctrlHandle")
TMS320C2000 Assembler PC v6.4.11 Mon Oct 03 13:48:45 2016

Tools Copyright (c) 1996-2015 Texas Instruments Incorporated
C:\Users\bee25\AppData\Local\Temp\1032410                            PAGE   18

     868                      .dwattr $C$DW$156, DW_AT_location[DW_OP_addr _ctrlHandle]
     869                      .dwattr $C$DW$156, DW_AT_type(*$C$DW$T$202)
     870                      .dwattr $C$DW$156, DW_AT_external
     871              
     872              $C$DW$157       .dwtag  DW_TAG_subprogram, DW_AT_name("CPU_USAGE_init")
     873                      .dwattr $C$DW$157, DW_AT_TI_symbol_name("_CPU_USAGE_init")
     874                      .dwattr $C$DW$157, DW_AT_type(*$C$DW$T$230)
     875                      .dwattr $C$DW$157, DW_AT_declaration
     876                      .dwattr $C$DW$157, DW_AT_external
     877              $C$DW$158       .dwtag  DW_TAG_formal_parameter
     878                      .dwattr $C$DW$158, DW_AT_type(*$C$DW$T$3)
     879              $C$DW$159       .dwtag  DW_TAG_formal_parameter
     880                      .dwattr $C$DW$159, DW_AT_type(*$C$DW$T$232)
     881                      .dwendtag $C$DW$157
     882              
     883                      .global _gPwmData
     884 00000022       _gPwmData:      .usect  ".ebss",6,1,1
     885              $C$DW$160       .dwtag  DW_TAG_variable, DW_AT_name("gPwmData")
     886                      .dwattr $C$DW$160, DW_AT_TI_symbol_name("_gPwmData")
     887                      .dwattr $C$DW$160, DW_AT_location[DW_OP_addr _gPwmData]
     888                      .dwattr $C$DW$160, DW_AT_type(*$C$DW$T$271)
     889                      .dwattr $C$DW$160, DW_AT_external
     890                      .global _gAdcData
     891 00000028       _gAdcData:      .usect  ".ebss",16,1,1
     892              $C$DW$161       .dwtag  DW_TAG_variable, DW_AT_name("gAdcData")
     893                      .dwattr $C$DW$161, DW_AT_TI_symbol_name("_gAdcData")
     894                      .dwattr $C$DW$161, DW_AT_location[DW_OP_addr _gAdcData]
     895                      .dwattr $C$DW$161, DW_AT_type(*$C$DW$T$148)
     896                      .dwattr $C$DW$161, DW_AT_external
     897                      .global _fem
     898 00000040       _fem:   .usect  ".ebss",18,1,1
     899              $C$DW$162       .dwtag  DW_TAG_variable, DW_AT_name("fem")
     900                      .dwattr $C$DW$162, DW_AT_TI_symbol_name("_fem")
     901                      .dwattr $C$DW$162, DW_AT_location[DW_OP_addr _fem]
     902                      .dwattr $C$DW$162, DW_AT_type(*$C$DW$T$250)
     903                      .dwattr $C$DW$162, DW_AT_external
     904                      .global _cpu_usage
     905 00000052       _cpu_usage:     .usect  ".ebss",22,1,1
     906              $C$DW$163       .dwtag  DW_TAG_variable, DW_AT_name("cpu_usage")
     907                      .dwattr $C$DW$163, DW_AT_TI_symbol_name("_cpu_usage")
     908                      .dwattr $C$DW$163, DW_AT_location[DW_OP_addr _cpu_usage]
     909                      .dwattr $C$DW$163, DW_AT_type(*$C$DW$T$228)
     910                      .dwattr $C$DW$163, DW_AT_external
     911                      .global _gDrvSpi8301Vars
     912 00000068       _gDrvSpi8301Vars:       .usect  ".ebss",24,1,0
     913              $C$DW$164       .dwtag  DW_TAG_variable, DW_AT_name("gDrvSpi8301Vars")
     914                      .dwattr $C$DW$164, DW_AT_TI_symbol_name("_gDrvSpi8301Vars")
     915                      .dwattr $C$DW$164, DW_AT_location[DW_OP_addr _gDrvSpi8301Vars]
     916                      .dwattr $C$DW$164, DW_AT_type(*$C$DW$T$247)
     917                      .dwattr $C$DW$164, DW_AT_external
     918                      .global _gMotorVars
     919 00000080       _gMotorVars:    .usect  ".ebss",104,1,1
     920              $C$DW$165       .dwtag  DW_TAG_variable, DW_AT_name("gMotorVars")
     921                      .dwattr $C$DW$165, DW_AT_TI_symbol_name("_gMotorVars")
     922                      .dwattr $C$DW$165, DW_AT_location[DW_OP_addr _gMotorVars]
TMS320C2000 Assembler PC v6.4.11 Mon Oct 03 13:48:45 2016

Tools Copyright (c) 1996-2015 Texas Instruments Incorporated
C:\Users\bee25\AppData\Local\Temp\1032410                            PAGE   19

     923                      .dwattr $C$DW$165, DW_AT_type(*$C$DW$T$275)
     924                      .dwattr $C$DW$165, DW_AT_external
     925                      .global _gUserParams
     926 00000040       _gUserParams:   .usect  "rom_accessed_data",172,1,1
     927              $C$DW$166       .dwtag  DW_TAG_variable, DW_AT_name("gUserParams")
     928                      .dwattr $C$DW$166, DW_AT_TI_symbol_name("_gUserParams")
     929                      .dwattr $C$DW$166, DW_AT_location[DW_OP_addr _gUserParams]
     930                      .dwattr $C$DW$166, DW_AT_type(*$C$DW$T$207)
     931                      .dwattr $C$DW$166, DW_AT_external
     932              $C$DW$167       .dwtag  DW_TAG_variable, DW_AT_name("hal")
     933                      .dwattr $C$DW$167, DW_AT_TI_symbol_name("_hal")
     934                      .dwattr $C$DW$167, DW_AT_type(*$C$DW$T$262)
     935                      .dwattr $C$DW$167, DW_AT_declaration
     936                      .dwattr $C$DW$167, DW_AT_external
     937                      .global _ctrl
     938 00000100       _ctrl:  .usect  "rom_accessed_data",264,1,1
     939              $C$DW$168       .dwtag  DW_TAG_variable, DW_AT_name("ctrl")
     940                      .dwattr $C$DW$168, DW_AT_TI_symbol_name("_ctrl")
     941                      .dwattr $C$DW$168, DW_AT_location[DW_OP_addr _ctrl]
     942                      .dwattr $C$DW$168, DW_AT_type(*$C$DW$T$236)
     943                      .dwattr $C$DW$168, DW_AT_external
     944              ;       C:\ti\ccsv6\tools\compiler\c2000_6.4.11\bin\opt2000.exe C:\\Users\\bee25\\AppData\\Local\\Temp\\10324
     945              ;       C:\ti\ccsv6\tools\compiler\c2000_6.4.11\bin\ac2000.exe -@C:\\Users\\bee25\\AppData\\Local\\Temp\\1032
     946 00000000               .sect   ".text"
     947                      .clink
     948                      .global _updateGlobalVariables_motor
     949              
     950              $C$DW$169       .dwtag  DW_TAG_subprogram, DW_AT_name("updateGlobalVariables_motor")
     951                      .dwattr $C$DW$169, DW_AT_low_pc(_updateGlobalVariables_motor)
     952                      .dwattr $C$DW$169, DW_AT_high_pc(0x00)
     953                      .dwattr $C$DW$169, DW_AT_TI_symbol_name("_updateGlobalVariables_motor")
     954                      .dwattr $C$DW$169, DW_AT_external
     955                      .dwattr $C$DW$169, DW_AT_TI_begin_file("C:/ti/motorware/motorware_1_01_00_16/sw/solutions/instaspin_f
     956                      .dwattr $C$DW$169, DW_AT_TI_begin_line(0x247)
     957                      .dwattr $C$DW$169, DW_AT_TI_begin_column(0x06)
     958                      .dwattr $C$DW$169, DW_AT_TI_max_frame_size(-8)
     959                      .dwpsn  file "C:/ti/motorware/motorware_1_01_00_16/sw/solutions/instaspin_foc/src/proj_lab03b.c",line
     960              
     961                      .dwfde $C$DW$CIE, _updateGlobalVariables_motor
     962              $C$DW$170       .dwtag  DW_TAG_formal_parameter, DW_AT_name("handle")
     963                      .dwattr $C$DW$170, DW_AT_TI_symbol_name("_handle")
     964                      .dwattr $C$DW$170, DW_AT_type(*$C$DW$T$202)
     965                      .dwattr $C$DW$170, DW_AT_location[DW_OP_reg12]
     966              
     967              ;***************************************************************
     968              ;* FNAME: _updateGlobalVariables_motor  FR SIZE:   6           *
     969              ;*                                                             *
     970              ;* FUNCTION ENVIRONMENT                                        *
     971              ;*                                                             *
     972              ;* FUNCTION PROPERTIES                                         *
     973              ;*                            2 Parameter,  0 Auto,  4 SOE     *
     974              ;***************************************************************
     975              
     976              _updateGlobalVariables_motor:
     977              ;* XT    assigned to $O$R2
TMS320C2000 Assembler PC v6.4.11 Mon Oct 03 13:48:45 2016

Tools Copyright (c) 1996-2015 Texas Instruments Incorporated
C:\Users\bee25\AppData\Local\Temp\1032410                            PAGE   20

     978              ;* AR2   assigned to _handle
     979              $C$DW$171       .dwtag  DW_TAG_variable, DW_AT_name("handle")
     980                      .dwattr $C$DW$171, DW_AT_TI_symbol_name("_handle")
     981                      .dwattr $C$DW$171, DW_AT_type(*$C$DW$T$238)
     982                      .dwattr $C$DW$171, DW_AT_location[DW_OP_reg8]
     983                      .dwcfi  cfa_offset, -2
     984                      .dwcfi  save_reg_to_mem, 26, 0
     985 00000000 B2BD          MOVL      *SP++,XAR1            ; [CPU_] 
     986                      .dwcfi  save_reg_to_mem, 7, 2
     987                      .dwcfi  cfa_offset, -4
     988 00000001 AABD          MOVL      *SP++,XAR2            ; [CPU_] 
     989                      .dwcfi  save_reg_to_mem, 9, 4
     990                      .dwcfi  cfa_offset, -6
     991 00000002 FE02          ADDB      SP,#2                 ; [CPU_U] 
     992                      .dwcfi  cfa_offset, -8
     993 00000003 86A4          MOVL      XAR2,XAR4             ; [CPU_] |584| 
     994                      .dwpsn  file "C:/ti/motorware/motorware_1_01_00_16/sw/solutions/instaspin_foc/src/proj_lab03b.c",line
     995 00000004 D018          MOVB      XAR0,#24              ; [CPU_] |588| 
     996 00000005 8A92          MOVL      XAR4,*+XAR2[AR0]      ; [CPU_] |588| 
     997              $C$DW$172       .dwtag  DW_TAG_TI_branch
     998                      .dwattr $C$DW$172, DW_AT_low_pc(0x00)
     999                      .dwattr $C$DW$172, DW_AT_name("_EST_getSpeed_krpm")
    1000                      .dwattr $C$DW$172, DW_AT_TI_call
    1001 00000006 7640!         LCR       #_EST_getSpeed_krpm   ; [CPU_] |588| 
         00000007 0000 
    1002                      ; call occurs [#_EST_getSpeed_krpm] ; [] |588| 
    1003 00000008 761F-         MOVW      DP,#_gMotorVars+30    ; [CPU_U] 
         00000009 0002 
    1004                      .dwpsn  file "C:/ti/motorware/motorware_1_01_00_16/sw/modules/traj/src/32b/traj.h",line 96,column 3,i
    1005 0000000a D06C          MOVB      XAR0,#108             ; [CPU_] |96| 
    1006                      .dwpsn  file "C:/ti/motorware/motorware_1_01_00_16/sw/solutions/instaspin_foc/src/proj_lab03b.c",line
    1007 0000000b 1E1E-         MOVL      @_gMotorVars+30,ACC   ; [CPU_] |588| 
    1008                      .dwpsn  file "C:/ti/motorware/motorware_1_01_00_16/sw/modules/traj/src/32b/traj.h",line 96,column 3,i
    1009 0000000c 8A92          MOVL      XAR4,*+XAR2[AR0]      ; [CPU_] |96| 
    1010                      .dwpsn  file "C:/ti/motorware/motorware_1_01_00_16/sw/solutions/instaspin_foc/src/proj_lab03b.c",line
    1011 0000000d D018          MOVB      XAR0,#24              ; [CPU_] |591| 
    1012                      .dwpsn  file "C:/ti/motorware/motorware_1_01_00_16/sw/modules/traj/src/32b/traj.h",line 96,column 3,i
    1013 0000000e 8BD4          MOVL      XAR1,*+XAR4[2]        ; [CPU_] |96| 
    1014                      .dwpsn  file "C:/ti/motorware/motorware_1_01_00_16/sw/solutions/instaspin_foc/src/proj_lab03b.c",line
    1015 0000000f 8A92          MOVL      XAR4,*+XAR2[AR0]      ; [CPU_] |591| 
    1016              $C$DW$173       .dwtag  DW_TAG_TI_branch
    1017                      .dwattr $C$DW$173, DW_AT_low_pc(0x00)
    1018                      .dwattr $C$DW$173, DW_AT_name("_EST_get_pu_to_krpm_sf")
    1019                      .dwattr $C$DW$173, DW_AT_TI_call
    1020 00000010 7640!         LCR       #_EST_get_pu_to_krpm_sf ; [CPU_] |591| 
         00000011 0000 
    1021                      ; call occurs [#_EST_get_pu_to_krpm_sf] ; [] |591| 
    1022 00000012 761F-         MOVW      DP,#_gMotorVars+26    ; [CPU_U] 
         00000013 0002 
    1023 00000014 B2AC          MOVL      XT,XAR1               ; [CPU_] |591| 
    1024                      .dwpsn  file "C:/ti/motorware/motorware_1_01_00_16/sw/solutions/instaspin_foc/src/proj_lab03b.c",line
    1025 00000015 8AA2          MOVL      XAR4,XAR2             ; [CPU_] |594| 
    1026                      .dwpsn  file "C:/ti/motorware/motorware_1_01_00_16/sw/solutions/instaspin_foc/src/proj_lab03b.c",line
    1027 00000016 5605          IMPYL     P,XT,ACC              ; [CPU_] |591| 
         00000017 00A9 
TMS320C2000 Assembler PC v6.4.11 Mon Oct 03 13:48:45 2016

Tools Copyright (c) 1996-2015 Texas Instruments Incorporated
C:\Users\bee25\AppData\Local\Temp\1032410                            PAGE   21

    1028 00000018 5663          QMPYL     ACC,XT,ACC            ; [CPU_] |591| 
         00000019 00A9 
    1029 0000001a 56A7          LSL64     ACC:P,#8              ; [CPU_] |591| 
    1030 0000001b 1E1A-         MOVL      @_gMotorVars+26,ACC   ; [CPU_] |591| 
    1031 0000001c 761F-         MOVW      DP,#_gTorque_Ls_Id_Iq_pu_to_Nm_sf ; [CPU_U] 
         0000001d 0000 
    1032                      .dwpsn  file "C:/ti/motorware/motorware_1_01_00_16/sw/solutions/instaspin_foc/src/proj_lab03b.c",line
    1033 0000001e 060A-         MOVL      ACC,@_gTorque_Ls_Id_Iq_pu_to_Nm_sf ; [CPU_] |594| 
    1034 0000001f 1E42          MOVL      *-SP[2],ACC           ; [CPU_] |594| 
    1035 00000020 0612-         MOVL      ACC,@_gTorque_Flux_Iq_pu_to_Nm_sf ; [CPU_] |594| 
    1036              $C$DW$174       .dwtag  DW_TAG_TI_branch
    1037                      .dwattr $C$DW$174, DW_AT_low_pc(0x00)
    1038                      .dwattr $C$DW$174, DW_AT_name("_USER_computeTorque_Nm")
    1039                      .dwattr $C$DW$174, DW_AT_TI_call
    1040 00000021 7640!         LCR       #_USER_computeTorque_Nm ; [CPU_] |594| 
         00000022 0000 
    1041                      ; call occurs [#_USER_computeTorque_Nm] ; [] |594| 
    1042 00000023 761F-         MOVW      DP,#_gMotorVars+40    ; [CPU_U] 
         00000024 0002 
    1043                      .dwpsn  file "C:/ti/motorware/motorware_1_01_00_16/sw/solutions/instaspin_foc/src/proj_lab03b.c",line
    1044 00000025 D018          MOVB      XAR0,#24              ; [CPU_] |597| 
    1045                      .dwpsn  file "C:/ti/motorware/motorware_1_01_00_16/sw/solutions/instaspin_foc/src/proj_lab03b.c",line
    1046 00000026 1E28-         MOVL      @_gMotorVars+40,ACC   ; [CPU_] |594| 
    1047                      .dwpsn  file "C:/ti/motorware/motorware_1_01_00_16/sw/solutions/instaspin_foc/src/proj_lab03b.c",line
    1048 00000027 8A92          MOVL      XAR4,*+XAR2[AR0]      ; [CPU_] |597| 
    1049              $C$DW$175       .dwtag  DW_TAG_TI_branch
    1050                      .dwattr $C$DW$175, DW_AT_low_pc(0x00)
    1051                      .dwattr $C$DW$175, DW_AT_name("_EST_getIdRated")
    1052                      .dwattr $C$DW$175, DW_AT_TI_call
    1053 00000028 7640!         LCR       #_EST_getIdRated      ; [CPU_] |597| 
         00000029 0000 
    1054                      ; call occurs [#_EST_getIdRated] ; [] |597| 
    1055 0000002a 761F-         MOVW      DP,#_gMotorVars+42    ; [CPU_U] 
         0000002b 0002 
    1056                      .dwpsn  file "C:/ti/motorware/motorware_1_01_00_16/sw/solutions/instaspin_foc/src/proj_lab03b.c",line
    1057 0000002c D018          MOVB      XAR0,#24              ; [CPU_] |600| 
    1058                      .dwpsn  file "C:/ti/motorware/motorware_1_01_00_16/sw/solutions/instaspin_foc/src/proj_lab03b.c",line
    1059 0000002d 1E2A-         MOVL      @_gMotorVars+42,ACC   ; [CPU_] |597| 
    1060                      .dwpsn  file "C:/ti/motorware/motorware_1_01_00_16/sw/solutions/instaspin_foc/src/proj_lab03b.c",line
    1061 0000002e 8A92          MOVL      XAR4,*+XAR2[AR0]      ; [CPU_] |600| 
    1062              $C$DW$176       .dwtag  DW_TAG_TI_branch
    1063                      .dwattr $C$DW$176, DW_AT_low_pc(0x00)
    1064                      .dwattr $C$DW$176, DW_AT_name("_EST_getRr_Ohm")
    1065                      .dwattr $C$DW$176, DW_AT_TI_call
    1066 0000002f 7640!         LCR       #_EST_getRr_Ohm       ; [CPU_] |600| 
         00000030 0000 
    1067                      ; call occurs [#_EST_getRr_Ohm] ; [] |600| 
    1068 00000031 761F-         MOVW      DP,#_gMotorVars+44    ; [CPU_U] 
         00000032 0002 
    1069                      .dwpsn  file "C:/ti/motorware/motorware_1_01_00_16/sw/solutions/instaspin_foc/src/proj_lab03b.c",line
    1070 00000033 D018          MOVB      XAR0,#24              ; [CPU_] |603| 
    1071                      .dwpsn  file "C:/ti/motorware/motorware_1_01_00_16/sw/solutions/instaspin_foc/src/proj_lab03b.c",line
    1072 00000034 1E2C-         MOVL      @_gMotorVars+44,ACC   ; [CPU_] |600| 
    1073                      .dwpsn  file "C:/ti/motorware/motorware_1_01_00_16/sw/solutions/instaspin_foc/src/proj_lab03b.c",line
    1074 00000035 8A92          MOVL      XAR4,*+XAR2[AR0]      ; [CPU_] |603| 
TMS320C2000 Assembler PC v6.4.11 Mon Oct 03 13:48:45 2016

Tools Copyright (c) 1996-2015 Texas Instruments Incorporated
C:\Users\bee25\AppData\Local\Temp\1032410                            PAGE   22

    1075              $C$DW$177       .dwtag  DW_TAG_TI_branch
    1076                      .dwattr $C$DW$177, DW_AT_low_pc(0x00)
    1077                      .dwattr $C$DW$177, DW_AT_name("_EST_getRs_Ohm")
    1078                      .dwattr $C$DW$177, DW_AT_TI_call
    1079 00000036 7640!         LCR       #_EST_getRs_Ohm       ; [CPU_] |603| 
         00000037 0000 
    1080                      ; call occurs [#_EST_getRs_Ohm] ; [] |603| 
    1081 00000038 761F-         MOVW      DP,#_gMotorVars+46    ; [CPU_U] 
         00000039 0002 
    1082                      .dwpsn  file "C:/ti/motorware/motorware_1_01_00_16/sw/solutions/instaspin_foc/src/proj_lab03b.c",line
    1083 0000003a D018          MOVB      XAR0,#24              ; [CPU_] |606| 
    1084                      .dwpsn  file "C:/ti/motorware/motorware_1_01_00_16/sw/solutions/instaspin_foc/src/proj_lab03b.c",line
    1085 0000003b 1E2E-         MOVL      @_gMotorVars+46,ACC   ; [CPU_] |603| 
    1086                      .dwpsn  file "C:/ti/motorware/motorware_1_01_00_16/sw/solutions/instaspin_foc/src/proj_lab03b.c",line
    1087 0000003c 8A92          MOVL      XAR4,*+XAR2[AR0]      ; [CPU_] |606| 
    1088              $C$DW$178       .dwtag  DW_TAG_TI_branch
    1089                      .dwattr $C$DW$178, DW_AT_low_pc(0x00)
    1090                      .dwattr $C$DW$178, DW_AT_name("_EST_getLs_d_H")
    1091                      .dwattr $C$DW$178, DW_AT_TI_call
    1092 0000003d 7640!         LCR       #_EST_getLs_d_H       ; [CPU_] |606| 
         0000003e 0000 
    1093                      ; call occurs [#_EST_getLs_d_H] ; [] |606| 
    1094 0000003f 761F-         MOVW      DP,#_gMotorVars+50    ; [CPU_U] 
         00000040 0002 
    1095                      .dwpsn  file "C:/ti/motorware/motorware_1_01_00_16/sw/solutions/instaspin_foc/src/proj_lab03b.c",line
    1096 00000041 D018          MOVB      XAR0,#24              ; [CPU_] |609| 
    1097                      .dwpsn  file "C:/ti/motorware/motorware_1_01_00_16/sw/solutions/instaspin_foc/src/proj_lab03b.c",line
    1098 00000042 1E32-         MOVL      @_gMotorVars+50,ACC   ; [CPU_] |606| 
    1099                      .dwpsn  file "C:/ti/motorware/motorware_1_01_00_16/sw/solutions/instaspin_foc/src/proj_lab03b.c",line
    1100 00000043 8A92          MOVL      XAR4,*+XAR2[AR0]      ; [CPU_] |609| 
    1101              $C$DW$179       .dwtag  DW_TAG_TI_branch
    1102                      .dwattr $C$DW$179, DW_AT_low_pc(0x00)
    1103                      .dwattr $C$DW$179, DW_AT_name("_EST_getLs_q_H")
    1104                      .dwattr $C$DW$179, DW_AT_TI_call
    1105 00000044 7640!         LCR       #_EST_getLs_q_H       ; [CPU_] |609| 
         00000045 0000 
    1106                      ; call occurs [#_EST_getLs_q_H] ; [] |609| 
    1107 00000046 761F-         MOVW      DP,#_gMotorVars+52    ; [CPU_U] 
         00000047 0002 
    1108                      .dwpsn  file "C:/ti/motorware/motorware_1_01_00_16/sw/solutions/instaspin_foc/src/proj_lab03b.c",line
    1109 00000048 D018          MOVB      XAR0,#24              ; [CPU_] |612| 
    1110                      .dwpsn  file "C:/ti/motorware/motorware_1_01_00_16/sw/solutions/instaspin_foc/src/proj_lab03b.c",line
    1111 00000049 1E34-         MOVL      @_gMotorVars+52,ACC   ; [CPU_] |609| 
    1112                      .dwpsn  file "C:/ti/motorware/motorware_1_01_00_16/sw/solutions/instaspin_foc/src/proj_lab03b.c",line
    1113 0000004a 8A92          MOVL      XAR4,*+XAR2[AR0]      ; [CPU_] |612| 
    1114              $C$DW$180       .dwtag  DW_TAG_TI_branch
    1115                      .dwattr $C$DW$180, DW_AT_low_pc(0x00)
    1116                      .dwattr $C$DW$180, DW_AT_name("_EST_getFlux_VpHz")
    1117                      .dwattr $C$DW$180, DW_AT_TI_call
    1118 0000004b 7640!         LCR       #_EST_getFlux_VpHz    ; [CPU_] |612| 
         0000004c 0000 
    1119                      ; call occurs [#_EST_getFlux_VpHz] ; [] |612| 
    1120 0000004d 761F-         MOVW      DP,#_gMotorVars+54    ; [CPU_U] 
         0000004e 0002 
    1121 0000004f 1E36-         MOVL      @_gMotorVars+54,ACC   ; [CPU_] |612| 
TMS320C2000 Assembler PC v6.4.11 Mon Oct 03 13:48:45 2016

Tools Copyright (c) 1996-2015 Texas Instruments Incorporated
C:\Users\bee25\AppData\Local\Temp\1032410                            PAGE   23

    1122                      .dwpsn  file "C:/ti/motorware/motorware_1_01_00_16/sw/solutions/instaspin_foc/src/proj_lab03b.c",line
    1123 00000050 8AA2          MOVL      XAR4,XAR2             ; [CPU_] |615| 
    1124 00000051 761F-         MOVW      DP,#_gFlux_pu_to_Wb_sf ; [CPU_U] 
         00000052 0000 
    1125 00000053 060E-         MOVL      ACC,@_gFlux_pu_to_Wb_sf ; [CPU_] |615| 
    1126              $C$DW$181       .dwtag  DW_TAG_TI_branch
    1127                      .dwattr $C$DW$181, DW_AT_low_pc(0x00)
    1128                      .dwattr $C$DW$181, DW_AT_name("_USER_computeFlux")
    1129                      .dwattr $C$DW$181, DW_AT_TI_call
    1130 00000054 7640!         LCR       #_USER_computeFlux    ; [CPU_] |615| 
         00000055 0000 
    1131                      ; call occurs [#_USER_computeFlux] ; [] |615| 
    1132 00000056 761F-         MOVW      DP,#_gMotorVars+38    ; [CPU_U] 
         00000057 0002 
    1133                      .dwpsn  file "C:/ti/motorware/motorware_1_01_00_16/sw/solutions/instaspin_foc/src/proj_lab03b.c",line
    1134 00000058 D018          MOVB      XAR0,#24              ; [CPU_] |621| 
    1135                      .dwpsn  file "C:/ti/motorware/motorware_1_01_00_16/sw/solutions/instaspin_foc/src/proj_lab03b.c",line
    1136 00000059 1E26-         MOVL      @_gMotorVars+38,ACC   ; [CPU_] |615| 
    1137                      .dwpsn  file "C:/ti/motorware/motorware_1_01_00_16/sw/solutions/instaspin_foc/src/proj_lab03b.c",line
    1138 0000005a 92E2          MOV       AL,*+XAR2[4]          ; [CPU_] |618| 
    1139 0000005b 960A-         MOV       @_gMotorVars+10,AL    ; [CPU_] |618| 
    1140                      .dwpsn  file "C:/ti/motorware/motorware_1_01_00_16/sw/solutions/instaspin_foc/src/proj_lab03b.c",line
    1141 0000005c 8A92          MOVL      XAR4,*+XAR2[AR0]      ; [CPU_] |621| 
    1142              $C$DW$182       .dwtag  DW_TAG_TI_branch
    1143                      .dwattr $C$DW$182, DW_AT_low_pc(0x00)
    1144                      .dwattr $C$DW$182, DW_AT_name("_EST_getState")
    1145                      .dwattr $C$DW$182, DW_AT_TI_call
    1146 0000005d 7640!         LCR       #_EST_getState        ; [CPU_] |621| 
         0000005e 0000 
    1147                      ; call occurs [#_EST_getState] ; [] |621| 
    1148 0000005f 761F-         MOVW      DP,#_gMotorVars+11    ; [CPU_U] 
         00000060 0002 
    1149 00000061 960B-         MOV       @_gMotorVars+11,AL    ; [CPU_] |621| 
    1150                      .dwpsn  file "C:/ti/motorware/motorware_1_01_00_16/sw/solutions/instaspin_foc/src/proj_lab03b.c",line
    1151 00000062 8F27          MOVL      XAR4,#2583691         ; [CPU_U] |624| 
         00000063 6C8B 
    1152 00000064 761F-         MOVW      DP,#_gAdcData+12      ; [CPU_U] 
         00000065 0000 
    1153 00000066 8734-         MOVL      XT,@_gAdcData+12      ; [CPU_] |624| 
    1154 00000067 FE82          SUBB      SP,#2                 ; [CPU_U] 
    1155                      .dwcfi  cfa_offset, -6
    1156 00000068 86BE          MOVL      XAR2,*--SP            ; [CPU_] 
    1157                      .dwcfi  cfa_offset, -4
    1158                      .dwcfi  restore_reg, 9
    1159 00000069 5605          IMPYL     P,XT,XAR4             ; [CPU_] |624| 
         0000006a 00A4 
    1160 0000006b 5663          QMPYL     ACC,XT,XAR4           ; [CPU_] |624| 
         0000006c 00A4 
    1161 0000006d 8BBE          MOVL      XAR1,*--SP            ; [CPU_] 
    1162                      .dwcfi  cfa_offset, -2
    1163                      .dwcfi  restore_reg, 7
    1164 0000006e 56A7          LSL64     ACC:P,#8              ; [CPU_] |624| 
    1165 0000006f 761F-         MOVW      DP,#_gMotorVars+84    ; [CPU_U] 
         00000070 0003 
    1166 00000071 1E14-         MOVL      @_gMotorVars+84,ACC   ; [CPU_] |624| 
TMS320C2000 Assembler PC v6.4.11 Mon Oct 03 13:48:45 2016

Tools Copyright (c) 1996-2015 Texas Instruments Incorporated
C:\Users\bee25\AppData\Local\Temp\1032410                            PAGE   24

    1167              $C$DW$183       .dwtag  DW_TAG_TI_branch
    1168                      .dwattr $C$DW$183, DW_AT_low_pc(0x00)
    1169                      .dwattr $C$DW$183, DW_AT_TI_return
    1170 00000072 0006          LRETR     ; [CPU_] 
    1171                      ; return occurs ; [] 
    1172                      .dwattr $C$DW$169, DW_AT_TI_end_file("C:/ti/motorware/motorware_1_01_00_16/sw/solutions/instaspin_foc
    1173                      .dwattr $C$DW$169, DW_AT_TI_end_line(0x273)
    1174                      .dwattr $C$DW$169, DW_AT_TI_end_column(0x01)
    1175                      .dwendentry
    1176                      .dwendtag $C$DW$169
    1177              
    1178 00000073               .sect   ".text"
    1179                      .clink
    1180                      .global _updateCPUusage
    1181              
    1182              $C$DW$184       .dwtag  DW_TAG_subprogram, DW_AT_name("updateCPUusage")
    1183                      .dwattr $C$DW$184, DW_AT_low_pc(_updateCPUusage)
    1184                      .dwattr $C$DW$184, DW_AT_high_pc(0x00)
    1185                      .dwattr $C$DW$184, DW_AT_TI_symbol_name("_updateCPUusage")
    1186                      .dwattr $C$DW$184, DW_AT_external
    1187                      .dwattr $C$DW$184, DW_AT_TI_begin_file("C:/ti/motorware/motorware_1_01_00_16/sw/solutions/instaspin_f
    1188                      .dwattr $C$DW$184, DW_AT_TI_begin_line(0x276)
    1189                      .dwattr $C$DW$184, DW_AT_TI_begin_column(0x06)
    1190                      .dwattr $C$DW$184, DW_AT_TI_max_frame_size(-12)
    1191                      .dwpsn  file "C:/ti/motorware/motorware_1_01_00_16/sw/solutions/instaspin_foc/src/proj_lab03b.c",line
    1192              
    1193                      .dwfde $C$DW$CIE, _updateCPUusage
    1194              
    1195              ;***************************************************************
    1196              ;* FNAME: _updateCPUusage               FR SIZE:  10           *
    1197              ;*                                                             *
    1198              ;* FUNCTION ENVIRONMENT                                        *
    1199              ;*                                                             *
    1200              ;* FUNCTION PROPERTIES                                         *
    1201              ;*                            2 Parameter,  2 Auto,  6 SOE     *
    1202              ;***************************************************************
    1203              
    1204              _updateCPUusage:
    1205              ;* AR1   assigned to $O$C1
    1206              ;* AR2   assigned to $O$C2
    1207              ;* AL    assigned to $O$C3
    1208              $C$DW$185       .dwtag  DW_TAG_variable, DW_AT_name("avgDeltaCntObserved")
    1209                      .dwattr $C$DW$185, DW_AT_TI_symbol_name("_avgDeltaCntObserved")
    1210                      .dwattr $C$DW$185, DW_AT_type(*$C$DW$T$38)
    1211                      .dwattr $C$DW$185, DW_AT_location[DW_OP_breg20 -4]
    1212              ;* AR3   assigned to _maxDeltaCntObserved
    1213              $C$DW$186       .dwtag  DW_TAG_variable, DW_AT_name("maxDeltaCntObserved")
    1214                      .dwattr $C$DW$186, DW_AT_TI_symbol_name("_maxDeltaCntObserved")
    1215                      .dwattr $C$DW$186, DW_AT_type(*$C$DW$T$38)
    1216                      .dwattr $C$DW$186, DW_AT_location[DW_OP_reg10]
    1217              ;* AL    assigned to _pwmPeriodValue
    1218              $C$DW$187       .dwtag  DW_TAG_variable, DW_AT_name("pwmPeriodValue")
    1219                      .dwattr $C$DW$187, DW_AT_TI_symbol_name("_pwmPeriodValue")
    1220                      .dwattr $C$DW$187, DW_AT_type(*$C$DW$T$23)
    1221                      .dwattr $C$DW$187, DW_AT_location[DW_OP_reg0]
TMS320C2000 Assembler PC v6.4.11 Mon Oct 03 13:48:45 2016

Tools Copyright (c) 1996-2015 Texas Instruments Incorporated
C:\Users\bee25\AppData\Local\Temp\1032410                            PAGE   25

    1222              ;* AR4   assigned to _pwmHandle
    1223              $C$DW$188       .dwtag  DW_TAG_variable, DW_AT_name("pwmHandle")
    1224                      .dwattr $C$DW$188, DW_AT_TI_symbol_name("_pwmHandle")
    1225                      .dwattr $C$DW$188, DW_AT_type(*$C$DW$T$139)
    1226                      .dwattr $C$DW$188, DW_AT_location[DW_OP_reg12]
    1227                      .dwcfi  cfa_offset, -2
    1228                      .dwcfi  save_reg_to_mem, 26, 0
    1229 00000073 B2BD          MOVL      *SP++,XAR1            ; [CPU_] 
    1230                      .dwcfi  save_reg_to_mem, 7, 2
    1231                      .dwcfi  cfa_offset, -4
    1232 00000074 AABD          MOVL      *SP++,XAR2            ; [CPU_] 
    1233                      .dwcfi  save_reg_to_mem, 9, 4
    1234                      .dwcfi  cfa_offset, -6
    1235 00000075 A2BD          MOVL      *SP++,XAR3            ; [CPU_] 
    1236                      .dwcfi  save_reg_to_mem, 11, 6
    1237                      .dwcfi  cfa_offset, -8
    1238 00000076 FE04          ADDB      SP,#4                 ; [CPU_U] 
    1239                      .dwcfi  cfa_offset, -12
    1240 00000077 761F-         MOVW      DP,#_cpu_usageHandle  ; [CPU_U] 
         00000078 0000 
    1241                      .dwpsn  file "C:/ti/motorware/motorware_1_01_00_16/sw/modules/cpu_usage/src/32b/cpu_usage.h",line 167
    1242 00000079 8608-         MOVL      XAR2,@_cpu_usageHandle ; [CPU_] |167| 
    1243 0000007a D010          MOVB      XAR0,#16              ; [CPU_] |167| 
    1244 0000007b 761F-         MOVW      DP,#_halHandle        ; [CPU_U] 
         0000007c 0000 
    1245 0000007d 0692          MOVL      ACC,*+XAR2[AR0]       ; [CPU_] |167| 
    1246 0000007e 1E44          MOVL      *-SP[4],ACC           ; [CPU_] |167| 
    1247                      .dwpsn  file "C:/ti/motorware/motorware_1_01_00_16/sw/modules/hal/boards/boostxldrv8301_revB/f28x/f28
    1248 0000007f 027C          MOVB      ACC,#124              ; [CPU_] |1166| 
    1249 00000080 0700-         ADDL      ACC,@_halHandle       ; [CPU_] |1166| 
    1250 00000081 8AA9          MOVL      XAR4,ACC              ; [CPU_] |1166| 
    1251 00000082 8AC4          MOVL      XAR4,*+XAR4[0]        ; [CPU_] |1166| 
    1252                      .dwpsn  file "C:/ti/motorware/motorware_1_01_00_16/sw/modules/cpu_usage/src/32b/cpu_usage.h",line 178
    1253 00000083 D012          MOVB      XAR0,#18              ; [CPU_] |178| 
    1254 00000084 8292          MOVL      XAR3,*+XAR2[AR0]      ; [CPU_] |178| 
    1255                      .dwpsn  file "C:/ti/motorware/motorware_1_01_00_16/sw/drivers/pwm/src/32b/f28x/f2802x/pwm.h",line 120
    1256 00000085 92EC          MOV       AL,*+XAR4[5]          ; [CPU_] |1208| 
    1257                      .dwpsn  file "C:/ti/motorware/motorware_1_01_00_16/sw/solutions/instaspin_foc/src/proj_lab03b.c",line
    1258              $C$DW$189       .dwtag  DW_TAG_TI_branch
    1259                      .dwattr $C$DW$189, DW_AT_low_pc(0x00)
    1260                      .dwattr $C$DW$189, DW_AT_name("U$$TOFS")
    1261                      .dwattr $C$DW$189, DW_AT_TI_call
    1262 00000086 7640!         LCR       #U$$TOFS              ; [CPU_] |639| 
         00000087 0000 
    1263                      ; call occurs [#U$$TOFS] ; [] |639| 
    1264 00000088 1EA6          MOVL      XAR6,ACC              ; [CPU_] |639| 
    1265 00000089 9A00          MOV       AL,#0                 ; [CPU_] |639| 
    1266 0000008a 28A8          MOV       AH,#16448             ; [CPU_] |639| 
         0000008b 4040 
    1267 0000008c 1E42          MOVL      *-SP[2],ACC           ; [CPU_] |639| 
    1268 0000008d 06A6          MOVL      ACC,XAR6              ; [CPU_] |639| 
    1269              $C$DW$190       .dwtag  DW_TAG_TI_branch
    1270                      .dwattr $C$DW$190, DW_AT_low_pc(0x00)
    1271                      .dwattr $C$DW$190, DW_AT_name("FS$$MPY")
    1272                      .dwattr $C$DW$190, DW_AT_TI_call
TMS320C2000 Assembler PC v6.4.11 Mon Oct 03 13:48:45 2016

Tools Copyright (c) 1996-2015 Texas Instruments Incorporated
C:\Users\bee25\AppData\Local\Temp\1032410                            PAGE   26

    1273 0000008e 7640!         LCR       #FS$$MPY              ; [CPU_] |639| 
         0000008f 0000 
    1274                      ; call occurs [#FS$$MPY] ; [] |639| 
    1275 00000090 1E42          MOVL      *-SP[2],ACC           ; [CPU_] |639| 
    1276              $C$DW$191       .dwtag  DW_TAG_TI_branch
    1277                      .dwattr $C$DW$191, DW_AT_low_pc(0x00)
    1278                      .dwattr $C$DW$191, DW_AT_name("FS$$ADD")
    1279                      .dwattr $C$DW$191, DW_AT_TI_call
    1280 00000091 7640!         LCR       #FS$$ADD              ; [CPU_] |639| 
         00000092 0000 
    1281                      ; call occurs [#FS$$ADD] ; [] |639| 
    1282 00000093 D00E          MOVB      XAR0,#14              ; [CPU_] |639| 
    1283 00000094 8BA9          MOVL      XAR1,ACC              ; [CPU_] |639| 
    1284 00000095 0692          MOVL      ACC,*+XAR2[AR0]       ; [CPU_] |639| 
    1285              $C$DW$192       .dwtag  DW_TAG_TI_branch
    1286                      .dwattr $C$DW$192, DW_AT_low_pc(0x00)
    1287                      .dwattr $C$DW$192, DW_AT_name("UL$$TOFS")
    1288                      .dwattr $C$DW$192, DW_AT_TI_call
    1289 00000096 7640!         LCR       #UL$$TOFS             ; [CPU_] |639| 
         00000097 0000 
    1290                      ; call occurs [#UL$$TOFS] ; [] |639| 
    1291 00000098 B242          MOVL      *-SP[2],XAR1          ; [CPU_] |639| 
    1292              $C$DW$193       .dwtag  DW_TAG_TI_branch
    1293                      .dwattr $C$DW$193, DW_AT_low_pc(0x00)
    1294                      .dwattr $C$DW$193, DW_AT_name("FS$$DIV")
    1295                      .dwattr $C$DW$193, DW_AT_TI_call
    1296 00000099 7640!         LCR       #FS$$DIV              ; [CPU_] |639| 
         0000009a 0000 
    1297                      ; call occurs [#FS$$DIV] ; [] |639| 
    1298 0000009b 1EA6          MOVL      XAR6,ACC              ; [CPU_] |639| 
    1299 0000009c 9A00          MOV       AL,#0                 ; [CPU_] |639| 
    1300 0000009d 28A8          MOV       AH,#17096             ; [CPU_] |639| 
         0000009e 42C8 
    1301 0000009f 1E42          MOVL      *-SP[2],ACC           ; [CPU_] |639| 
    1302 000000a0 06A6          MOVL      ACC,XAR6              ; [CPU_] |639| 
    1303              $C$DW$194       .dwtag  DW_TAG_TI_branch
    1304                      .dwattr $C$DW$194, DW_AT_low_pc(0x00)
    1305                      .dwattr $C$DW$194, DW_AT_name("FS$$MPY")
    1306                      .dwattr $C$DW$194, DW_AT_TI_call
    1307 000000a1 7640!         LCR       #FS$$MPY              ; [CPU_] |639| 
         000000a2 0000 
    1308                      ; call occurs [#FS$$MPY] ; [] |639| 
    1309 000000a3 761F-         MOVW      DP,#_gCpuUsagePercentageMin ; [CPU_U] 
         000000a4 0000 
    1310 000000a5 1E10-         MOVL      @_gCpuUsagePercentageMin,ACC ; [CPU_] |639| 
    1311 000000a6 0644          MOVL      ACC,*-SP[4]           ; [CPU_] |639| 
    1312                      .dwpsn  file "C:/ti/motorware/motorware_1_01_00_16/sw/solutions/instaspin_foc/src/proj_lab03b.c",line
    1313              $C$DW$195       .dwtag  DW_TAG_TI_branch
    1314                      .dwattr $C$DW$195, DW_AT_low_pc(0x00)
    1315                      .dwattr $C$DW$195, DW_AT_name("UL$$TOFS")
    1316                      .dwattr $C$DW$195, DW_AT_TI_call
    1317 000000a7 7640!         LCR       #UL$$TOFS             ; [CPU_] |642| 
         000000a8 0000 
    1318                      ; call occurs [#UL$$TOFS] ; [] |642| 
    1319 000000a9 B242          MOVL      *-SP[2],XAR1          ; [CPU_] |642| 
TMS320C2000 Assembler PC v6.4.11 Mon Oct 03 13:48:45 2016

Tools Copyright (c) 1996-2015 Texas Instruments Incorporated
C:\Users\bee25\AppData\Local\Temp\1032410                            PAGE   27

    1320              $C$DW$196       .dwtag  DW_TAG_TI_branch
    1321                      .dwattr $C$DW$196, DW_AT_low_pc(0x00)
    1322                      .dwattr $C$DW$196, DW_AT_name("FS$$DIV")
    1323                      .dwattr $C$DW$196, DW_AT_TI_call
    1324 000000aa 7640!         LCR       #FS$$DIV              ; [CPU_] |642| 
         000000ab 0000 
    1325                      ; call occurs [#FS$$DIV] ; [] |642| 
    1326 000000ac 1EA6          MOVL      XAR6,ACC              ; [CPU_] |642| 
    1327 000000ad 9A00          MOV       AL,#0                 ; [CPU_] |642| 
    1328 000000ae 28A8          MOV       AH,#17096             ; [CPU_] |642| 
         000000af 42C8 
    1329 000000b0 1E42          MOVL      *-SP[2],ACC           ; [CPU_] |642| 
    1330 000000b1 06A6          MOVL      ACC,XAR6              ; [CPU_] |642| 
    1331              $C$DW$197       .dwtag  DW_TAG_TI_branch
    1332                      .dwattr $C$DW$197, DW_AT_low_pc(0x00)
    1333                      .dwattr $C$DW$197, DW_AT_name("FS$$MPY")
    1334                      .dwattr $C$DW$197, DW_AT_TI_call
    1335 000000b2 7640!         LCR       #FS$$MPY              ; [CPU_] |642| 
         000000b3 0000 
    1336                      ; call occurs [#FS$$MPY] ; [] |642| 
    1337 000000b4 761F-         MOVW      DP,#_gCpuUsagePercentageAvg ; [CPU_U] 
         000000b5 0000 
    1338 000000b6 1E1C-         MOVL      @_gCpuUsagePercentageAvg,ACC ; [CPU_] |642| 
    1339                      .dwpsn  file "C:/ti/motorware/motorware_1_01_00_16/sw/solutions/instaspin_foc/src/proj_lab03b.c",line
    1340 000000b7 A2A9          MOVL      ACC,XAR3              ; [CPU_] |645| 
    1341              $C$DW$198       .dwtag  DW_TAG_TI_branch
    1342                      .dwattr $C$DW$198, DW_AT_low_pc(0x00)
    1343                      .dwattr $C$DW$198, DW_AT_name("UL$$TOFS")
    1344                      .dwattr $C$DW$198, DW_AT_TI_call
    1345 000000b8 7640!         LCR       #UL$$TOFS             ; [CPU_] |645| 
         000000b9 0000 
    1346                      ; call occurs [#UL$$TOFS] ; [] |645| 
    1347 000000ba B242          MOVL      *-SP[2],XAR1          ; [CPU_] |645| 
    1348              $C$DW$199       .dwtag  DW_TAG_TI_branch
    1349                      .dwattr $C$DW$199, DW_AT_low_pc(0x00)
    1350                      .dwattr $C$DW$199, DW_AT_name("FS$$DIV")
    1351                      .dwattr $C$DW$199, DW_AT_TI_call
    1352 000000bb 7640!         LCR       #FS$$DIV              ; [CPU_] |645| 
         000000bc 0000 
    1353                      ; call occurs [#FS$$DIV] ; [] |645| 
    1354 000000bd 1EA6          MOVL      XAR6,ACC              ; [CPU_] |645| 
    1355 000000be 9A00          MOV       AL,#0                 ; [CPU_] |645| 
    1356 000000bf 28A8          MOV       AH,#17096             ; [CPU_] |645| 
         000000c0 42C8 
    1357 000000c1 1E42          MOVL      *-SP[2],ACC           ; [CPU_] |645| 
    1358 000000c2 06A6          MOVL      ACC,XAR6              ; [CPU_] |645| 
    1359              $C$DW$200       .dwtag  DW_TAG_TI_branch
    1360                      .dwattr $C$DW$200, DW_AT_low_pc(0x00)
    1361                      .dwattr $C$DW$200, DW_AT_name("FS$$MPY")
    1362                      .dwattr $C$DW$200, DW_AT_TI_call
    1363 000000c3 7640!         LCR       #FS$$MPY              ; [CPU_] |645| 
         000000c4 0000 
    1364                      ; call occurs [#FS$$MPY] ; [] |645| 
    1365 000000c5 FE84          SUBB      SP,#4                 ; [CPU_U] 
    1366                      .dwcfi  cfa_offset, -8
TMS320C2000 Assembler PC v6.4.11 Mon Oct 03 13:48:45 2016

Tools Copyright (c) 1996-2015 Texas Instruments Incorporated
C:\Users\bee25\AppData\Local\Temp\1032410                            PAGE   28

    1367 000000c6 82BE          MOVL      XAR3,*--SP            ; [CPU_] 
    1368                      .dwcfi  cfa_offset, -6
    1369                      .dwcfi  restore_reg, 11
    1370 000000c7 86BE          MOVL      XAR2,*--SP            ; [CPU_] 
    1371                      .dwcfi  cfa_offset, -4
    1372                      .dwcfi  restore_reg, 9
    1373 000000c8 8BBE          MOVL      XAR1,*--SP            ; [CPU_] 
    1374                      .dwcfi  cfa_offset, -2
    1375                      .dwcfi  restore_reg, 7
    1376 000000c9 761F-         MOVW      DP,#_gCpuUsagePercentageMax ; [CPU_U] 
         000000ca 0000 
    1377 000000cb 1E16-         MOVL      @_gCpuUsagePercentageMax,ACC ; [CPU_] |645| 
    1378              $C$DW$201       .dwtag  DW_TAG_TI_branch
    1379                      .dwattr $C$DW$201, DW_AT_low_pc(0x00)
    1380                      .dwattr $C$DW$201, DW_AT_TI_return
    1381 000000cc 0006          LRETR     ; [CPU_] 
    1382                      ; return occurs ; [] 
    1383                      .dwattr $C$DW$184, DW_AT_TI_end_file("C:/ti/motorware/motorware_1_01_00_16/sw/solutions/instaspin_foc
    1384                      .dwattr $C$DW$184, DW_AT_TI_end_line(0x288)
    1385                      .dwattr $C$DW$184, DW_AT_TI_end_column(0x01)
    1386                      .dwendentry
    1387                      .dwendtag $C$DW$184
    1388              
    1389 000000cd               .sect   ".text"
    1390                      .clink
    1391              
    1392              $C$DW$202       .dwtag  DW_TAG_subprogram, DW_AT_name("TIMER_getCount")
    1393                      .dwattr $C$DW$202, DW_AT_low_pc(_TIMER_getCount)
    1394                      .dwattr $C$DW$202, DW_AT_high_pc(0x00)
    1395                      .dwattr $C$DW$202, DW_AT_TI_symbol_name("_TIMER_getCount")
    1396                      .dwattr $C$DW$202, DW_AT_type(*$C$DW$T$38)
    1397                      .dwattr $C$DW$202, DW_AT_TI_begin_file("C:/ti/motorware/motorware_1_01_00_16/sw/drivers/timer/src/32b
    1398                      .dwattr $C$DW$202, DW_AT_TI_begin_line(0xa3)
    1399                      .dwattr $C$DW$202, DW_AT_TI_begin_column(0x18)
    1400                      .dwattr $C$DW$202, DW_AT_TI_max_frame_size(-4)
    1401                      .dwpsn  file "C:/ti/motorware/motorware_1_01_00_16/sw/drivers/timer/src/32b/f28x/f2802x/timer.h",line
    1402              
    1403                      .dwfde $C$DW$CIE, _TIMER_getCount
    1404              $C$DW$203       .dwtag  DW_TAG_formal_parameter, DW_AT_name("timerHandle")
    1405                      .dwattr $C$DW$203, DW_AT_TI_symbol_name("_timerHandle")
    1406                      .dwattr $C$DW$203, DW_AT_type(*$C$DW$T$144)
    1407                      .dwattr $C$DW$203, DW_AT_location[DW_OP_reg12]
    1408              
    1409              ;***************************************************************
    1410              ;* FNAME: _TIMER_getCount               FR SIZE:   2           *
    1411              ;*                                                             *
    1412              ;* FUNCTION ENVIRONMENT                                        *
    1413              ;*                                                             *
    1414              ;* FUNCTION PROPERTIES                                         *
    1415              ;*                            0 Parameter,  2 Auto,  0 SOE     *
    1416              ;***************************************************************
    1417              
    1418              _TIMER_getCount:
    1419              ;* AR4   assigned to _timerHandle
    1420              $C$DW$204       .dwtag  DW_TAG_variable, DW_AT_name("timerHandle")
TMS320C2000 Assembler PC v6.4.11 Mon Oct 03 13:48:45 2016

Tools Copyright (c) 1996-2015 Texas Instruments Incorporated
C:\Users\bee25\AppData\Local\Temp\1032410                            PAGE   29

    1421                      .dwattr $C$DW$204, DW_AT_TI_symbol_name("_timerHandle")
    1422                      .dwattr $C$DW$204, DW_AT_type(*$C$DW$T$286)
    1423                      .dwattr $C$DW$204, DW_AT_location[DW_OP_reg12]
    1424              ;* AL    assigned to _cnt
    1425              $C$DW$205       .dwtag  DW_TAG_variable, DW_AT_name("cnt")
    1426                      .dwattr $C$DW$205, DW_AT_TI_symbol_name("_cnt")
    1427                      .dwattr $C$DW$205, DW_AT_type(*$C$DW$T$38)
    1428                      .dwattr $C$DW$205, DW_AT_location[DW_OP_reg0]
    1429              $C$DW$206       .dwtag  DW_TAG_variable, DW_AT_name("timer")
    1430                      .dwattr $C$DW$206, DW_AT_TI_symbol_name("_timer")
    1431                      .dwattr $C$DW$206, DW_AT_type(*$C$DW$T$285)
    1432                      .dwattr $C$DW$206, DW_AT_location[DW_OP_breg20 -2]
    1433                      .dwcfi  cfa_offset, -2
    1434                      .dwcfi  save_reg_to_mem, 26, 0
    1435 000000cd FE02          ADDB      SP,#2                 ; [CPU_U] 
    1436                      .dwcfi  cfa_offset, -4
    1437                      .dwpsn  file "C:/ti/motorware/motorware_1_01_00_16/sw/drivers/timer/src/32b/f28x/f2802x/timer.h",line
    1438 000000ce A842          MOVL      *-SP[2],XAR4          ; [CPU_] |165| 
    1439                      .dwpsn  file "C:/ti/motorware/motorware_1_01_00_16/sw/drivers/timer/src/32b/f28x/f2802x/timer.h",line
    1440 000000cf 06C4          MOVL      ACC,*+XAR4[0]         ; [CPU_] |169| 
    1441 000000d0 FE82          SUBB      SP,#2                 ; [CPU_U] 
    1442                      .dwcfi  cfa_offset, -2
    1443              $C$DW$207       .dwtag  DW_TAG_TI_branch
    1444                      .dwattr $C$DW$207, DW_AT_low_pc(0x00)
    1445                      .dwattr $C$DW$207, DW_AT_TI_return
    1446 000000d1 0006          LRETR     ; [CPU_] 
    1447                      ; return occurs ; [] 
    1448                      .dwattr $C$DW$202, DW_AT_TI_end_file("C:/ti/motorware/motorware_1_01_00_16/sw/drivers/timer/src/32b/f
    1449                      .dwattr $C$DW$202, DW_AT_TI_end_line(0xac)
    1450                      .dwattr $C$DW$202, DW_AT_TI_end_column(0x01)
    1451                      .dwendentry
    1452                      .dwendtag $C$DW$202
    1453              
    1454 000000d2               .sect   ".text"
    1455                      .clink
    1456              
    1457              $C$DW$208       .dwtag  DW_TAG_subprogram, DW_AT_name("HAL_readAdcData")
    1458                      .dwattr $C$DW$208, DW_AT_low_pc(_HAL_readAdcData)
    1459                      .dwattr $C$DW$208, DW_AT_high_pc(0x00)
    1460                      .dwattr $C$DW$208, DW_AT_TI_symbol_name("_HAL_readAdcData")
    1461                      .dwattr $C$DW$208, DW_AT_TI_begin_file("C:/ti/motorware/motorware_1_01_00_16/sw/modules/hal/boards/bo
    1462                      .dwattr $C$DW$208, DW_AT_TI_begin_line(0x1fb)
    1463                      .dwattr $C$DW$208, DW_AT_TI_begin_column(0x14)
    1464                      .dwattr $C$DW$208, DW_AT_TI_max_frame_size(-6)
    1465                      .dwpsn  file "C:/ti/motorware/motorware_1_01_00_16/sw/modules/hal/boards/boostxldrv8301_revB/f28x/f28
    1466              
    1467                      .dwfde $C$DW$CIE, _HAL_readAdcData
    1468              $C$DW$209       .dwtag  DW_TAG_variable, DW_AT_name("current")
    1469                      .dwattr $C$DW$209, DW_AT_TI_symbol_name("_current$1")
    1470                      .dwattr $C$DW$209, DW_AT_type(*$C$DW$T$12)
    1471                      .dwattr $C$DW$209, DW_AT_location[DW_OP_addr _current$1]
    1472              $C$DW$210       .dwtag  DW_TAG_formal_parameter, DW_AT_name("handle")
    1473                      .dwattr $C$DW$210, DW_AT_TI_symbol_name("_handle")
    1474                      .dwattr $C$DW$210, DW_AT_type(*$C$DW$T$265)
    1475                      .dwattr $C$DW$210, DW_AT_location[DW_OP_reg12]
TMS320C2000 Assembler PC v6.4.11 Mon Oct 03 13:48:45 2016

Tools Copyright (c) 1996-2015 Texas Instruments Incorporated
C:\Users\bee25\AppData\Local\Temp\1032410                            PAGE   30

    1476              $C$DW$211       .dwtag  DW_TAG_formal_parameter, DW_AT_name("pAdcData")
    1477                      .dwattr $C$DW$211, DW_AT_TI_symbol_name("_pAdcData")
    1478                      .dwattr $C$DW$211, DW_AT_type(*$C$DW$T$258)
    1479                      .dwattr $C$DW$211, DW_AT_location[DW_OP_reg14]
    1480              
    1481              ;***************************************************************
    1482              ;* FNAME: _HAL_readAdcData              FR SIZE:   4           *
    1483              ;*                                                             *
    1484              ;* FUNCTION ENVIRONMENT                                        *
    1485              ;*                                                             *
    1486              ;* FUNCTION PROPERTIES                                         *
    1487              ;*                            2 Parameter,  0 Auto,  2 SOE     *
    1488              ;***************************************************************
    1489              
    1490              _HAL_readAdcData:
    1491              ;* AL    assigned to $O$C1
    1492              ;* AR4   assigned to _handle
    1493              $C$DW$212       .dwtag  DW_TAG_variable, DW_AT_name("handle")
    1494                      .dwattr $C$DW$212, DW_AT_TI_symbol_name("_handle")
    1495                      .dwattr $C$DW$212, DW_AT_type(*$C$DW$T$266)
    1496                      .dwattr $C$DW$212, DW_AT_location[DW_OP_reg12]
    1497              ;* AR5   assigned to _pAdcData
    1498              $C$DW$213       .dwtag  DW_TAG_variable, DW_AT_name("pAdcData")
    1499                      .dwattr $C$DW$213, DW_AT_TI_symbol_name("_pAdcData")
    1500                      .dwattr $C$DW$213, DW_AT_type(*$C$DW$T$259)
    1501                      .dwattr $C$DW$213, DW_AT_location[DW_OP_reg14]
    1502              ;* XT    assigned to _value
    1503              $C$DW$214       .dwtag  DW_TAG_variable, DW_AT_name("value")
    1504                      .dwattr $C$DW$214, DW_AT_TI_symbol_name("_value")
    1505                      .dwattr $C$DW$214, DW_AT_type(*$C$DW$T$32)
    1506                      .dwattr $C$DW$214, DW_AT_location[DW_OP_reg21]
    1507              ;* AR7   assigned to _current_sf
    1508              $C$DW$215       .dwtag  DW_TAG_variable, DW_AT_name("current_sf")
    1509                      .dwattr $C$DW$215, DW_AT_TI_symbol_name("_current_sf")
    1510                      .dwattr $C$DW$215, DW_AT_type(*$C$DW$T$32)
    1511                      .dwattr $C$DW$215, DW_AT_location[DW_OP_reg18]
    1512              ;* AR2   assigned to _voltage_sf
    1513              $C$DW$216       .dwtag  DW_TAG_variable, DW_AT_name("voltage_sf")
    1514                      .dwattr $C$DW$216, DW_AT_TI_symbol_name("_voltage_sf")
    1515                      .dwattr $C$DW$216, DW_AT_type(*$C$DW$T$32)
    1516                      .dwattr $C$DW$216, DW_AT_location[DW_OP_reg8]
    1517              ;* AR6   assigned to _throttle
    1518              $C$DW$217       .dwtag  DW_TAG_variable, DW_AT_name("throttle")
    1519                      .dwattr $C$DW$217, DW_AT_TI_symbol_name("_throttle")
    1520                      .dwattr $C$DW$217, DW_AT_type(*$C$DW$T$12)
    1521                      .dwattr $C$DW$217, DW_AT_location[DW_OP_reg16]
    1522                      .dwcfi  cfa_offset, -2
    1523                      .dwcfi  save_reg_to_mem, 26, 0
    1524 000000d2 AABD          MOVL      *SP++,XAR2            ; [CPU_] 
    1525                      .dwcfi  save_reg_to_mem, 9, 2
    1526                      .dwcfi  cfa_offset, -4
    1527 000000d3 FE02          ADDB      SP,#2                 ; [CPU_U] 
    1528                      .dwcfi  cfa_offset, -6
    1529                      .dwpsn  file "C:/ti/motorware/motorware_1_01_00_16/sw/drivers/adc/src/32b/f28x/f2802x/adc.h",line 684
    1530 000000d4 C4C4          MOVL      XAR6,*+XAR4[0]        ; [CPU_] |684| 
TMS320C2000 Assembler PC v6.4.11 Mon Oct 03 13:48:45 2016

Tools Copyright (c) 1996-2015 Texas Instruments Incorporated
C:\Users\bee25\AppData\Local\Temp\1032410                            PAGE   31

    1531                      .dwpsn  file "C:/ti/motorware/motorware_1_01_00_16/sw/modules/hal/boards/boostxldrv8301_revB/f28x/f28
    1532 000000d5 D0A2          MOVB      XAR0,#162             ; [CPU_] |364| 
    1533 000000d6 C594          MOVL      XAR7,*+XAR4[AR0]      ; [CPU_] |364| 
    1534                      .dwpsn  file "C:/ti/motorware/motorware_1_01_00_16/sw/modules/hal/boards/boostxldrv8301_revB/f28x/f28
    1535 000000d7 D0A4          MOVB      XAR0,#164             ; [CPU_] |459| 
    1536                      .dwpsn  file "C:/ti/motorware/motorware_1_01_00_16/sw/drivers/adc/src/32b/f28x/f2802x/adc.h",line 684
    1537 000000d8 0ECE          MOVU      ACC,*+XAR6[1]         ; [CPU_] |684| 
    1538                      .dwpsn  file "C:/ti/motorware/motorware_1_01_00_16/sw/modules/hal/boards/boostxldrv8301_revB/f28x/f28
    1539 000000d9 8694          MOVL      XAR2,*+XAR4[AR0]      ; [CPU_] |459| 
    1540                      .dwpsn  file "C:/ti/motorware/motorware_1_01_00_16/sw/drivers/adc/src/32b/f28x/f2802x/adc.h",line 684
    1541 000000da 1EAC          MOVL      XT,ACC                ; [CPU_] |684| 
    1542                      .dwpsn  file "C:/ti/motorware/motorware_1_01_00_16/sw/modules/hal/boards/boostxldrv8301_revB/f28x/f28
    1543 000000db D092          MOVB      XAR0,#146             ; [CPU_] |523| 
    1544 000000dc 5605          IMPYL     P,XT,XAR7             ; [CPU_] |523| 
         000000dd 00A7 
    1545 000000de 5663          QMPYL     ACC,XT,XAR7           ; [CPU_] |523| 
         000000df 00A7 
    1546 000000e0 568B          ASR64     ACC:P,#12             ; [CPU_] |523| 
    1547 000000e1 A9A9          MOVL      ACC,P                 ; [CPU_] |523| 
    1548 000000e2 0394          SUBL      ACC,*+XAR4[AR0]       ; [CPU_] |523| 
    1549                      .dwpsn  file "C:/ti/motorware/motorware_1_01_00_16/sw/modules/hal/boards/boostxldrv8301_revB/f28x/f28
    1550 000000e3 1EC5          MOVL      *+XAR5[0],ACC         ; [CPU_] |524| 
    1551                      .dwpsn  file "C:/ti/motorware/motorware_1_01_00_16/sw/drivers/adc/src/32b/f28x/f2802x/adc.h",line 684
    1552 000000e4 C4C4          MOVL      XAR6,*+XAR4[0]        ; [CPU_] |684| 
    1553                      .dwpsn  file "C:/ti/motorware/motorware_1_01_00_16/sw/modules/hal/boards/boostxldrv8301_revB/f28x/f28
    1554 000000e5 D094          MOVB      XAR0,#148             ; [CPU_] |528| 
    1555                      .dwpsn  file "C:/ti/motorware/motorware_1_01_00_16/sw/drivers/adc/src/32b/f28x/f2802x/adc.h",line 684
    1556 000000e6 0ED6          MOVU      ACC,*+XAR6[2]         ; [CPU_] |684| 
    1557 000000e7 1EAC          MOVL      XT,ACC                ; [CPU_] |684| 
    1558                      .dwpsn  file "C:/ti/motorware/motorware_1_01_00_16/sw/modules/hal/boards/boostxldrv8301_revB/f28x/f28
    1559 000000e8 5605          IMPYL     P,XT,XAR7             ; [CPU_] |528| 
         000000e9 00A7 
    1560 000000ea 5663          QMPYL     ACC,XT,XAR7           ; [CPU_] |528| 
         000000eb 00A7 
    1561 000000ec 568B          ASR64     ACC:P,#12             ; [CPU_] |528| 
    1562 000000ed A9A9          MOVL      ACC,P                 ; [CPU_] |528| 
    1563 000000ee 0394          SUBL      ACC,*+XAR4[AR0]       ; [CPU_] |528| 
    1564                      .dwpsn  file "C:/ti/motorware/motorware_1_01_00_16/sw/modules/hal/boards/boostxldrv8301_revB/f28x/f28
    1565 000000ef 1ED5          MOVL      *+XAR5[2],ACC         ; [CPU_] |529| 
    1566                      .dwpsn  file "C:/ti/motorware/motorware_1_01_00_16/sw/drivers/adc/src/32b/f28x/f2802x/adc.h",line 684
    1567 000000f0 C4C4          MOVL      XAR6,*+XAR4[0]        ; [CPU_] |684| 
    1568                      .dwpsn  file "C:/ti/motorware/motorware_1_01_00_16/sw/modules/hal/boards/boostxldrv8301_revB/f28x/f28
    1569 000000f1 D096          MOVB      XAR0,#150             ; [CPU_] |533| 
    1570                      .dwpsn  file "C:/ti/motorware/motorware_1_01_00_16/sw/drivers/adc/src/32b/f28x/f2802x/adc.h",line 684
    1571 000000f2 0EDE          MOVU      ACC,*+XAR6[3]         ; [CPU_] |684| 
    1572 000000f3 1EAC          MOVL      XT,ACC                ; [CPU_] |684| 
    1573                      .dwpsn  file "C:/ti/motorware/motorware_1_01_00_16/sw/modules/hal/boards/boostxldrv8301_revB/f28x/f28
    1574 000000f4 5605          IMPYL     P,XT,XAR7             ; [CPU_] |533| 
         000000f5 00A7 
    1575 000000f6 5663          QMPYL     ACC,XT,XAR7           ; [CPU_] |533| 
         000000f7 00A7 
    1576 000000f8 568B          ASR64     ACC:P,#12             ; [CPU_] |533| 
    1577 000000f9 A9A9          MOVL      ACC,P                 ; [CPU_] |533| 
    1578 000000fa 0394          SUBL      ACC,*+XAR4[AR0]       ; [CPU_] |533| 
    1579                      .dwpsn  file "C:/ti/motorware/motorware_1_01_00_16/sw/modules/hal/boards/boostxldrv8301_revB/f28x/f28
TMS320C2000 Assembler PC v6.4.11 Mon Oct 03 13:48:45 2016

Tools Copyright (c) 1996-2015 Texas Instruments Incorporated
C:\Users\bee25\AppData\Local\Temp\1032410                            PAGE   32

    1580 000000fb 1EE5          MOVL      *+XAR5[4],ACC         ; [CPU_] |534| 
    1581                      .dwpsn  file "C:/ti/motorware/motorware_1_01_00_16/sw/drivers/adc/src/32b/f28x/f2802x/adc.h",line 684
    1582 000000fc C4C4          MOVL      XAR6,*+XAR4[0]        ; [CPU_] |684| 
    1583                      .dwpsn  file "C:/ti/motorware/motorware_1_01_00_16/sw/modules/hal/boards/boostxldrv8301_revB/f28x/f28
    1584 000000fd D098          MOVB      XAR0,#152             ; [CPU_] |538| 
    1585                      .dwpsn  file "C:/ti/motorware/motorware_1_01_00_16/sw/drivers/adc/src/32b/f28x/f2802x/adc.h",line 684
    1586 000000fe 0EE6          MOVU      ACC,*+XAR6[4]         ; [CPU_] |684| 
    1587 000000ff 1EAC          MOVL      XT,ACC                ; [CPU_] |684| 
    1588                      .dwpsn  file "C:/ti/motorware/motorware_1_01_00_16/sw/modules/hal/boards/boostxldrv8301_revB/f28x/f28
    1589 00000100 5605          IMPYL     P,XT,XAR2             ; [CPU_] |538| 
         00000101 00A2 
    1590 00000102 5663          QMPYL     ACC,XT,XAR2           ; [CPU_] |538| 
         00000103 00A2 
    1591 00000104 568B          ASR64     ACC:P,#12             ; [CPU_] |538| 
    1592 00000105 A9A9          MOVL      ACC,P                 ; [CPU_] |538| 
    1593 00000106 0394          SUBL      ACC,*+XAR4[AR0]       ; [CPU_] |538| 
    1594                      .dwpsn  file "C:/ti/motorware/motorware_1_01_00_16/sw/modules/hal/boards/boostxldrv8301_revB/f28x/f28
    1595 00000107 1EF5          MOVL      *+XAR5[6],ACC         ; [CPU_] |539| 
    1596                      .dwpsn  file "C:/ti/motorware/motorware_1_01_00_16/sw/drivers/adc/src/32b/f28x/f2802x/adc.h",line 684
    1597 00000108 C4C4          MOVL      XAR6,*+XAR4[0]        ; [CPU_] |684| 
    1598                      .dwpsn  file "C:/ti/motorware/motorware_1_01_00_16/sw/modules/hal/boards/boostxldrv8301_revB/f28x/f28
    1599 00000109 D09A          MOVB      XAR0,#154             ; [CPU_] |543| 
    1600                      .dwpsn  file "C:/ti/motorware/motorware_1_01_00_16/sw/drivers/adc/src/32b/f28x/f2802x/adc.h",line 684
    1601 0000010a 0EEE          MOVU      ACC,*+XAR6[5]         ; [CPU_] |684| 
    1602 0000010b 1EAC          MOVL      XT,ACC                ; [CPU_] |684| 
    1603                      .dwpsn  file "C:/ti/motorware/motorware_1_01_00_16/sw/modules/hal/boards/boostxldrv8301_revB/f28x/f28
    1604 0000010c 5605          IMPYL     P,XT,XAR2             ; [CPU_] |543| 
         0000010d 00A2 
    1605 0000010e 5663          QMPYL     ACC,XT,XAR2           ; [CPU_] |543| 
         0000010f 00A2 
    1606 00000110 568B          ASR64     ACC:P,#12             ; [CPU_] |543| 
    1607 00000111 A9A9          MOVL      ACC,P                 ; [CPU_] |543| 
    1608 00000112 0394          SUBL      ACC,*+XAR4[AR0]       ; [CPU_] |543| 
    1609                      .dwpsn  file "C:/ti/motorware/motorware_1_01_00_16/sw/modules/hal/boards/boostxldrv8301_revB/f28x/f28
    1610 00000113 D008          MOVB      XAR0,#8               ; [CPU_] |544| 
    1611 00000114 1E95          MOVL      *+XAR5[AR0],ACC       ; [CPU_] |544| 
    1612                      .dwpsn  file "C:/ti/motorware/motorware_1_01_00_16/sw/drivers/adc/src/32b/f28x/f2802x/adc.h",line 684
    1613 00000115 C4C4          MOVL      XAR6,*+XAR4[0]        ; [CPU_] |684| 
    1614                      .dwpsn  file "C:/ti/motorware/motorware_1_01_00_16/sw/modules/hal/boards/boostxldrv8301_revB/f28x/f28
    1615 00000116 D09C          MOVB      XAR0,#156             ; [CPU_] |548| 
    1616                      .dwpsn  file "C:/ti/motorware/motorware_1_01_00_16/sw/drivers/adc/src/32b/f28x/f2802x/adc.h",line 684
    1617 00000117 0EF6          MOVU      ACC,*+XAR6[6]         ; [CPU_] |684| 
    1618 00000118 1EAC          MOVL      XT,ACC                ; [CPU_] |684| 
    1619                      .dwpsn  file "C:/ti/motorware/motorware_1_01_00_16/sw/modules/hal/boards/boostxldrv8301_revB/f28x/f28
    1620 00000119 5605          IMPYL     P,XT,XAR2             ; [CPU_] |548| 
         0000011a 00A2 
    1621 0000011b 5663          QMPYL     ACC,XT,XAR2           ; [CPU_] |548| 
         0000011c 00A2 
    1622 0000011d 568B          ASR64     ACC:P,#12             ; [CPU_] |548| 
    1623 0000011e A9A9          MOVL      ACC,P                 ; [CPU_] |548| 
    1624 0000011f 0394          SUBL      ACC,*+XAR4[AR0]       ; [CPU_] |548| 
    1625                      .dwpsn  file "C:/ti/motorware/motorware_1_01_00_16/sw/modules/hal/boards/boostxldrv8301_revB/f28x/f28
    1626 00000120 D00A          MOVB      XAR0,#10              ; [CPU_] |549| 
    1627 00000121 1E95          MOVL      *+XAR5[AR0],ACC       ; [CPU_] |549| 
    1628                      .dwpsn  file "C:/ti/motorware/motorware_1_01_00_16/sw/drivers/adc/src/32b/f28x/f2802x/adc.h",line 684
TMS320C2000 Assembler PC v6.4.11 Mon Oct 03 13:48:45 2016

Tools Copyright (c) 1996-2015 Texas Instruments Incorporated
C:\Users\bee25\AppData\Local\Temp\1032410                            PAGE   33

    1629 00000122 C4C4          MOVL      XAR6,*+XAR4[0]        ; [CPU_] |684| 
    1630                      .dwpsn  file "C:/ti/motorware/motorware_1_01_00_16/sw/modules/hal/boards/boostxldrv8301_revB/f28x/f28
    1631 00000123 D00C          MOVB      XAR0,#12              ; [CPU_] |554| 
    1632                      .dwpsn  file "C:/ti/motorware/motorware_1_01_00_16/sw/drivers/adc/src/32b/f28x/f2802x/adc.h",line 684
    1633 00000124 0EFE          MOVU      ACC,*+XAR6[7]         ; [CPU_] |684| 
    1634 00000125 1EAC          MOVL      XT,ACC                ; [CPU_] |684| 
    1635                      .dwpsn  file "C:/ti/motorware/motorware_1_01_00_16/sw/modules/hal/boards/boostxldrv8301_revB/f28x/f28
    1636 00000126 5605          IMPYL     P,XT,XAR2             ; [CPU_] |553| 
         00000127 00A2 
    1637 00000128 5663          QMPYL     ACC,XT,XAR2           ; [CPU_] |553| 
         00000129 00A2 
    1638 0000012a 568B          ASR64     ACC:P,#12             ; [CPU_] |553| 
    1639                      .dwpsn  file "C:/ti/motorware/motorware_1_01_00_16/sw/drivers/adc/src/32b/f28x/f2802x/adc.h",line 684
    1640 0000012b 0208          MOVB      ACC,#8                ; [CPU_] |684| 
    1641                      .dwpsn  file "C:/ti/motorware/motorware_1_01_00_16/sw/modules/hal/boards/boostxldrv8301_revB/f28x/f28
    1642 0000012c A995          MOVL      *+XAR5[AR0],P         ; [CPU_] |554| 
    1643                      .dwpsn  file "C:/ti/motorware/motorware_1_01_00_16/sw/drivers/adc/src/32b/f28x/f2802x/adc.h",line 684
    1644 0000012d 07C4          ADDL      ACC,*+XAR4[0]         ; [CPU_] |684| 
    1645 0000012e 8AA9          MOVL      XAR4,ACC              ; [CPU_] |684| 
    1646                      .dwpsn  file "C:/ti/motorware/motorware_1_01_00_16/sw/modules/hal/boards/boostxldrv8301_revB/f28x/f28
    1647 0000012f D00E          MOVB      XAR0,#14              ; [CPU_] |561| 
    1648 00000130 0214          MOVB      ACC,#20               ; [CPU_] |561| 
    1649                      .dwpsn  file "C:/ti/motorware/motorware_1_01_00_16/sw/drivers/adc/src/32b/f28x/f2802x/adc.h",line 684
    1650 00000131 88C4          MOVZ      AR6,*+XAR4[0]         ; [CPU_] |684| 
    1651                      .dwpsn  file "C:/ti/motorware/motorware_1_01_00_16/sw/modules/hal/boards/boostxldrv8301_revB/f28x/f28
    1652 00000132 1E42          MOVL      *-SP[2],ACC           ; [CPU_] |561| 
    1653 00000133 0213          MOVB      ACC,#19               ; [CPU_] |561| 
    1654 00000134 1EAC          MOVL      XT,ACC                ; [CPU_] |561| 
    1655 00000135 5644          IMPYL     ACC,XT,*+XAR5[AR0]    ; [CPU_] |561| 
         00000136 0095 
    1656 00000137 07A6          ADDL      ACC,XAR6              ; [CPU_] |561| 
    1657              $C$DW$218       .dwtag  DW_TAG_TI_branch
    1658                      .dwattr $C$DW$218, DW_AT_low_pc(0x00)
    1659                      .dwattr $C$DW$218, DW_AT_name("L$$DIV")
    1660                      .dwattr $C$DW$218, DW_AT_TI_call
    1661 00000138 00C0!         FFC       XAR7,#L$$DIV          ; [CPU_] |561| 
         00000139 0000 
    1662                      ; call occurs [#L$$DIV] ; [] |561| 
    1663                      .dwpsn  file "C:/ti/motorware/motorware_1_01_00_16/sw/modules/hal/boards/boostxldrv8301_revB/f28x/f28
    1664 0000013a D00E          MOVB      XAR0,#14              ; [CPU_] |562| 
    1665 0000013b 761F-         MOVW      DP,#_current$1        ; [CPU_U] 
         0000013c 0000 
    1666                      .dwpsn  file "C:/ti/motorware/motorware_1_01_00_16/sw/modules/hal/boards/boostxldrv8301_revB/f28x/f28
    1667 0000013d 1E0C-         MOVL      @_current$1,ACC       ; [CPU_] |561| 
    1668                      .dwpsn  file "C:/ti/motorware/motorware_1_01_00_16/sw/modules/hal/boards/boostxldrv8301_revB/f28x/f28
    1669 0000013e 1E95          MOVL      *+XAR5[AR0],ACC       ; [CPU_] |562| 
    1670 0000013f FE82          SUBB      SP,#2                 ; [CPU_U] 
    1671                      .dwcfi  cfa_offset, -4
    1672 00000140 86BE          MOVL      XAR2,*--SP            ; [CPU_] 
    1673                      .dwcfi  cfa_offset, -2
    1674                      .dwcfi  restore_reg, 9
    1675              $C$DW$219       .dwtag  DW_TAG_TI_branch
    1676                      .dwattr $C$DW$219, DW_AT_low_pc(0x00)
    1677                      .dwattr $C$DW$219, DW_AT_TI_return
    1678 00000141 0006          LRETR     ; [CPU_] 
TMS320C2000 Assembler PC v6.4.11 Mon Oct 03 13:48:45 2016

Tools Copyright (c) 1996-2015 Texas Instruments Incorporated
C:\Users\bee25\AppData\Local\Temp\1032410                            PAGE   34

    1679                      ; return occurs ; [] 
    1680                      .dwattr $C$DW$208, DW_AT_TI_end_file("C:/ti/motorware/motorware_1_01_00_16/sw/modules/hal/boards/boos
    1681                      .dwattr $C$DW$208, DW_AT_TI_end_line(0x234)
    1682                      .dwattr $C$DW$208, DW_AT_TI_end_column(0x01)
    1683                      .dwendentry
    1684                      .dwendtag $C$DW$208
    1685              
    1686 00000000               .sect   "ramfuncs:retain"
    1687                      .retain
    1688                      .retainrefs
    1689                      .global _mainISR
    1690              
    1691              $C$DW$220       .dwtag  DW_TAG_subprogram, DW_AT_name("mainISR")
    1692                      .dwattr $C$DW$220, DW_AT_low_pc(_mainISR)
    1693                      .dwattr $C$DW$220, DW_AT_high_pc(0x00)
    1694                      .dwattr $C$DW$220, DW_AT_TI_symbol_name("_mainISR")
    1695                      .dwattr $C$DW$220, DW_AT_external
    1696                      .dwattr $C$DW$220, DW_AT_TI_begin_file("C:/ti/motorware/motorware_1_01_00_16/sw/solutions/instaspin_f
    1697                      .dwattr $C$DW$220, DW_AT_TI_begin_line(0x209)
    1698                      .dwattr $C$DW$220, DW_AT_TI_begin_column(0x10)
    1699                      .dwattr $C$DW$220, DW_AT_TI_interrupt
    1700                      .dwattr $C$DW$220, DW_AT_TI_max_frame_size(-26)
    1701                      .dwpsn  file "C:/ti/motorware/motorware_1_01_00_16/sw/solutions/instaspin_foc/src/proj_lab03b.c",line
    1702              
    1703                      .dwfde $C$DW$CIE, _mainISR
    1704              
    1705              ;***************************************************************
    1706              ;* FNAME: _mainISR                      FR SIZE:  24           *
    1707              ;*                                                             *
    1708              ;* FUNCTION ENVIRONMENT                                        *
    1709              ;*                                                             *
    1710              ;* FUNCTION PROPERTIES                                         *
    1711              ;*                            4 Parameter,  4 Auto, 16 SOE     *
    1712              ;***************************************************************
    1713              
    1714              _mainISR:
    1715              ;* AR5   assigned to $O$C1
    1716              ;* AR1   assigned to $O$C2
    1717              ;* AR1   assigned to $O$C3
    1718              ;* AR4   assigned to $O$v3
    1719              ;* AR4   assigned to $O$v2
    1720              ;* AR6   assigned to $O$v1
    1721              $C$DW$221       .dwtag  DW_TAG_variable, DW_AT_name("cnt_z1")
    1722                      .dwattr $C$DW$221, DW_AT_TI_symbol_name("_cnt_z1")
    1723                      .dwattr $C$DW$221, DW_AT_type(*$C$DW$T$38)
    1724                      .dwattr $C$DW$221, DW_AT_location[DW_OP_breg20 -6]
    1725              ;* AR1   assigned to _cnt_z0
    1726              $C$DW$222       .dwtag  DW_TAG_variable, DW_AT_name("cnt_z0")
    1727                      .dwattr $C$DW$222, DW_AT_TI_symbol_name("_cnt_z0")
    1728                      .dwattr $C$DW$222, DW_AT_type(*$C$DW$T$38)
    1729                      .dwattr $C$DW$222, DW_AT_location[DW_OP_reg6]
    1730              ;* AR0   assigned to _deltaCnt
    1731              $C$DW$223       .dwtag  DW_TAG_variable, DW_AT_name("deltaCnt")
    1732                      .dwattr $C$DW$223, DW_AT_TI_symbol_name("_deltaCnt")
    1733                      .dwattr $C$DW$223, DW_AT_type(*$C$DW$T$38)
TMS320C2000 Assembler PC v6.4.11 Mon Oct 03 13:48:45 2016

Tools Copyright (c) 1996-2015 Texas Instruments Incorporated
C:\Users\bee25\AppData\Local\Temp\1032410                            PAGE   35

    1734                      .dwattr $C$DW$223, DW_AT_location[DW_OP_reg4]
    1735              ;* AR6   assigned to _flag_resetStats
    1736              $C$DW$224       .dwtag  DW_TAG_variable, DW_AT_name("flag_resetStats")
    1737                      .dwattr $C$DW$224, DW_AT_TI_symbol_name("_flag_resetStats")
    1738                      .dwattr $C$DW$224, DW_AT_type(*$C$DW$T$39)
    1739                      .dwattr $C$DW$224, DW_AT_location[DW_OP_reg16]
    1740              $C$DW$225       .dwtag  DW_TAG_variable, DW_AT_name("deltaCntAccNumMax")
    1741                      .dwattr $C$DW$225, DW_AT_TI_symbol_name("_deltaCntAccNumMax")
    1742                      .dwattr $C$DW$225, DW_AT_type(*$C$DW$T$38)
    1743                      .dwattr $C$DW$225, DW_AT_location[DW_OP_breg20 -8]
    1744              ;* AR5   assigned to _deltaCntAccNum
    1745              $C$DW$226       .dwtag  DW_TAG_variable, DW_AT_name("deltaCntAccNum")
    1746                      .dwattr $C$DW$226, DW_AT_TI_symbol_name("_deltaCntAccNum")
    1747                      .dwattr $C$DW$226, DW_AT_type(*$C$DW$T$38)
    1748                      .dwattr $C$DW$226, DW_AT_location[DW_OP_reg14]
    1749              ;* PL    assigned to _deltaCntAcc
    1750              $C$DW$227       .dwtag  DW_TAG_variable, DW_AT_name("deltaCntAcc")
    1751                      .dwattr $C$DW$227, DW_AT_TI_symbol_name("_deltaCntAcc")
    1752                      .dwattr $C$DW$227, DW_AT_type(*$C$DW$T$38)
    1753                      .dwattr $C$DW$227, DW_AT_location[DW_OP_reg2]
    1754              ;* AR2   assigned to _maxDeltaCntObserved
    1755              $C$DW$228       .dwtag  DW_TAG_variable, DW_AT_name("maxDeltaCntObserved")
    1756                      .dwattr $C$DW$228, DW_AT_TI_symbol_name("_maxDeltaCntObserved")
    1757                      .dwattr $C$DW$228, DW_AT_type(*$C$DW$T$38)
    1758                      .dwattr $C$DW$228, DW_AT_location[DW_OP_reg8]
    1759              ;* XT    assigned to _avgDeltaCntObserved
    1760              $C$DW$229       .dwtag  DW_TAG_variable, DW_AT_name("avgDeltaCntObserved")
    1761                      .dwattr $C$DW$229, DW_AT_TI_symbol_name("_avgDeltaCntObserved")
    1762                      .dwattr $C$DW$229, DW_AT_type(*$C$DW$T$38)
    1763                      .dwattr $C$DW$229, DW_AT_location[DW_OP_reg21]
    1764              ;* AR7   assigned to _minDeltaCntObserved
    1765              $C$DW$230       .dwtag  DW_TAG_variable, DW_AT_name("minDeltaCntObserved")
    1766                      .dwattr $C$DW$230, DW_AT_TI_symbol_name("_minDeltaCntObserved")
    1767                      .dwattr $C$DW$230, DW_AT_type(*$C$DW$T$38)
    1768                      .dwattr $C$DW$230, DW_AT_location[DW_OP_reg18]
    1769              ;* AR3   assigned to _timerPeriod
    1770              $C$DW$231       .dwtag  DW_TAG_variable, DW_AT_name("timerPeriod")
    1771                      .dwattr $C$DW$231, DW_AT_TI_symbol_name("_timerPeriod")
    1772                      .dwattr $C$DW$231, DW_AT_type(*$C$DW$T$38)
    1773                      .dwattr $C$DW$231, DW_AT_location[DW_OP_reg10]
    1774              ;* AR4   assigned to _handle
    1775              $C$DW$232       .dwtag  DW_TAG_variable, DW_AT_name("handle")
    1776                      .dwattr $C$DW$232, DW_AT_TI_symbol_name("_handle")
    1777                      .dwattr $C$DW$232, DW_AT_type(*$C$DW$T$230)
    1778                      .dwattr $C$DW$232, DW_AT_location[DW_OP_reg12]
    1779              ;* AR4   assigned to _handle
    1780              $C$DW$233       .dwtag  DW_TAG_variable, DW_AT_name("handle")
    1781                      .dwattr $C$DW$233, DW_AT_TI_symbol_name("_handle")
    1782                      .dwattr $C$DW$233, DW_AT_type(*$C$DW$T$230)
    1783                      .dwattr $C$DW$233, DW_AT_location[DW_OP_reg12]
    1784              ;* AL    assigned to _timerCnt
    1785              $C$DW$234       .dwtag  DW_TAG_variable, DW_AT_name("timerCnt")
    1786                      .dwattr $C$DW$234, DW_AT_TI_symbol_name("_timerCnt")
    1787                      .dwattr $C$DW$234, DW_AT_type(*$C$DW$T$38)
    1788                      .dwattr $C$DW$234, DW_AT_location[DW_OP_reg0]
TMS320C2000 Assembler PC v6.4.11 Mon Oct 03 13:48:45 2016

Tools Copyright (c) 1996-2015 Texas Instruments Incorporated
C:\Users\bee25\AppData\Local\Temp\1032410                            PAGE   36

    1789              ;* AR7   assigned to _period
    1790              $C$DW$235       .dwtag  DW_TAG_variable, DW_AT_name("period")
    1791                      .dwattr $C$DW$235, DW_AT_TI_symbol_name("_period")
    1792                      .dwattr $C$DW$235, DW_AT_type(*$C$DW$T$32)
    1793                      .dwattr $C$DW$235, DW_AT_location[DW_OP_reg18]
    1794              ;* AR7   assigned to _deltaCnt
    1795              $C$DW$236       .dwtag  DW_TAG_variable, DW_AT_name("deltaCnt")
    1796                      .dwattr $C$DW$236, DW_AT_TI_symbol_name("_deltaCnt")
    1797                      .dwattr $C$DW$236, DW_AT_type(*$C$DW$T$38)
    1798                      .dwattr $C$DW$236, DW_AT_location[DW_OP_reg18]
    1799              ;* AR0   assigned to _cnt_z1
    1800              $C$DW$237       .dwtag  DW_TAG_variable, DW_AT_name("cnt_z1")
    1801                      .dwattr $C$DW$237, DW_AT_TI_symbol_name("_cnt_z1")
    1802                      .dwattr $C$DW$237, DW_AT_type(*$C$DW$T$38)
    1803                      .dwattr $C$DW$237, DW_AT_location[DW_OP_reg4]
    1804              ;* AR2   assigned to _cnt_z0
    1805              $C$DW$238       .dwtag  DW_TAG_variable, DW_AT_name("cnt_z0")
    1806                      .dwattr $C$DW$238, DW_AT_TI_symbol_name("_cnt_z0")
    1807                      .dwattr $C$DW$238, DW_AT_type(*$C$DW$T$38)
    1808                      .dwattr $C$DW$238, DW_AT_location[DW_OP_reg8]
    1809              ;* XT    assigned to _minDeltaCnt
    1810              $C$DW$239       .dwtag  DW_TAG_variable, DW_AT_name("minDeltaCnt")
    1811                      .dwattr $C$DW$239, DW_AT_TI_symbol_name("_minDeltaCnt")
    1812                      .dwattr $C$DW$239, DW_AT_type(*$C$DW$T$38)
    1813                      .dwattr $C$DW$239, DW_AT_location[DW_OP_reg21]
    1814              ;* AR5   assigned to _maxDeltaCntObserved
    1815              $C$DW$240       .dwtag  DW_TAG_variable, DW_AT_name("maxDeltaCntObserved")
    1816                      .dwattr $C$DW$240, DW_AT_TI_symbol_name("_maxDeltaCntObserved")
    1817                      .dwattr $C$DW$240, DW_AT_type(*$C$DW$T$38)
    1818                      .dwattr $C$DW$240, DW_AT_location[DW_OP_reg14]
    1819              ;* PL    assigned to _maxDeltaCnt
    1820              $C$DW$241       .dwtag  DW_TAG_variable, DW_AT_name("maxDeltaCnt")
    1821                      .dwattr $C$DW$241, DW_AT_TI_symbol_name("_maxDeltaCnt")
    1822                      .dwattr $C$DW$241, DW_AT_type(*$C$DW$T$38)
    1823                      .dwattr $C$DW$241, DW_AT_location[DW_OP_reg2]
    1824              ;* AR7   assigned to _timerPeriod
    1825              $C$DW$242       .dwtag  DW_TAG_variable, DW_AT_name("timerPeriod")
    1826                      .dwattr $C$DW$242, DW_AT_TI_symbol_name("_timerPeriod")
    1827                      .dwattr $C$DW$242, DW_AT_type(*$C$DW$T$38)
    1828                      .dwattr $C$DW$242, DW_AT_location[DW_OP_reg18]
    1829              ;* AR4   assigned to _handle
    1830              $C$DW$243       .dwtag  DW_TAG_variable, DW_AT_name("handle")
    1831                      .dwattr $C$DW$243, DW_AT_TI_symbol_name("_handle")
    1832                      .dwattr $C$DW$243, DW_AT_type(*$C$DW$T$252)
    1833                      .dwattr $C$DW$243, DW_AT_location[DW_OP_reg12]
    1834              ;* AR4   assigned to _handle
    1835              $C$DW$244       .dwtag  DW_TAG_variable, DW_AT_name("handle")
    1836                      .dwattr $C$DW$244, DW_AT_TI_symbol_name("_handle")
    1837                      .dwattr $C$DW$244, DW_AT_type(*$C$DW$T$252)
    1838                      .dwattr $C$DW$244, DW_AT_location[DW_OP_reg12]
    1839              ;* AL    assigned to _timerCnt
    1840              $C$DW$245       .dwtag  DW_TAG_variable, DW_AT_name("timerCnt")
    1841                      .dwattr $C$DW$245, DW_AT_TI_symbol_name("_timerCnt")
    1842                      .dwattr $C$DW$245, DW_AT_type(*$C$DW$T$38)
    1843                      .dwattr $C$DW$245, DW_AT_location[DW_OP_reg0]
TMS320C2000 Assembler PC v6.4.11 Mon Oct 03 13:48:45 2016

Tools Copyright (c) 1996-2015 Texas Instruments Incorporated
C:\Users\bee25\AppData\Local\Temp\1032410                            PAGE   37

    1844              ;* AR4   assigned to _handle
    1845              $C$DW$246       .dwtag  DW_TAG_variable, DW_AT_name("handle")
    1846                      .dwattr $C$DW$246, DW_AT_TI_symbol_name("_handle")
    1847                      .dwattr $C$DW$246, DW_AT_type(*$C$DW$T$230)
    1848                      .dwattr $C$DW$246, DW_AT_location[DW_OP_reg12]
    1849              ;* AL    assigned to _timerCnt
    1850              $C$DW$247       .dwtag  DW_TAG_variable, DW_AT_name("timerCnt")
    1851                      .dwattr $C$DW$247, DW_AT_TI_symbol_name("_timerCnt")
    1852                      .dwattr $C$DW$247, DW_AT_type(*$C$DW$T$38)
    1853                      .dwattr $C$DW$247, DW_AT_location[DW_OP_reg0]
    1854              ;* AR1   assigned to $O$U92
    1855              ;* AR4   assigned to $O$U84
    1856                      .dwcfi  cfa_offset, -2
    1857                      .dwcfi  save_reg_to_mem, 26, 0
    1858 00000000 761B          ASP       ; [CPU_] 
    1859 00000001 0005          PUSH      AR1H:AR0H             ; [CPU_] 
    1860                      .dwcfi  save_reg_to_mem, 5, 2
    1861                      .dwcfi  save_reg_to_mem, 7, 3
    1862                      .dwcfi  cfa_offset, -4
    1863 00000002 ABBD          MOVL      *SP++,XT              ; [CPU_] 
    1864                      .dwcfi  save_reg_to_mem, 21, 4
    1865                      .dwcfi  save_reg_to_mem, 22, 5
    1866                      .dwcfi  cfa_offset, -6
    1867 00000003 AABD          MOVL      *SP++,XAR2            ; [CPU_] 
    1868                      .dwcfi  save_reg_to_mem, 8, 6
    1869                      .dwcfi  save_reg_to_mem, 9, 7
    1870                      .dwcfi  cfa_offset, -8
    1871 00000004 A2BD          MOVL      *SP++,XAR3            ; [CPU_] 
    1872                      .dwcfi  save_reg_to_mem, 10, 8
    1873                      .dwcfi  save_reg_to_mem, 11, 9
    1874                      .dwcfi  cfa_offset, -10
    1875 00000005 A8BD          MOVL      *SP++,XAR4            ; [CPU_] 
    1876                      .dwcfi  save_reg_to_mem, 12, 10
    1877                      .dwcfi  save_reg_to_mem, 13, 11
    1878                      .dwcfi  cfa_offset, -12
    1879 00000006 A0BD          MOVL      *SP++,XAR5            ; [CPU_] 
    1880                      .dwcfi  save_reg_to_mem, 14, 12
    1881                      .dwcfi  save_reg_to_mem, 15, 13
    1882                      .dwcfi  cfa_offset, -14
    1883 00000007 C2BD          MOVL      *SP++,XAR6            ; [CPU_] 
    1884                      .dwcfi  save_reg_to_mem, 16, 14
    1885                      .dwcfi  save_reg_to_mem, 17, 15
    1886                      .dwcfi  cfa_offset, -16
    1887 00000008 C3BD          MOVL      *SP++,XAR7            ; [CPU_] 
    1888                      .dwcfi  save_reg_to_mem, 18, 16
    1889                      .dwcfi  save_reg_to_mem, 19, 17
    1890                      .dwcfi  cfa_offset, -18
    1891 00000009 FE08          ADDB      SP,#8                 ; [CPU_U] 
    1892                      .dwcfi  cfa_offset, -26
    1893 0000000a FF69          SPM       0                     ; [CPU_] 
    1894 0000000b 2942          CLRC      PAGE0,OVM             ; [CPU_] 
    1895 0000000c 5616          CLRC      AMODE                 ; [CPU_] 
    1896 0000000d 761F-         MOVW      DP,#_halHandle        ; [CPU_U] 
         0000000e 0000 
    1897                      .dwpsn  file "C:/ti/motorware/motorware_1_01_00_16/sw/solutions/instaspin_foc/src/proj_lab03b.c",line
TMS320C2000 Assembler PC v6.4.11 Mon Oct 03 13:48:45 2016

Tools Copyright (c) 1996-2015 Texas Instruments Incorporated
C:\Users\bee25\AppData\Local\Temp\1032410                            PAGE   38

    1898 0000000f C400-         MOVL      XAR6,@_halHandle      ; [CPU_] |528| 
    1899                      .dwpsn  file "C:/ti/motorware/motorware_1_01_00_16/sw/modules/hal/boards/boostxldrv8301_revB/f28x/f28
    1900 00000010 D08C          MOVB      XAR0,#140             ; [CPU_] |630| 
    1901 00000011 8A96          MOVL      XAR4,*+XAR6[AR0]      ; [CPU_] |630| 
    1902              $C$DW$248       .dwtag  DW_TAG_TI_branch
    1903                      .dwattr $C$DW$248, DW_AT_low_pc(0x00)
    1904                      .dwattr $C$DW$248, DW_AT_name("_TIMER_getCount")
    1905                      .dwattr $C$DW$248, DW_AT_TI_call
    1906 00000012 7640'         LCR       #_TIMER_getCount      ; [CPU_] |630| 
         00000013 00CD 
    1907                      ; call occurs [#_TIMER_getCount] ; [] |630| 
    1908 00000014 761F-         MOVW      DP,#_cpu_usageHandle  ; [CPU_U] 
         00000015 0000 
    1909                      .dwpsn  file "C:/ti/motorware/motorware_1_01_00_16/sw/solutions/instaspin_foc/src/proj_lab03b.c",line
    1910 00000016 8A08-         MOVL      XAR4,@_cpu_usageHandle ; [CPU_] |529| 
    1911                      .dwpsn  file "C:/ti/motorware/motorware_1_01_00_16/sw/modules/cpu_usage/src/32b/cpu_usage.h",line 233
    1912 00000017 C5D4          MOVL      XAR7,*+XAR4[2]        ; [CPU_] |233| 
    1913                      .dwpsn  file "C:/ti/motorware/motorware_1_01_00_16/sw/modules/hal/boards/boostxldrv8301_revB/f28x/f28
    1914 00000018 D08A          MOVB      XAR0,#138             ; [CPU_] |630| 
    1915                      .dwpsn  file "C:/ti/motorware/motorware_1_01_00_16/sw/modules/cpu_usage/src/32b/cpu_usage.h",line 233
    1916 00000019 C3E4          MOVL      *+XAR4[4],XAR7        ; [CPU_] |233| 
    1917                      .dwpsn  file "C:/ti/motorware/motorware_1_01_00_16/sw/modules/cpu_usage/src/32b/cpu_usage.h",line 220
    1918 0000001a 1ED4          MOVL      *+XAR4[2],ACC         ; [CPU_] |220| 
    1919                      .dwpsn  file "C:/ti/motorware/motorware_1_01_00_16/sw/modules/hal/boards/boostxldrv8301_revB/f28x/f28
    1920 0000001b 8A96          MOVL      XAR4,*+XAR6[AR0]      ; [CPU_] |630| 
    1921              $C$DW$249       .dwtag  DW_TAG_TI_branch
    1922                      .dwattr $C$DW$249, DW_AT_low_pc(0x00)
    1923                      .dwattr $C$DW$249, DW_AT_name("_TIMER_getCount")
    1924                      .dwattr $C$DW$249, DW_AT_TI_call
    1925 0000001c 7640'         LCR       #_TIMER_getCount      ; [CPU_] |630| 
         0000001d 00CD 
    1926                      ; call occurs [#_TIMER_getCount] ; [] |630| 
    1927                      .dwpsn  file "C:/ti/motorware/motorware_1_01_00_16/sw/solutions/instaspin_foc/src/proj_lab03b.c",line
    1928 0000001e 8A1A-         MOVL      XAR4,@_femHandle      ; [CPU_] |534| 
    1929                      .dwpsn  file "C:/ti/motorware/motorware_1_01_00_16/sw/modules/fem/src/32b/fem.h",line 208,column 3,is
    1930 0000001f C5D4          MOVL      XAR7,*+XAR4[2]        ; [CPU_] |208| 
    1931                      .dwpsn  file "C:/ti/motorware/motorware_1_01_00_16/sw/modules/fem/src/32b/fem.h",line 133,column 3,is
    1932 00000020 D008          MOVB      XAR0,#8               ; [CPU_] |133| 
    1933                      .dwpsn  file "C:/ti/motorware/motorware_1_01_00_16/sw/modules/fem/src/32b/fem.h",line 208,column 3,is
    1934 00000021 C3E4          MOVL      *+XAR4[4],XAR7        ; [CPU_] |208| 
    1935                      .dwpsn  file "C:/ti/motorware/motorware_1_01_00_16/sw/modules/fem/src/32b/fem.h",line 195,column 3,is
    1936 00000022 1ED4          MOVL      *+XAR4[2],ACC         ; [CPU_] |195| 
    1937                      .dwpsn  file "C:/ti/motorware/motorware_1_01_00_16/sw/modules/fem/src/32b/fem.h",line 133,column 3,is
    1938 00000023 A394          MOVL      P,*+XAR4[AR0]         ; [CPU_] |133| 
    1939                      .dwpsn  file "C:/ti/motorware/motorware_1_01_00_16/sw/modules/fem/src/32b/fem.h",line 144,column 3,is
    1940 00000024 D00C          MOVB      XAR0,#12              ; [CPU_] |144| 
    1941 00000025 8394          MOVL      XAR5,*+XAR4[AR0]      ; [CPU_] |144| 
    1942                      .dwpsn  file "C:/ti/motorware/motorware_1_01_00_16/sw/modules/fem/src/32b/fem.h",line 155,column 3,is
    1943 00000026 D00A          MOVB      XAR0,#10              ; [CPU_] |155| 
    1944 00000027 8794          MOVL      XT,*+XAR4[AR0]        ; [CPU_] |155| 
    1945                      .dwpsn  file "C:/ti/motorware/motorware_1_01_00_16/sw/modules/fem/src/32b/fem.h",line 89,column 3,is_
    1946 00000028 8EE4          MOVL      XAR0,*+XAR4[4]        ; [CPU_] |89| 
    1947                      .dwpsn  file "C:/ti/motorware/motorware_1_01_00_16/sw/modules/fem/src/32b/fem.h",line 166,column 3,is
    1948 00000029 C5C4          MOVL      XAR7,*+XAR4[0]        ; [CPU_] |166| 
    1949                      .dwpsn  file "C:/ti/motorware/motorware_1_01_00_16/sw/modules/fem/src/32b/fem.h",line 78,column 3,is_
TMS320C2000 Assembler PC v6.4.11 Mon Oct 03 13:48:45 2016

Tools Copyright (c) 1996-2015 Texas Instruments Incorporated
C:\Users\bee25\AppData\Local\Temp\1032410                            PAGE   39

    1950 0000002a 86D4          MOVL      XAR2,*+XAR4[2]        ; [CPU_] |78| 
    1951                      .dwpsn  file "C:/ti/motorware/motorware_1_01_00_16/sw/modules/fem/src/32b/fem.h",line 89,column 3,is_
    1952 0000002b 3AA9          MOVL      ACC,XAR0              ; [CPU_] |89| 
    1953                      .dwpsn  file "C:/ti/motorware/motorware_1_01_00_16/sw/modules/fem/src/32b/fem.h",line 351,column 7,is
    1954 0000002c 0FA2          CMPL      ACC,XAR2              ; [CPU_] |351| 
    1955 0000002d 56C7          BF        $C$L1,HIS             ; [CPU_] |351| 
         0000002e 0004 
    1956                      ; branchcc occurs ; [] |351| 
    1957 0000002f 06A7          MOVL      ACC,XAR7              ; [CPU_] |351| 
    1958 00000030 07A0          ADDL      ACC,XAR0              ; [CPU_] |351| 
    1959 00000031       $C$L1:    
    1960 00000031 03A2          SUBL      ACC,XAR2              ; [CPU_] |351| 
    1961 00000032 0901          ADDB      ACC,#1                ; [CPU_] |351| 
    1962 00000033 1EA7          MOVL      XAR7,ACC              ; [CPU_] |351| 
    1963                      .dwpsn  file "C:/ti/motorware/motorware_1_01_00_16/sw/modules/fem/src/32b/fem.h",line 221,column 3,is
    1964 00000034 A0A9          MOVL      ACC,XAR5              ; [CPU_] |221| 
    1965 00000035 C3F4          MOVL      *+XAR4[6],XAR7        ; [CPU_] |221| 
    1966                      .dwpsn  file "C:/ti/motorware/motorware_1_01_00_16/sw/modules/fem/src/32b/fem.h",line 364,column 3,is
    1967 00000036 0FA7          CMPL      ACC,XAR7              ; [CPU_] |364| 
    1968 00000037 56C7          BF        $C$L2,HIS             ; [CPU_] |364| 
         00000038 0004 
    1969                      ; branchcc occurs ; [] |364| 
    1970                      .dwpsn  file "C:/ti/motorware/motorware_1_01_00_16/sw/modules/fem/src/32b/fem.h",line 273,column 3,is
    1971 00000039 D00C          MOVB      XAR0,#12              ; [CPU_] |273| 
    1972 0000003a C394          MOVL      *+XAR4[AR0],XAR7      ; [CPU_] |273| 
    1973 0000003b       $C$L2:    
    1974 0000003b ABA9          MOVL      ACC,XT                ; [CPU_] 
    1975                      .dwpsn  file "C:/ti/motorware/motorware_1_01_00_16/sw/modules/fem/src/32b/fem.h",line 372,column 3,is
    1976 0000003c 0FA7          CMPL      ACC,XAR7              ; [CPU_] |372| 
    1977 0000003d 56C6          BF        $C$L3,HI              ; [CPU_] |372| 
         0000003e 0009 
    1978                      ; branchcc occurs ; [] |372| 
    1979 0000003f A9A9          MOVL      ACC,P                 ; [CPU_] 
    1980 00000040 0FA7          CMPL      ACC,XAR7              ; [CPU_] |372| 
    1981 00000041 56C8          BF        $C$L3,LO              ; [CPU_] |372| 
         00000042 0005 
    1982                      ; branchcc occurs ; [] |372| 
    1983                      .dwpsn  file "C:/ti/motorware/motorware_1_01_00_16/sw/modules/fem/src/32b/fem.h",line 247,column 3,is
    1984 00000043 D010          MOVB      XAR0,#16              ; [CPU_] |247| 
    1985 00000044 2B94          MOV       *+XAR4[AR0],#0        ; [CPU_] |247| 
    1986                      .dwpsn  file "C:/ti/motorware/motorware_1_01_00_16/sw/modules/fem/src/32b/fem.h",line 249,column 3,is
    1987 00000045 6F08          B         $C$L4,UNC             ; [CPU_] |249| 
    1988                      ; branch occurs ; [] |249| 
    1989 00000046       $C$L3:    
    1990                      .dwpsn  file "C:/ti/motorware/motorware_1_01_00_16/sw/modules/fem/src/32b/fem.h",line 247,column 3,is
    1991 00000046 D010          MOVB      XAR0,#16              ; [CPU_] |247| 
    1992                      .dwpsn  file "C:/ti/motorware/motorware_1_01_00_16/sw/modules/fem/src/32b/fem.h",line 234,column 3,is
    1993 00000047 0201          MOVB      ACC,#1                ; [CPU_] |234| 
    1994                      .dwpsn  file "C:/ti/motorware/motorware_1_01_00_16/sw/modules/fem/src/32b/fem.h",line 247,column 3,is
    1995 00000048 56BF          MOVB      *+XAR4[AR0],#1,UNC    ; [CPU_] |247| 
         00000049 0194 
    1996                      .dwpsn  file "C:/ti/motorware/motorware_1_01_00_16/sw/modules/fem/src/32b/fem.h",line 234,column 3,is
    1997 0000004a DC0E          ADDB      XAR4,#14              ; [CPU_] |234| 
    1998 0000004b 5601          ADDL      *+XAR4[0],ACC         ; [CPU_] |234| 
         0000004c 00C4 
TMS320C2000 Assembler PC v6.4.11 Mon Oct 03 13:48:45 2016

Tools Copyright (c) 1996-2015 Texas Instruments Incorporated
C:\Users\bee25\AppData\Local\Temp\1032410                            PAGE   40

    1999 0000004d       $C$L4:    
    2000                      .dwpsn  file "C:/ti/motorware/motorware_1_01_00_16/sw/solutions/instaspin_foc/src/proj_lab03b.c",line
    2001 0000004d 0A00-         INC       @_gLEDcnt             ; [CPU_] |539| 
    2002 0000004e 9200-         MOV       AL,@_gLEDcnt          ; [CPU_] |539| 
    2003 0000004f 9CFF          ADDB      AL,#-1                ; [CPU_] |539| 
    2004 00000050 5242          CMPB      AL,#66                ; [CPU_] |539| 
    2005 00000051 56C9          BF        $C$L5,LOS             ; [CPU_] |539| 
         00000052 0003 
    2006                      ; branchcc occurs ; [] |539| 
    2007                      .dwpsn  file "C:/ti/motorware/motorware_1_01_00_16/sw/solutions/instaspin_foc/src/proj_lab03b.c",line
    2008 00000053 2B00-         MOV       @_gLEDcnt,#0          ; [CPU_] |542| 
    2009 00000054       $C$L5:    
    2010                      .dwpsn  file "C:/ti/motorware/motorware_1_01_00_16/sw/drivers/adc/src/32b/f28x/f2802x/adc.h",line 571
    2011 00000054 8F00          MOVL      XAR4,#26117           ; [CPU_U] |571| 
         00000055 6605 
    2012 00000056 A8A9          MOVL      ACC,XAR4              ; [CPU_] |571| 
    2013 00000057 07C6          ADDL      ACC,*+XAR6[0]         ; [CPU_] |571| 
    2014 00000058 8AA9          MOVL      XAR4,ACC              ; [CPU_] |571| 
    2015                      .dwpsn  file "C:/ti/motorware/motorware_1_01_00_16/sw/drivers/pie/src/32b/f28x/f2802x/pie.h",line 757
    2016 00000059 D078          MOVB      XAR0,#120             ; [CPU_] |757| 
    2017                      .dwpsn  file "C:/ti/motorware/motorware_1_01_00_16/sw/drivers/adc/src/32b/f28x/f2802x/adc.h",line 571
    2018 0000005a 56BF          MOVB      *+XAR4[0],#1,UNC      ; [CPU_] |571| 
         0000005b 01C4 
    2019                      .dwpsn  file "C:/ti/motorware/motorware_1_01_00_16/sw/drivers/pie/src/32b/f28x/f2802x/pie.h",line 757
    2020 0000005c 8A96          MOVL      XAR4,*+XAR6[AR0]      ; [CPU_] |757| 
    2021                      .dwpsn  file "C:/ti/motorware/motorware_1_01_00_16/sw/solutions/instaspin_foc/src/proj_lab03b.c",line
    2022 0000005d 8D40-         MOVL      XAR1,#_gAdcData       ; [CPU_U] |554| 
         0000005e 0028 
    2023 0000005f 83A1          MOVL      XAR5,XAR1             ; [CPU_] |554| 
    2024                      .dwpsn  file "C:/ti/motorware/motorware_1_01_00_16/sw/drivers/pie/src/32b/f28x/f2802x/pie.h",line 757
    2025 00000060 28CC          MOV       *+XAR4[1],#512        ; [CPU_] |757| 
         00000061 0200 
    2026                      .dwpsn  file "C:/ti/motorware/motorware_1_01_00_16/sw/solutions/instaspin_foc/src/proj_lab03b.c",line
    2027 00000062 8AA6          MOVL      XAR4,XAR6             ; [CPU_] |554| 
    2028              $C$DW$250       .dwtag  DW_TAG_TI_branch
    2029                      .dwattr $C$DW$250, DW_AT_low_pc(0x00)
    2030                      .dwattr $C$DW$250, DW_AT_name("_HAL_readAdcData")
    2031                      .dwattr $C$DW$250, DW_AT_TI_call
    2032 00000063 7640'         LCR       #_HAL_readAdcData     ; [CPU_] |554| 
         00000064 00D2 
    2033                      ; call occurs [#_HAL_readAdcData] ; [] |554| 
    2034                      .dwpsn  file "C:/ti/motorware/motorware_1_01_00_16/sw/solutions/instaspin_foc/src/proj_lab03b.c",line
    2035 00000065 B242          MOVL      *-SP[2],XAR1          ; [CPU_] |558| 
    2036 00000066 8A20-         MOVL      XAR4,@_ctrlHandle     ; [CPU_] |558| 
    2037 00000067 761F-         MOVW      DP,#_halHandle        ; [CPU_U] 
         00000068 0000 
    2038 00000069 8D40-         MOVL      XAR1,#_gPwmData       ; [CPU_U] |558| 
         0000006a 0022 
    2039 0000006b B244          MOVL      *-SP[4],XAR1          ; [CPU_] |558| 
    2040 0000006c 8300-         MOVL      XAR5,@_halHandle      ; [CPU_] |558| 
    2041              $C$DW$251       .dwtag  DW_TAG_TI_branch
    2042                      .dwattr $C$DW$251, DW_AT_low_pc(0x00)
    2043                      .dwattr $C$DW$251, DW_AT_name("_CTRL_run")
    2044                      .dwattr $C$DW$251, DW_AT_TI_call
    2045 0000006d 7640!         LCR       #_CTRL_run            ; [CPU_] |558| 
TMS320C2000 Assembler PC v6.4.11 Mon Oct 03 13:48:45 2016

Tools Copyright (c) 1996-2015 Texas Instruments Incorporated
C:\Users\bee25\AppData\Local\Temp\1032410                            PAGE   41

         0000006e 0000 
    2046                      ; call occurs [#_CTRL_run] ; [] |558| 
    2047 0000006f 761F-         MOVW      DP,#_halHandle        ; [CPU_U] 
         00000070 0000 
    2048 00000071 027C          MOVB      ACC,#124              ; [CPU_] 
    2049 00000072 BE02          MOVB      XAR6,#2               ; [CPU_] 
    2050 00000073 0700-         ADDL      ACC,@_halHandle       ; [CPU_] 
    2051 00000074 8AA9          MOVL      XAR4,ACC              ; [CPU_] 
    2052 00000075 3B01          SETC      SXM                   ; [CPU_] 
    2053 00000076       $C$L6:    
    2054                      .dwpsn  file "C:/ti/motorware/motorware_1_01_00_16/sw/drivers/pwm/src/32b/f28x/f2802x/pwm.h",line 171
    2055 00000076 FF2F          MOV       ACC,#-512 << 15       ; [CPU_] |1717| 
         00000077 FE00 
    2056 00000078 8781          MOVL      XT,*XAR1++            ; [CPU_] |1717| 
    2057                      .dwpsn  file "C:/ti/motorware/motorware_1_01_00_16/sw/modules/hal/boards/boostxldrv8301_revB/f28x/f28
    2058 00000079 8384          MOVL      XAR5,*XAR4++          ; [CPU_] |1089| 
    2059                      .dwpsn  file "C:/ti/motorware/motorware_1_01_00_16/sw/drivers/pwm/src/32b/f28x/f2802x/pwm.h",line 171
    2060 0000007a 5605          IMPYL     P,XT,ACC              ; [CPU_] |1717| 
         0000007b 00A9 
    2061 0000007c 5663          QMPYL     ACC,XT,ACC            ; [CPU_] |1717| 
         0000007d 00A9 
    2062 0000007e 56A7          LSL64     ACC:P,#8              ; [CPU_] |1717| 
    2063 0000007f 2BAB          MOV       PL,#0                 ; [CPU_] |1717| 
    2064 00000080 28AA          MOV       PH,#128               ; [CPU_] |1717| 
         00000081 0080 
    2065 00000082 A9A0          MOVL      XAR0,P                ; [CPU_] |1717| 
    2066                      .dwpsn  file "C:/ti/motorware/motorware_1_01_00_16/sw/modules/hal/boards/boostxldrv8301_revB/f28x/f28
    2067 00000083 80ED          MOVZ      AR7,*+XAR5[5]         ; [CPU_] |1089| 
    2068                      .dwpsn  file "C:/ti/motorware/motorware_1_01_00_16/sw/drivers/pwm/src/32b/f28x/f2802x/pwm.h",line 171
    2069 00000084 2BAB          MOV       PL,#0                 ; [CPU_] |1717| 
    2070 00000085 28AA          MOV       PH,#65408             ; [CPU_] |1717| 
         00000086 FF80 
    2071 00000087 5650          MINL      ACC,XAR0              ; [CPU_] |1717| 
         00000088 00A0 
    2072 00000089 5661          MAXL      ACC,P                 ; [CPU_] |1717| 
         0000008a 00AB 
    2073 0000008b D009          MOVB      XAR0,#9               ; [CPU_] |1717| 
    2074 0000008c FF1F          ADD       ACC,#256 << 15        ; [CPU_] |1717| 
         0000008d 0100 
    2075 0000008e 1EAC          MOVL      XT,ACC                ; [CPU_] |1717| 
    2076 0000008f 5605          IMPYL     P,XT,XAR7             ; [CPU_] |1717| 
         00000090 00A7 
    2077 00000091 5663          QMPYL     ACC,XT,XAR7           ; [CPU_] |1717| 
         00000092 00A7 
    2078 00000093 56A7          LSL64     ACC:P,#8              ; [CPU_] |1717| 
    2079 00000094 3100          MOV       P,#0                  ; [CPU_] |1717| 
    2080 00000095 5650          MINL      ACC,XAR7              ; [CPU_] |1717| 
         00000096 00A7 
    2081 00000097 5661          MAXL      ACC,P                 ; [CPU_] |1717| 
         00000098 00AB 
    2082 00000099 9695          MOV       *+XAR5[AR0],AL        ; [CPU_] |1717| 
    2083                      .dwpsn  file "C:/ti/motorware/motorware_1_01_00_16/sw/modules/hal/boards/boostxldrv8301_revB/f28x/f28
    2084 0000009a 000E          BANZ      $C$L6,AR6--           ; [CPU_] |1086| 
         0000009b FFDC 
    2085                      ; branchcc occurs ; [] |1086| 
TMS320C2000 Assembler PC v6.4.11 Mon Oct 03 13:48:45 2016

Tools Copyright (c) 1996-2015 Texas Instruments Incorporated
C:\Users\bee25\AppData\Local\Temp\1032410                            PAGE   42

    2086 0000009c 761F-         MOVW      DP,#_ctrlHandle       ; [CPU_U] 
         0000009d 0000 
    2087                      .dwpsn  file "C:/ti/motorware/motorware_1_01_00_16/sw/solutions/instaspin_foc/src/proj_lab03b.c",line
    2088 0000009e 8A20-         MOVL      XAR4,@_ctrlHandle     ; [CPU_] |566| 
    2089              $C$DW$252       .dwtag  DW_TAG_TI_branch
    2090                      .dwattr $C$DW$252, DW_AT_low_pc(0x00)
    2091                      .dwattr $C$DW$252, DW_AT_name("_CTRL_setup")
    2092                      .dwattr $C$DW$252, DW_AT_TI_call
    2093 0000009f 7640!         LCR       #_CTRL_setup          ; [CPU_] |566| 
         000000a0 0000 
    2094                      ; call occurs [#_CTRL_setup] ; [] |566| 
    2095 000000a1 761F-         MOVW      DP,#_halHandle        ; [CPU_U] 
         000000a2 0000 
    2096                      .dwpsn  file "C:/ti/motorware/motorware_1_01_00_16/sw/modules/hal/boards/boostxldrv8301_revB/f28x/f28
    2097 000000a3 028C          MOVB      ACC,#140              ; [CPU_] |630| 
    2098 000000a4 0700-         ADDL      ACC,@_halHandle       ; [CPU_] |630| 
    2099 000000a5 8AA9          MOVL      XAR4,ACC              ; [CPU_] |630| 
    2100 000000a6 8AC4          MOVL      XAR4,*+XAR4[0]        ; [CPU_] |630| 
    2101              $C$DW$253       .dwtag  DW_TAG_TI_branch
    2102                      .dwattr $C$DW$253, DW_AT_low_pc(0x00)
    2103                      .dwattr $C$DW$253, DW_AT_name("_TIMER_getCount")
    2104                      .dwattr $C$DW$253, DW_AT_TI_call
    2105 000000a7 7640'         LCR       #_TIMER_getCount      ; [CPU_] |630| 
         000000a8 00CD 
    2106                      ; call occurs [#_TIMER_getCount] ; [] |630| 
    2107 000000a9 761F-         MOVW      DP,#_cpu_usageHandle  ; [CPU_U] 
         000000aa 0000 
    2108                      .dwpsn  file "C:/ti/motorware/motorware_1_01_00_16/sw/solutions/instaspin_foc/src/proj_lab03b.c",line
    2109 000000ab 8A08-         MOVL      XAR4,@_cpu_usageHandle ; [CPU_] |571| 
    2110                      .dwpsn  file "C:/ti/motorware/motorware_1_01_00_16/sw/modules/cpu_usage/src/32b/cpu_usage.h",line 233
    2111 000000ac C4D4          MOVL      XAR6,*+XAR4[2]        ; [CPU_] |233| 
    2112                      .dwpsn  file "C:/ti/motorware/motorware_1_01_00_16/sw/modules/cpu_usage/src/32b/cpu_usage.h",line 156
    2113 000000ad D00E          MOVB      XAR0,#14              ; [CPU_] |156| 
    2114                      .dwpsn  file "C:/ti/motorware/motorware_1_01_00_16/sw/modules/cpu_usage/src/32b/cpu_usage.h",line 233
    2115 000000ae C2E4          MOVL      *+XAR4[4],XAR6        ; [CPU_] |233| 
    2116                      .dwpsn  file "C:/ti/motorware/motorware_1_01_00_16/sw/modules/cpu_usage/src/32b/cpu_usage.h",line 220
    2117 000000af 1ED4          MOVL      *+XAR4[2],ACC         ; [CPU_] |220| 
    2118                      .dwpsn  file "C:/ti/motorware/motorware_1_01_00_16/sw/modules/cpu_usage/src/32b/cpu_usage.h",line 156
    2119 000000b0 C594          MOVL      XAR7,*+XAR4[AR0]      ; [CPU_] |156| 
    2120                      .dwpsn  file "C:/ti/motorware/motorware_1_01_00_16/sw/modules/cpu_usage/src/32b/cpu_usage.h",line 79,
    2121 000000b1 82C4          MOVL      XAR3,*+XAR4[0]        ; [CPU_] |79| 
    2122                      .dwpsn  file "C:/ti/motorware/motorware_1_01_00_16/sw/modules/cpu_usage/src/32b/cpu_usage.h",line 167
    2123 000000b2 D010          MOVB      XAR0,#16              ; [CPU_] |167| 
    2124 000000b3 8794          MOVL      XT,*+XAR4[AR0]        ; [CPU_] |167| 
    2125                      .dwpsn  file "C:/ti/motorware/motorware_1_01_00_16/sw/modules/cpu_usage/src/32b/cpu_usage.h",line 178
    2126 000000b4 D012          MOVB      XAR0,#18              ; [CPU_] |178| 
    2127 000000b5 8694          MOVL      XAR2,*+XAR4[AR0]      ; [CPU_] |178| 
    2128                      .dwpsn  file "C:/ti/motorware/motorware_1_01_00_16/sw/modules/cpu_usage/src/32b/cpu_usage.h",line 123
    2129 000000b6 D008          MOVB      XAR0,#8               ; [CPU_] |123| 
    2130 000000b7 A394          MOVL      P,*+XAR4[AR0]         ; [CPU_] |123| 
    2131                      .dwpsn  file "C:/ti/motorware/motorware_1_01_00_16/sw/modules/cpu_usage/src/32b/cpu_usage.h",line 134
    2132 000000b8 D00A          MOVB      XAR0,#10              ; [CPU_] |134| 
    2133 000000b9 8394          MOVL      XAR5,*+XAR4[AR0]      ; [CPU_] |134| 
    2134                      .dwpsn  file "C:/ti/motorware/motorware_1_01_00_16/sw/modules/cpu_usage/src/32b/cpu_usage.h",line 145
    2135 000000ba D00C          MOVB      XAR0,#12              ; [CPU_] |145| 
TMS320C2000 Assembler PC v6.4.11 Mon Oct 03 13:48:45 2016

Tools Copyright (c) 1996-2015 Texas Instruments Incorporated
C:\Users\bee25\AppData\Local\Temp\1032410                            PAGE   43

    2136 000000bb 0694          MOVL      ACC,*+XAR4[AR0]       ; [CPU_] |145| 
    2137 000000bc 1E48          MOVL      *-SP[8],ACC           ; [CPU_] |145| 
    2138                      .dwpsn  file "C:/ti/motorware/motorware_1_01_00_16/sw/modules/cpu_usage/src/32b/cpu_usage.h",line 90,
    2139 000000bd 8BD4          MOVL      XAR1,*+XAR4[2]        ; [CPU_] |90| 
    2140                      .dwpsn  file "C:/ti/motorware/motorware_1_01_00_16/sw/modules/cpu_usage/src/32b/cpu_usage.h",line 189
    2141 000000be D014          MOVB      XAR0,#20              ; [CPU_] |189| 
    2142                      .dwpsn  file "C:/ti/motorware/motorware_1_01_00_16/sw/modules/cpu_usage/src/32b/cpu_usage.h",line 101
    2143 000000bf 06E4          MOVL      ACC,*+XAR4[4]         ; [CPU_] |101| 
    2144 000000c0 1E46          MOVL      *-SP[6],ACC           ; [CPU_] |101| 
    2145                      .dwpsn  file "C:/ti/motorware/motorware_1_01_00_16/sw/modules/cpu_usage/src/32b/cpu_usage.h",line 376
    2146 000000c1 0FA1          CMPL      ACC,XAR1              ; [CPU_] |376| 
    2147                      .dwpsn  file "C:/ti/motorware/motorware_1_01_00_16/sw/modules/cpu_usage/src/32b/cpu_usage.h",line 189
    2148 000000c2 8894          MOVZ      AR6,*+XAR4[AR0]       ; [CPU_] |189| 
    2149                      .dwpsn  file "C:/ti/motorware/motorware_1_01_00_16/sw/modules/cpu_usage/src/32b/cpu_usage.h",line 376
    2150 000000c3 56C7          BF        $C$L7,HIS             ; [CPU_] |376| 
         000000c4 0005 
    2151                      ; branchcc occurs ; [] |376| 
    2152 000000c5 8E46          MOVL      XAR0,*-SP[6]          ; [CPU_] |376| 
    2153 000000c6 A2A9          MOVL      ACC,XAR3              ; [CPU_] |376| 
    2154 000000c7 07A0          ADDL      ACC,XAR0              ; [CPU_] |376| 
    2155 000000c8       $C$L7:    
    2156 000000c8 03A1          SUBL      ACC,XAR1              ; [CPU_] |376| 
    2157 000000c9 0901          ADDB      ACC,#1                ; [CPU_] |376| 
    2158 000000ca 8EA9          MOVL      XAR0,ACC              ; [CPU_] |376| 
    2159                      .dwpsn  file "C:/ti/motorware/motorware_1_01_00_16/sw/modules/cpu_usage/src/32b/cpu_usage.h",line 390
    2160 000000cb DD01          ADDB      XAR5,#1               ; [CPU_] |390| 
    2161 000000cc 0648          MOVL      ACC,*-SP[8]           ; [CPU_] |390| 
    2162                      .dwpsn  file "C:/ti/motorware/motorware_1_01_00_16/sw/modules/cpu_usage/src/32b/cpu_usage.h",line 384
    2163 000000cd 5657          ADDUL     P,XAR0                ; [CPU_] |384| 
         000000ce 00A0 
    2164                      .dwpsn  file "C:/ti/motorware/motorware_1_01_00_16/sw/modules/cpu_usage/src/32b/cpu_usage.h",line 390
    2165 000000cf 0FA5          CMPL      ACC,XAR5              ; [CPU_] |390| 
    2166 000000d0 56C6          BF        $C$L8,HI              ; [CPU_] |390| 
         000000d1 0009 
    2167                      ; branchcc occurs ; [] |390| 
    2168                      .dwpsn  file "C:/ti/motorware/motorware_1_01_00_16/sw/modules/cpu_usage/src/32b/cpu_usage.h",line 393
    2169 000000d2 0200          MOVB      ACC,#0                ; [CPU_] |393| 
    2170 000000d3 F61F          RPT       #31
    2171 000000d4 5617  ||     SUBCUL    ACC,XAR5              ; [CPU_] |393| 
         000000d5 00A5 
    2172                      .dwpsn  file "C:/ti/motorware/motorware_1_01_00_16/sw/modules/cpu_usage/src/32b/cpu_usage.h",line 397
    2173 000000d6 D500          MOVB      XAR5,#0               ; [CPU_] |397| 
    2174                      .dwpsn  file "C:/ti/motorware/motorware_1_01_00_16/sw/modules/cpu_usage/src/32b/cpu_usage.h",line 393
    2175 000000d7 A9AC          MOVL      XT,P                  ; [CPU_] |393| 
    2176                      .dwpsn  file "C:/ti/motorware/motorware_1_01_00_16/sw/modules/cpu_usage/src/32b/cpu_usage.h",line 396
    2177 000000d8 3100          MOV       P,#0                  ; [CPU_] |396| 
    2178 000000d9       $C$L8:    
    2179 000000d9 06A7          MOVL      ACC,XAR7              ; [CPU_] 
    2180                      .dwpsn  file "C:/ti/motorware/motorware_1_01_00_16/sw/modules/cpu_usage/src/32b/cpu_usage.h",line 402
    2181 000000da 0FA0          CMPL      ACC,XAR0              ; [CPU_] |402| 
    2182 000000db 56C9          BF        $C$L9,LOS             ; [CPU_] |402| 
         000000dc 0003 
    2183                      ; branchcc occurs ; [] |402| 
    2184                      .dwpsn  file "C:/ti/motorware/motorware_1_01_00_16/sw/modules/cpu_usage/src/32b/cpu_usage.h",line 404
    2185 000000dd C5A0          MOVL      XAR7,XAR0             ; [CPU_] |404| 
TMS320C2000 Assembler PC v6.4.11 Mon Oct 03 13:48:45 2016

Tools Copyright (c) 1996-2015 Texas Instruments Incorporated
C:\Users\bee25\AppData\Local\Temp\1032410                            PAGE   44

    2186 000000de       $C$L9:    
    2187 000000de AAA9          MOVL      ACC,XAR2              ; [CPU_] 
    2188                      .dwpsn  file "C:/ti/motorware/motorware_1_01_00_16/sw/modules/cpu_usage/src/32b/cpu_usage.h",line 408
    2189 000000df 0FA0          CMPL      ACC,XAR0              ; [CPU_] |408| 
    2190 000000e0 56C7          BF        $C$L10,HIS            ; [CPU_] |408| 
         000000e1 0003 
    2191                      ; branchcc occurs ; [] |408| 
    2192                      .dwpsn  file "C:/ti/motorware/motorware_1_01_00_16/sw/modules/cpu_usage/src/32b/cpu_usage.h",line 410
    2193 000000e2 86A0          MOVL      XAR2,XAR0             ; [CPU_] |410| 
    2194 000000e3       $C$L10:    
    2195 000000e3 92A6          MOV       AL,AR6                ; [CPU_] 
    2196                      .dwpsn  file "C:/ti/motorware/motorware_1_01_00_16/sw/modules/cpu_usage/src/32b/cpu_usage.h",line 414
    2197 000000e4 EC09          BF        $C$L11,EQ             ; [CPU_] |414| 
    2198                      ; branchcc occurs ; [] |414| 
    2199                      .dwpsn  file "C:/ti/motorware/motorware_1_01_00_16/sw/modules/cpu_usage/src/32b/cpu_usage.h",line 424
    2200 000000e5 0200          MOVB      ACC,#0                ; [CPU_] |424| 
    2201                      .dwpsn  file "C:/ti/motorware/motorware_1_01_00_16/sw/modules/cpu_usage/src/32b/cpu_usage.h",line 423
    2202 000000e6 C5A3          MOVL      XAR7,XAR3             ; [CPU_] |423| 
    2203                      .dwpsn  file "C:/ti/motorware/motorware_1_01_00_16/sw/modules/cpu_usage/src/32b/cpu_usage.h",line 418
    2204 000000e7 D000          MOVB      XAR0,#0               ; [CPU_] |418| 
    2205                      .dwpsn  file "C:/ti/motorware/motorware_1_01_00_16/sw/modules/cpu_usage/src/32b/cpu_usage.h",line 420
    2206 000000e8 3100          MOV       P,#0                  ; [CPU_] |420| 
    2207                      .dwpsn  file "C:/ti/motorware/motorware_1_01_00_16/sw/modules/cpu_usage/src/32b/cpu_usage.h",line 421
    2208 000000e9 D500          MOVB      XAR5,#0               ; [CPU_] |421| 
    2209                      .dwpsn  file "C:/ti/motorware/motorware_1_01_00_16/sw/modules/cpu_usage/src/32b/cpu_usage.h",line 425
    2210 000000ea D200          MOVB      XAR2,#0               ; [CPU_] |425| 
    2211                      .dwpsn  file "C:/ti/motorware/motorware_1_01_00_16/sw/modules/cpu_usage/src/32b/cpu_usage.h",line 427
    2212 000000eb BE00          MOVB      XAR6,#0               ; [CPU_] |427| 
    2213                      .dwpsn  file "C:/ti/motorware/motorware_1_01_00_16/sw/modules/cpu_usage/src/32b/cpu_usage.h",line 424
    2214 000000ec 1EAC          MOVL      XT,ACC                ; [CPU_] |424| 
    2215 000000ed       $C$L11:    
    2216                      .dwpsn  file "C:/ti/motorware/motorware_1_01_00_16/sw/modules/cpu_usage/src/32b/cpu_usage.h",line 246
    2217 000000ed 3AF4          MOVL      *+XAR4[6],XAR0        ; [CPU_] |246| 
    2218                      .dwpsn  file "C:/ti/motorware/motorware_1_01_00_16/sw/modules/cpu_usage/src/32b/cpu_usage.h",line 259
    2219 000000ee D008          MOVB      XAR0,#8               ; [CPU_] |259| 
    2220 000000ef A994          MOVL      *+XAR4[AR0],P         ; [CPU_] |259| 
    2221                      .dwpsn  file "C:/ti/motorware/motorware_1_01_00_16/sw/modules/cpu_usage/src/32b/cpu_usage.h",line 272
    2222 000000f0 D00A          MOVB      XAR0,#10              ; [CPU_] |272| 
    2223 000000f1 A094          MOVL      *+XAR4[AR0],XAR5      ; [CPU_] |272| 
    2224                      .dwpsn  file "C:/ti/motorware/motorware_1_01_00_16/sw/modules/cpu_usage/src/32b/cpu_usage.h",line 298
    2225 000000f2 D00E          MOVB      XAR0,#14              ; [CPU_] |298| 
    2226 000000f3 C394          MOVL      *+XAR4[AR0],XAR7      ; [CPU_] |298| 
    2227                      .dwpsn  file "C:/ti/motorware/motorware_1_01_00_16/sw/modules/cpu_usage/src/32b/cpu_usage.h",line 311
    2228 000000f4 D010          MOVB      XAR0,#16              ; [CPU_] |311| 
    2229 000000f5 AB94          MOVL      *+XAR4[AR0],XT        ; [CPU_] |311| 
    2230                      .dwpsn  file "C:/ti/motorware/motorware_1_01_00_16/sw/modules/cpu_usage/src/32b/cpu_usage.h",line 324
    2231 000000f6 D012          MOVB      XAR0,#18              ; [CPU_] |324| 
    2232 000000f7 AA94          MOVL      *+XAR4[AR0],XAR2      ; [CPU_] |324| 
    2233                      .dwpsn  file "C:/ti/motorware/motorware_1_01_00_16/sw/modules/cpu_usage/src/32b/cpu_usage.h",line 337
    2234 000000f8 D014          MOVB      XAR0,#20              ; [CPU_] |337| 
    2235 000000f9 FE88          SUBB      SP,#8                 ; [CPU_U] 
    2236                      .dwcfi  cfa_offset, -18
    2237 000000fa 7E94          MOV       *+XAR4[AR0],AR6       ; [CPU_] |337| 
    2238 000000fb C5BE          MOVL      XAR7,*--SP            ; [CPU_] 
    2239                      .dwcfi  cfa_offset, -16
TMS320C2000 Assembler PC v6.4.11 Mon Oct 03 13:48:45 2016

Tools Copyright (c) 1996-2015 Texas Instruments Incorporated
C:\Users\bee25\AppData\Local\Temp\1032410                            PAGE   45

    2240                      .dwcfi  restore_reg, 18
    2241 000000fc C4BE          MOVL      XAR6,*--SP            ; [CPU_] 
    2242                      .dwcfi  cfa_offset, -14
    2243                      .dwcfi  restore_reg, 16
    2244 000000fd 83BE          MOVL      XAR5,*--SP            ; [CPU_] 
    2245                      .dwcfi  cfa_offset, -12
    2246                      .dwcfi  restore_reg, 14
    2247 000000fe 8ABE          MOVL      XAR4,*--SP            ; [CPU_] 
    2248                      .dwcfi  cfa_offset, -10
    2249                      .dwcfi  restore_reg, 12
    2250 000000ff 82BE          MOVL      XAR3,*--SP            ; [CPU_] 
    2251                      .dwcfi  cfa_offset, -8
    2252                      .dwcfi  restore_reg, 10
    2253 00000100 86BE          MOVL      XAR2,*--SP            ; [CPU_] 
    2254                      .dwcfi  cfa_offset, -6
    2255                      .dwcfi  restore_reg, 8
    2256 00000101 87BE          MOVL      XT,*--SP              ; [CPU_] 
    2257                      .dwcfi  cfa_offset, -4
    2258                      .dwcfi  restore_reg, 22
    2259                      .dwcfi  restore_reg, 21
    2260 00000102 0003          POP       AR1H:AR0H             ; [CPU_] 
    2261                      .dwcfi  cfa_offset, -2
    2262                      .dwcfi  restore_reg, 5
    2263                      .dwcfi  restore_reg, 7
    2264 00000103 7617          NASP      ; [CPU_] 
    2265              $C$DW$254       .dwtag  DW_TAG_TI_branch
    2266                      .dwattr $C$DW$254, DW_AT_low_pc(0x00)
    2267                      .dwattr $C$DW$254, DW_AT_TI_return
    2268 00000104 7602          IRET      ; [CPU_] 
    2269                      ; return occurs ; [] 
    2270                      .dwattr $C$DW$220, DW_AT_TI_end_file("C:/ti/motorware/motorware_1_01_00_16/sw/solutions/instaspin_foc
    2271                      .dwattr $C$DW$220, DW_AT_TI_end_line(0x243)
    2272                      .dwattr $C$DW$220, DW_AT_TI_end_column(0x01)
    2273                      .dwendentry
    2274                      .dwendtag $C$DW$220
    2275              
    2276 00000142               .sect   ".text"
    2277                      .clink
    2278                      .global _main
    2279              
    2280              $C$DW$255       .dwtag  DW_TAG_subprogram, DW_AT_name("main")
    2281                      .dwattr $C$DW$255, DW_AT_low_pc(_main)
    2282                      .dwattr $C$DW$255, DW_AT_high_pc(0x00)
    2283                      .dwattr $C$DW$255, DW_AT_TI_symbol_name("_main")
    2284                      .dwattr $C$DW$255, DW_AT_external
    2285                      .dwattr $C$DW$255, DW_AT_TI_begin_file("C:/ti/motorware/motorware_1_01_00_16/sw/solutions/instaspin_f
    2286                      .dwattr $C$DW$255, DW_AT_TI_begin_line(0x96)
    2287                      .dwattr $C$DW$255, DW_AT_TI_begin_column(0x06)
    2288                      .dwattr $C$DW$255, DW_AT_TI_max_frame_size(-22)
    2289                      .dwpsn  file "C:/ti/motorware/motorware_1_01_00_16/sw/solutions/instaspin_foc/src/proj_lab03b.c",line
    2290              
    2291                      .dwfde $C$DW$CIE, _main
    2292              
    2293              ;***************************************************************
    2294              ;* FNAME: _main                         FR SIZE:  20           *
TMS320C2000 Assembler PC v6.4.11 Mon Oct 03 13:48:45 2016

Tools Copyright (c) 1996-2015 Texas Instruments Incorporated
C:\Users\bee25\AppData\Local\Temp\1032410                            PAGE   46

    2295              ;*                                                             *
    2296              ;* FUNCTION ENVIRONMENT                                        *
    2297              ;*                                                             *
    2298              ;* FUNCTION PROPERTIES                                         *
    2299              ;*                            6 Parameter,  8 Auto,  6 SOE     *
    2300              ;***************************************************************
    2301              
    2302              _main:
    2303              ;* AR5   assigned to $O$C13
    2304              ;* AR4   assigned to $O$C14
    2305              ;* AR5   assigned to $O$C15
    2306              ;* AR7   assigned to $O$C16
    2307              ;* AR7   assigned to $O$C17
    2308              ;* AR7   assigned to $O$C19
    2309              ;* XT    assigned to $O$C20
    2310              ;* AR6   assigned to $O$C21
    2311              ;* AR6   assigned to $O$C22
    2312              ;* AR6   assigned to $O$C23
    2313              ;* AR1   assigned to $O$K32
    2314              ;* AR2   assigned to $O$K83
    2315              ;* AR5   assigned to _obj
    2316              $C$DW$256       .dwtag  DW_TAG_variable, DW_AT_name("obj")
    2317                      .dwattr $C$DW$256, DW_AT_TI_symbol_name("_obj")
    2318                      .dwattr $C$DW$256, DW_AT_type(*$C$DW$T$263)
    2319                      .dwattr $C$DW$256, DW_AT_location[DW_OP_reg14]
    2320              ;* AR6   assigned to _state
    2321              $C$DW$257       .dwtag  DW_TAG_variable, DW_AT_name("state")
    2322                      .dwattr $C$DW$257, DW_AT_TI_symbol_name("_state")
    2323                      .dwattr $C$DW$257, DW_AT_type(*$C$DW$T$39)
    2324                      .dwattr $C$DW$257, DW_AT_location[DW_OP_reg16]
    2325              ;* AL    assigned to _state
    2326              $C$DW$258       .dwtag  DW_TAG_variable, DW_AT_name("state")
    2327                      .dwattr $C$DW$258, DW_AT_TI_symbol_name("_state")
    2328                      .dwattr $C$DW$258, DW_AT_type(*$C$DW$T$39)
    2329                      .dwattr $C$DW$258, DW_AT_location[DW_OP_reg0]
    2330              ;* AR4   assigned to _obj
    2331              $C$DW$259       .dwtag  DW_TAG_variable, DW_AT_name("obj")
    2332                      .dwattr $C$DW$259, DW_AT_TI_symbol_name("_obj")
    2333                      .dwattr $C$DW$259, DW_AT_type(*$C$DW$T$263)
    2334                      .dwattr $C$DW$259, DW_AT_location[DW_OP_reg12]
    2335              ;* AH    assigned to _state
    2336              $C$DW$260       .dwtag  DW_TAG_variable, DW_AT_name("state")
    2337                      .dwattr $C$DW$260, DW_AT_TI_symbol_name("_state")
    2338                      .dwattr $C$DW$260, DW_AT_type(*$C$DW$T$39)
    2339                      .dwattr $C$DW$260, DW_AT_location[DW_OP_reg1]
    2340              ;* AR5   assigned to _obj
    2341              $C$DW$261       .dwtag  DW_TAG_variable, DW_AT_name("obj")
    2342                      .dwattr $C$DW$261, DW_AT_TI_symbol_name("_obj")
    2343                      .dwattr $C$DW$261, DW_AT_type(*$C$DW$T$263)
    2344                      .dwattr $C$DW$261, DW_AT_location[DW_OP_reg14]
    2345              ;* AR6   assigned to _handle
    2346              $C$DW$262       .dwtag  DW_TAG_variable, DW_AT_name("handle")
    2347                      .dwattr $C$DW$262, DW_AT_TI_symbol_name("_handle")
    2348                      .dwattr $C$DW$262, DW_AT_type(*$C$DW$T$265)
    2349                      .dwattr $C$DW$262, DW_AT_location[DW_OP_reg16]
TMS320C2000 Assembler PC v6.4.11 Mon Oct 03 13:48:45 2016

Tools Copyright (c) 1996-2015 Texas Instruments Incorporated
C:\Users\bee25\AppData\Local\Temp\1032410                            PAGE   47

    2350              ;* AR6   assigned to _obj
    2351              $C$DW$263       .dwtag  DW_TAG_variable, DW_AT_name("obj")
    2352                      .dwattr $C$DW$263, DW_AT_TI_symbol_name("_obj")
    2353                      .dwattr $C$DW$263, DW_AT_type(*$C$DW$T$263)
    2354                      .dwattr $C$DW$263, DW_AT_location[DW_OP_reg16]
    2355              ;* AR5   assigned to _obj
    2356              $C$DW$264       .dwtag  DW_TAG_variable, DW_AT_name("obj")
    2357                      .dwattr $C$DW$264, DW_AT_TI_symbol_name("_obj")
    2358                      .dwattr $C$DW$264, DW_AT_type(*$C$DW$T$263)
    2359                      .dwattr $C$DW$264, DW_AT_location[DW_OP_reg14]
    2360              ;* AL    assigned to _maxAccel_pu
    2361              $C$DW$265       .dwtag  DW_TAG_variable, DW_AT_name("maxAccel_pu")
    2362                      .dwattr $C$DW$265, DW_AT_TI_symbol_name("_maxAccel_pu")
    2363                      .dwattr $C$DW$265, DW_AT_type(*$C$DW$T$32)
    2364                      .dwattr $C$DW$265, DW_AT_location[DW_OP_reg0]
    2365              ;* AR6   assigned to _state
    2366              $C$DW$266       .dwtag  DW_TAG_variable, DW_AT_name("state")
    2367                      .dwattr $C$DW$266, DW_AT_TI_symbol_name("_state")
    2368                      .dwattr $C$DW$266, DW_AT_type(*$C$DW$T$39)
    2369                      .dwattr $C$DW$266, DW_AT_location[DW_OP_reg16]
    2370              ;* AR4   assigned to _obj
    2371              $C$DW$267       .dwtag  DW_TAG_variable, DW_AT_name("obj")
    2372                      .dwattr $C$DW$267, DW_AT_TI_symbol_name("_obj")
    2373                      .dwattr $C$DW$267, DW_AT_type(*$C$DW$T$263)
    2374                      .dwattr $C$DW$267, DW_AT_location[DW_OP_reg12]
    2375              $C$DW$268       .dwtag  DW_TAG_variable, DW_AT_name("ctrlState")
    2376                      .dwattr $C$DW$268, DW_AT_TI_symbol_name("_ctrlState")
    2377                      .dwattr $C$DW$268, DW_AT_type(*$C$DW$T$43)
    2378                      .dwattr $C$DW$268, DW_AT_location[DW_OP_breg20 -11]
    2379              ;* AL    assigned to _flag_ctrlStateChanged
    2380              $C$DW$269       .dwtag  DW_TAG_variable, DW_AT_name("flag_ctrlStateChanged")
    2381                      .dwattr $C$DW$269, DW_AT_TI_symbol_name("_flag_ctrlStateChanged")
    2382                      .dwattr $C$DW$269, DW_AT_type(*$C$DW$T$39)
    2383                      .dwattr $C$DW$269, DW_AT_location[DW_OP_reg0]
    2384              ;* AR3   assigned to _obj
    2385              $C$DW$270       .dwtag  DW_TAG_variable, DW_AT_name("obj")
    2386                      .dwattr $C$DW$270, DW_AT_TI_symbol_name("_obj")
    2387                      .dwattr $C$DW$270, DW_AT_type(*$C$DW$T$237)
    2388                      .dwattr $C$DW$270, DW_AT_location[DW_OP_reg10]
    2389              $C$DW$271       .dwtag  DW_TAG_variable, DW_AT_name("cnt")
    2390                      .dwattr $C$DW$271, DW_AT_TI_symbol_name("_cnt")
    2391                      .dwattr $C$DW$271, DW_AT_type(*$C$DW$T$33)
    2392                      .dwattr $C$DW$271, DW_AT_location[DW_OP_breg20 -12]
    2393              ;* T     assigned to _cnt
    2394              $C$DW$272       .dwtag  DW_TAG_variable, DW_AT_name("cnt")
    2395                      .dwattr $C$DW$272, DW_AT_TI_symbol_name("_cnt")
    2396                      .dwattr $C$DW$272, DW_AT_type(*$C$DW$T$33)
    2397                      .dwattr $C$DW$272, DW_AT_location[DW_OP_reg22]
    2398              ;* AL    assigned to _bias
    2399              $C$DW$273       .dwtag  DW_TAG_variable, DW_AT_name("bias")
    2400                      .dwattr $C$DW$273, DW_AT_TI_symbol_name("_bias")
    2401                      .dwattr $C$DW$273, DW_AT_type(*$C$DW$T$32)
    2402                      .dwattr $C$DW$273, DW_AT_location[DW_OP_reg0]
    2403              ;* AL    assigned to _bias
    2404              $C$DW$274       .dwtag  DW_TAG_variable, DW_AT_name("bias")
TMS320C2000 Assembler PC v6.4.11 Mon Oct 03 13:48:45 2016

Tools Copyright (c) 1996-2015 Texas Instruments Incorporated
C:\Users\bee25\AppData\Local\Temp\1032410                            PAGE   48

    2405                      .dwattr $C$DW$274, DW_AT_TI_symbol_name("_bias")
    2406                      .dwattr $C$DW$274, DW_AT_type(*$C$DW$T$32)
    2407                      .dwattr $C$DW$274, DW_AT_location[DW_OP_reg0]
    2408              ;* AR4   assigned to $O$v2
    2409              ;* AR4   assigned to $O$v3
    2410              ;* AR2   assigned to $O$K33
    2411              ;* AR2   assigned to $O$K33
    2412              ;* AR2   assigned to $O$K33
    2413              ;* AR6   assigned to $O$K33
    2414              ;* AR2   assigned to $O$K33
    2415              ;* AR2   assigned to $O$K33
    2416              ;* AR4   assigned to $O$v1
    2417              ;* AR4   assigned to $O$v1
    2418              ;* AR4   assigned to $O$v1
    2419              ;* AR4   assigned to $O$v1
    2420              ;* AR4   assigned to $O$v4
    2421              ;* AR4   assigned to $O$v4
    2422              ;* AR4   assigned to $O$v4
    2423              ;* AR4   assigned to $O$v4
    2424              ;* AR5   assigned to $O$v4
    2425              $C$DW$275       .dwtag  DW_TAG_variable, DW_AT_name("version")
    2426                      .dwattr $C$DW$275, DW_AT_TI_symbol_name("_version")
    2427                      .dwattr $C$DW$275, DW_AT_type(*$C$DW$T$41)
    2428                      .dwattr $C$DW$275, DW_AT_location[DW_OP_breg20 -10]
    2429                      .dwcfi  cfa_offset, -2
    2430                      .dwcfi  save_reg_to_mem, 26, 0
    2431 00000142 B2BD          MOVL      *SP++,XAR1            ; [CPU_] 
    2432                      .dwcfi  save_reg_to_mem, 7, 2
    2433                      .dwcfi  cfa_offset, -4
    2434 00000143 AABD          MOVL      *SP++,XAR2            ; [CPU_] 
    2435                      .dwcfi  save_reg_to_mem, 9, 4
    2436                      .dwcfi  cfa_offset, -6
    2437 00000144 A2BD          MOVL      *SP++,XAR3            ; [CPU_] 
    2438                      .dwcfi  save_reg_to_mem, 11, 6
    2439                      .dwcfi  cfa_offset, -8
    2440 00000145 FE0E          ADDB      SP,#14                ; [CPU_U] 
    2441                      .dwcfi  cfa_offset, -22
    2442                      .dwpsn  file "C:/ti/motorware/motorware_1_01_00_16/sw/solutions/instaspin_foc/src/proj_lab03b.c",line
    2443 00000146 8F00!         MOVL      XAR4,#_RamfuncsRunStart ; [CPU_U] |164| 
         00000147 0000 
    2444 00000148 8F40!         MOVL      XAR5,#_RamfuncsLoadEnd ; [CPU_U] |164| 
         00000149 0000 
    2445 0000014a A842          MOVL      *-SP[2],XAR4          ; [CPU_] |164| 
    2446 0000014b 8F00!         MOVL      XAR4,#_RamfuncsLoadStart ; [CPU_U] |164| 
         0000014c 0000 
    2447              $C$DW$276       .dwtag  DW_TAG_TI_branch
    2448                      .dwattr $C$DW$276, DW_AT_low_pc(0x00)
    2449                      .dwattr $C$DW$276, DW_AT_name("_memCopy")
    2450                      .dwattr $C$DW$276, DW_AT_TI_call
    2451 0000014d 7640!         LCR       #_memCopy             ; [CPU_] |164| 
         0000014e 0000 
    2452                      ; call occurs [#_memCopy] ; [] |164| 
    2453 0000014f 761F!         MOVW      DP,#_econst_start     ; [CPU_U] 
         00000150 0000 
    2454                      .dwpsn  file "C:/ti/motorware/motorware_1_01_00_16/sw/solutions/instaspin_foc/src/proj_lab03b.c",line
TMS320C2000 Assembler PC v6.4.11 Mon Oct 03 13:48:45 2016

Tools Copyright (c) 1996-2015 Texas Instruments Incorporated
C:\Users\bee25\AppData\Local\Temp\1032410                            PAGE   49

    2455 00000151 8A00!         MOVL      XAR4,@_econst_start   ; [CPU_] |168| 
    2456 00000152 761F!         MOVW      DP,#_econst_end       ; [CPU_U] 
         00000153 0000 
    2457 00000154 0EC4          MOVU      ACC,*+XAR4[0]         ; [CPU_] |168| 
    2458 00000155 8A00!         MOVL      XAR4,@_econst_end     ; [CPU_] |168| 
    2459 00000156 88C4          MOVZ      AR6,*+XAR4[0]         ; [CPU_] |168| 
    2460 00000157 0FA6          CMPL      ACC,XAR6              ; [CPU_] |168| 
    2461 00000158 EC0A          BF        $C$L12,EQ             ; [CPU_] |168| 
    2462                      ; branchcc occurs ; [] |168| 
    2463                      .dwpsn  file "C:/ti/motorware/motorware_1_01_00_16/sw/solutions/instaspin_foc/src/proj_lab03b.c",line
    2464 00000159 8F00!         MOVL      XAR4,#_econst_ram_load ; [CPU_U] |170| 
         0000015a 0000 
    2465 0000015b 8F40!         MOVL      XAR5,#_econst_end     ; [CPU_U] |170| 
         0000015c 0000 
    2466 0000015d A842          MOVL      *-SP[2],XAR4          ; [CPU_] |170| 
    2467 0000015e 8F00!         MOVL      XAR4,#_econst_start   ; [CPU_U] |170| 
         0000015f 0000 
    2468              $C$DW$277       .dwtag  DW_TAG_TI_branch
    2469                      .dwattr $C$DW$277, DW_AT_low_pc(0x00)
    2470                      .dwattr $C$DW$277, DW_AT_name("_memCopy")
    2471                      .dwattr $C$DW$277, DW_AT_TI_call
    2472 00000160 7640!         LCR       #_memCopy             ; [CPU_] |170| 
         00000161 0000 
    2473                      ; call occurs [#_memCopy] ; [] |170| 
    2474 00000162       $C$L12:    
    2475 00000162 761F!         MOVW      DP,#_switch_start     ; [CPU_U] 
         00000163 0000 
    2476                      .dwpsn  file "C:/ti/motorware/motorware_1_01_00_16/sw/solutions/instaspin_foc/src/proj_lab03b.c",line
    2477 00000164 8A00!         MOVL      XAR4,@_switch_start   ; [CPU_] |174| 
    2478 00000165 761F!         MOVW      DP,#_switch_end       ; [CPU_U] 
         00000166 0000 
    2479 00000167 0EC4          MOVU      ACC,*+XAR4[0]         ; [CPU_] |174| 
    2480 00000168 8A00!         MOVL      XAR4,@_switch_end     ; [CPU_] |174| 
    2481 00000169 88C4          MOVZ      AR6,*+XAR4[0]         ; [CPU_] |174| 
    2482 0000016a 0FA6          CMPL      ACC,XAR6              ; [CPU_] |174| 
    2483 0000016b EC0A          BF        $C$L13,EQ             ; [CPU_] |174| 
    2484                      ; branchcc occurs ; [] |174| 
    2485                      .dwpsn  file "C:/ti/motorware/motorware_1_01_00_16/sw/solutions/instaspin_foc/src/proj_lab03b.c",line
    2486 0000016c 8F00!         MOVL      XAR4,#_switch_ram_load ; [CPU_U] |176| 
         0000016d 0000 
    2487 0000016e 8F40!         MOVL      XAR5,#_switch_end     ; [CPU_U] |176| 
         0000016f 0000 
    2488 00000170 A842          MOVL      *-SP[2],XAR4          ; [CPU_] |176| 
    2489 00000171 8F00!         MOVL      XAR4,#_switch_start   ; [CPU_U] |176| 
         00000172 0000 
    2490              $C$DW$278       .dwtag  DW_TAG_TI_branch
    2491                      .dwattr $C$DW$278, DW_AT_low_pc(0x00)
    2492                      .dwattr $C$DW$278, DW_AT_name("_memCopy")
    2493                      .dwattr $C$DW$278, DW_AT_TI_call
    2494 00000173 7640!         LCR       #_memCopy             ; [CPU_] |176| 
         00000174 0000 
    2495                      ; call occurs [#_memCopy] ; [] |176| 
    2496 00000175       $C$L13:    
    2497                      .dwpsn  file "C:/ti/motorware/motorware_1_01_00_16/sw/solutions/instaspin_foc/src/proj_lab03b.c",line
    2498 00000175 8F00!         MOVL      XAR4,#_hal            ; [CPU_U] |183| 
TMS320C2000 Assembler PC v6.4.11 Mon Oct 03 13:48:45 2016

Tools Copyright (c) 1996-2015 Texas Instruments Incorporated
C:\Users\bee25\AppData\Local\Temp\1032410                            PAGE   50

         00000176 0000 
    2499 00000177 02C6          MOVB      ACC,#198              ; [CPU_] |183| 
    2500              $C$DW$279       .dwtag  DW_TAG_TI_branch
    2501                      .dwattr $C$DW$279, DW_AT_low_pc(0x00)
    2502                      .dwattr $C$DW$279, DW_AT_name("_HAL_init")
    2503                      .dwattr $C$DW$279, DW_AT_TI_call
    2504 00000178 7640!         LCR       #_HAL_init            ; [CPU_] |183| 
         00000179 0000 
    2505                      ; call occurs [#_HAL_init] ; [] |183| 
    2506                      .dwpsn  file "C:/ti/motorware/motorware_1_01_00_16/sw/solutions/instaspin_foc/src/proj_lab03b.c",line
    2507 0000017a 8D40-         MOVL      XAR1,#_gUserParams    ; [CPU_U] |187| 
         0000017b 0040 
    2508 0000017c 761F-         MOVW      DP,#_halHandle        ; [CPU_U] 
         0000017d 0000 
    2509                      .dwpsn  file "C:/ti/motorware/motorware_1_01_00_16/sw/solutions/instaspin_foc/src/proj_lab03b.c",line
    2510 0000017e A800-         MOVL      @_halHandle,XAR4      ; [CPU_] |183| 
    2511                      .dwpsn  file "C:/ti/motorware/motorware_1_01_00_16/sw/solutions/instaspin_foc/src/proj_lab03b.c",line
    2512 0000017f 8AA1          MOVL      XAR4,XAR1             ; [CPU_] |187| 
    2513              $C$DW$280       .dwtag  DW_TAG_TI_branch
    2514                      .dwattr $C$DW$280, DW_AT_low_pc(0x00)
    2515                      .dwattr $C$DW$280, DW_AT_name("_USER_checkForErrors")
    2516                      .dwattr $C$DW$280, DW_AT_TI_call
    2517 00000180 7640!         LCR       #_USER_checkForErrors ; [CPU_] |187| 
         00000181 0000 
    2518                      ; call occurs [#_USER_checkForErrors] ; [] |187| 
    2519                      .dwpsn  file "C:/ti/motorware/motorware_1_01_00_16/sw/solutions/instaspin_foc/src/proj_lab03b.c",line
    2520 00000182 8AA1          MOVL      XAR4,XAR1             ; [CPU_] |191| 
    2521              $C$DW$281       .dwtag  DW_TAG_TI_branch
    2522                      .dwattr $C$DW$281, DW_AT_low_pc(0x00)
    2523                      .dwattr $C$DW$281, DW_AT_name("_USER_getErrorCode")
    2524                      .dwattr $C$DW$281, DW_AT_TI_call
    2525 00000183 7640!         LCR       #_USER_getErrorCode   ; [CPU_] |191| 
         00000184 0000 
    2526                      ; call occurs [#_USER_getErrorCode] ; [] |191| 
    2527 00000185 8D80-         MOVL      XAR2,#_gMotorVars     ; [CPU_U] |191| 
         00000186 0080 
    2528 00000187 D00C          MOVB      XAR0,#12              ; [CPU_] |191| 
    2529 00000188 9692          MOV       *+XAR2[AR0],AL        ; [CPU_] |191| 
    2530                      .dwpsn  file "C:/ti/motorware/motorware_1_01_00_16/sw/solutions/instaspin_foc/src/proj_lab03b.c",line
    2531 00000189 D00C          MOVB      XAR0,#12              ; [CPU_] |195| 
    2532 0000018a 9292          MOV       AL,*+XAR2[AR0]        ; [CPU_] |195| 
    2533 0000018b 56C0          BF        $C$L34,NEQ            ; [CPU_] |195| 
         0000018c 02A4 
    2534                      ; branchcc occurs ; [] |195| 
    2535                      .dwpsn  file "C:/ti/motorware/motorware_1_01_00_16/sw/solutions/instaspin_foc/src/proj_lab03b.c",line
    2536 0000018d 8AA1          MOVL      XAR4,XAR1             ; [CPU_] |205| 
    2537              $C$DW$282       .dwtag  DW_TAG_TI_branch
    2538                      .dwattr $C$DW$282, DW_AT_low_pc(0x00)
    2539                      .dwattr $C$DW$282, DW_AT_name("_USER_setParams")
    2540                      .dwattr $C$DW$282, DW_AT_TI_call
    2541 0000018e 7640!         LCR       #_USER_setParams      ; [CPU_] |205| 
         0000018f 0000 
    2542                      ; call occurs [#_USER_setParams] ; [] |205| 
    2543 00000190 761F-         MOVW      DP,#_halHandle        ; [CPU_U] 
         00000191 0000 
TMS320C2000 Assembler PC v6.4.11 Mon Oct 03 13:48:45 2016

Tools Copyright (c) 1996-2015 Texas Instruments Incorporated
C:\Users\bee25\AppData\Local\Temp\1032410                            PAGE   51

    2544                      .dwpsn  file "C:/ti/motorware/motorware_1_01_00_16/sw/solutions/instaspin_foc/src/proj_lab03b.c",line
    2545 00000192 83A1          MOVL      XAR5,XAR1             ; [CPU_] |209| 
    2546 00000193 8A00-         MOVL      XAR4,@_halHandle      ; [CPU_] |209| 
    2547              $C$DW$283       .dwtag  DW_TAG_TI_branch
    2548                      .dwattr $C$DW$283, DW_AT_low_pc(0x00)
    2549                      .dwattr $C$DW$283, DW_AT_name("_HAL_setParams")
    2550                      .dwattr $C$DW$283, DW_AT_TI_call
    2551 00000194 7640!         LCR       #_HAL_setParams       ; [CPU_] |209| 
         00000195 0000 
    2552                      ; call occurs [#_HAL_setParams] ; [] |209| 
    2553                      .dwpsn  file "C:/ti/motorware/motorware_1_01_00_16/sw/solutions/instaspin_foc/src/proj_lab03b.c",line
    2554 00000196 D500          MOVB      XAR5,#0               ; [CPU_] |217| 
    2555 00000197 7680          MOVL      XAR6,#264             ; [CPU_U] |217| 
         00000198 0108 
    2556 00000199 8F00-         MOVL      XAR4,#_ctrl           ; [CPU_U] |217| 
         0000019a 0100 
    2557 0000019b 06A6          MOVL      ACC,XAR6              ; [CPU_] |217| 
    2558              $C$DW$284       .dwtag  DW_TAG_TI_branch
    2559                      .dwattr $C$DW$284, DW_AT_low_pc(0x00)
    2560                      .dwattr $C$DW$284, DW_AT_name("_CTRL_initCtrl")
    2561                      .dwattr $C$DW$284, DW_AT_TI_call
    2562 0000019c 7640!         LCR       #_CTRL_initCtrl       ; [CPU_] |217| 
         0000019d 0000 
    2563                      ; call occurs [#_CTRL_initCtrl] ; [] |217| 
    2564                      .dwpsn  file "C:/ti/motorware/motorware_1_01_00_16/sw/solutions/instaspin_foc/src/proj_lab03b.c",line
    2565 0000019e 5DAD          MOVZ      AR5,SP                ; [CPU_] |225| 
    2566 0000019f 761F-         MOVW      DP,#_ctrlHandle       ; [CPU_U] 
         000001a0 0000 
    2567                      .dwpsn  file "C:/ti/motorware/motorware_1_01_00_16/sw/solutions/instaspin_foc/src/proj_lab03b.c",line
    2568 000001a1 A820-         MOVL      @_ctrlHandle,XAR4     ; [CPU_] |217| 
    2569                      .dwpsn  file "C:/ti/motorware/motorware_1_01_00_16/sw/solutions/instaspin_foc/src/proj_lab03b.c",line
    2570 000001a2 DD8A          SUBB      XAR5,#10              ; [CPU_U] |225| 
    2571 000001a3 5DA5          MOVZ      AR5,AR5               ; [CPU_] |225| 
    2572              $C$DW$285       .dwtag  DW_TAG_TI_branch
    2573                      .dwattr $C$DW$285, DW_AT_low_pc(0x00)
    2574                      .dwattr $C$DW$285, DW_AT_name("_CTRL_getVersion")
    2575                      .dwattr $C$DW$285, DW_AT_TI_call
    2576 000001a4 7640!         LCR       #_CTRL_getVersion     ; [CPU_] |225| 
         000001a5 0000 
    2577                      ; call occurs [#_CTRL_getVersion] ; [] |225| 
    2578                      .dwpsn  file "C:/ti/motorware/motorware_1_01_00_16/sw/solutions/instaspin_foc/src/proj_lab03b.c",line
    2579 000001a6 5CAD          MOVZ      AR4,SP                ; [CPU_] |227| 
    2580 000001a7 DC8A          SUBB      XAR4,#10              ; [CPU_U] |227| 
    2581 000001a8 80A4          MOVZ      AR7,AR4               ; [CPU_] |227| 
    2582 000001a9 8AA2          MOVL      XAR4,XAR2             ; [CPU_] |227| 
    2583 000001aa 761F-         MOVW      DP,#_ctrlHandle       ; [CPU_U] 
         000001ab 0000 
    2584                      .dwpsn  file "C:/ti/motorware/motorware_1_01_00_16/sw/solutions/instaspin_foc/src/proj_lab03b.c",line
    2585 000001ac 83A1          MOVL      XAR5,XAR1             ; [CPU_] |232| 
    2586                      .dwpsn  file "C:/ti/motorware/motorware_1_01_00_16/sw/solutions/instaspin_foc/src/proj_lab03b.c",line
    2587 000001ad DC0D          ADDB      XAR4,#13              ; [CPU_] |227| 
    2588 000001ae F603          RPT       #3
    2589 000001af 2484  ||     PREAD     *XAR4++,*XAR7         ; [CPU_] |227| 
    2590                      .dwpsn  file "C:/ti/motorware/motorware_1_01_00_16/sw/solutions/instaspin_foc/src/proj_lab03b.c",line
    2591 000001b0 8A20-         MOVL      XAR4,@_ctrlHandle     ; [CPU_] |232| 
TMS320C2000 Assembler PC v6.4.11 Mon Oct 03 13:48:45 2016

Tools Copyright (c) 1996-2015 Texas Instruments Incorporated
C:\Users\bee25\AppData\Local\Temp\1032410                            PAGE   52

    2592              $C$DW$286       .dwtag  DW_TAG_TI_branch
    2593                      .dwattr $C$DW$286, DW_AT_low_pc(0x00)
    2594                      .dwattr $C$DW$286, DW_AT_name("_CTRL_setParams")
    2595                      .dwattr $C$DW$286, DW_AT_TI_call
    2596 000001b1 7640!         LCR       #_CTRL_setParams      ; [CPU_] |232| 
         000001b2 0000 
    2597                      ; call occurs [#_CTRL_setParams] ; [] |232| 
    2598                      .dwpsn  file "C:/ti/motorware/motorware_1_01_00_16/sw/solutions/instaspin_foc/src/proj_lab03b.c",line
    2599 000001b3 8F00-         MOVL      XAR4,#_fem            ; [CPU_U] |236| 
         000001b4 0040 
    2600 000001b5 0212          MOVB      ACC,#18               ; [CPU_] |236| 
    2601              $C$DW$287       .dwtag  DW_TAG_TI_branch
    2602                      .dwattr $C$DW$287, DW_AT_low_pc(0x00)
    2603                      .dwattr $C$DW$287, DW_AT_name("_FEM_init")
    2604                      .dwattr $C$DW$287, DW_AT_TI_call
    2605 000001b6 7640!         LCR       #_FEM_init            ; [CPU_] |236| 
         000001b7 0000 
    2606                      ; call occurs [#_FEM_init] ; [] |236| 
    2607                      .dwpsn  file "C:/ti/motorware/motorware_1_01_00_16/sw/solutions/instaspin_foc/src/proj_lab03b.c",line
    2608 000001b8 28A9          MOV       AL,#34560             ; [CPU_] |237| 
         000001b9 8700 
    2609 000001ba 28A8          MOV       AH,#915               ; [CPU_] |237| 
         000001bb 0393 
    2610 000001bc 761F-         MOVW      DP,#_femHandle        ; [CPU_U] 
         000001bd 0000 
    2611 000001be 1E42          MOVL      *-SP[2],ACC           ; [CPU_] |237| 
    2612 000001bf 28A9          MOV       AL,#20480             ; [CPU_] |237| 
         000001c0 5000 
    2613 000001c1 28A8          MOV       AH,#17872             ; [CPU_] |237| 
         000001c2 45D0 
    2614                      .dwpsn  file "C:/ti/motorware/motorware_1_01_00_16/sw/solutions/instaspin_foc/src/proj_lab03b.c",line
    2615 000001c3 A81A-         MOVL      @_femHandle,XAR4      ; [CPU_] |236| 
    2616                      .dwpsn  file "C:/ti/motorware/motorware_1_01_00_16/sw/solutions/instaspin_foc/src/proj_lab03b.c",line
    2617 000001c4 1E44          MOVL      *-SP[4],ACC           ; [CPU_] |237| 
    2618 000001c5 9A00          MOV       AL,#0                 ; [CPU_] |237| 
    2619 000001c6 28A8          MOV       AH,#17530             ; [CPU_] |237| 
         000001c7 447A 
    2620 000001c8 1E46          MOVL      *-SP[6],ACC           ; [CPU_] |237| 
    2621 000001c9 28A9          MOV       AL,#57792             ; [CPU_] |237| 
         000001ca E1C0 
    2622 000001cb 28A8          MOV       AH,#19556             ; [CPU_] |237| 
         000001cc 4C64 
    2623              $C$DW$288       .dwtag  DW_TAG_TI_branch
    2624                      .dwattr $C$DW$288, DW_AT_low_pc(0x00)
    2625                      .dwattr $C$DW$288, DW_AT_name("_FEM_setParams")
    2626                      .dwattr $C$DW$288, DW_AT_TI_call
    2627 000001cd 7640!         LCR       #_FEM_setParams       ; [CPU_] |237| 
         000001ce 0000 
    2628                      ; call occurs [#_FEM_setParams] ; [] |237| 
    2629                      .dwpsn  file "C:/ti/motorware/motorware_1_01_00_16/sw/solutions/instaspin_foc/src/proj_lab03b.c",line
    2630 000001cf 8F00-         MOVL      XAR4,#_cpu_usage      ; [CPU_U] |245| 
         000001d0 0052 
    2631 000001d1 0216          MOVB      ACC,#22               ; [CPU_] |245| 
    2632              $C$DW$289       .dwtag  DW_TAG_TI_branch
    2633                      .dwattr $C$DW$289, DW_AT_low_pc(0x00)
TMS320C2000 Assembler PC v6.4.11 Mon Oct 03 13:48:45 2016

Tools Copyright (c) 1996-2015 Texas Instruments Incorporated
C:\Users\bee25\AppData\Local\Temp\1032410                            PAGE   53

    2634                      .dwattr $C$DW$289, DW_AT_name("_CPU_USAGE_init")
    2635                      .dwattr $C$DW$289, DW_AT_TI_call
    2636 000001d2 7640!         LCR       #_CPU_USAGE_init      ; [CPU_] |245| 
         000001d3 0000 
    2637                      ; call occurs [#_CPU_USAGE_init] ; [] |245| 
    2638 000001d4 761F-         MOVW      DP,#_cpu_usageHandle  ; [CPU_U] 
         000001d5 0000 
    2639                      .dwpsn  file "C:/ti/motorware/motorware_1_01_00_16/sw/solutions/instaspin_foc/src/proj_lab03b.c",line
    2640 000001d6 8F40          MOVL      XAR5,#6666            ; [CPU_U] |246| 
         000001d7 1A0A 
    2641 000001d8 28A9          MOV       AL,#34560             ; [CPU_] |246| 
         000001d9 8700 
    2642 000001da 28A8          MOV       AH,#915               ; [CPU_] |246| 
         000001db 0393 
    2643                      .dwpsn  file "C:/ti/motorware/motorware_1_01_00_16/sw/solutions/instaspin_foc/src/proj_lab03b.c",line
    2644 000001dc A808-         MOVL      @_cpu_usageHandle,XAR4 ; [CPU_] |245| 
    2645                      .dwpsn  file "C:/ti/motorware/motorware_1_01_00_16/sw/solutions/instaspin_foc/src/proj_lab03b.c",line
    2646 000001dd A042          MOVL      *-SP[2],XAR5          ; [CPU_] |246| 
    2647              $C$DW$290       .dwtag  DW_TAG_TI_branch
    2648                      .dwattr $C$DW$290, DW_AT_low_pc(0x00)
    2649                      .dwattr $C$DW$290, DW_AT_name("_CPU_USAGE_setParams")
    2650                      .dwattr $C$DW$290, DW_AT_TI_call
    2651 000001de 7640!         LCR       #_CPU_USAGE_setParams ; [CPU_] |246| 
         000001df 0000 
    2652                      ; call occurs [#_CPU_USAGE_setParams] ; [] |246| 
    2653 000001e0 761F-         MOVW      DP,#_halHandle        ; [CPU_U] 
         000001e1 0000 
    2654                      .dwpsn  file "C:/ti/motorware/motorware_1_01_00_16/sw/solutions/instaspin_foc/src/proj_lab03b.c",line
    2655 000001e2 8A00-         MOVL      XAR4,@_halHandle      ; [CPU_] |252| 
    2656              $C$DW$291       .dwtag  DW_TAG_TI_branch
    2657                      .dwattr $C$DW$291, DW_AT_low_pc(0x00)
    2658                      .dwattr $C$DW$291, DW_AT_name("_HAL_setupFaults")
    2659                      .dwattr $C$DW$291, DW_AT_TI_call
    2660 000001e3 7640!         LCR       #_HAL_setupFaults     ; [CPU_] |252| 
         000001e4 0000 
    2661                      ; call occurs [#_HAL_setupFaults] ; [] |252| 
    2662 000001e5 761F-         MOVW      DP,#_halHandle        ; [CPU_U] 
         000001e6 0000 
    2663                      .dwpsn  file "C:/ti/motorware/motorware_1_01_00_16/sw/solutions/instaspin_foc/src/proj_lab03b.c",line
    2664 000001e7 8A00-         MOVL      XAR4,@_halHandle      ; [CPU_] |256| 
    2665 000001e8 7622   EALLOW
    2666                      .dwpsn  file "C:/ti/motorware/motorware_1_01_00_16/sw/modules/hal/boards/boostxldrv8301_revB/f28x/f28
    2667 000001e9 D078          MOVB      XAR0,#120             ; [CPU_] |492| 
    2668 000001ea 02F0          MOVB      ACC,#240              ; [CPU_] |492| 
    2669 000001eb 0794          ADDL      ACC,*+XAR4[AR0]       ; [CPU_] |492| 
    2670 000001ec 83A9          MOVL      XAR5,ACC              ; [CPU_] |492| 
    2671 000001ed 7680+         MOVL      XAR6,#_mainISR        ; [CPU_U] |492| 
         000001ee 0000 
    2672 000001ef C2C5          MOVL      *+XAR5[0],XAR6        ; [CPU_] |492| 
    2673 000001f0 761A   EDIS
    2674 000001f1 FF69          SPM       #0                    ; [CPU_] 
    2675                      .dwpsn  file "C:/ti/motorware/motorware_1_01_00_16/sw/solutions/instaspin_foc/src/proj_lab03b.c",line
    2676              $C$DW$292       .dwtag  DW_TAG_TI_branch
    2677                      .dwattr $C$DW$292, DW_AT_low_pc(0x00)
    2678                      .dwattr $C$DW$292, DW_AT_name("_HAL_enableAdcInts")
TMS320C2000 Assembler PC v6.4.11 Mon Oct 03 13:48:45 2016

Tools Copyright (c) 1996-2015 Texas Instruments Incorporated
C:\Users\bee25\AppData\Local\Temp\1032410                            PAGE   54

    2679                      .dwattr $C$DW$292, DW_AT_TI_call
    2680 000001f2 7640!         LCR       #_HAL_enableAdcInts   ; [CPU_] |259| 
         000001f3 0000 
    2681                      ; call occurs [#_HAL_enableAdcInts] ; [] |259| 
    2682 000001f4 761F-         MOVW      DP,#_halHandle        ; [CPU_U] 
         000001f5 0000 
    2683                      .dwpsn  file "C:/ti/motorware/motorware_1_01_00_16/sw/solutions/instaspin_foc/src/proj_lab03b.c",line
    2684 000001f6 8A00-         MOVL      XAR4,@_halHandle      ; [CPU_] |263| 
    2685                      .dwpsn  file "C:/ti/motorware/motorware_1_01_00_16/sw/drivers/timer/src/32b/f28x/f2802x/timer.h",line
    2686 000001f7 D08A          MOVB      XAR0,#138             ; [CPU_] |196| 
    2687 000001f8 8394          MOVL      XAR5,*+XAR4[AR0]      ; [CPU_] |196| 
    2688 000001f9 1AE5          OR        *+XAR5[4],#0x0020     ; [CPU_] |196| 
         000001fa 0020 
    2689                      .dwpsn  file "C:/ti/motorware/motorware_1_01_00_16/sw/solutions/instaspin_foc/src/proj_lab03b.c",line
    2690              $C$DW$293       .dwtag  DW_TAG_TI_branch
    2691                      .dwattr $C$DW$293, DW_AT_low_pc(0x00)
    2692                      .dwattr $C$DW$293, DW_AT_name("_HAL_enableGlobalInts")
    2693                      .dwattr $C$DW$293, DW_AT_TI_call
    2694 000001fb 7640!         LCR       #_HAL_enableGlobalInts ; [CPU_] |267| 
         000001fc 0000 
    2695                      ; call occurs [#_HAL_enableGlobalInts] ; [] |267| 
    2696 000001fd 761F-         MOVW      DP,#_halHandle        ; [CPU_U] 
         000001fe 0000 
    2697                      .dwpsn  file "C:/ti/motorware/motorware_1_01_00_16/sw/solutions/instaspin_foc/src/proj_lab03b.c",line
    2698 000001ff 8A00-         MOVL      XAR4,@_halHandle      ; [CPU_] |271| 
    2699              $C$DW$294       .dwtag  DW_TAG_TI_branch
    2700                      .dwattr $C$DW$294, DW_AT_low_pc(0x00)
    2701                      .dwattr $C$DW$294, DW_AT_name("_HAL_enableDebugInt")
    2702                      .dwattr $C$DW$294, DW_AT_TI_call
    2703 00000200 7640!         LCR       #_HAL_enableDebugInt  ; [CPU_] |271| 
         00000201 0000 
    2704                      ; call occurs [#_HAL_enableDebugInt] ; [] |271| 
    2705 00000202 761F-         MOVW      DP,#_halHandle        ; [CPU_U] 
         00000203 0000 
    2706                      .dwpsn  file "C:/ti/motorware/motorware_1_01_00_16/sw/solutions/instaspin_foc/src/proj_lab03b.c",line
    2707 00000204 8A00-         MOVL      XAR4,@_halHandle      ; [CPU_] |275| 
    2708                      .dwpsn  file "C:/ti/motorware/motorware_1_01_00_16/sw/modules/hal/boards/boostxldrv8301_revB/f28x/f28
    2709 00000205 83A4          MOVL      XAR5,XAR4             ; [CPU_] |255| 
    2710 00000206 DD7E          ADDB      XAR5,#126             ; [CPU_] |255| 
    2711 00000207 7622   EALLOW
    2712                      .dwpsn  file "C:/ti/motorware/motorware_1_01_00_16/sw/drivers/pwm/src/32b/f28x/f2802x/pwm.h",line 156
    2713 00000208 D07C          MOVB      XAR0,#124             ; [CPU_] |1567| 
    2714 00000209 0218          MOVB      ACC,#24               ; [CPU_] |1567| 
    2715 0000020a 0794          ADDL      ACC,*+XAR4[AR0]       ; [CPU_] |1567| 
    2716 0000020b 1EA6          MOVL      XAR6,ACC              ; [CPU_] |1567| 
    2717 0000020c 1AC6          OR        *+XAR6[0],#0x0004     ; [CPU_] |1567| 
         0000020d 0004 
    2718 0000020e 761A   EDIS
    2719 0000020f 7622   EALLOW
    2720 00000210 0218          MOVB      ACC,#24               ; [CPU_] |1567| 
    2721 00000211 07C5          ADDL      ACC,*+XAR5[0]         ; [CPU_] |1567| 
    2722 00000212 1EA6          MOVL      XAR6,ACC              ; [CPU_] |1567| 
    2723 00000213 1AC6          OR        *+XAR6[0],#0x0004     ; [CPU_] |1567| 
         00000214 0004 
    2724 00000215 761A   EDIS
TMS320C2000 Assembler PC v6.4.11 Mon Oct 03 13:48:45 2016

Tools Copyright (c) 1996-2015 Texas Instruments Incorporated
C:\Users\bee25\AppData\Local\Temp\1032410                            PAGE   55

    2725 00000216 7622   EALLOW
    2726 00000217 0218          MOVB      ACC,#24               ; [CPU_] |1567| 
    2727 00000218 07D5          ADDL      ACC,*+XAR5[2]         ; [CPU_] |1567| 
    2728 00000219 83A9          MOVL      XAR5,ACC              ; [CPU_] |1567| 
    2729 0000021a 1AC5          OR        *+XAR5[0],#0x0004     ; [CPU_] |1567| 
         0000021b 0004 
    2730 0000021c 761A   EDIS
    2731 0000021d FF69          SPM       #0                    ; [CPU_] 
    2732                      .dwpsn  file "C:/ti/motorware/motorware_1_01_00_16/sw/solutions/instaspin_foc/src/proj_lab03b.c",line
    2733              $C$DW$295       .dwtag  DW_TAG_TI_branch
    2734                      .dwattr $C$DW$295, DW_AT_low_pc(0x00)
    2735                      .dwattr $C$DW$295, DW_AT_name("_HAL_enableDrv")
    2736                      .dwattr $C$DW$295, DW_AT_TI_call
    2737 0000021e 7640!         LCR       #_HAL_enableDrv       ; [CPU_] |280| 
         0000021f 0000 
    2738                      ; call occurs [#_HAL_enableDrv] ; [] |280| 
    2739 00000220 761F-         MOVW      DP,#_halHandle        ; [CPU_U] 
         00000221 0000 
    2740                      .dwpsn  file "C:/ti/motorware/motorware_1_01_00_16/sw/solutions/instaspin_foc/src/proj_lab03b.c",line
    2741 00000222 8F40-         MOVL      XAR5,#_gDrvSpi8301Vars ; [CPU_U] |282| 
         00000223 0068 
    2742 00000224 8A00-         MOVL      XAR4,@_halHandle      ; [CPU_] |282| 
    2743              $C$DW$296       .dwtag  DW_TAG_TI_branch
    2744                      .dwattr $C$DW$296, DW_AT_low_pc(0x00)
    2745                      .dwattr $C$DW$296, DW_AT_name("_HAL_setupDrvSpi")
    2746                      .dwattr $C$DW$296, DW_AT_TI_call
    2747 00000225 7640!         LCR       #_HAL_setupDrvSpi     ; [CPU_] |282| 
         00000226 0000 
    2748                      ; call occurs [#_HAL_setupDrvSpi] ; [] |282| 
    2749 00000227 761F-         MOVW      DP,#_halHandle        ; [CPU_U] 
         00000228 0000 
    2750                      .dwpsn  file "C:/ti/motorware/motorware_1_01_00_16/sw/solutions/instaspin_foc/src/proj_lab03b.c",line
    2751 00000229 8A00-         MOVL      XAR4,@_halHandle      ; [CPU_] |292| 
    2752              $C$DW$297       .dwtag  DW_TAG_TI_branch
    2753                      .dwattr $C$DW$297, DW_AT_low_pc(0x00)
    2754                      .dwattr $C$DW$297, DW_AT_name("_HAL_setupI2C")
    2755                      .dwattr $C$DW$297, DW_AT_TI_call
    2756 0000022a 7640!         LCR       #_HAL_setupI2C        ; [CPU_] |292| 
         0000022b 0000 
    2757                      ; call occurs [#_HAL_setupI2C] ; [] |292| 
    2758 0000022c 761F-         MOVW      DP,#_ctrlHandle       ; [CPU_U] 
         0000022d 0000 
    2759                      .dwpsn  file "C:/ti/motorware/motorware_1_01_00_16/sw/modules/ctrl/src/32b/ctrl.h",line 1246,column 3
    2760 0000022e 02F1          MOVB      ACC,#241              ; [CPU_] |1246| 
    2761 0000022f 0720-         ADDL      ACC,@_ctrlHandle      ; [CPU_] |1246| 
    2762 00000230 8AA9          MOVL      XAR4,ACC              ; [CPU_] |1246| 
    2763 00000231 56BF          MOVB      *+XAR4[0],#1,UNC      ; [CPU_] |1246| 
         00000232 01C4 
    2764                      .dwpsn  file "C:/ti/motorware/motorware_1_01_00_16/sw/solutions/instaspin_foc/src/proj_lab03b.c",line
    2765              $C$DW$298       .dwtag  DW_TAG_TI_branch
    2766                      .dwattr $C$DW$298, DW_AT_low_pc(0x00)
    2767                      .dwattr $C$DW$298, DW_AT_name("_USER_computeFlux_pu_to_Wb_sf")
    2768                      .dwattr $C$DW$298, DW_AT_TI_call
    2769 00000233 7640!         LCR       #_USER_computeFlux_pu_to_Wb_sf ; [CPU_] |298| 
         00000234 0000 
TMS320C2000 Assembler PC v6.4.11 Mon Oct 03 13:48:45 2016

Tools Copyright (c) 1996-2015 Texas Instruments Incorporated
C:\Users\bee25\AppData\Local\Temp\1032410                            PAGE   56

    2770                      ; call occurs [#_USER_computeFlux_pu_to_Wb_sf] ; [] |298| 
    2771 00000235 761F-         MOVW      DP,#_gFlux_pu_to_Wb_sf ; [CPU_U] 
         00000236 0000 
    2772 00000237 1E0E-         MOVL      @_gFlux_pu_to_Wb_sf,ACC ; [CPU_] |298| 
    2773                      .dwpsn  file "C:/ti/motorware/motorware_1_01_00_16/sw/solutions/instaspin_foc/src/proj_lab03b.c",line
    2774              $C$DW$299       .dwtag  DW_TAG_TI_branch
    2775                      .dwattr $C$DW$299, DW_AT_low_pc(0x00)
    2776                      .dwattr $C$DW$299, DW_AT_name("_USER_computeFlux_pu_to_VpHz_sf")
    2777                      .dwattr $C$DW$299, DW_AT_TI_call
    2778 00000238 7640!         LCR       #_USER_computeFlux_pu_to_VpHz_sf ; [CPU_] |299| 
         00000239 0000 
    2779                      ; call occurs [#_USER_computeFlux_pu_to_VpHz_sf] ; [] |299| 
    2780 0000023a 761F-         MOVW      DP,#_gFlux_pu_to_VpHz_sf ; [CPU_U] 
         0000023b 0000 
    2781 0000023c 1E1E-         MOVL      @_gFlux_pu_to_VpHz_sf,ACC ; [CPU_] |299| 
    2782                      .dwpsn  file "C:/ti/motorware/motorware_1_01_00_16/sw/solutions/instaspin_foc/src/proj_lab03b.c",line
    2783              $C$DW$300       .dwtag  DW_TAG_TI_branch
    2784                      .dwattr $C$DW$300, DW_AT_low_pc(0x00)
    2785                      .dwattr $C$DW$300, DW_AT_name("_USER_computeTorque_Ls_Id_Iq_pu_to_Nm_sf")
    2786                      .dwattr $C$DW$300, DW_AT_TI_call
    2787 0000023d 7640!         LCR       #_USER_computeTorque_Ls_Id_Iq_pu_to_Nm_sf ; [CPU_] |300| 
         0000023e 0000 
    2788                      ; call occurs [#_USER_computeTorque_Ls_Id_Iq_pu_to_Nm_sf] ; [] |300| 
    2789 0000023f 761F-         MOVW      DP,#_gTorque_Ls_Id_Iq_pu_to_Nm_sf ; [CPU_U] 
         00000240 0000 
    2790 00000241 1E0A-         MOVL      @_gTorque_Ls_Id_Iq_pu_to_Nm_sf,ACC ; [CPU_] |300| 
    2791                      .dwpsn  file "C:/ti/motorware/motorware_1_01_00_16/sw/solutions/instaspin_foc/src/proj_lab03b.c",line
    2792              $C$DW$301       .dwtag  DW_TAG_TI_branch
    2793                      .dwattr $C$DW$301, DW_AT_low_pc(0x00)
    2794                      .dwattr $C$DW$301, DW_AT_name("_USER_computeTorque_Flux_Iq_pu_to_Nm_sf")
    2795                      .dwattr $C$DW$301, DW_AT_TI_call
    2796 00000242 7640!         LCR       #_USER_computeTorque_Flux_Iq_pu_to_Nm_sf ; [CPU_] |301| 
         00000243 0000 
    2797                      ; call occurs [#_USER_computeTorque_Flux_Iq_pu_to_Nm_sf] ; [] |301| 
    2798 00000244 761F-         MOVW      DP,#_gTorque_Flux_Iq_pu_to_Nm_sf ; [CPU_U] 
         00000245 0000 
    2799 00000246 1E12-         MOVL      @_gTorque_Flux_Iq_pu_to_Nm_sf,ACC ; [CPU_] |301| 
    2800                      .dwpsn  file "C:/ti/motorware/motorware_1_01_00_16/sw/solutions/instaspin_foc/src/proj_lab03b.c",line
    2801 00000247 2BFA          MOV       *+XAR2[7],#0          ; [CPU_] |305| 
    2802                      .dwpsn  file "C:/ti/motorware/motorware_1_01_00_16/sw/solutions/instaspin_foc/src/proj_lab03b.c",line
    2803 00000248 56BF          MOVB      *+XAR2[0],#1,UNC      ; [CPU_] |306| 
         00000249 01C2 
    2804 0000024a       $C$L14:    
    2805 0000024a 761F-         MOVW      DP,#_gMotorVars       ; [CPU_U] 
         0000024b 0002 
    2806                      .dwpsn  file "C:/ti/motorware/motorware_1_01_00_16/sw/solutions/instaspin_foc/src/proj_lab03b.c",line
    2807 0000024c 9200-         MOV       AL,@_gMotorVars       ; [CPU_] |311| 
    2808 0000024d ECFD          BF        $C$L14,EQ             ; [CPU_] |311| 
    2809                      ; branchcc occurs ; [] |311| 
    2810                      .dwpsn  file "C:/ti/motorware/motorware_1_01_00_16/sw/solutions/instaspin_foc/src/proj_lab03b.c",line
    2811 0000024e FFEF          B         $C$L33,UNC            ; [CPU_] |314| 
         0000024f 01B5 
    2812                      ; branch occurs ; [] |314| 
    2813 00000250       $C$L15:    
    2814 00000250 761F-         MOVW      DP,#_halHandle        ; [CPU_U] 
TMS320C2000 Assembler PC v6.4.11 Mon Oct 03 13:48:45 2016

Tools Copyright (c) 1996-2015 Texas Instruments Incorporated
C:\Users\bee25\AppData\Local\Temp\1032410                            PAGE   57

         00000251 0000 
    2815                      .dwpsn  file "C:/ti/motorware/motorware_1_01_00_16/sw/solutions/instaspin_foc/src/proj_lab03b.c",line
    2816 00000252 83A2          MOVL      XAR5,XAR2             ; [CPU_] |316| 
    2817 00000253 8A00-         MOVL      XAR4,@_halHandle      ; [CPU_] |316| 
    2818              $C$DW$302       .dwtag  DW_TAG_TI_branch
    2819                      .dwattr $C$DW$302, DW_AT_low_pc(0x00)
    2820                      .dwattr $C$DW$302, DW_AT_name("_HAL_calcSpeedkph")
    2821                      .dwattr $C$DW$302, DW_AT_TI_call
    2822 00000254 7640!         LCR       #_HAL_calcSpeedkph    ; [CPU_] |316| 
         00000255 0000 
    2823                      ; call occurs [#_HAL_calcSpeedkph] ; [] |316| 
    2824 00000256 761F-         MOVW      DP,#_speed            ; [CPU_U] 
         00000257 0000 
    2825 00000258 3B01          SETC      SXM                   ; [CPU_] 
    2826                      .dwpsn  file "C:/ti/motorware/motorware_1_01_00_16/sw/solutions/instaspin_foc/src/proj_lab03b.c",line
    2827 00000259 0A03-         INC       @_data                ; [CPU_] |317| 
    2828                      .dwpsn  file "C:/ti/motorware/motorware_1_01_00_16/sw/solutions/instaspin_foc/src/proj_lab03b.c",line
    2829 0000025a 85A9          MOV       ACC,AL                ; [CPU_] |316| 
    2830 0000025b 1E04-         MOVL      @_speed,ACC           ; [CPU_] |316| 
    2831                      .dwpsn  file "C:/ti/motorware/motorware_1_01_00_16/sw/solutions/instaspin_foc/src/proj_lab03b.c",line
    2832 0000025c 9203-         MOV       AL,@_data             ; [CPU_] |317| 
    2833 0000025d 52FA          CMPB      AL,#250               ; [CPU_] |317| 
    2834 0000025e 56C5          BF        $C$L16,LEQ            ; [CPU_] |317| 
         0000025f 0003 
    2835                      ; branchcc occurs ; [] |317| 
    2836                      .dwpsn  file "C:/ti/motorware/motorware_1_01_00_16/sw/solutions/instaspin_foc/src/proj_lab03b.c",line
    2837 00000260 2B03-         MOV       @_data,#0             ; [CPU_] |319| 
    2838 00000261       $C$L16:    
    2839 00000261 761F-         MOVW      DP,#_halHandle        ; [CPU_U] 
         00000262 0000 
    2840                      .dwpsn  file "C:/ti/motorware/motorware_1_01_00_16/sw/solutions/instaspin_foc/src/proj_lab03b.c",line
    2841 00000263 8A00-         MOVL      XAR4,@_halHandle      ; [CPU_] |321| 
    2842 00000264 761F-         MOVW      DP,#_data             ; [CPU_U] 
         00000265 0000 
    2843 00000266 9203-         MOV       AL,@_data             ; [CPU_] |321| 
    2844              $C$DW$303       .dwtag  DW_TAG_TI_branch
    2845                      .dwattr $C$DW$303, DW_AT_low_pc(0x00)
    2846                      .dwattr $C$DW$303, DW_AT_name("_HAL_i2ctest")
    2847                      .dwattr $C$DW$303, DW_AT_TI_call
    2848 00000267 7640!         LCR       #_HAL_i2ctest         ; [CPU_] |321| 
         00000268 0000 
    2849                      ; call occurs [#_HAL_i2ctest] ; [] |321| 
    2850 00000269 761F-         MOVW      DP,#_ctrlHandle       ; [CPU_U] 
         0000026a 0000 
    2851                      .dwpsn  file "C:/ti/motorware/motorware_1_01_00_16/sw/solutions/instaspin_foc/src/proj_lab03b.c",line
    2852 0000026b 8F00-         MOVL      XAR4,#_gAdcData       ; [CPU_U] |328| 
         0000026c 0028 
    2853                      .dwpsn  file "C:/ti/motorware/motorware_1_01_00_16/sw/solutions/instaspin_foc/src/proj_lab03b.c",line
    2854 0000026d 8220-         MOVL      XAR3,@_ctrlHandle     ; [CPU_] |322| 
    2855                      .dwpsn  file "C:/ti/motorware/motorware_1_01_00_16/sw/solutions/instaspin_foc/src/proj_lab03b.c",line
    2856 0000026e 0A02-         INC       @_gCounter_updateGlobals ; [CPU_] |325| 
    2857                      .dwpsn  file "C:/ti/motorware/motorware_1_01_00_16/sw/solutions/instaspin_foc/src/proj_lab03b.c",line
    2858 0000026f 83A2          MOVL      XAR5,XAR2             ; [CPU_] |328| 
    2859 00000270 A842          MOVL      *-SP[2],XAR4          ; [CPU_] |328| 
    2860 00000271 761F-         MOVW      DP,#_halHandle        ; [CPU_U] 
TMS320C2000 Assembler PC v6.4.11 Mon Oct 03 13:48:45 2016

Tools Copyright (c) 1996-2015 Texas Instruments Incorporated
C:\Users\bee25\AppData\Local\Temp\1032410                            PAGE   58

         00000272 0000 
    2861 00000273 8A00-         MOVL      XAR4,@_halHandle      ; [CPU_] |328| 
    2862              $C$DW$304       .dwtag  DW_TAG_TI_branch
    2863                      .dwattr $C$DW$304, DW_AT_low_pc(0x00)
    2864                      .dwattr $C$DW$304, DW_AT_name("_HAL_setSpeed")
    2865                      .dwattr $C$DW$304, DW_AT_TI_call
    2866 00000274 7640!         LCR       #_HAL_setSpeed        ; [CPU_] |328| 
         00000275 0000 
    2867                      ; call occurs [#_HAL_setSpeed] ; [] |328| 
    2868 00000276 761F-         MOVW      DP,#_ctrlHandle       ; [CPU_U] 
         00000277 0000 
    2869                      .dwpsn  file "C:/ti/motorware/motorware_1_01_00_16/sw/modules/ctrl/src/32b/ctrl.h",line 1304,column 3
    2870 00000278 02F5          MOVB      ACC,#245              ; [CPU_] |1304| 
    2871                      .dwpsn  file "C:/ti/motorware/motorware_1_01_00_16/sw/solutions/instaspin_foc/src/proj_lab03b.c",line
    2872 00000279 88F2          MOVZ      AR6,*+XAR2[6]         ; [CPU_] |350| 
    2873                      .dwpsn  file "C:/ti/motorware/motorware_1_01_00_16/sw/modules/ctrl/src/32b/ctrl.h",line 1304,column 3
    2874 0000027a 0720-         ADDL      ACC,@_ctrlHandle      ; [CPU_] |1304| 
    2875 0000027b 8AA9          MOVL      XAR4,ACC              ; [CPU_] |1304| 
    2876                      .dwpsn  file "C:/ti/motorware/motorware_1_01_00_16/sw/solutions/instaspin_foc/src/proj_lab03b.c",line
    2877 0000027c D018          MOVB      XAR0,#24              ; [CPU_] |353| 
    2878                      .dwpsn  file "C:/ti/motorware/motorware_1_01_00_16/sw/modules/ctrl/src/32b/ctrl.h",line 1304,column 3
    2879 0000027d 7EC4          MOV       *+XAR4[0],AR6         ; [CPU_] |1304| 
    2880                      .dwpsn  file "C:/ti/motorware/motorware_1_01_00_16/sw/solutions/instaspin_foc/src/proj_lab03b.c",line
    2881 0000027e 92EA          MOV       AL,*+XAR2[5]          ; [CPU_] |353| 
    2882 0000027f 8A93          MOVL      XAR4,*+XAR3[AR0]      ; [CPU_] |353| 
    2883              $C$DW$305       .dwtag  DW_TAG_TI_branch
    2884                      .dwattr $C$DW$305, DW_AT_low_pc(0x00)
    2885                      .dwattr $C$DW$305, DW_AT_name("_EST_setFlag_enableRsRecalc")
    2886                      .dwattr $C$DW$305, DW_AT_TI_call
    2887 00000280 7640!         LCR       #_EST_setFlag_enableRsRecalc ; [CPU_] |353| 
         00000281 0000 
    2888                      ; call occurs [#_EST_setFlag_enableRsRecalc] ; [] |353| 
    2889 00000282 761F-         MOVW      DP,#_ctrlHandle       ; [CPU_U] 
         00000283 0000 
    2890                      .dwpsn  file "C:/ti/motorware/motorware_1_01_00_16/sw/solutions/instaspin_foc/src/proj_lab03b.c",line
    2891 00000284 8A20-         MOVL      XAR4,@_ctrlHandle     ; [CPU_] |356| 
    2892                      .dwpsn  file "C:/ti/motorware/motorware_1_01_00_16/sw/modules/ctrl/src/32b/ctrl.h",line 1275,column 3
    2893 00000285 D0F3          MOVB      XAR0,#243             ; [CPU_] |1275| 
    2894                      .dwpsn  file "C:/ti/motorware/motorware_1_01_00_16/sw/solutions/instaspin_foc/src/proj_lab03b.c",line
    2895 00000286 92FA          MOV       AL,*+XAR2[7]          ; [CPU_] |356| 
    2896                      .dwpsn  file "C:/ti/motorware/motorware_1_01_00_16/sw/modules/ctrl/src/32b/ctrl.h",line 1275,column 3
    2897 00000287 9694          MOV       *+XAR4[AR0],AL        ; [CPU_] |1275| 
    2898                      .dwpsn  file "C:/ti/motorware/motorware_1_01_00_16/sw/modules/ctrl/src/32b/ctrl.h",line 1060,column 3
    2899 00000288 92E4          MOV       AL,*+XAR4[4]          ; [CPU_] |1060| 
    2900 00000289 56C1          BF        $C$L27,EQ             ; [CPU_] |1060| 
         0000028a 00EC 
    2901                      ; branchcc occurs ; [] |1060| 
    2902                      .dwpsn  file "C:/ti/motorware/motorware_1_01_00_16/sw/solutions/instaspin_foc/src/proj_lab03b.c",line
    2903              $C$DW$306       .dwtag  DW_TAG_TI_branch
    2904                      .dwattr $C$DW$306, DW_AT_low_pc(0x00)
    2905                      .dwattr $C$DW$306, DW_AT_name("_CTRL_updateState")
    2906                      .dwattr $C$DW$306, DW_AT_TI_call
    2907 0000028b 7640!         LCR       #_CTRL_updateState    ; [CPU_] |373| 
         0000028c 0000 
    2908                      ; call occurs [#_CTRL_updateState] ; [] |373| 
TMS320C2000 Assembler PC v6.4.11 Mon Oct 03 13:48:45 2016

Tools Copyright (c) 1996-2015 Texas Instruments Incorporated
C:\Users\bee25\AppData\Local\Temp\1032410                            PAGE   59

    2909 0000028d 761F-         MOVW      DP,#_ctrlHandle       ; [CPU_U] 
         0000028e 0000 
    2910                      .dwpsn  file "C:/ti/motorware/motorware_1_01_00_16/sw/solutions/instaspin_foc/src/proj_lab03b.c",line
    2911 0000028f 8A20-         MOVL      XAR4,@_ctrlHandle     ; [CPU_] |376| 
    2912 00000290 93CA          MOV       AH,*+XAR2[1]          ; [CPU_] |376| 
    2913                      .dwpsn  file "C:/ti/motorware/motorware_1_01_00_16/sw/modules/ctrl/src/32b/ctrl.h",line 1218,column 3
    2914 00000291 D0F0          MOVB      XAR0,#240             ; [CPU_] |1218| 
    2915                      .dwpsn  file "C:/ti/motorware/motorware_1_01_00_16/sw/solutions/instaspin_foc/src/proj_lab03b.c",line
    2916 00000292 5200          CMPB      AL,#0                 ; [CPU_] |378| 
    2917                      .dwpsn  file "C:/ti/motorware/motorware_1_01_00_16/sw/modules/ctrl/src/32b/ctrl.h",line 1218,column 3
    2918 00000293 9794          MOV       *+XAR4[AR0],AH        ; [CPU_] |1218| 
    2919                      .dwpsn  file "C:/ti/motorware/motorware_1_01_00_16/sw/solutions/instaspin_foc/src/proj_lab03b.c",line
    2920 00000294 56C1          BF        $C$L28,EQ             ; [CPU_] |378| 
         00000295 0101 
    2921                      ; branchcc occurs ; [] |378| 
    2922                      .dwpsn  file "C:/ti/motorware/motorware_1_01_00_16/sw/modules/ctrl/src/32b/ctrl.h",line 771,column 3,
    2923 00000296 92E4          MOV       AL,*+XAR4[4]          ; [CPU_] |771| 
    2924 00000297 964B          MOV       *-SP[11],AL           ; [CPU_] |771| 
    2925 00000298 5202          CMPB      AL,#2                 ; [CPU_] |771| 
    2926 00000299 56C1          BF        $C$L24,EQ             ; [CPU_] |771| 
         0000029a 00B0 
    2927                      ; branchcc occurs ; [] |771| 
    2928                      .dwpsn  file "C:/ti/motorware/motorware_1_01_00_16/sw/solutions/instaspin_foc/src/proj_lab03b.c",line
    2929 0000029b 5203          CMPB      AL,#3                 ; [CPU_] |387| 
    2930 0000029c EC22          BF        $C$L17,EQ             ; [CPU_] |387| 
    2931                      ; branchcc occurs ; [] |387| 
    2932                      .dwpsn  file "C:/ti/motorware/motorware_1_01_00_16/sw/solutions/instaspin_foc/src/proj_lab03b.c",line
    2933 0000029d 5201          CMPB      AL,#1                 ; [CPU_] |420| 
    2934 0000029e 56C0          BF        $C$L26,NEQ            ; [CPU_] |420| 
         0000029f 00C6 
    2935                      ; branchcc occurs ; [] |420| 
    2936 000002a0 761F-         MOVW      DP,#_halHandle        ; [CPU_U] 
         000002a1 0000 
    2937                      .dwpsn  file "C:/ti/motorware/motorware_1_01_00_16/sw/modules/hal/boards/boostxldrv8301_revB/f28x/f28
    2938 000002a2 C400-         MOVL      XAR6,@_halHandle      ; [CPU_] |255| 
    2939 000002a3 83A6          MOVL      XAR5,XAR6             ; [CPU_] |255| 
    2940 000002a4 DD7E          ADDB      XAR5,#126             ; [CPU_] |255| 
    2941 000002a5 7622   EALLOW
    2942                      .dwpsn  file "C:/ti/motorware/motorware_1_01_00_16/sw/drivers/pwm/src/32b/f28x/f2802x/pwm.h",line 156
    2943 000002a6 D07C          MOVB      XAR0,#124             ; [CPU_] |1567| 
    2944 000002a7 0218          MOVB      ACC,#24               ; [CPU_] |1567| 
    2945 000002a8 0796          ADDL      ACC,*+XAR6[AR0]       ; [CPU_] |1567| 
    2946 000002a9 1EA6          MOVL      XAR6,ACC              ; [CPU_] |1567| 
    2947 000002aa 1AC6          OR        *+XAR6[0],#0x0004     ; [CPU_] |1567| 
         000002ab 0004 
    2948 000002ac 761A   EDIS
    2949 000002ad 7622   EALLOW
    2950 000002ae 0218          MOVB      ACC,#24               ; [CPU_] |1567| 
    2951 000002af 07C5          ADDL      ACC,*+XAR5[0]         ; [CPU_] |1567| 
    2952 000002b0 1EA6          MOVL      XAR6,ACC              ; [CPU_] |1567| 
    2953 000002b1 1AC6          OR        *+XAR6[0],#0x0004     ; [CPU_] |1567| 
         000002b2 0004 
    2954 000002b3 761A   EDIS
    2955 000002b4 7622   EALLOW
    2956 000002b5 0218          MOVB      ACC,#24               ; [CPU_] |1567| 
TMS320C2000 Assembler PC v6.4.11 Mon Oct 03 13:48:45 2016

Tools Copyright (c) 1996-2015 Texas Instruments Incorporated
C:\Users\bee25\AppData\Local\Temp\1032410                            PAGE   60

    2957 000002b6 07D5          ADDL      ACC,*+XAR5[2]         ; [CPU_] |1567| 
    2958 000002b7 83A9          MOVL      XAR5,ACC              ; [CPU_] |1567| 
    2959 000002b8 1AC5          OR        *+XAR5[0],#0x0004     ; [CPU_] |1567| 
         000002b9 0004 
    2960 000002ba 761A   EDIS
    2961                      .dwpsn  file "C:/ti/motorware/motorware_1_01_00_16/sw/solutions/instaspin_foc/src/proj_lab03b.c",line
    2962 000002bb 2BCA          MOV       *+XAR2[1],#0          ; [CPU_] |424| 
    2963 000002bc FFEF          B         $C$L26,UNC            ; [CPU_] |424| 
         000002bd 00A8 
    2964                      ; branch occurs ; [] |424| 
    2965 000002be       $C$L17:    
    2966 000002be 761F-         MOVW      DP,#_gMotorVars+7     ; [CPU_U] 
         000002bf 0002 
    2967                      .dwpsn  file "C:/ti/motorware/motorware_1_01_00_16/sw/solutions/instaspin_foc/src/proj_lab03b.c",line
    2968 000002c0 9207-         MOV       AL,@_gMotorVars+7     ; [CPU_] |389| 
    2969 000002c1 5201          CMPB      AL,#1                 ; [CPU_] |389| 
    2970 000002c2 EC22          BF        $C$L18,EQ             ; [CPU_] |389| 
    2971                      ; branchcc occurs ; [] |389| 
    2972 000002c3 761F-         MOVW      DP,#_halHandle        ; [CPU_U] 
         000002c4 0000 
    2973                      .dwpsn  file "C:/ti/motorware/motorware_1_01_00_16/sw/solutions/instaspin_foc/src/proj_lab03b.c",line
    2974 000002c5 C400-         MOVL      XAR6,@_halHandle      ; [CPU_] |397| 
    2975                      .dwpsn  file "C:/ti/motorware/motorware_1_01_00_16/sw/modules/hal/boards/boostxldrv8301_revB/f28x/f28
    2976 000002c6 D092          MOVB      XAR0,#146             ; [CPU_] |743| 
    2977 000002c7 28A9          MOV       AL,#17436             ; [CPU_] |743| 
         000002c8 441C 
    2978 000002c9 9B92          MOV       AH,#146               ; [CPU_] |743| 
    2979                      .dwpsn  file "C:/ti/motorware/motorware_1_01_00_16/sw/solutions/instaspin_foc/src/proj_lab03b.c",line
    2980 000002ca 83A6          MOVL      XAR5,XAR6             ; [CPU_] |397| 
    2981                      .dwpsn  file "C:/ti/motorware/motorware_1_01_00_16/sw/modules/hal/boards/boostxldrv8301_revB/f28x/f28
    2982 000002cb 1E96          MOVL      *+XAR6[AR0],ACC       ; [CPU_] |743| 
    2983 000002cc D018          MOVB      XAR0,#24              ; [CPU_] |743| 
    2984 000002cd 28A9          MOV       AL,#44718             ; [CPU_] |743| 
         000002ce AEAE 
    2985 000002cf 9B91          MOV       AH,#145               ; [CPU_] |743| 
    2986                      .dwpsn  file "C:/ti/motorware/motorware_1_01_00_16/sw/solutions/instaspin_foc/src/proj_lab03b.c",line
    2987 000002d0 DD7C          ADDB      XAR5,#124             ; [CPU_] |397| 
    2988                      .dwpsn  file "C:/ti/motorware/motorware_1_01_00_16/sw/modules/hal/boards/boostxldrv8301_revB/f28x/f28
    2989 000002d1 769D          MOVL      XAR6,#1917563         ; [CPU_U] |747| 
         000002d2 427B 
    2990                      .dwpsn  file "C:/ti/motorware/motorware_1_01_00_16/sw/modules/hal/boards/boostxldrv8301_revB/f28x/f28
    2991 000002d3 1E95          MOVL      *+XAR5[AR0],ACC       ; [CPU_] |743| 
    2992 000002d4 D01A          MOVB      XAR0,#26              ; [CPU_] |743| 
    2993 000002d5 28A9          MOV       AL,#42940             ; [CPU_] |743| 
         000002d6 A7BC 
    2994 000002d7 9B92          MOV       AH,#146               ; [CPU_] |743| 
    2995 000002d8 1E95          MOVL      *+XAR5[AR0],ACC       ; [CPU_] |743| 
    2996                      .dwpsn  file "C:/ti/motorware/motorware_1_01_00_16/sw/modules/hal/boards/boostxldrv8301_revB/f28x/f28
